TI ARM Assembler PC v20.2.6 Mon Oct 31 23:16:55 2022

Copyright (c) 1996-2018 Texas Instruments Incorporated
Clock.asm                                                            PAGE    1

       1                    ;******************************************************************************
       2                    ;* TI ARM G3 C/C++ Codegen                                              PC v20.2.6.LTS *
       3                    ;* Date/Time created: Mon Oct 31 23:16:54 2022                                *
       4                    ;******************************************************************************
       5                            .compiler_opts --abi=eabi --arm_vmrs_si_workaround=off --code_state=16 --diag_wrap=off --embed
       6 00000000                   .thumb
       7                    
       8                    $C$DW$CU        .dwtag  DW_TAG_compile_unit
       9                            .dwattr $C$DW$CU, DW_AT_name("D:/Y2S1/SC2107 Lab/inc/Clock.c")
      10                            .dwattr $C$DW$CU, DW_AT_producer("TI TI ARM G3 C/C++ Codegen PC v20.2.6.LTS Copyright (c) 1996
      11                            .dwattr $C$DW$CU, DW_AT_TI_version(0x01)
      12                            .dwattr $C$DW$CU, DW_AT_comp_dir("D:\Y2S1\SC2107 Lab\Lab1_C_Programming\Debug")
      13                            .global ClockFrequency
      14 00000000                   .data
      15                            .align  4
      16                            .elfsym ClockFrequency,SYM_SIZE(4)
      17 00000000           ClockFrequency:
      18 00000000 002DC6C0          .bits           0x2dc6c0,32
      19                                            ; ClockFrequency @ 0
      20                    
      21                    $C$DW$1 .dwtag  DW_TAG_variable
      22                            .dwattr $C$DW$1, DW_AT_name("ClockFrequency")
      23                            .dwattr $C$DW$1, DW_AT_TI_symbol_name("ClockFrequency")
      24                            .dwattr $C$DW$1, DW_AT_location[DW_OP_addr ClockFrequency]
      25                            .dwattr $C$DW$1, DW_AT_type(*$C$DW$T$22)
      26                            .dwattr $C$DW$1, DW_AT_external
      27                            .dwattr $C$DW$1, DW_AT_decl_file("D:/Y2S1/SC2107 Lab/inc/Clock.c")
      28                            .dwattr $C$DW$1, DW_AT_decl_line(0x2f)
      29                            .dwattr $C$DW$1, DW_AT_decl_column(0x0a)
      30                    
      31                            .global Prewait
      32 00000004                   .data
      33                            .align  4
      34                            .elfsym Prewait,SYM_SIZE(4)
      35 00000004           Prewait:
      36 00000004 00000000          .bits           0,32
      37                                            ; Prewait @ 0
      38                    
      39                    $C$DW$2 .dwtag  DW_TAG_variable
      40                            .dwattr $C$DW$2, DW_AT_name("Prewait")
      41                            .dwattr $C$DW$2, DW_AT_TI_symbol_name("Prewait")
      42                            .dwattr $C$DW$2, DW_AT_location[DW_OP_addr Prewait]
      43                            .dwattr $C$DW$2, DW_AT_type(*$C$DW$T$22)
      44                            .dwattr $C$DW$2, DW_AT_external
      45                            .dwattr $C$DW$2, DW_AT_decl_file("D:/Y2S1/SC2107 Lab/inc/Clock.c")
      46                            .dwattr $C$DW$2, DW_AT_decl_line(0x3a)
      47                            .dwattr $C$DW$2, DW_AT_decl_column(0x0a)
      48                    
      49                            .global CPMwait
      50 00000008                   .data
      51                            .align  4
      52                            .elfsym CPMwait,SYM_SIZE(4)
      53 00000008           CPMwait:
      54 00000008 00000000          .bits           0,32
      55                                            ; CPMwait @ 0
TI ARM Assembler PC v20.2.6 Mon Oct 31 23:16:55 2022

Copyright (c) 1996-2018 Texas Instruments Incorporated
Clock.asm                                                            PAGE    2

      56                    
      57                    $C$DW$3 .dwtag  DW_TAG_variable
      58                            .dwattr $C$DW$3, DW_AT_name("CPMwait")
      59                            .dwattr $C$DW$3, DW_AT_TI_symbol_name("CPMwait")
      60                            .dwattr $C$DW$3, DW_AT_location[DW_OP_addr CPMwait]
      61                            .dwattr $C$DW$3, DW_AT_type(*$C$DW$T$22)
      62                            .dwattr $C$DW$3, DW_AT_external
      63                            .dwattr $C$DW$3, DW_AT_decl_file("D:/Y2S1/SC2107 Lab/inc/Clock.c")
      64                            .dwattr $C$DW$3, DW_AT_decl_line(0x3b)
      65                            .dwattr $C$DW$3, DW_AT_decl_column(0x0a)
      66                    
      67                            .global Postwait
      68 0000000c                   .data
      69                            .align  4
      70                            .elfsym Postwait,SYM_SIZE(4)
      71 0000000c           Postwait:
      72 0000000c 00000000          .bits           0,32
      73                                            ; Postwait @ 0
      74                    
      75                    $C$DW$4 .dwtag  DW_TAG_variable
      76                            .dwattr $C$DW$4, DW_AT_name("Postwait")
      77                            .dwattr $C$DW$4, DW_AT_TI_symbol_name("Postwait")
      78                            .dwattr $C$DW$4, DW_AT_location[DW_OP_addr Postwait]
      79                            .dwattr $C$DW$4, DW_AT_type(*$C$DW$T$22)
      80                            .dwattr $C$DW$4, DW_AT_external
      81                            .dwattr $C$DW$4, DW_AT_decl_file("D:/Y2S1/SC2107 Lab/inc/Clock.c")
      82                            .dwattr $C$DW$4, DW_AT_decl_line(0x3c)
      83                            .dwattr $C$DW$4, DW_AT_decl_column(0x0a)
      84                    
      85                            .global IFlags
      86 00000010                   .data
      87                            .align  4
      88                            .elfsym IFlags,SYM_SIZE(4)
      89 00000010           IFlags:
      90 00000010 00000000          .bits           0,32
      91                                            ; IFlags @ 0
      92                    
      93                    $C$DW$5 .dwtag  DW_TAG_variable
      94                            .dwattr $C$DW$5, DW_AT_name("IFlags")
      95                            .dwattr $C$DW$5, DW_AT_TI_symbol_name("IFlags")
      96                            .dwattr $C$DW$5, DW_AT_location[DW_OP_addr IFlags]
      97                            .dwattr $C$DW$5, DW_AT_type(*$C$DW$T$22)
      98                            .dwattr $C$DW$5, DW_AT_external
      99                            .dwattr $C$DW$5, DW_AT_decl_file("D:/Y2S1/SC2107 Lab/inc/Clock.c")
     100                            .dwattr $C$DW$5, DW_AT_decl_line(0x3d)
     101                            .dwattr $C$DW$5, DW_AT_decl_column(0x0a)
     102                    
     103                            .global Crystalstable
     104 00000014                   .data
     105                            .align  4
     106                            .elfsym Crystalstable,SYM_SIZE(4)
     107 00000014           Crystalstable:
     108 00000014 00000000          .bits           0,32
     109                                            ; Crystalstable @ 0
     110                    
TI ARM Assembler PC v20.2.6 Mon Oct 31 23:16:55 2022

Copyright (c) 1996-2018 Texas Instruments Incorporated
Clock.asm                                                            PAGE    3

     111                    $C$DW$6 .dwtag  DW_TAG_variable
     112                            .dwattr $C$DW$6, DW_AT_name("Crystalstable")
     113                            .dwattr $C$DW$6, DW_AT_TI_symbol_name("Crystalstable")
     114                            .dwattr $C$DW$6, DW_AT_location[DW_OP_addr Crystalstable]
     115                            .dwattr $C$DW$6, DW_AT_type(*$C$DW$T$22)
     116                            .dwattr $C$DW$6, DW_AT_external
     117                            .dwattr $C$DW$6, DW_AT_decl_file("D:/Y2S1/SC2107 Lab/inc/Clock.c")
     118                            .dwattr $C$DW$6, DW_AT_decl_line(0x3e)
     119                            .dwattr $C$DW$6, DW_AT_decl_column(0x0a)
     120                    
     121                    ;       C:\ti\ccs1200\ccs\tools\compiler\ti-cgt-arm_20.2.6.LTS\bin\armacpia.exe -@C:\\Users\\daych\\Ap
     122 00000000                   .sect   ".text"
     123                            .clink
     124                            .thumbfunc Clock_Init48MHz
     125 00000000                   .thumb
     126                            .global Clock_Init48MHz
     127                    
     128                    $C$DW$7 .dwtag  DW_TAG_subprogram
     129                            .dwattr $C$DW$7, DW_AT_name("Clock_Init48MHz")
     130                            .dwattr $C$DW$7, DW_AT_low_pc(Clock_Init48MHz)
     131                            .dwattr $C$DW$7, DW_AT_high_pc(0x00)
     132                            .dwattr $C$DW$7, DW_AT_TI_symbol_name("Clock_Init48MHz")
     133                            .dwattr $C$DW$7, DW_AT_external
     134                            .dwattr $C$DW$7, DW_AT_TI_begin_file("D:/Y2S1/SC2107 Lab/inc/Clock.c")
     135                            .dwattr $C$DW$7, DW_AT_TI_begin_line(0x3f)
     136                            .dwattr $C$DW$7, DW_AT_TI_begin_column(0x06)
     137                            .dwattr $C$DW$7, DW_AT_decl_file("D:/Y2S1/SC2107 Lab/inc/Clock.c")
     138                            .dwattr $C$DW$7, DW_AT_decl_line(0x3f)
     139                            .dwattr $C$DW$7, DW_AT_decl_column(0x06)
     140                            .dwattr $C$DW$7, DW_AT_TI_max_frame_size(0x00)
     141                            .dwpsn  file "D:/Y2S1/SC2107 Lab/inc/Clock.c",line 63,column 27,is_stmt,address Clock_Init48MH
     142                    
     143                            .dwfde $C$DW$CIE, Clock_Init48MHz
     144                    
     145                    ;*****************************************************************************
     146                    ;* FUNCTION NAME: Clock_Init48MHz                                            *
     147                    ;*                                                                           *
     148                    ;*   Regs Modified     : A1,A2,A3,A4,SR                                      *
     149                    ;*   Regs Used         : A1,A2,A3,A4,LR,SR                                   *
     150                    ;*   Local Frame Size  : 0 Args + 0 Auto + 0 Save = 0 byte                   *
     151                    ;*****************************************************************************
     152 00000000           Clock_Init48MHz:
     153                    ;* --------------------------------------------------------------------------*
     154                            .dwcfi  cfa_offset, 0
     155                            .dwpsn  file "D:/Y2S1/SC2107 Lab/inc/Clock.c",line 65,column 3,is_stmt,isa 1
     156 00000000 E009              B         ||$C$L2||             ; [DPU_V7M3_PIPE] |65|  ; [ORIG 16-BIT INS]
     157                            ; BRANCH OCCURS {||$C$L2||}      ; [] |65| 
     158                    ;* --------------------------------------------------------------------------*
     159 00000002           ||$C$L1||:    
     160                            .dwpsn  file "D:/Y2S1/SC2107 Lab/inc/Clock.c",line 67,column 5,is_stmt,isa 1
     161 00000002 485E              LDR       A1, $C$CON1           ; [DPU_V7M3_PIPE] |67|  ; [ORIG 16-BIT INS]
     162 00000004 495D              LDR       A2, $C$CON1           ; [DPU_V7M3_PIPE] |67|  ; [ORIG 16-BIT INS]
     163 00000006 6800              LDR       A1, [A1, #0]          ; [DPU_V7M3_PIPE] |67|  ; [ORIG 16-BIT INS]
     164 00000008 1C40              ADDS      A1, A1, #1            ; [DPU_V7M3_PIPE] |67|  ; [ORIG 16-BIT INS]
     165 0000000a 6008              STR       A1, [A2, #0]          ; [DPU_V7M3_PIPE] |67|  ; [ORIG 16-BIT INS]
TI ARM Assembler PC v20.2.6 Mon Oct 31 23:16:55 2022

Copyright (c) 1996-2018 Texas Instruments Incorporated
Clock.asm                                                            PAGE    4

     166                            .dwpsn  file "D:/Y2S1/SC2107 Lab/inc/Clock.c",line 68,column 5,is_stmt,isa 1
     167 0000000c 485B              LDR       A1, $C$CON1           ; [DPU_V7M3_PIPE] |68|  ; [ORIG 16-BIT INS]
     168 0000000e 495C              LDR       A2, $C$CON2           ; [DPU_V7M3_PIPE] |68|  ; [ORIG 16-BIT INS]
     169 00000010 6800              LDR       A1, [A1, #0]          ; [DPU_V7M3_PIPE] |68|  ; [ORIG 16-BIT INS]
     170 00000012 4281              CMP       A2, A1                ; [DPU_V7M3_PIPE] |68|  ; [ORIG 16-BIT INS]
     171 00000014 D97E              BLS       ||$C$L9||             ; [DPU_V7M3_PIPE] |68|  ; [ORIG 16-BIT INS]
     172                            ; BRANCHCC OCCURS {||$C$L9||}    ; [] |68| 
     173                    ;* --------------------------------------------------------------------------*
     174                            .dwpsn  file "D:/Y2S1/SC2107 Lab/inc/Clock.c",line 69,column 7,is_stmt,isa 1
     175                    ;* --------------------------------------------------------------------------*
     176                    ;*   BEGIN LOOP ||$C$L2||
     177                    ;* --------------------------------------------------------------------------*
     178 00000016           ||$C$L2||:    
     179                            .dwpsn  file "D:/Y2S1/SC2107 Lab/inc/Clock.c",line 65,column 3,is_stmt,isa 1
     180 00000016 485B              LDR       A1, $C$CON3           ; [DPU_V7M3_PIPE] |65|  ; [ORIG 16-BIT INS]
     181 00000018 6800              LDR       A1, [A1, #0]          ; [DPU_V7M3_PIPE] |65|  ; [ORIG 16-BIT INS]
     182 0000001a 0A40              LSRS      A1, A1, #9            ; [DPU_V7M3_PIPE] |65|  ; [ORIG 16-BIT INS]
     183 0000001c D2F1              BCS       ||$C$L1||             ; [DPU_V7M3_PIPE] |65|  ; [ORIG 16-BIT INS]
     184                            ; BRANCHCC OCCURS {||$C$L1||}    ; [] |65| 
     185                    ;* --------------------------------------------------------------------------*
     186                            .dwpsn  file "D:/Y2S1/SC2107 Lab/inc/Clock.c",line 73,column 3,is_stmt,isa 1
     187 0000001e 485A              LDR       A1, $C$CON4           ; [DPU_V7M3_PIPE] |73|  ; [ORIG 16-BIT INS]
     188 00000020 495A              LDR       A2, $C$CON5           ; [DPU_V7M3_PIPE] |73|  ; [ORIG 16-BIT INS]
     189 00000022 6803              LDR       A4, [A1, #0]          ; [DPU_V7M3_PIPE] |73|  ; [ORIG 16-BIT INS]
     190 00000024 4A58              LDR       A3, $C$CON4           ; [DPU_V7M3_PIPE] |73|  ; [ORIG 16-BIT INS]
     191 00000026 70F0F64F          MOV       A1, #65520            ; [DPU_V7M3_PIPE] |73|  ; [KEEP 32-BIT INS]
     192 0000002a 4018              ANDS      A1, A1, A4            ; [DPU_V7M3_PIPE] |73|  ; [ORIG 16-BIT INS]
     193 0000002c 4301              ORRS      A2, A2, A1            ; [DPU_V7M3_PIPE] |73|  ; [ORIG 16-BIT INS]
     194 0000002e 6011              STR       A2, [A3, #0]          ; [DPU_V7M3_PIPE] |73|  ; [ORIG 16-BIT INS]
     195                            .dwpsn  file "D:/Y2S1/SC2107 Lab/inc/Clock.c",line 78,column 3,is_stmt,isa 1
     196 00000030 4857              LDR       A1, $C$CON6           ; [DPU_V7M3_PIPE] |78|  ; [ORIG 16-BIT INS]
     197 00000032 6800              LDR       A1, [A1, #0]          ; [DPU_V7M3_PIPE] |78|  ; [ORIG 16-BIT INS]
     198 00000034 08C0              LSRS      A1, A1, #3            ; [DPU_V7M3_PIPE] |78|  ; [ORIG 16-BIT INS]
     199 00000036 D311              BCC       ||$C$L4||             ; [DPU_V7M3_PIPE] |78|  ; [ORIG 16-BIT INS]
     200                            ; BRANCHCC OCCURS {||$C$L4||}    ; [] |78| 
     201                    ;* --------------------------------------------------------------------------*
     202                            .dwpsn  file "D:/Y2S1/SC2107 Lab/inc/Clock.c",line 79,column 5,is_stmt,isa 1
     203 00000038 4855              LDR       A1, $C$CON6           ; [DPU_V7M3_PIPE] |79|  ; [ORIG 16-BIT INS]
     204 0000003a 4956              LDR       A2, $C$CON7           ; [DPU_V7M3_PIPE] |79|  ; [ORIG 16-BIT INS]
     205 0000003c 6800              LDR       A1, [A1, #0]          ; [DPU_V7M3_PIPE] |79|  ; [ORIG 16-BIT INS]
     206 0000003e 6008              STR       A1, [A2, #0]          ; [DPU_V7M3_PIPE] |79|  ; [ORIG 16-BIT INS]
     207                            .dwpsn  file "D:/Y2S1/SC2107 Lab/inc/Clock.c",line 80,column 5,is_stmt,isa 1
     208 00000040 4955              LDR       A2, $C$CON8           ; [DPU_V7M3_PIPE] |80|  ; [ORIG 16-BIT INS]
     209 00000042 2004              MOVS      A1, #4                ; [DPU_V7M3_PIPE] |80|  ; [ORIG 16-BIT INS]
     210 00000044 6008              STR       A1, [A2, #0]          ; [DPU_V7M3_PIPE] |80|  ; [ORIG 16-BIT INS]
     211                            .dwpsn  file "D:/Y2S1/SC2107 Lab/inc/Clock.c",line 83,column 5,is_stmt,isa 1
     212 00000046 E065              B         ||$C$L9||             ; [DPU_V7M3_PIPE] |83|  ; [ORIG 16-BIT INS]
     213                            ; BRANCH OCCURS {||$C$L9||}      ; [] |83| 
     214                    ;* --------------------------------------------------------------------------*
     215                    ;* --------------------------------------------------------------------------*
     216 00000048           ||$C$L3||:    
     217                            .dwpsn  file "D:/Y2S1/SC2107 Lab/inc/Clock.c",line 87,column 5,is_stmt,isa 1
     218 00000048 4854              LDR       A1, $C$CON9           ; [DPU_V7M3_PIPE] |87|  ; [ORIG 16-BIT INS]
     219 0000004a 4954              LDR       A2, $C$CON9           ; [DPU_V7M3_PIPE] |87|  ; [ORIG 16-BIT INS]
     220 0000004c 6800              LDR       A1, [A1, #0]          ; [DPU_V7M3_PIPE] |87|  ; [ORIG 16-BIT INS]
TI ARM Assembler PC v20.2.6 Mon Oct 31 23:16:55 2022

Copyright (c) 1996-2018 Texas Instruments Incorporated
Clock.asm                                                            PAGE    5

     221 0000004e 1C40              ADDS      A1, A1, #1            ; [DPU_V7M3_PIPE] |87|  ; [ORIG 16-BIT INS]
     222 00000050 6008              STR       A1, [A2, #0]          ; [DPU_V7M3_PIPE] |87|  ; [ORIG 16-BIT INS]
     223                            .dwpsn  file "D:/Y2S1/SC2107 Lab/inc/Clock.c",line 88,column 5,is_stmt,isa 1
     224 00000052 4852              LDR       A1, $C$CON9           ; [DPU_V7M3_PIPE] |88|  ; [ORIG 16-BIT INS]
     225 00000054 4952              LDR       A2, $C$CON10          ; [DPU_V7M3_PIPE] |88|  ; [ORIG 16-BIT INS]
     226 00000056 6800              LDR       A1, [A1, #0]          ; [DPU_V7M3_PIPE] |88|  ; [ORIG 16-BIT INS]
     227 00000058 4281              CMP       A2, A1                ; [DPU_V7M3_PIPE] |88|  ; [ORIG 16-BIT INS]
     228 0000005a D95B              BLS       ||$C$L9||             ; [DPU_V7M3_PIPE] |88|  ; [ORIG 16-BIT INS]
     229                            ; BRANCHCC OCCURS {||$C$L9||}    ; [] |88| 
     230                    ;* --------------------------------------------------------------------------*
     231                            .dwpsn  file "D:/Y2S1/SC2107 Lab/inc/Clock.c",line 89,column 7,is_stmt,isa 1
     232                    ;* --------------------------------------------------------------------------*
     233                    ;*   BEGIN LOOP ||$C$L4||
     234                    ;* --------------------------------------------------------------------------*
     235 0000005c           ||$C$L4||:    
     236                            .dwpsn  file "D:/Y2S1/SC2107 Lab/inc/Clock.c",line 86,column 9,is_stmt,isa 1
     237 0000005c 484A              LDR       A1, $C$CON4           ; [DPU_V7M3_PIPE] |86|  ; [ORIG 16-BIT INS]
     238 0000005e 6800              LDR       A1, [A1, #0]          ; [DPU_V7M3_PIPE] |86|  ; [ORIG 16-BIT INS]
     239 00000060 507CF400          AND       A1, A1, #16128        ; [DPU_V7M3_PIPE] |86|  ; [KEEP 32-BIT INS]
     240 00000064 7F80F5B0          CMP       A1, #256              ; [DPU_V7M3_PIPE] |86|  ; [KEEP 32-BIT INS]
     241 00000068 D1EE              BNE       ||$C$L3||             ; [DPU_V7M3_PIPE] |86|  ; [ORIG 16-BIT INS]
     242                            ; BRANCHCC OCCURS {||$C$L3||}    ; [] |86| 
     243                    ;* --------------------------------------------------------------------------*
     244                            .dwpsn  file "D:/Y2S1/SC2107 Lab/inc/Clock.c",line 93,column 3,is_stmt,isa 1
     245 0000006a E009              B         ||$C$L6||             ; [DPU_V7M3_PIPE] |93|  ; [ORIG 16-BIT INS]
     246                            ; BRANCH OCCURS {||$C$L6||}      ; [] |93| 
     247                    ;* --------------------------------------------------------------------------*
     248 0000006c           ||$C$L5||:    
     249                            .dwpsn  file "D:/Y2S1/SC2107 Lab/inc/Clock.c",line 94,column 5,is_stmt,isa 1
     250 0000006c 484D              LDR       A1, $C$CON11          ; [DPU_V7M3_PIPE] |94|  ; [ORIG 16-BIT INS]
     251 0000006e 494D              LDR       A2, $C$CON11          ; [DPU_V7M3_PIPE] |94|  ; [ORIG 16-BIT INS]
     252 00000070 6800              LDR       A1, [A1, #0]          ; [DPU_V7M3_PIPE] |94|  ; [ORIG 16-BIT INS]
     253 00000072 1C40              ADDS      A1, A1, #1            ; [DPU_V7M3_PIPE] |94|  ; [ORIG 16-BIT INS]
     254 00000074 6008              STR       A1, [A2, #0]          ; [DPU_V7M3_PIPE] |94|  ; [ORIG 16-BIT INS]
     255                            .dwpsn  file "D:/Y2S1/SC2107 Lab/inc/Clock.c",line 95,column 5,is_stmt,isa 1
     256 00000076 484B              LDR       A1, $C$CON11          ; [DPU_V7M3_PIPE] |95|  ; [ORIG 16-BIT INS]
     257 00000078 4941              LDR       A2, $C$CON2           ; [DPU_V7M3_PIPE] |95|  ; [ORIG 16-BIT INS]
     258 0000007a 6800              LDR       A1, [A1, #0]          ; [DPU_V7M3_PIPE] |95|  ; [ORIG 16-BIT INS]
     259 0000007c 4281              CMP       A2, A1                ; [DPU_V7M3_PIPE] |95|  ; [ORIG 16-BIT INS]
     260 0000007e D949              BLS       ||$C$L9||             ; [DPU_V7M3_PIPE] |95|  ; [ORIG 16-BIT INS]
     261                            ; BRANCHCC OCCURS {||$C$L9||}    ; [] |95| 
     262                    ;* --------------------------------------------------------------------------*
     263                            .dwpsn  file "D:/Y2S1/SC2107 Lab/inc/Clock.c",line 96,column 7,is_stmt,isa 1
     264                    ;* --------------------------------------------------------------------------*
     265                    ;*   BEGIN LOOP ||$C$L6||
     266                    ;* --------------------------------------------------------------------------*
     267 00000080           ||$C$L6||:    
     268                            .dwpsn  file "D:/Y2S1/SC2107 Lab/inc/Clock.c",line 93,column 3,is_stmt,isa 1
     269 00000080 4840              LDR       A1, $C$CON3           ; [DPU_V7M3_PIPE] |93|  ; [ORIG 16-BIT INS]
     270 00000082 6800              LDR       A1, [A1, #0]          ; [DPU_V7M3_PIPE] |93|  ; [ORIG 16-BIT INS]
     271 00000084 0A40              LSRS      A1, A1, #9            ; [DPU_V7M3_PIPE] |93|  ; [ORIG 16-BIT INS]
     272 00000086 D2F1              BCS       ||$C$L5||             ; [DPU_V7M3_PIPE] |93|  ; [ORIG 16-BIT INS]
     273                            ; BRANCHCC OCCURS {||$C$L5||}    ; [] |93| 
     274                    ;* --------------------------------------------------------------------------*
     275                            .dwpsn  file "D:/Y2S1/SC2107 Lab/inc/Clock.c",line 100,column 3,is_stmt,isa 1
TI ARM Assembler PC v20.2.6 Mon Oct 31 23:16:55 2022

Copyright (c) 1996-2018 Texas Instruments Incorporated
Clock.asm                                                            PAGE    6

     276 00000088 4947              LDR       A2, $C$CON12          ; [DPU_V7M3_PIPE] |100|  ; [ORIG 16-BIT INS]
     277 0000008a 8808              LDRH      A1, [A2, #0]          ; [DPU_V7M3_PIPE] |100|  ; [ORIG 16-BIT INS]
     278 0000008c 000CF040          ORR       A1, A1, #12           ; [DPU_V7M3_PIPE] |100|  ; [KEEP 32-BIT INS]
     279 00000090 8008              STRH      A1, [A2, #0]          ; [DPU_V7M3_PIPE] |100|  ; [ORIG 16-BIT INS]
     280                            .dwpsn  file "D:/Y2S1/SC2107 Lab/inc/Clock.c",line 101,column 3,is_stmt,isa 1
     281 00000092 4946              LDR       A2, $C$CON13          ; [DPU_V7M3_PIPE] |101|  ; [ORIG 16-BIT INS]
     282 00000094 8808              LDRH      A1, [A2, #0]          ; [DPU_V7M3_PIPE] |101|  ; [ORIG 16-BIT INS]
     283 00000096 000CF020          BIC       A1, A1, #12           ; [DPU_V7M3_PIPE] |101|  ; [KEEP 32-BIT INS]
     284 0000009a 8008              STRH      A1, [A2, #0]          ; [DPU_V7M3_PIPE] |101|  ; [ORIG 16-BIT INS]
     285                            .dwpsn  file "D:/Y2S1/SC2107 Lab/inc/Clock.c",line 104,column 3,is_stmt,isa 1
     286 0000009c 4944              LDR       A2, $C$CON14          ; [DPU_V7M3_PIPE] |104|  ; [ORIG 16-BIT INS]
     287 0000009e 105AF646          MOV       A1, #26970            ; [DPU_V7M3_PIPE] |104|  ; [KEEP 32-BIT INS]
     288 000000a2 6008              STR       A1, [A2, #0]          ; [DPU_V7M3_PIPE] |104|  ; [ORIG 16-BIT INS]
     289                            .dwpsn  file "D:/Y2S1/SC2107 Lab/inc/Clock.c",line 105,column 3,is_stmt,isa 1
     290 000000a4 4843              LDR       A1, $C$CON15          ; [DPU_V7M3_PIPE] |105|  ; [ORIG 16-BIT INS]
     291 000000a6 4A43              LDR       A3, $C$CON15          ; [DPU_V7M3_PIPE] |105|  ; [ORIG 16-BIT INS]
     292 000000a8 4943              LDR       A2, $C$CON16          ; [DPU_V7M3_PIPE] |105|  ; [ORIG 16-BIT INS]
     293 000000aa 6800              LDR       A1, [A1, #0]          ; [DPU_V7M3_PIPE] |105|  ; [ORIG 16-BIT INS]
     294 000000ac 00E0F420          BIC       A1, A1, #7340032      ; [DPU_V7M3_PIPE] |105|  ; [KEEP 32-BIT INS]
     295 000000b0 4301              ORRS      A2, A2, A1            ; [DPU_V7M3_PIPE] |105|  ; [ORIG 16-BIT INS]
     296 000000b2 6011              STR       A2, [A3, #0]          ; [DPU_V7M3_PIPE] |105|  ; [ORIG 16-BIT INS]
     297                            .dwpsn  file "D:/Y2S1/SC2107 Lab/inc/Clock.c",line 109,column 3,is_stmt,isa 1
     298 000000b4 493F              LDR       A2, $C$CON15          ; [DPU_V7M3_PIPE] |109|  ; [ORIG 16-BIT INS]
     299 000000b6 6808              LDR       A1, [A2, #0]          ; [DPU_V7M3_PIPE] |109|  ; [ORIG 16-BIT INS]
     300 000000b8 7000F020          BIC       A1, A1, #33554432     ; [DPU_V7M3_PIPE] |109|  ; [KEEP 32-BIT INS]
     301 000000bc 6008              STR       A1, [A2, #0]          ; [DPU_V7M3_PIPE] |109|  ; [ORIG 16-BIT INS]
     302                            .dwpsn  file "D:/Y2S1/SC2107 Lab/inc/Clock.c",line 111,column 3,is_stmt,isa 1
     303 000000be E00C              B         ||$C$L8||             ; [DPU_V7M3_PIPE] |111|  ; [ORIG 16-BIT INS]
     304                            ; BRANCH OCCURS {||$C$L8||}      ; [] |111| 
     305                    ;* --------------------------------------------------------------------------*
     306 000000c0           ||$C$L7||:    
     307                            .dwpsn  file "D:/Y2S1/SC2107 Lab/inc/Clock.c",line 112,column 5,is_stmt,isa 1
     308 000000c0 493E              LDR       A2, $C$CON17          ; [DPU_V7M3_PIPE] |112|  ; [ORIG 16-BIT INS]
     309 000000c2 2002              MOVS      A1, #2                ; [DPU_V7M3_PIPE] |112|  ; [ORIG 16-BIT INS]
     310 000000c4 6008              STR       A1, [A2, #0]          ; [DPU_V7M3_PIPE] |112|  ; [ORIG 16-BIT INS]
     311                            .dwpsn  file "D:/Y2S1/SC2107 Lab/inc/Clock.c",line 113,column 5,is_stmt,isa 1
     312 000000c6 483E              LDR       A1, $C$CON18          ; [DPU_V7M3_PIPE] |113|  ; [ORIG 16-BIT INS]
     313 000000c8 493D              LDR       A2, $C$CON18          ; [DPU_V7M3_PIPE] |113|  ; [ORIG 16-BIT INS]
     314 000000ca 6800              LDR       A1, [A1, #0]          ; [DPU_V7M3_PIPE] |113|  ; [ORIG 16-BIT INS]
     315 000000cc 1C40              ADDS      A1, A1, #1            ; [DPU_V7M3_PIPE] |113|  ; [ORIG 16-BIT INS]
     316 000000ce 6008              STR       A1, [A2, #0]          ; [DPU_V7M3_PIPE] |113|  ; [ORIG 16-BIT INS]
     317                            .dwpsn  file "D:/Y2S1/SC2107 Lab/inc/Clock.c",line 114,column 5,is_stmt,isa 1
     318 000000d0 483B              LDR       A1, $C$CON18          ; [DPU_V7M3_PIPE] |114|  ; [ORIG 16-BIT INS]
     319 000000d2 492B              LDR       A2, $C$CON2           ; [DPU_V7M3_PIPE] |114|  ; [ORIG 16-BIT INS]
     320 000000d4 6800              LDR       A1, [A1, #0]          ; [DPU_V7M3_PIPE] |114|  ; [ORIG 16-BIT INS]
     321 000000d6 4281              CMP       A2, A1                ; [DPU_V7M3_PIPE] |114|  ; [ORIG 16-BIT INS]
     322 000000d8 D31C              BCC       ||$C$L9||             ; [DPU_V7M3_PIPE] |114|  ; [ORIG 16-BIT INS]
     323                            ; BRANCHCC OCCURS {||$C$L9||}    ; [] |114| 
     324                    ;* --------------------------------------------------------------------------*
     325                            .dwpsn  file "D:/Y2S1/SC2107 Lab/inc/Clock.c",line 115,column 7,is_stmt,isa 1
     326                    ;* --------------------------------------------------------------------------*
     327                    ;*   BEGIN LOOP ||$C$L8||
     328                    ;* --------------------------------------------------------------------------*
     329 000000da           ||$C$L8||:    
     330                            .dwpsn  file "D:/Y2S1/SC2107 Lab/inc/Clock.c",line 111,column 3,is_stmt,isa 1
TI ARM Assembler PC v20.2.6 Mon Oct 31 23:16:55 2022

Copyright (c) 1996-2018 Texas Instruments Incorporated
Clock.asm                                                            PAGE    7

     331 000000da 483A              LDR       A1, $C$CON19          ; [DPU_V7M3_PIPE] |111|  ; [ORIG 16-BIT INS]
     332 000000dc 6800              LDR       A1, [A1, #0]          ; [DPU_V7M3_PIPE] |111|  ; [ORIG 16-BIT INS]
     333 000000de 0880              LSRS      A1, A1, #2            ; [DPU_V7M3_PIPE] |111|  ; [ORIG 16-BIT INS]
     334 000000e0 D2EE              BCS       ||$C$L7||             ; [DPU_V7M3_PIPE] |111|  ; [ORIG 16-BIT INS]
     335                            ; BRANCHCC OCCURS {||$C$L7||}    ; [] |111| 
     336                    ;* --------------------------------------------------------------------------*
     337                            .dwpsn  file "D:/Y2S1/SC2107 Lab/inc/Clock.c",line 119,column 3,is_stmt,isa 1
     338 000000e2 4839              LDR       A1, $C$CON20          ; [DPU_V7M3_PIPE] |119|  ; [ORIG 16-BIT INS]
     339 000000e4 4938              LDR       A2, $C$CON20          ; [DPU_V7M3_PIPE] |119|  ; [ORIG 16-BIT INS]
     340 000000e6 6800              LDR       A1, [A1, #0]          ; [DPU_V7M3_PIPE] |119|  ; [ORIG 16-BIT INS]
     341 000000e8 4070F420          BIC       A1, A1, #61440        ; [DPU_V7M3_PIPE] |119|  ; [KEEP 32-BIT INS]
     342 000000ec 5000F440          ORR       A1, A1, #8192         ; [DPU_V7M3_PIPE] |119|  ; [KEEP 32-BIT INS]
     343 000000f0 6008              STR       A1, [A2, #0]          ; [DPU_V7M3_PIPE] |119|  ; [ORIG 16-BIT INS]
     344                            .dwpsn  file "D:/Y2S1/SC2107 Lab/inc/Clock.c",line 121,column 3,is_stmt,isa 1
     345 000000f2 4836              LDR       A1, $C$CON21          ; [DPU_V7M3_PIPE] |121|  ; [ORIG 16-BIT INS]
     346 000000f4 4935              LDR       A2, $C$CON21          ; [DPU_V7M3_PIPE] |121|  ; [ORIG 16-BIT INS]
     347 000000f6 6800              LDR       A1, [A1, #0]          ; [DPU_V7M3_PIPE] |121|  ; [ORIG 16-BIT INS]
     348 000000f8 4070F420          BIC       A1, A1, #61440        ; [DPU_V7M3_PIPE] |121|  ; [KEEP 32-BIT INS]
     349 000000fc 5000F440          ORR       A1, A1, #8192         ; [DPU_V7M3_PIPE] |121|  ; [KEEP 32-BIT INS]
     350 00000100 6008              STR       A1, [A2, #0]          ; [DPU_V7M3_PIPE] |121|  ; [ORIG 16-BIT INS]
     351                            .dwpsn  file "D:/Y2S1/SC2107 Lab/inc/Clock.c",line 122,column 3,is_stmt,isa 1
     352 00000102 4834              LDR       A1, $C$CON23          ; [DPU_V7M3_PIPE] |122|  ; [ORIG 16-BIT INS]
     353 00000104 4932              LDR       A2, $C$CON22          ; [DPU_V7M3_PIPE] |122|  ; [ORIG 16-BIT INS]
     354 00000106 6008              STR       A1, [A2, #0]          ; [DPU_V7M3_PIPE] |122|  ; [ORIG 16-BIT INS]
     355                            .dwpsn  file "D:/Y2S1/SC2107 Lab/inc/Clock.c",line 127,column 3,is_stmt,isa 1
     356 00000108 4929              LDR       A2, $C$CON14          ; [DPU_V7M3_PIPE] |127|  ; [ORIG 16-BIT INS]
     357 0000010a 2000              MOVS      A1, #0                ; [DPU_V7M3_PIPE] |127|  ; [ORIG 16-BIT INS]
     358 0000010c 6008              STR       A1, [A2, #0]          ; [DPU_V7M3_PIPE] |127|  ; [ORIG 16-BIT INS]
     359                            .dwpsn  file "D:/Y2S1/SC2107 Lab/inc/Clock.c",line 128,column 3,is_stmt,isa 1
     360 0000010e 4833              LDR       A1, $C$CON25          ; [DPU_V7M3_PIPE] |128|  ; [ORIG 16-BIT INS]
     361 00000110 4931              LDR       A2, $C$CON24          ; [DPU_V7M3_PIPE] |128|  ; [ORIG 16-BIT INS]
     362 00000112 6008              STR       A1, [A2, #0]          ; [DPU_V7M3_PIPE] |128|  ; [ORIG 16-BIT INS]
     363                            .dwpsn  file "D:/Y2S1/SC2107 Lab/inc/Clock.c",line 130,column 1,is_stmt,isa 1
     364                    ;* --------------------------------------------------------------------------*
     365                    ||$C$L9||:    
     366                    $C$DW$8 .dwtag  DW_TAG_TI_branch
     367                            .dwattr $C$DW$8, DW_AT_low_pc(0x00)
     368                            .dwattr $C$DW$8, DW_AT_TI_return
     369                    
     370 00000114 4770              BX        LR                    ; [DPU_V7M3_PIPE]  ; [ORIG 16-BIT INS]
     371                            ; BRANCH OCCURS                  ; [] 
     372                            .dwattr $C$DW$7, DW_AT_TI_end_file("D:/Y2S1/SC2107 Lab/inc/Clock.c")
     373                            .dwattr $C$DW$7, DW_AT_TI_end_line(0x82)
     374                            .dwattr $C$DW$7, DW_AT_TI_end_column(0x01)
     375                            .dwendentry
     376                            .dwendtag $C$DW$7
     377                    
     378 00000116                   .sect   ".text"
     379                            .clink
     380                            .thumbfunc Clock_GetFreq
     381 00000116                   .thumb
     382                            .global Clock_GetFreq
     383                    
     384                    $C$DW$9 .dwtag  DW_TAG_subprogram
     385                            .dwattr $C$DW$9, DW_AT_name("Clock_GetFreq")
TI ARM Assembler PC v20.2.6 Mon Oct 31 23:16:55 2022

Copyright (c) 1996-2018 Texas Instruments Incorporated
Clock.asm                                                            PAGE    8

     386                            .dwattr $C$DW$9, DW_AT_low_pc(Clock_GetFreq)
     387                            .dwattr $C$DW$9, DW_AT_high_pc(0x00)
     388                            .dwattr $C$DW$9, DW_AT_TI_symbol_name("Clock_GetFreq")
     389                            .dwattr $C$DW$9, DW_AT_external
     390                            .dwattr $C$DW$9, DW_AT_type(*$C$DW$T$22)
     391                            .dwattr $C$DW$9, DW_AT_TI_begin_file("D:/Y2S1/SC2107 Lab/inc/Clock.c")
     392                            .dwattr $C$DW$9, DW_AT_TI_begin_line(0x89)
     393                            .dwattr $C$DW$9, DW_AT_TI_begin_column(0x0a)
     394                            .dwattr $C$DW$9, DW_AT_decl_file("D:/Y2S1/SC2107 Lab/inc/Clock.c")
     395                            .dwattr $C$DW$9, DW_AT_decl_line(0x89)
     396                            .dwattr $C$DW$9, DW_AT_decl_column(0x0a)
     397                            .dwattr $C$DW$9, DW_AT_TI_max_frame_size(0x00)
     398                            .dwpsn  file "D:/Y2S1/SC2107 Lab/inc/Clock.c",line 137,column 29,is_stmt,address Clock_GetFreq
     399                    
     400                            .dwfde $C$DW$CIE, Clock_GetFreq
     401                    
     402                    ;*****************************************************************************
     403                    ;* FUNCTION NAME: Clock_GetFreq                                              *
     404                    ;*                                                                           *
     405                    ;*   Regs Modified     : A1                                                  *
     406                    ;*   Regs Used         : A1,LR                                               *
     407                    ;*   Local Frame Size  : 0 Args + 0 Auto + 0 Save = 0 byte                   *
     408                    ;*****************************************************************************
     409 00000116           Clock_GetFreq:
     410                    ;* --------------------------------------------------------------------------*
     411                            .dwcfi  cfa_offset, 0
     412                            .dwpsn  file "D:/Y2S1/SC2107 Lab/inc/Clock.c",line 138,column 3,is_stmt,isa 1
     413 00000116 4830              LDR       A1, $C$CON24          ; [DPU_V7M3_PIPE] |138|  ; [ORIG 16-BIT INS]
     414 00000118 6800              LDR       A1, [A1, #0]          ; [DPU_V7M3_PIPE] |138|  ; [ORIG 16-BIT INS]
     415                            .dwpsn  file "D:/Y2S1/SC2107 Lab/inc/Clock.c",line 139,column 1,is_stmt,isa 1
     416                    $C$DW$10        .dwtag  DW_TAG_TI_branch
     417                            .dwattr $C$DW$10, DW_AT_low_pc(0x00)
     418                            .dwattr $C$DW$10, DW_AT_TI_return
     419                    
     420 0000011a 4770              BX        LR                    ; [DPU_V7M3_PIPE]  ; [ORIG 16-BIT INS]
     421                            ; BRANCH OCCURS                  ; [] 
     422                            .dwattr $C$DW$9, DW_AT_TI_end_file("D:/Y2S1/SC2107 Lab/inc/Clock.c")
     423                            .dwattr $C$DW$9, DW_AT_TI_end_line(0x8b)
     424                            .dwattr $C$DW$9, DW_AT_TI_end_column(0x01)
     425                            .dwendentry
     426                            .dwendtag $C$DW$9
     427                    
     428 0000011c                   .sect   ".text"
     429                            .clink
     430                            .thumbfunc delay
     431 0000011c                   .thumb
     432                            .global delay
     433                    
     434                    $C$DW$11        .dwtag  DW_TAG_subprogram
     435                            .dwattr $C$DW$11, DW_AT_name("delay")
     436                            .dwattr $C$DW$11, DW_AT_low_pc(delay)
     437                            .dwattr $C$DW$11, DW_AT_high_pc(0x00)
     438                            .dwattr $C$DW$11, DW_AT_TI_symbol_name("delay")
     439                            .dwattr $C$DW$11, DW_AT_external
     440                            .dwattr $C$DW$11, DW_AT_TI_begin_file("D:/Y2S1/SC2107 Lab/inc/Clock.c")
TI ARM Assembler PC v20.2.6 Mon Oct 31 23:16:55 2022

Copyright (c) 1996-2018 Texas Instruments Incorporated
Clock.asm                                                            PAGE    9

     441                            .dwattr $C$DW$11, DW_AT_TI_begin_line(0x92)
     442                            .dwattr $C$DW$11, DW_AT_TI_begin_column(0x06)
     443                            .dwattr $C$DW$11, DW_AT_decl_file("D:/Y2S1/SC2107 Lab/inc/Clock.c")
     444                            .dwattr $C$DW$11, DW_AT_decl_line(0x92)
     445                            .dwattr $C$DW$11, DW_AT_decl_column(0x06)
     446                            .dwattr $C$DW$11, DW_AT_TI_max_frame_size(0x08)
     447                            .dwpsn  file "D:/Y2S1/SC2107 Lab/inc/Clock.c",line 146,column 34,is_stmt,address delay,isa 1
     448                    
     449                            .dwfde $C$DW$CIE, delay
     450                    $C$DW$12        .dwtag  DW_TAG_formal_parameter
     451                            .dwattr $C$DW$12, DW_AT_name("ulCount")
     452                            .dwattr $C$DW$12, DW_AT_TI_symbol_name("ulCount")
     453                            .dwattr $C$DW$12, DW_AT_type(*$C$DW$T$13)
     454                            .dwattr $C$DW$12, DW_AT_location[DW_OP_reg0]
     455                    
     456                    
     457                    ;*****************************************************************************
     458                    ;* FUNCTION NAME: delay                                                      *
     459                    ;*                                                                           *
     460                    ;*   Regs Modified     : SP                                                  *
     461                    ;*   Regs Used         : A1,SP,LR                                            *
     462                    ;*   Local Frame Size  : 0 Args + 4 Auto + 0 Save = 4 byte                   *
     463                    ;*****************************************************************************
     464 0000011c           delay:
     465                    ;* --------------------------------------------------------------------------*
     466                            .dwcfi  cfa_offset, 0
     467 0000011c 0D08F1AD          SUB       SP, SP, #8            ; [DPU_V7M3_PIPE]  ; [KEEP 32-BIT INS]
     468                            .dwcfi  cfa_offset, 8
     469                    $C$DW$13        .dwtag  DW_TAG_variable
     470                            .dwattr $C$DW$13, DW_AT_name("ulCount")
     471                            .dwattr $C$DW$13, DW_AT_TI_symbol_name("ulCount")
     472                            .dwattr $C$DW$13, DW_AT_type(*$C$DW$T$13)
     473                            .dwattr $C$DW$13, DW_AT_location[DW_OP_breg13 0]
     474                    
     475 00000120 9000              STR       A1, [SP, #0]          ; [DPU_V7M3_PIPE] |146|  ; [ORIG 16-BIT INS]
     476                            .dwpsn  file "D:/Y2S1/SC2107 Lab/inc/Clock.c",line 147,column 3,is_stmt,isa 1
     477 00000122 1E40      pdloop:  subs    r0, #1 ; [ORIG 16-BIT INS]
     478 00000124 D1FD          bne    pdloop ; [ORIG 16-BIT INS]
     479                            .dwpsn  file "D:/Y2S1/SC2107 Lab/inc/Clock.c",line 149,column 1,is_stmt,isa 1
     480 00000126 B002              ADD       SP, SP, #8            ; [DPU_V7M3_PIPE]  ; [ORIG 16-BIT INS]
     481                            .dwcfi  cfa_offset, 0
     482                    $C$DW$14        .dwtag  DW_TAG_TI_branch
     483                            .dwattr $C$DW$14, DW_AT_low_pc(0x00)
     484                            .dwattr $C$DW$14, DW_AT_TI_return
     485                    
     486 00000128 4770              BX        LR                    ; [DPU_V7M3_PIPE]  ; [ORIG 16-BIT INS]
     487                            ; BRANCH OCCURS                  ; [] 
     488                            .dwattr $C$DW$11, DW_AT_TI_end_file("D:/Y2S1/SC2107 Lab/inc/Clock.c")
     489                            .dwattr $C$DW$11, DW_AT_TI_end_line(0x95)
     490                            .dwattr $C$DW$11, DW_AT_TI_end_column(0x01)
     491                            .dwendentry
     492                            .dwendtag $C$DW$11
     493                    
     494 0000012a                   .sect   ".text"
     495                            .clink
TI ARM Assembler PC v20.2.6 Mon Oct 31 23:16:55 2022

Copyright (c) 1996-2018 Texas Instruments Incorporated
Clock.asm                                                            PAGE   10

     496                            .thumbfunc Clock_Delay1us
     497 0000012a                   .thumb
     498                            .global Clock_Delay1us
     499                    
     500                    $C$DW$15        .dwtag  DW_TAG_subprogram
     501                            .dwattr $C$DW$15, DW_AT_name("Clock_Delay1us")
     502                            .dwattr $C$DW$15, DW_AT_low_pc(Clock_Delay1us)
     503                            .dwattr $C$DW$15, DW_AT_high_pc(0x00)
     504                            .dwattr $C$DW$15, DW_AT_TI_symbol_name("Clock_Delay1us")
     505                            .dwattr $C$DW$15, DW_AT_external
     506                            .dwattr $C$DW$15, DW_AT_TI_begin_file("D:/Y2S1/SC2107 Lab/inc/Clock.c")
     507                            .dwattr $C$DW$15, DW_AT_TI_begin_line(0x9b)
     508                            .dwattr $C$DW$15, DW_AT_TI_begin_column(0x06)
     509                            .dwattr $C$DW$15, DW_AT_decl_file("D:/Y2S1/SC2107 Lab/inc/Clock.c")
     510                            .dwattr $C$DW$15, DW_AT_decl_line(0x9b)
     511                            .dwattr $C$DW$15, DW_AT_decl_column(0x06)
     512                            .dwattr $C$DW$15, DW_AT_TI_max_frame_size(0x08)
     513                            .dwpsn  file "D:/Y2S1/SC2107 Lab/inc/Clock.c",line 155,column 32,is_stmt,address Clock_Delay1u
     514                    
     515                            .dwfde $C$DW$CIE, Clock_Delay1us
     516                    $C$DW$16        .dwtag  DW_TAG_formal_parameter
     517                            .dwattr $C$DW$16, DW_AT_name("n")
     518                            .dwattr $C$DW$16, DW_AT_TI_symbol_name("n")
     519                            .dwattr $C$DW$16, DW_AT_type(*$C$DW$T$22)
     520                            .dwattr $C$DW$16, DW_AT_location[DW_OP_reg0]
     521                    
     522                    
     523                    ;*****************************************************************************
     524                    ;* FUNCTION NAME: Clock_Delay1us                                             *
     525                    ;*                                                                           *
     526                    ;*   Regs Modified     : A1,A2,A3,SP,SR                                      *
     527                    ;*   Regs Used         : A1,A2,A3,SP,LR,SR                                   *
     528                    ;*   Local Frame Size  : 0 Args + 4 Auto + 0 Save = 4 byte                   *
     529                    ;*****************************************************************************
     530 0000012a           Clock_Delay1us:
     531                    ;* --------------------------------------------------------------------------*
     532                            .dwcfi  cfa_offset, 0
     533 0000012a 0D08F1AD          SUB       SP, SP, #8            ; [DPU_V7M3_PIPE]  ; [KEEP 32-BIT INS]
     534                            .dwcfi  cfa_offset, 8
     535                    $C$DW$17        .dwtag  DW_TAG_variable
     536                            .dwattr $C$DW$17, DW_AT_name("n")
     537                            .dwattr $C$DW$17, DW_AT_TI_symbol_name("n")
     538                            .dwattr $C$DW$17, DW_AT_type(*$C$DW$T$22)
     539                            .dwattr $C$DW$17, DW_AT_location[DW_OP_breg13 0]
     540                    
     541 0000012e 9000              STR       A1, [SP, #0]          ; [DPU_V7M3_PIPE] |155|  ; [ORIG 16-BIT INS]
     542                            .dwpsn  file "D:/Y2S1/SC2107 Lab/inc/Clock.c",line 156,column 3,is_stmt,isa 1
     543 00000130 9A00              LDR       A3, [SP, #0]          ; [DPU_V7M3_PIPE] |156|  ; [ORIG 16-BIT INS]
     544 00000132 70BFF44F          MOV       A1, #382              ; [DPU_V7M3_PIPE] |156|  ; [KEEP 32-BIT INS]
     545 00000136 2164              MOVS      A2, #100              ; [DPU_V7M3_PIPE] |156|  ; [ORIG 16-BIT INS]
     546 00000138 4350              MULS      A1, A1, A3            ; [DPU_V7M3_PIPE] |156|  ; [ORIG 16-BIT INS]
     547 0000013a F0F1FBB0          UDIV      A1, A1, A2            ; [DPU_V7M3_PIPE] |156|  ; [KEEP 32-BIT INS]
     548 0000013e 9000              STR       A1, [SP, #0]          ; [DPU_V7M3_PIPE] |156|  ; [ORIG 16-BIT INS]
     549                            .dwpsn  file "D:/Y2S1/SC2107 Lab/inc/Clock.c",line 157,column 3,is_stmt,isa 1
     550 00000140 9800              LDR       A1, [SP, #0]          ; [DPU_V7M3_PIPE] |157|  ; [ORIG 16-BIT INS]
TI ARM Assembler PC v20.2.6 Mon Oct 31 23:16:55 2022

Copyright (c) 1996-2018 Texas Instruments Incorporated
Clock.asm                                                            PAGE   11

     551 00000142 B128              CBZ       A1, ||$C$L11||        ; []  ; [ORIG 16-BIT INS]
     552                            ; BRANCHCC OCCURS {||$C$L11||}   ; [] |157| 
     553                    ;* --------------------------------------------------------------------------*
     554                    ;*   BEGIN LOOP ||$C$L10||
     555                    ;*
     556                    ;*   Loop source line                : 157
     557                    ;*   Loop closing brace source line  : 159
     558                    ;*   Known Minimum Trip Count        : 1
     559                    ;*   Known Maximum Trip Count        : 4294967295
     560                    ;*   Known Max Trip Count Factor     : 1
     561                    ;* --------------------------------------------------------------------------*
     562 00000144           ||$C$L10||:    
     563                            .dwpsn  file "D:/Y2S1/SC2107 Lab/inc/Clock.c",line 158,column 5,is_stmt,isa 1
     564 00000144 9800              LDR       A1, [SP, #0]          ; [DPU_V7M3_PIPE] |158|  ; [ORIG 16-BIT INS]
     565 00000146 1E40              SUBS      A1, A1, #1            ; [DPU_V7M3_PIPE] |158|  ; [ORIG 16-BIT INS]
     566 00000148 9000              STR       A1, [SP, #0]          ; [DPU_V7M3_PIPE] |158|  ; [ORIG 16-BIT INS]
     567                            .dwpsn  file "D:/Y2S1/SC2107 Lab/inc/Clock.c",line 157,column 3,is_stmt,isa 1
     568 0000014a 9800              LDR       A1, [SP, #0]          ; [DPU_V7M3_PIPE] |157|  ; [ORIG 16-BIT INS]
     569 0000014c 2800              CMP       A1, #0                ; [DPU_V7M3_PIPE] |157|  ; [ORIG 16-BIT INS]
     570 0000014e D1F9              BNE       ||$C$L10||            ; [DPU_V7M3_PIPE] |157|  ; [ORIG 16-BIT INS]
     571                            ; BRANCHCC OCCURS {||$C$L10||}   ; [] |157| 
     572                    ;* --------------------------------------------------------------------------*
     573                            .dwpsn  file "D:/Y2S1/SC2107 Lab/inc/Clock.c",line 160,column 1,is_stmt,isa 1
     574                    ;* --------------------------------------------------------------------------*
     575 00000150           ||$C$L11||:    
     576 00000150 B002              ADD       SP, SP, #8            ; [DPU_V7M3_PIPE]  ; [ORIG 16-BIT INS]
     577                            .dwcfi  cfa_offset, 0
     578                    $C$DW$18        .dwtag  DW_TAG_TI_branch
     579                            .dwattr $C$DW$18, DW_AT_low_pc(0x00)
     580                            .dwattr $C$DW$18, DW_AT_TI_return
     581                    
     582 00000152 4770              BX        LR                    ; [DPU_V7M3_PIPE]  ; [ORIG 16-BIT INS]
     583                            ; BRANCH OCCURS                  ; [] 
     584                            .dwattr $C$DW$15, DW_AT_TI_end_file("D:/Y2S1/SC2107 Lab/inc/Clock.c")
     585                            .dwattr $C$DW$15, DW_AT_TI_end_line(0xa0)
     586                            .dwattr $C$DW$15, DW_AT_TI_end_column(0x01)
     587                            .dwendentry
     588                            .dwendtag $C$DW$15
     589                    
     590 00000154                   .sect   ".text"
     591                            .clink
     592                            .thumbfunc Clock_Delay1ms
     593 00000154                   .thumb
     594                            .global Clock_Delay1ms
     595                    
     596                    $C$DW$19        .dwtag  DW_TAG_subprogram
     597                            .dwattr $C$DW$19, DW_AT_name("Clock_Delay1ms")
     598                            .dwattr $C$DW$19, DW_AT_low_pc(Clock_Delay1ms)
     599                            .dwattr $C$DW$19, DW_AT_high_pc(0x00)
     600                            .dwattr $C$DW$19, DW_AT_TI_symbol_name("Clock_Delay1ms")
     601                            .dwattr $C$DW$19, DW_AT_external
     602                            .dwattr $C$DW$19, DW_AT_TI_begin_file("D:/Y2S1/SC2107 Lab/inc/Clock.c")
     603                            .dwattr $C$DW$19, DW_AT_TI_begin_line(0xa6)
     604                            .dwattr $C$DW$19, DW_AT_TI_begin_column(0x06)
     605                            .dwattr $C$DW$19, DW_AT_decl_file("D:/Y2S1/SC2107 Lab/inc/Clock.c")
TI ARM Assembler PC v20.2.6 Mon Oct 31 23:16:55 2022

Copyright (c) 1996-2018 Texas Instruments Incorporated
Clock.asm                                                            PAGE   12

     606                            .dwattr $C$DW$19, DW_AT_decl_line(0xa6)
     607                            .dwattr $C$DW$19, DW_AT_decl_column(0x06)
     608                            .dwattr $C$DW$19, DW_AT_TI_max_frame_size(0x08)
     609                            .dwpsn  file "D:/Y2S1/SC2107 Lab/inc/Clock.c",line 166,column 32,is_stmt,address Clock_Delay1m
     610                    
     611                            .dwfde $C$DW$CIE, Clock_Delay1ms
     612                    $C$DW$20        .dwtag  DW_TAG_formal_parameter
     613                            .dwattr $C$DW$20, DW_AT_name("n")
     614                            .dwattr $C$DW$20, DW_AT_TI_symbol_name("n")
     615                            .dwattr $C$DW$20, DW_AT_type(*$C$DW$T$22)
     616                            .dwattr $C$DW$20, DW_AT_location[DW_OP_reg0]
     617                    
     618                    
     619                    ;*****************************************************************************
     620                    ;* FUNCTION NAME: Clock_Delay1ms                                             *
     621                    ;*                                                                           *
     622                    ;*   Regs Modified     : A1,A2,A4,SP,LR,SR,FPEXC,FPSCR                       *
     623                    ;*   Regs Used         : A1,A2,A4,SP,LR,SR,FPEXC,FPSCR                       *
     624                    ;*   Local Frame Size  : 0 Args + 4 Auto + 4 Save = 8 byte                   *
     625                    ;*****************************************************************************
     626 00000154           Clock_Delay1ms:
     627                    ;* --------------------------------------------------------------------------*
     628                            .dwcfi  cfa_offset, 0
     629 00000154 B508              PUSH      {A4, LR}              ; [DPU_V7M3_PIPE]  ; [ORIG 16-BIT INS]
     630                            .dwcfi  cfa_offset, 8
     631                            .dwcfi  save_reg_to_mem, 14, -4
     632                            .dwcfi  save_reg_to_mem, 3, -8
     633                    $C$DW$21        .dwtag  DW_TAG_variable
     634                            .dwattr $C$DW$21, DW_AT_name("n")
     635                            .dwattr $C$DW$21, DW_AT_TI_symbol_name("n")
     636                            .dwattr $C$DW$21, DW_AT_type(*$C$DW$T$22)
     637                            .dwattr $C$DW$21, DW_AT_location[DW_OP_breg13 0]
     638                    
     639 00000156 9000              STR       A1, [SP, #0]          ; [DPU_V7M3_PIPE] |166|  ; [ORIG 16-BIT INS]
     640                            .dwpsn  file "D:/Y2S1/SC2107 Lab/inc/Clock.c",line 167,column 3,is_stmt,isa 1
     641 00000158 9800              LDR       A1, [SP, #0]          ; [DPU_V7M3_PIPE] |167|  ; [ORIG 16-BIT INS]
     642 0000015a B168              CBZ       A1, ||$C$L13||        ; []  ; [ORIG 16-BIT INS]
     643                            ; BRANCHCC OCCURS {||$C$L13||}   ; [] |167| 
     644                    ;* --------------------------------------------------------------------------*
     645                    ;*   BEGIN LOOP ||$C$L12||
     646                    ;*
     647                    ;*   Loop source line                : 167
     648                    ;*   Loop closing brace source line  : 170
     649                    ;*   Known Minimum Trip Count        : 1
     650                    ;*   Known Maximum Trip Count        : 4294967295
     651                    ;*   Known Max Trip Count Factor     : 1
     652                    ;* --------------------------------------------------------------------------*
     653 0000015c           ||$C$L12||:    
     654                            .dwpsn  file "D:/Y2S1/SC2107 Lab/inc/Clock.c",line 168,column 5,is_stmt,isa 1
     655 0000015c 481E              LDR       A1, $C$CON24          ; [DPU_V7M3_PIPE] |168|  ; [ORIG 16-BIT INS]
     656 0000015e 6800              LDR       A1, [A1, #0]          ; [DPU_V7M3_PIPE] |168|  ; [ORIG 16-BIT INS]
     657 00000160 31CAF242          MOV       A2, #9162             ; [DPU_V7M3_PIPE] |168|  ; [KEEP 32-BIT INS]
     658 00000164 F0F1FBB0          UDIV      A1, A1, A2            ; [DPU_V7M3_PIPE] |168|  ; [KEEP 32-BIT INS]
     659                    $C$DW$22        .dwtag  DW_TAG_TI_branch
     660                            .dwattr $C$DW$22, DW_AT_low_pc(0x00)
TI ARM Assembler PC v20.2.6 Mon Oct 31 23:16:55 2022

Copyright (c) 1996-2018 Texas Instruments Incorporated
Clock.asm                                                            PAGE   13

     661                            .dwattr $C$DW$22, DW_AT_name("delay")
     662                            .dwattr $C$DW$22, DW_AT_TI_call
     663                    
     664 00000168 FFFEF7FF!         BL        delay                 ; [DPU_V7M3_PIPE] |168|  ; [KEEP 32-BIT INS]
     665                            ; CALL OCCURS {delay }           ; [] |168| 
     666                            .dwpsn  file "D:/Y2S1/SC2107 Lab/inc/Clock.c",line 169,column 5,is_stmt,isa 1
     667 0000016c 9800              LDR       A1, [SP, #0]          ; [DPU_V7M3_PIPE] |169|  ; [ORIG 16-BIT INS]
     668 0000016e 1E40              SUBS      A1, A1, #1            ; [DPU_V7M3_PIPE] |169|  ; [ORIG 16-BIT INS]
     669 00000170 9000              STR       A1, [SP, #0]          ; [DPU_V7M3_PIPE] |169|  ; [ORIG 16-BIT INS]
     670                            .dwpsn  file "D:/Y2S1/SC2107 Lab/inc/Clock.c",line 167,column 3,is_stmt,isa 1
     671 00000172 9800              LDR       A1, [SP, #0]          ; [DPU_V7M3_PIPE] |167|  ; [ORIG 16-BIT INS]
     672 00000174 2800              CMP       A1, #0                ; [DPU_V7M3_PIPE] |167|  ; [ORIG 16-BIT INS]
     673 00000176 D1F1              BNE       ||$C$L12||            ; [DPU_V7M3_PIPE] |167|  ; [ORIG 16-BIT INS]
     674                            ; BRANCHCC OCCURS {||$C$L12||}   ; [] |167| 
     675                    ;* --------------------------------------------------------------------------*
     676                            .dwpsn  file "D:/Y2S1/SC2107 Lab/inc/Clock.c",line 171,column 1,is_stmt,isa 1
     677                    ;* --------------------------------------------------------------------------*
     678                    ||$C$L13||:    
     679                    $C$DW$23        .dwtag  DW_TAG_TI_branch
     680                            .dwattr $C$DW$23, DW_AT_low_pc(0x00)
     681                            .dwattr $C$DW$23, DW_AT_TI_return
     682                    
     683 00000178 BD08              POP       {A4, PC}              ; [DPU_V7M3_PIPE]  ; [ORIG 16-BIT INS]
     684                            .dwcfi  cfa_offset, 0
     685                            .dwcfi  restore_reg, 3
     686                            ; BRANCH OCCURS                  ; [] 
     687                            .dwattr $C$DW$19, DW_AT_TI_end_file("D:/Y2S1/SC2107 Lab/inc/Clock.c")
     688                            .dwattr $C$DW$19, DW_AT_TI_end_line(0xab)
     689                            .dwattr $C$DW$19, DW_AT_TI_end_column(0x01)
     690                            .dwendentry
     691                            .dwendtag $C$DW$19
     692                    
     693                    ;******************************************************************************
     694                    ;* CONSTANT TABLE                                                             *
     695                    ;******************************************************************************
     696 0000017a                   .sect   ".text"
     697                            .align  4
     698 0000017a 000046C0! ||$C$CON1||:    .bits   Prewait,32
         0000017e 00000000 
     699                            .align  4
     700 0000017e 86A00000  ||$C$CON2||:    .bits           0x186a0,32
         00000182 00000001 
     701                    
     702                            .align  4
     703 00000182 00040001  ||$C$CON3||:    .bits           0x40010004,32
         00000186 00004001 
     704                    
     705                            .align  4
     706 00000186 00004001  ||$C$CON4||:    .bits           0x40010000,32
         0000018a 00004001 
     707                    
     708                            .align  4
     709 0000018a 00014001  ||$C$CON5||:    .bits           0x695a0001,32
         0000018e 0000695A 
     710                    
TI ARM Assembler PC v20.2.6 Mon Oct 31 23:16:55 2022

Copyright (c) 1996-2018 Texas Instruments Incorporated
Clock.asm                                                            PAGE   14

     711                            .align  4
     712 0000018e 000C695A  ||$C$CON6||:    .bits           0x4001000c,32
         00000192 00004001 
     713                    
     714                            .align  4
     715 00000192 00004001! ||$C$CON7||:    .bits   IFlags,32
         00000196 00000000 
     716                            .align  4
     717 00000196 00100000  ||$C$CON8||:    .bits           0x40010010,32
         0000019a 00004001 
     718                    
     719                            .align  4
     720 0000019a 00004001! ||$C$CON9||:    .bits   CPMwait,32
         0000019e 00000000 
     721                            .align  4
     722 0000019e A1200000  ||$C$CON10||:   .bits           0x7a120,32
         000001a2 00000007 
     723                    
     724                            .align  4
     725 000001a2 00000007! ||$C$CON11||:   .bits   Postwait,32
         000001a6 00000000 
     726                            .align  4
     727 000001a6 4D2A0000  ||$C$CON12||:   .bits           0x40004d2a,32
         000001aa 00004000 
     728                    
     729                            .align  4
     730 000001aa 4D2C4000  ||$C$CON13||:   .bits           0x40004d2c,32
         000001ae 00004000 
     731                    
     732                            .align  4
     733 000001ae 04004000  ||$C$CON14||:   .bits           0x40010400,32
         000001b2 00004001 
     734                    
     735                            .align  4
     736 000001b2 040C4001  ||$C$CON15||:   .bits           0x4001040c,32
         000001b6 00004001 
     737                    
     738                            .align  4
     739 000001b6 00004001  ||$C$CON16||:   .bits           0x1610000,32
         000001ba 00000161 
     740                    
     741                            .align  4
     742 000001ba 04500161  ||$C$CON17||:   .bits           0x40010450,32
         000001be 00004001 
     743                    
     744                            .align  4
     745 000001be 00004001! ||$C$CON18||:   .bits   Crystalstable,32
         000001c2 00000000 
     746                            .align  4
     747 000001c2 04480000  ||$C$CON19||:   .bits           0x40010448,32
         000001c6 00004001 
     748                    
     749                            .align  4
     750 000001c6 10104001  ||$C$CON20||:   .bits           0x40011010,32
         000001ca 00004001 
TI ARM Assembler PC v20.2.6 Mon Oct 31 23:16:55 2022

Copyright (c) 1996-2018 Texas Instruments Incorporated
Clock.asm                                                            PAGE   15

     751                    
     752                            .align  4
     753 000001ca 10144001  ||$C$CON21||:   .bits           0x40011014,32
         000001ce 00004001 
     754                    
     755                            .align  4
     756 000001ce 04084001  ||$C$CON22||:   .bits           0x40010408,32
         000001d2 00004001 
     757                    
     758                            .align  4
     759 000001d2 02554001  ||$C$CON23||:   .bits           0x20100255,32
         000001d6 00002010 
     760                    
     761                            .align  4
     762 000001d6 00002010! ||$C$CON24||:   .bits   ClockFrequency,32
         000001da 00000000 
     763                            .align  4
     764 000001da 6C000000  ||$C$CON25||:   .bits           0x2dc6c00,32
         000001de 000002DC 
     765                    
     766                    
     767                    ;******************************************************************************
     768                    ;* BUILD ATTRIBUTES                                                           *
     769                    ;******************************************************************************
     770                            .battr "TI", Tag_File, 1, Tag_LPM_INFO(1)
     771                            .battr "TI", Tag_File, 1, Tag_PORTS_INIT_INFO("012345678901ABCDEFGHIJ0111111111100000000000000
     772                            .battr "aeabi", Tag_File, 1, Tag_ABI_PCS_wchar_t(2)
     773                            .battr "aeabi", Tag_File, 1, Tag_ABI_FP_rounding(0)
     774                            .battr "aeabi", Tag_File, 1, Tag_ABI_FP_denormal(0)
     775                            .battr "aeabi", Tag_File, 1, Tag_ABI_FP_exceptions(0)
     776                            .battr "aeabi", Tag_File, 1, Tag_ABI_FP_number_model(1)
     777                            .battr "aeabi", Tag_File, 1, Tag_ABI_enum_size(1)
     778                            .battr "aeabi", Tag_File, 1, Tag_ABI_optimization_goals(5)
     779                            .battr "aeabi", Tag_File, 1, Tag_ABI_FP_optimization_goals(0)
     780                            .battr "TI", Tag_File, 1, Tag_Bitfield_layout(0)
     781                            .battr "aeabi", Tag_File, 1, Tag_ABI_VFP_args(3)
     782                            .battr "TI", Tag_File, 1, Tag_FP_interface(1)
     783                    
     784                    ;******************************************************************************
     785                    ;* TYPE INFORMATION                                                           *
     786                    ;******************************************************************************
     787                    
     788                    $C$DW$T$25      .dwtag  DW_TAG_structure_type
     789                            .dwattr $C$DW$T$25, DW_AT_byte_size(0x14)
     790                    $C$DW$24        .dwtag  DW_TAG_member
     791                            .dwattr $C$DW$24, DW_AT_type(*$C$DW$T$23)
     792                            .dwattr $C$DW$24, DW_AT_name("CTL0")
     793                            .dwattr $C$DW$24, DW_AT_TI_symbol_name("CTL0")
     794                            .dwattr $C$DW$24, DW_AT_data_member_location[DW_OP_plus_uconst 0x0]
     795                            .dwattr $C$DW$24, DW_AT_accessibility(DW_ACCESS_public)
     796                            .dwattr $C$DW$24, DW_AT_decl_file("C:\ti\ccs1200\ccs\ccs_base\arm\include\msp432p401r.h")
     797                            .dwattr $C$DW$24, DW_AT_decl_line(0x3e2)
     798                            .dwattr $C$DW$24, DW_AT_decl_column(0x11)
     799                    
     800                    $C$DW$25        .dwtag  DW_TAG_member
TI ARM Assembler PC v20.2.6 Mon Oct 31 23:16:55 2022

Copyright (c) 1996-2018 Texas Instruments Incorporated
Clock.asm                                                            PAGE   16

     801                            .dwattr $C$DW$25, DW_AT_type(*$C$DW$T$23)
     802                            .dwattr $C$DW$25, DW_AT_name("CTL1")
     803                            .dwattr $C$DW$25, DW_AT_TI_symbol_name("CTL1")
     804                            .dwattr $C$DW$25, DW_AT_data_member_location[DW_OP_plus_uconst 0x4]
     805                            .dwattr $C$DW$25, DW_AT_accessibility(DW_ACCESS_public)
     806                            .dwattr $C$DW$25, DW_AT_decl_file("C:\ti\ccs1200\ccs\ccs_base\arm\include\msp432p401r.h")
     807                            .dwattr $C$DW$25, DW_AT_decl_line(0x3e3)
     808                            .dwattr $C$DW$25, DW_AT_decl_column(0x11)
     809                    
     810                    $C$DW$26        .dwtag  DW_TAG_member
     811                            .dwattr $C$DW$26, DW_AT_type(*$C$DW$T$23)
     812                            .dwattr $C$DW$26, DW_AT_name("IE")
     813                            .dwattr $C$DW$26, DW_AT_TI_symbol_name("IE")
     814                            .dwattr $C$DW$26, DW_AT_data_member_location[DW_OP_plus_uconst 0x8]
     815                            .dwattr $C$DW$26, DW_AT_accessibility(DW_ACCESS_public)
     816                            .dwattr $C$DW$26, DW_AT_decl_file("C:\ti\ccs1200\ccs\ccs_base\arm\include\msp432p401r.h")
     817                            .dwattr $C$DW$26, DW_AT_decl_line(0x3e4)
     818                            .dwattr $C$DW$26, DW_AT_decl_column(0x11)
     819                    
     820                    $C$DW$27        .dwtag  DW_TAG_member
     821                            .dwattr $C$DW$27, DW_AT_type(*$C$DW$T$24)
     822                            .dwattr $C$DW$27, DW_AT_name("IFG")
     823                            .dwattr $C$DW$27, DW_AT_TI_symbol_name("IFG")
     824                            .dwattr $C$DW$27, DW_AT_data_member_location[DW_OP_plus_uconst 0xc]
     825                            .dwattr $C$DW$27, DW_AT_accessibility(DW_ACCESS_public)
     826                            .dwattr $C$DW$27, DW_AT_decl_file("C:\ti\ccs1200\ccs\ccs_base\arm\include\msp432p401r.h")
     827                            .dwattr $C$DW$27, DW_AT_decl_line(0x3e5)
     828                            .dwattr $C$DW$27, DW_AT_decl_column(0x11)
     829                    
     830                    $C$DW$28        .dwtag  DW_TAG_member
     831                            .dwattr $C$DW$28, DW_AT_type(*$C$DW$T$23)
     832                            .dwattr $C$DW$28, DW_AT_name("CLRIFG")
     833                            .dwattr $C$DW$28, DW_AT_TI_symbol_name("CLRIFG")
     834                            .dwattr $C$DW$28, DW_AT_data_member_location[DW_OP_plus_uconst 0x10]
     835                            .dwattr $C$DW$28, DW_AT_accessibility(DW_ACCESS_public)
     836                            .dwattr $C$DW$28, DW_AT_decl_file("C:\ti\ccs1200\ccs\ccs_base\arm\include\msp432p401r.h")
     837                            .dwattr $C$DW$28, DW_AT_decl_line(0x3e6)
     838                            .dwattr $C$DW$28, DW_AT_decl_column(0x11)
     839                    
     840                            .dwattr $C$DW$T$25, DW_AT_decl_file("C:\ti\ccs1200\ccs\ccs_base\arm\include\msp432p401r.h")
     841                            .dwattr $C$DW$T$25, DW_AT_decl_line(0x3e1)
     842                            .dwattr $C$DW$T$25, DW_AT_decl_column(0x10)
     843                            .dwendtag $C$DW$T$25
     844                    
     845                    $C$DW$T$179     .dwtag  DW_TAG_typedef
     846                            .dwattr $C$DW$T$179, DW_AT_name("PCM_Type")
     847                            .dwattr $C$DW$T$179, DW_AT_type(*$C$DW$T$25)
     848                            .dwattr $C$DW$T$179, DW_AT_language(DW_LANG_C)
     849                            .dwattr $C$DW$T$179, DW_AT_decl_file("C:\ti\ccs1200\ccs\ccs_base\arm\include\msp432p401r.h")
     850                            .dwattr $C$DW$T$179, DW_AT_decl_line(0x3e7)
     851                            .dwattr $C$DW$T$179, DW_AT_decl_column(0x03)
     852                    
     853                    
     854                    $C$DW$T$29      .dwtag  DW_TAG_structure_type
     855                            .dwattr $C$DW$T$29, DW_AT_byte_size(0x02)
TI ARM Assembler PC v20.2.6 Mon Oct 31 23:16:55 2022

Copyright (c) 1996-2018 Texas Instruments Incorporated
Clock.asm                                                            PAGE   17

     856                    $C$DW$29        .dwtag  DW_TAG_member
     857                            .dwattr $C$DW$29, DW_AT_type(*$C$DW$T$28)
     858                            .dwattr $C$DW$29, DW_AT_name("SEL0_L")
     859                            .dwattr $C$DW$29, DW_AT_TI_symbol_name("SEL0_L")
     860                            .dwattr $C$DW$29, DW_AT_data_member_location[DW_OP_plus_uconst 0x0]
     861                            .dwattr $C$DW$29, DW_AT_accessibility(DW_ACCESS_public)
     862                            .dwattr $C$DW$29, DW_AT_decl_file("C:\ti\ccs1200\ccs\ccs_base\arm\include\msp432p401r.h")
     863                            .dwattr $C$DW$29, DW_AT_decl_line(0x271)
     864                            .dwattr $C$DW$29, DW_AT_decl_column(0x14)
     865                    
     866                    $C$DW$30        .dwtag  DW_TAG_member
     867                            .dwattr $C$DW$30, DW_AT_type(*$C$DW$T$28)
     868                            .dwattr $C$DW$30, DW_AT_name("SEL0_H")
     869                            .dwattr $C$DW$30, DW_AT_TI_symbol_name("SEL0_H")
     870                            .dwattr $C$DW$30, DW_AT_data_member_location[DW_OP_plus_uconst 0x1]
     871                            .dwattr $C$DW$30, DW_AT_accessibility(DW_ACCESS_public)
     872                            .dwattr $C$DW$30, DW_AT_decl_file("C:\ti\ccs1200\ccs\ccs_base\arm\include\msp432p401r.h")
     873                            .dwattr $C$DW$30, DW_AT_decl_line(0x272)
     874                            .dwattr $C$DW$30, DW_AT_decl_column(0x14)
     875                    
     876                            .dwattr $C$DW$T$29, DW_AT_decl_file("C:\ti\ccs1200\ccs\ccs_base\arm\include\msp432p401r.h")
     877                            .dwattr $C$DW$T$29, DW_AT_decl_line(0x270)
     878                            .dwattr $C$DW$T$29, DW_AT_decl_column(0x0c)
     879                            .dwendtag $C$DW$T$29
     880                    
     881                    
     882                    $C$DW$T$31      .dwtag  DW_TAG_structure_type
     883                            .dwattr $C$DW$T$31, DW_AT_byte_size(0x02)
     884                    $C$DW$31        .dwtag  DW_TAG_member
     885                            .dwattr $C$DW$31, DW_AT_type(*$C$DW$T$30)
     886                            .dwattr $C$DW$31, DW_AT_name("IN_L")
     887                            .dwattr $C$DW$31, DW_AT_TI_symbol_name("IN_L")
     888                            .dwattr $C$DW$31, DW_AT_data_member_location[DW_OP_plus_uconst 0x0]
     889                            .dwattr $C$DW$31, DW_AT_accessibility(DW_ACCESS_public)
     890                            .dwattr $C$DW$31, DW_AT_decl_file("C:\ti\ccs1200\ccs\ccs_base\arm\include\msp432p401r.h")
     891                            .dwattr $C$DW$31, DW_AT_decl_line(0x24e)
     892                            .dwattr $C$DW$31, DW_AT_decl_column(0x13)
     893                    
     894                    $C$DW$32        .dwtag  DW_TAG_member
     895                            .dwattr $C$DW$32, DW_AT_type(*$C$DW$T$30)
     896                            .dwattr $C$DW$32, DW_AT_name("IN_H")
     897                            .dwattr $C$DW$32, DW_AT_TI_symbol_name("IN_H")
     898                            .dwattr $C$DW$32, DW_AT_data_member_location[DW_OP_plus_uconst 0x1]
     899                            .dwattr $C$DW$32, DW_AT_accessibility(DW_ACCESS_public)
     900                            .dwattr $C$DW$32, DW_AT_decl_file("C:\ti\ccs1200\ccs\ccs_base\arm\include\msp432p401r.h")
     901                            .dwattr $C$DW$32, DW_AT_decl_line(0x24f)
     902                            .dwattr $C$DW$32, DW_AT_decl_column(0x13)
     903                    
     904                            .dwattr $C$DW$T$31, DW_AT_decl_file("C:\ti\ccs1200\ccs\ccs_base\arm\include\msp432p401r.h")
     905                            .dwattr $C$DW$T$31, DW_AT_decl_line(0x24d)
     906                            .dwattr $C$DW$T$31, DW_AT_decl_column(0x0c)
     907                            .dwendtag $C$DW$T$31
     908                    
     909                    
     910                    $C$DW$T$32      .dwtag  DW_TAG_structure_type
TI ARM Assembler PC v20.2.6 Mon Oct 31 23:16:55 2022

Copyright (c) 1996-2018 Texas Instruments Incorporated
Clock.asm                                                            PAGE   18

     911                            .dwattr $C$DW$T$32, DW_AT_byte_size(0x02)
     912                    $C$DW$33        .dwtag  DW_TAG_member
     913                            .dwattr $C$DW$33, DW_AT_type(*$C$DW$T$28)
     914                            .dwattr $C$DW$33, DW_AT_name("OUT_L")
     915                            .dwattr $C$DW$33, DW_AT_TI_symbol_name("OUT_L")
     916                            .dwattr $C$DW$33, DW_AT_data_member_location[DW_OP_plus_uconst 0x0]
     917                            .dwattr $C$DW$33, DW_AT_accessibility(DW_ACCESS_public)
     918                            .dwattr $C$DW$33, DW_AT_decl_file("C:\ti\ccs1200\ccs\ccs_base\arm\include\msp432p401r.h")
     919                            .dwattr $C$DW$33, DW_AT_decl_line(0x255)
     920                            .dwattr $C$DW$33, DW_AT_decl_column(0x14)
     921                    
     922                    $C$DW$34        .dwtag  DW_TAG_member
     923                            .dwattr $C$DW$34, DW_AT_type(*$C$DW$T$28)
     924                            .dwattr $C$DW$34, DW_AT_name("OUT_H")
     925                            .dwattr $C$DW$34, DW_AT_TI_symbol_name("OUT_H")
     926                            .dwattr $C$DW$34, DW_AT_data_member_location[DW_OP_plus_uconst 0x1]
     927                            .dwattr $C$DW$34, DW_AT_accessibility(DW_ACCESS_public)
     928                            .dwattr $C$DW$34, DW_AT_decl_file("C:\ti\ccs1200\ccs\ccs_base\arm\include\msp432p401r.h")
     929                            .dwattr $C$DW$34, DW_AT_decl_line(0x256)
     930                            .dwattr $C$DW$34, DW_AT_decl_column(0x14)
     931                    
     932                            .dwattr $C$DW$T$32, DW_AT_decl_file("C:\ti\ccs1200\ccs\ccs_base\arm\include\msp432p401r.h")
     933                            .dwattr $C$DW$T$32, DW_AT_decl_line(0x254)
     934                            .dwattr $C$DW$T$32, DW_AT_decl_column(0x0c)
     935                            .dwendtag $C$DW$T$32
     936                    
     937                    
     938                    $C$DW$T$33      .dwtag  DW_TAG_structure_type
     939                            .dwattr $C$DW$T$33, DW_AT_byte_size(0x02)
     940                    $C$DW$35        .dwtag  DW_TAG_member
     941                            .dwattr $C$DW$35, DW_AT_type(*$C$DW$T$28)
     942                            .dwattr $C$DW$35, DW_AT_name("DIR_L")
     943                            .dwattr $C$DW$35, DW_AT_TI_symbol_name("DIR_L")
     944                            .dwattr $C$DW$35, DW_AT_data_member_location[DW_OP_plus_uconst 0x0]
     945                            .dwattr $C$DW$35, DW_AT_accessibility(DW_ACCESS_public)
     946                            .dwattr $C$DW$35, DW_AT_decl_file("C:\ti\ccs1200\ccs\ccs_base\arm\include\msp432p401r.h")
     947                            .dwattr $C$DW$35, DW_AT_decl_line(0x25c)
     948                            .dwattr $C$DW$35, DW_AT_decl_column(0x14)
     949                    
     950                    $C$DW$36        .dwtag  DW_TAG_member
     951                            .dwattr $C$DW$36, DW_AT_type(*$C$DW$T$28)
     952                            .dwattr $C$DW$36, DW_AT_name("DIR_H")
     953                            .dwattr $C$DW$36, DW_AT_TI_symbol_name("DIR_H")
     954                            .dwattr $C$DW$36, DW_AT_data_member_location[DW_OP_plus_uconst 0x1]
     955                            .dwattr $C$DW$36, DW_AT_accessibility(DW_ACCESS_public)
     956                            .dwattr $C$DW$36, DW_AT_decl_file("C:\ti\ccs1200\ccs\ccs_base\arm\include\msp432p401r.h")
     957                            .dwattr $C$DW$36, DW_AT_decl_line(0x25d)
     958                            .dwattr $C$DW$36, DW_AT_decl_column(0x14)
     959                    
     960                            .dwattr $C$DW$T$33, DW_AT_decl_file("C:\ti\ccs1200\ccs\ccs_base\arm\include\msp432p401r.h")
     961                            .dwattr $C$DW$T$33, DW_AT_decl_line(0x25b)
     962                            .dwattr $C$DW$T$33, DW_AT_decl_column(0x0c)
     963                            .dwendtag $C$DW$T$33
     964                    
     965                    
TI ARM Assembler PC v20.2.6 Mon Oct 31 23:16:55 2022

Copyright (c) 1996-2018 Texas Instruments Incorporated
Clock.asm                                                            PAGE   19

     966                    $C$DW$T$34      .dwtag  DW_TAG_structure_type
     967                            .dwattr $C$DW$T$34, DW_AT_byte_size(0x02)
     968                    $C$DW$37        .dwtag  DW_TAG_member
     969                            .dwattr $C$DW$37, DW_AT_type(*$C$DW$T$28)
     970                            .dwattr $C$DW$37, DW_AT_name("REN_L")
     971                            .dwattr $C$DW$37, DW_AT_TI_symbol_name("REN_L")
     972                            .dwattr $C$DW$37, DW_AT_data_member_location[DW_OP_plus_uconst 0x0]
     973                            .dwattr $C$DW$37, DW_AT_accessibility(DW_ACCESS_public)
     974                            .dwattr $C$DW$37, DW_AT_decl_file("C:\ti\ccs1200\ccs\ccs_base\arm\include\msp432p401r.h")
     975                            .dwattr $C$DW$37, DW_AT_decl_line(0x263)
     976                            .dwattr $C$DW$37, DW_AT_decl_column(0x14)
     977                    
     978                    $C$DW$38        .dwtag  DW_TAG_member
     979                            .dwattr $C$DW$38, DW_AT_type(*$C$DW$T$28)
     980                            .dwattr $C$DW$38, DW_AT_name("REN_H")
     981                            .dwattr $C$DW$38, DW_AT_TI_symbol_name("REN_H")
     982                            .dwattr $C$DW$38, DW_AT_data_member_location[DW_OP_plus_uconst 0x1]
     983                            .dwattr $C$DW$38, DW_AT_accessibility(DW_ACCESS_public)
     984                            .dwattr $C$DW$38, DW_AT_decl_file("C:\ti\ccs1200\ccs\ccs_base\arm\include\msp432p401r.h")
     985                            .dwattr $C$DW$38, DW_AT_decl_line(0x264)
     986                            .dwattr $C$DW$38, DW_AT_decl_column(0x14)
     987                    
     988                            .dwattr $C$DW$T$34, DW_AT_decl_file("C:\ti\ccs1200\ccs\ccs_base\arm\include\msp432p401r.h")
     989                            .dwattr $C$DW$T$34, DW_AT_decl_line(0x262)
     990                            .dwattr $C$DW$T$34, DW_AT_decl_column(0x0c)
     991                            .dwendtag $C$DW$T$34
     992                    
     993                    
     994                    $C$DW$T$35      .dwtag  DW_TAG_structure_type
     995                            .dwattr $C$DW$T$35, DW_AT_byte_size(0x02)
     996                    $C$DW$39        .dwtag  DW_TAG_member
     997                            .dwattr $C$DW$39, DW_AT_type(*$C$DW$T$28)
     998                            .dwattr $C$DW$39, DW_AT_name("DS_L")
     999                            .dwattr $C$DW$39, DW_AT_TI_symbol_name("DS_L")
    1000                            .dwattr $C$DW$39, DW_AT_data_member_location[DW_OP_plus_uconst 0x0]
    1001                            .dwattr $C$DW$39, DW_AT_accessibility(DW_ACCESS_public)
    1002                            .dwattr $C$DW$39, DW_AT_decl_file("C:\ti\ccs1200\ccs\ccs_base\arm\include\msp432p401r.h")
    1003                            .dwattr $C$DW$39, DW_AT_decl_line(0x26a)
    1004                            .dwattr $C$DW$39, DW_AT_decl_column(0x14)
    1005                    
    1006                    $C$DW$40        .dwtag  DW_TAG_member
    1007                            .dwattr $C$DW$40, DW_AT_type(*$C$DW$T$28)
    1008                            .dwattr $C$DW$40, DW_AT_name("DS_H")
    1009                            .dwattr $C$DW$40, DW_AT_TI_symbol_name("DS_H")
    1010                            .dwattr $C$DW$40, DW_AT_data_member_location[DW_OP_plus_uconst 0x1]
    1011                            .dwattr $C$DW$40, DW_AT_accessibility(DW_ACCESS_public)
    1012                            .dwattr $C$DW$40, DW_AT_decl_file("C:\ti\ccs1200\ccs\ccs_base\arm\include\msp432p401r.h")
    1013                            .dwattr $C$DW$40, DW_AT_decl_line(0x26b)
    1014                            .dwattr $C$DW$40, DW_AT_decl_column(0x14)
    1015                    
    1016                            .dwattr $C$DW$T$35, DW_AT_decl_file("C:\ti\ccs1200\ccs\ccs_base\arm\include\msp432p401r.h")
    1017                            .dwattr $C$DW$T$35, DW_AT_decl_line(0x269)
    1018                            .dwattr $C$DW$T$35, DW_AT_decl_column(0x0c)
    1019                            .dwendtag $C$DW$T$35
    1020                    
TI ARM Assembler PC v20.2.6 Mon Oct 31 23:16:55 2022

Copyright (c) 1996-2018 Texas Instruments Incorporated
Clock.asm                                                            PAGE   20

    1021                    
    1022                    $C$DW$T$36      .dwtag  DW_TAG_structure_type
    1023                            .dwattr $C$DW$T$36, DW_AT_byte_size(0x02)
    1024                    $C$DW$41        .dwtag  DW_TAG_member
    1025                            .dwattr $C$DW$41, DW_AT_type(*$C$DW$T$28)
    1026                            .dwattr $C$DW$41, DW_AT_name("SEL1_L")
    1027                            .dwattr $C$DW$41, DW_AT_TI_symbol_name("SEL1_L")
    1028                            .dwattr $C$DW$41, DW_AT_data_member_location[DW_OP_plus_uconst 0x0]
    1029                            .dwattr $C$DW$41, DW_AT_accessibility(DW_ACCESS_public)
    1030                            .dwattr $C$DW$41, DW_AT_decl_file("C:\ti\ccs1200\ccs\ccs_base\arm\include\msp432p401r.h")
    1031                            .dwattr $C$DW$41, DW_AT_decl_line(0x278)
    1032                            .dwattr $C$DW$41, DW_AT_decl_column(0x14)
    1033                    
    1034                    $C$DW$42        .dwtag  DW_TAG_member
    1035                            .dwattr $C$DW$42, DW_AT_type(*$C$DW$T$28)
    1036                            .dwattr $C$DW$42, DW_AT_name("SEL1_H")
    1037                            .dwattr $C$DW$42, DW_AT_TI_symbol_name("SEL1_H")
    1038                            .dwattr $C$DW$42, DW_AT_data_member_location[DW_OP_plus_uconst 0x1]
    1039                            .dwattr $C$DW$42, DW_AT_accessibility(DW_ACCESS_public)
    1040                            .dwattr $C$DW$42, DW_AT_decl_file("C:\ti\ccs1200\ccs\ccs_base\arm\include\msp432p401r.h")
    1041                            .dwattr $C$DW$42, DW_AT_decl_line(0x279)
    1042                            .dwattr $C$DW$42, DW_AT_decl_column(0x14)
    1043                    
    1044                            .dwattr $C$DW$T$36, DW_AT_decl_file("C:\ti\ccs1200\ccs\ccs_base\arm\include\msp432p401r.h")
    1045                            .dwattr $C$DW$T$36, DW_AT_decl_line(0x277)
    1046                            .dwattr $C$DW$T$36, DW_AT_decl_column(0x0c)
    1047                            .dwendtag $C$DW$T$36
    1048                    
    1049                    
    1050                    $C$DW$T$37      .dwtag  DW_TAG_structure_type
    1051                            .dwattr $C$DW$T$37, DW_AT_byte_size(0x02)
    1052                    $C$DW$43        .dwtag  DW_TAG_member
    1053                            .dwattr $C$DW$43, DW_AT_type(*$C$DW$T$28)
    1054                            .dwattr $C$DW$43, DW_AT_name("SELC_L")
    1055                            .dwattr $C$DW$43, DW_AT_TI_symbol_name("SELC_L")
    1056                            .dwattr $C$DW$43, DW_AT_data_member_location[DW_OP_plus_uconst 0x0]
    1057                            .dwattr $C$DW$43, DW_AT_accessibility(DW_ACCESS_public)
    1058                            .dwattr $C$DW$43, DW_AT_decl_file("C:\ti\ccs1200\ccs\ccs_base\arm\include\msp432p401r.h")
    1059                            .dwattr $C$DW$43, DW_AT_decl_line(0x280)
    1060                            .dwattr $C$DW$43, DW_AT_decl_column(0x14)
    1061                    
    1062                    $C$DW$44        .dwtag  DW_TAG_member
    1063                            .dwattr $C$DW$44, DW_AT_type(*$C$DW$T$28)
    1064                            .dwattr $C$DW$44, DW_AT_name("SELC_H")
    1065                            .dwattr $C$DW$44, DW_AT_TI_symbol_name("SELC_H")
    1066                            .dwattr $C$DW$44, DW_AT_data_member_location[DW_OP_plus_uconst 0x1]
    1067                            .dwattr $C$DW$44, DW_AT_accessibility(DW_ACCESS_public)
    1068                            .dwattr $C$DW$44, DW_AT_decl_file("C:\ti\ccs1200\ccs\ccs_base\arm\include\msp432p401r.h")
    1069                            .dwattr $C$DW$44, DW_AT_decl_line(0x281)
    1070                            .dwattr $C$DW$44, DW_AT_decl_column(0x14)
    1071                    
    1072                            .dwattr $C$DW$T$37, DW_AT_decl_file("C:\ti\ccs1200\ccs\ccs_base\arm\include\msp432p401r.h")
    1073                            .dwattr $C$DW$T$37, DW_AT_decl_line(0x27f)
    1074                            .dwattr $C$DW$T$37, DW_AT_decl_column(0x0c)
    1075                            .dwendtag $C$DW$T$37
TI ARM Assembler PC v20.2.6 Mon Oct 31 23:16:55 2022

Copyright (c) 1996-2018 Texas Instruments Incorporated
Clock.asm                                                            PAGE   21

    1076                    
    1077                    
    1078                    $C$DW$T$41      .dwtag  DW_TAG_structure_type
    1079                            .dwattr $C$DW$T$41, DW_AT_byte_size(0x18)
    1080                    $C$DW$45        .dwtag  DW_TAG_member
    1081                            .dwattr $C$DW$45, DW_AT_type(*$C$DW$T$152)
    1082                            .dwattr $C$DW$45, DW_AT_name("$P$T2")
    1083                            .dwattr $C$DW$45, DW_AT_TI_symbol_name("$P$T2")
    1084                            .dwattr $C$DW$45, DW_AT_data_member_location[DW_OP_plus_uconst 0x0]
    1085                            .dwattr $C$DW$45, DW_AT_accessibility(DW_ACCESS_public)
    1086                            .dwattr $C$DW$45, DW_AT_decl_file("C:\ti\ccs1200\ccs\ccs_base\arm\include\msp432p401r.h")
    1087                            .dwattr $C$DW$45, DW_AT_decl_line(0x24b)
    1088                            .dwattr $C$DW$45, DW_AT_decl_column(0x03)
    1089                    
    1090                    $C$DW$46        .dwtag  DW_TAG_member
    1091                            .dwattr $C$DW$46, DW_AT_type(*$C$DW$T$153)
    1092                            .dwattr $C$DW$46, DW_AT_name("$P$T4")
    1093                            .dwattr $C$DW$46, DW_AT_TI_symbol_name("$P$T4")
    1094                            .dwattr $C$DW$46, DW_AT_data_member_location[DW_OP_plus_uconst 0x2]
    1095                            .dwattr $C$DW$46, DW_AT_accessibility(DW_ACCESS_public)
    1096                            .dwattr $C$DW$46, DW_AT_decl_file("C:\ti\ccs1200\ccs\ccs_base\arm\include\msp432p401r.h")
    1097                            .dwattr $C$DW$46, DW_AT_decl_line(0x252)
    1098                            .dwattr $C$DW$46, DW_AT_decl_column(0x03)
    1099                    
    1100                    $C$DW$47        .dwtag  DW_TAG_member
    1101                            .dwattr $C$DW$47, DW_AT_type(*$C$DW$T$154)
    1102                            .dwattr $C$DW$47, DW_AT_name("$P$T6")
    1103                            .dwattr $C$DW$47, DW_AT_TI_symbol_name("$P$T6")
    1104                            .dwattr $C$DW$47, DW_AT_data_member_location[DW_OP_plus_uconst 0x4]
    1105                            .dwattr $C$DW$47, DW_AT_accessibility(DW_ACCESS_public)
    1106                            .dwattr $C$DW$47, DW_AT_decl_file("C:\ti\ccs1200\ccs\ccs_base\arm\include\msp432p401r.h")
    1107                            .dwattr $C$DW$47, DW_AT_decl_line(0x259)
    1108                            .dwattr $C$DW$47, DW_AT_decl_column(0x03)
    1109                    
    1110                    $C$DW$48        .dwtag  DW_TAG_member
    1111                            .dwattr $C$DW$48, DW_AT_type(*$C$DW$T$155)
    1112                            .dwattr $C$DW$48, DW_AT_name("$P$T8")
    1113                            .dwattr $C$DW$48, DW_AT_TI_symbol_name("$P$T8")
    1114                            .dwattr $C$DW$48, DW_AT_data_member_location[DW_OP_plus_uconst 0x6]
    1115                            .dwattr $C$DW$48, DW_AT_accessibility(DW_ACCESS_public)
    1116                            .dwattr $C$DW$48, DW_AT_decl_file("C:\ti\ccs1200\ccs\ccs_base\arm\include\msp432p401r.h")
    1117                            .dwattr $C$DW$48, DW_AT_decl_line(0x260)
    1118                            .dwattr $C$DW$48, DW_AT_decl_column(0x03)
    1119                    
    1120                    $C$DW$49        .dwtag  DW_TAG_member
    1121                            .dwattr $C$DW$49, DW_AT_type(*$C$DW$T$156)
    1122                            .dwattr $C$DW$49, DW_AT_name("$P$T10")
    1123                            .dwattr $C$DW$49, DW_AT_TI_symbol_name("$P$T10")
    1124                            .dwattr $C$DW$49, DW_AT_data_member_location[DW_OP_plus_uconst 0x8]
    1125                            .dwattr $C$DW$49, DW_AT_accessibility(DW_ACCESS_public)
    1126                            .dwattr $C$DW$49, DW_AT_decl_file("C:\ti\ccs1200\ccs\ccs_base\arm\include\msp432p401r.h")
    1127                            .dwattr $C$DW$49, DW_AT_decl_line(0x267)
    1128                            .dwattr $C$DW$49, DW_AT_decl_column(0x03)
    1129                    
    1130                    $C$DW$50        .dwtag  DW_TAG_member
TI ARM Assembler PC v20.2.6 Mon Oct 31 23:16:55 2022

Copyright (c) 1996-2018 Texas Instruments Incorporated
Clock.asm                                                            PAGE   22

    1131                            .dwattr $C$DW$50, DW_AT_type(*$C$DW$T$151)
    1132                            .dwattr $C$DW$50, DW_AT_name("$P$T11")
    1133                            .dwattr $C$DW$50, DW_AT_TI_symbol_name("$P$T11")
    1134                            .dwattr $C$DW$50, DW_AT_data_member_location[DW_OP_plus_uconst 0xa]
    1135                            .dwattr $C$DW$50, DW_AT_accessibility(DW_ACCESS_public)
    1136                            .dwattr $C$DW$50, DW_AT_decl_file("C:\ti\ccs1200\ccs\ccs_base\arm\include\msp432p401r.h")
    1137                            .dwattr $C$DW$50, DW_AT_decl_line(0x26e)
    1138                            .dwattr $C$DW$50, DW_AT_decl_column(0x03)
    1139                    
    1140                    $C$DW$51        .dwtag  DW_TAG_member
    1141                            .dwattr $C$DW$51, DW_AT_type(*$C$DW$T$157)
    1142                            .dwattr $C$DW$51, DW_AT_name("$P$T13")
    1143                            .dwattr $C$DW$51, DW_AT_TI_symbol_name("$P$T13")
    1144                            .dwattr $C$DW$51, DW_AT_data_member_location[DW_OP_plus_uconst 0xc]
    1145                            .dwattr $C$DW$51, DW_AT_accessibility(DW_ACCESS_public)
    1146                            .dwattr $C$DW$51, DW_AT_decl_file("C:\ti\ccs1200\ccs\ccs_base\arm\include\msp432p401r.h")
    1147                            .dwattr $C$DW$51, DW_AT_decl_line(0x275)
    1148                            .dwattr $C$DW$51, DW_AT_decl_column(0x03)
    1149                    
    1150                    $C$DW$52        .dwtag  DW_TAG_member
    1151                            .dwattr $C$DW$52, DW_AT_type(*$C$DW$T$40)
    1152                            .dwattr $C$DW$52, DW_AT_name("RESERVED0")
    1153                            .dwattr $C$DW$52, DW_AT_TI_symbol_name("RESERVED0")
    1154                            .dwattr $C$DW$52, DW_AT_data_member_location[DW_OP_plus_uconst 0xe]
    1155                            .dwattr $C$DW$52, DW_AT_accessibility(DW_ACCESS_public)
    1156                            .dwattr $C$DW$52, DW_AT_decl_file("C:\ti\ccs1200\ccs\ccs_base\arm\include\msp432p401r.h")
    1157                            .dwattr $C$DW$52, DW_AT_decl_line(0x27c)
    1158                            .dwattr $C$DW$52, DW_AT_decl_column(0x0d)
    1159                    
    1160                    $C$DW$53        .dwtag  DW_TAG_member
    1161                            .dwattr $C$DW$53, DW_AT_type(*$C$DW$T$158)
    1162                            .dwattr $C$DW$53, DW_AT_name("$P$T15")
    1163                            .dwattr $C$DW$53, DW_AT_TI_symbol_name("$P$T15")
    1164                            .dwattr $C$DW$53, DW_AT_data_member_location[DW_OP_plus_uconst 0x16]
    1165                            .dwattr $C$DW$53, DW_AT_accessibility(DW_ACCESS_public)
    1166                            .dwattr $C$DW$53, DW_AT_decl_file("C:\ti\ccs1200\ccs\ccs_base\arm\include\msp432p401r.h")
    1167                            .dwattr $C$DW$53, DW_AT_decl_line(0x27d)
    1168                            .dwattr $C$DW$53, DW_AT_decl_column(0x03)
    1169                    
    1170                            .dwattr $C$DW$T$41, DW_AT_decl_file("C:\ti\ccs1200\ccs\ccs_base\arm\include\msp432p401r.h")
    1171                            .dwattr $C$DW$T$41, DW_AT_decl_line(0x24a)
    1172                            .dwattr $C$DW$T$41, DW_AT_decl_column(0x10)
    1173                            .dwendtag $C$DW$T$41
    1174                    
    1175                    $C$DW$T$181     .dwtag  DW_TAG_typedef
    1176                            .dwattr $C$DW$T$181, DW_AT_name("DIO_PORT_Not_Interruptable_Type")
    1177                            .dwattr $C$DW$T$181, DW_AT_type(*$C$DW$T$41)
    1178                            .dwattr $C$DW$T$181, DW_AT_language(DW_LANG_C)
    1179                            .dwattr $C$DW$T$181, DW_AT_decl_file("C:\ti\ccs1200\ccs\ccs_base\arm\include\msp432p401r.h")
    1180                            .dwattr $C$DW$T$181, DW_AT_decl_line(0x284)
    1181                            .dwattr $C$DW$T$181, DW_AT_decl_column(0x03)
    1182                    
    1183                    
    1184                    $C$DW$T$44      .dwtag  DW_TAG_structure_type
    1185                            .dwattr $C$DW$T$44, DW_AT_byte_size(0x68)
TI ARM Assembler PC v20.2.6 Mon Oct 31 23:16:55 2022

Copyright (c) 1996-2018 Texas Instruments Incorporated
Clock.asm                                                            PAGE   23

    1186                    $C$DW$54        .dwtag  DW_TAG_member
    1187                            .dwattr $C$DW$54, DW_AT_type(*$C$DW$T$23)
    1188                            .dwattr $C$DW$54, DW_AT_name("KEY")
    1189                            .dwattr $C$DW$54, DW_AT_TI_symbol_name("KEY")
    1190                            .dwattr $C$DW$54, DW_AT_data_member_location[DW_OP_plus_uconst 0x0]
    1191                            .dwattr $C$DW$54, DW_AT_accessibility(DW_ACCESS_public)
    1192                            .dwattr $C$DW$54, DW_AT_decl_file("C:\ti\ccs1200\ccs\ccs_base\arm\include\msp432p401r.h")
    1193                            .dwattr $C$DW$54, DW_AT_decl_line(0x1d9)
    1194                            .dwattr $C$DW$54, DW_AT_decl_column(0x11)
    1195                    
    1196                    $C$DW$55        .dwtag  DW_TAG_member
    1197                            .dwattr $C$DW$55, DW_AT_type(*$C$DW$T$23)
    1198                            .dwattr $C$DW$55, DW_AT_name("CTL0")
    1199                            .dwattr $C$DW$55, DW_AT_TI_symbol_name("CTL0")
    1200                            .dwattr $C$DW$55, DW_AT_data_member_location[DW_OP_plus_uconst 0x4]
    1201                            .dwattr $C$DW$55, DW_AT_accessibility(DW_ACCESS_public)
    1202                            .dwattr $C$DW$55, DW_AT_decl_file("C:\ti\ccs1200\ccs\ccs_base\arm\include\msp432p401r.h")
    1203                            .dwattr $C$DW$55, DW_AT_decl_line(0x1da)
    1204                            .dwattr $C$DW$55, DW_AT_decl_column(0x11)
    1205                    
    1206                    $C$DW$56        .dwtag  DW_TAG_member
    1207                            .dwattr $C$DW$56, DW_AT_type(*$C$DW$T$23)
    1208                            .dwattr $C$DW$56, DW_AT_name("CTL1")
    1209                            .dwattr $C$DW$56, DW_AT_TI_symbol_name("CTL1")
    1210                            .dwattr $C$DW$56, DW_AT_data_member_location[DW_OP_plus_uconst 0x8]
    1211                            .dwattr $C$DW$56, DW_AT_accessibility(DW_ACCESS_public)
    1212                            .dwattr $C$DW$56, DW_AT_decl_file("C:\ti\ccs1200\ccs\ccs_base\arm\include\msp432p401r.h")
    1213                            .dwattr $C$DW$56, DW_AT_decl_line(0x1db)
    1214                            .dwattr $C$DW$56, DW_AT_decl_column(0x11)
    1215                    
    1216                    $C$DW$57        .dwtag  DW_TAG_member
    1217                            .dwattr $C$DW$57, DW_AT_type(*$C$DW$T$23)
    1218                            .dwattr $C$DW$57, DW_AT_name("CTL2")
    1219                            .dwattr $C$DW$57, DW_AT_TI_symbol_name("CTL2")
    1220                            .dwattr $C$DW$57, DW_AT_data_member_location[DW_OP_plus_uconst 0xc]
    1221                            .dwattr $C$DW$57, DW_AT_accessibility(DW_ACCESS_public)
    1222                            .dwattr $C$DW$57, DW_AT_decl_file("C:\ti\ccs1200\ccs\ccs_base\arm\include\msp432p401r.h")
    1223                            .dwattr $C$DW$57, DW_AT_decl_line(0x1dc)
    1224                            .dwattr $C$DW$57, DW_AT_decl_column(0x11)
    1225                    
    1226                    $C$DW$58        .dwtag  DW_TAG_member
    1227                            .dwattr $C$DW$58, DW_AT_type(*$C$DW$T$23)
    1228                            .dwattr $C$DW$58, DW_AT_name("CTL3")
    1229                            .dwattr $C$DW$58, DW_AT_TI_symbol_name("CTL3")
    1230                            .dwattr $C$DW$58, DW_AT_data_member_location[DW_OP_plus_uconst 0x10]
    1231                            .dwattr $C$DW$58, DW_AT_accessibility(DW_ACCESS_public)
    1232                            .dwattr $C$DW$58, DW_AT_decl_file("C:\ti\ccs1200\ccs\ccs_base\arm\include\msp432p401r.h")
    1233                            .dwattr $C$DW$58, DW_AT_decl_line(0x1dd)
    1234                            .dwattr $C$DW$58, DW_AT_decl_column(0x11)
    1235                    
    1236                    $C$DW$59        .dwtag  DW_TAG_member
    1237                            .dwattr $C$DW$59, DW_AT_type(*$C$DW$T$42)
    1238                            .dwattr $C$DW$59, DW_AT_name("RESERVED0")
    1239                            .dwattr $C$DW$59, DW_AT_TI_symbol_name("RESERVED0")
    1240                            .dwattr $C$DW$59, DW_AT_data_member_location[DW_OP_plus_uconst 0x14]
TI ARM Assembler PC v20.2.6 Mon Oct 31 23:16:55 2022

Copyright (c) 1996-2018 Texas Instruments Incorporated
Clock.asm                                                            PAGE   24

    1241                            .dwattr $C$DW$59, DW_AT_accessibility(DW_ACCESS_public)
    1242                            .dwattr $C$DW$59, DW_AT_decl_file("C:\ti\ccs1200\ccs\ccs_base\arm\include\msp432p401r.h")
    1243                            .dwattr $C$DW$59, DW_AT_decl_line(0x1de)
    1244                            .dwattr $C$DW$59, DW_AT_decl_column(0x11)
    1245                    
    1246                    $C$DW$60        .dwtag  DW_TAG_member
    1247                            .dwattr $C$DW$60, DW_AT_type(*$C$DW$T$23)
    1248                            .dwattr $C$DW$60, DW_AT_name("CLKEN")
    1249                            .dwattr $C$DW$60, DW_AT_TI_symbol_name("CLKEN")
    1250                            .dwattr $C$DW$60, DW_AT_data_member_location[DW_OP_plus_uconst 0x30]
    1251                            .dwattr $C$DW$60, DW_AT_accessibility(DW_ACCESS_public)
    1252                            .dwattr $C$DW$60, DW_AT_decl_file("C:\ti\ccs1200\ccs\ccs_base\arm\include\msp432p401r.h")
    1253                            .dwattr $C$DW$60, DW_AT_decl_line(0x1df)
    1254                            .dwattr $C$DW$60, DW_AT_decl_column(0x11)
    1255                    
    1256                    $C$DW$61        .dwtag  DW_TAG_member
    1257                            .dwattr $C$DW$61, DW_AT_type(*$C$DW$T$24)
    1258                            .dwattr $C$DW$61, DW_AT_name("STAT")
    1259                            .dwattr $C$DW$61, DW_AT_TI_symbol_name("STAT")
    1260                            .dwattr $C$DW$61, DW_AT_data_member_location[DW_OP_plus_uconst 0x34]
    1261                            .dwattr $C$DW$61, DW_AT_accessibility(DW_ACCESS_public)
    1262                            .dwattr $C$DW$61, DW_AT_decl_file("C:\ti\ccs1200\ccs\ccs_base\arm\include\msp432p401r.h")
    1263                            .dwattr $C$DW$61, DW_AT_decl_line(0x1e0)
    1264                            .dwattr $C$DW$61, DW_AT_decl_column(0x11)
    1265                    
    1266                    $C$DW$62        .dwtag  DW_TAG_member
    1267                            .dwattr $C$DW$62, DW_AT_type(*$C$DW$T$43)
    1268                            .dwattr $C$DW$62, DW_AT_name("RESERVED1")
    1269                            .dwattr $C$DW$62, DW_AT_TI_symbol_name("RESERVED1")
    1270                            .dwattr $C$DW$62, DW_AT_data_member_location[DW_OP_plus_uconst 0x38]
    1271                            .dwattr $C$DW$62, DW_AT_accessibility(DW_ACCESS_public)
    1272                            .dwattr $C$DW$62, DW_AT_decl_file("C:\ti\ccs1200\ccs\ccs_base\arm\include\msp432p401r.h")
    1273                            .dwattr $C$DW$62, DW_AT_decl_line(0x1e1)
    1274                            .dwattr $C$DW$62, DW_AT_decl_column(0x11)
    1275                    
    1276                    $C$DW$63        .dwtag  DW_TAG_member
    1277                            .dwattr $C$DW$63, DW_AT_type(*$C$DW$T$23)
    1278                            .dwattr $C$DW$63, DW_AT_name("IE")
    1279                            .dwattr $C$DW$63, DW_AT_TI_symbol_name("IE")
    1280                            .dwattr $C$DW$63, DW_AT_data_member_location[DW_OP_plus_uconst 0x40]
    1281                            .dwattr $C$DW$63, DW_AT_accessibility(DW_ACCESS_public)
    1282                            .dwattr $C$DW$63, DW_AT_decl_file("C:\ti\ccs1200\ccs\ccs_base\arm\include\msp432p401r.h")
    1283                            .dwattr $C$DW$63, DW_AT_decl_line(0x1e2)
    1284                            .dwattr $C$DW$63, DW_AT_decl_column(0x11)
    1285                    
    1286                    $C$DW$64        .dwtag  DW_TAG_member
    1287                            .dwattr $C$DW$64, DW_AT_type(*$C$DW$T$22)
    1288                            .dwattr $C$DW$64, DW_AT_name("RESERVED2")
    1289                            .dwattr $C$DW$64, DW_AT_TI_symbol_name("RESERVED2")
    1290                            .dwattr $C$DW$64, DW_AT_data_member_location[DW_OP_plus_uconst 0x44]
    1291                            .dwattr $C$DW$64, DW_AT_accessibility(DW_ACCESS_public)
    1292                            .dwattr $C$DW$64, DW_AT_decl_file("C:\ti\ccs1200\ccs\ccs_base\arm\include\msp432p401r.h")
    1293                            .dwattr $C$DW$64, DW_AT_decl_line(0x1e3)
    1294                            .dwattr $C$DW$64, DW_AT_decl_column(0x11)
    1295                    
TI ARM Assembler PC v20.2.6 Mon Oct 31 23:16:55 2022

Copyright (c) 1996-2018 Texas Instruments Incorporated
Clock.asm                                                            PAGE   25

    1296                    $C$DW$65        .dwtag  DW_TAG_member
    1297                            .dwattr $C$DW$65, DW_AT_type(*$C$DW$T$24)
    1298                            .dwattr $C$DW$65, DW_AT_name("IFG")
    1299                            .dwattr $C$DW$65, DW_AT_TI_symbol_name("IFG")
    1300                            .dwattr $C$DW$65, DW_AT_data_member_location[DW_OP_plus_uconst 0x48]
    1301                            .dwattr $C$DW$65, DW_AT_accessibility(DW_ACCESS_public)
    1302                            .dwattr $C$DW$65, DW_AT_decl_file("C:\ti\ccs1200\ccs\ccs_base\arm\include\msp432p401r.h")
    1303                            .dwattr $C$DW$65, DW_AT_decl_line(0x1e4)
    1304                            .dwattr $C$DW$65, DW_AT_decl_column(0x11)
    1305                    
    1306                    $C$DW$66        .dwtag  DW_TAG_member
    1307                            .dwattr $C$DW$66, DW_AT_type(*$C$DW$T$22)
    1308                            .dwattr $C$DW$66, DW_AT_name("RESERVED3")
    1309                            .dwattr $C$DW$66, DW_AT_TI_symbol_name("RESERVED3")
    1310                            .dwattr $C$DW$66, DW_AT_data_member_location[DW_OP_plus_uconst 0x4c]
    1311                            .dwattr $C$DW$66, DW_AT_accessibility(DW_ACCESS_public)
    1312                            .dwattr $C$DW$66, DW_AT_decl_file("C:\ti\ccs1200\ccs\ccs_base\arm\include\msp432p401r.h")
    1313                            .dwattr $C$DW$66, DW_AT_decl_line(0x1e5)
    1314                            .dwattr $C$DW$66, DW_AT_decl_column(0x11)
    1315                    
    1316                    $C$DW$67        .dwtag  DW_TAG_member
    1317                            .dwattr $C$DW$67, DW_AT_type(*$C$DW$T$23)
    1318                            .dwattr $C$DW$67, DW_AT_name("CLRIFG")
    1319                            .dwattr $C$DW$67, DW_AT_TI_symbol_name("CLRIFG")
    1320                            .dwattr $C$DW$67, DW_AT_data_member_location[DW_OP_plus_uconst 0x50]
    1321                            .dwattr $C$DW$67, DW_AT_accessibility(DW_ACCESS_public)
    1322                            .dwattr $C$DW$67, DW_AT_decl_file("C:\ti\ccs1200\ccs\ccs_base\arm\include\msp432p401r.h")
    1323                            .dwattr $C$DW$67, DW_AT_decl_line(0x1e6)
    1324                            .dwattr $C$DW$67, DW_AT_decl_column(0x11)
    1325                    
    1326                    $C$DW$68        .dwtag  DW_TAG_member
    1327                            .dwattr $C$DW$68, DW_AT_type(*$C$DW$T$22)
    1328                            .dwattr $C$DW$68, DW_AT_name("RESERVED4")
    1329                            .dwattr $C$DW$68, DW_AT_TI_symbol_name("RESERVED4")
    1330                            .dwattr $C$DW$68, DW_AT_data_member_location[DW_OP_plus_uconst 0x54]
    1331                            .dwattr $C$DW$68, DW_AT_accessibility(DW_ACCESS_public)
    1332                            .dwattr $C$DW$68, DW_AT_decl_file("C:\ti\ccs1200\ccs\ccs_base\arm\include\msp432p401r.h")
    1333                            .dwattr $C$DW$68, DW_AT_decl_line(0x1e7)
    1334                            .dwattr $C$DW$68, DW_AT_decl_column(0x11)
    1335                    
    1336                    $C$DW$69        .dwtag  DW_TAG_member
    1337                            .dwattr $C$DW$69, DW_AT_type(*$C$DW$T$23)
    1338                            .dwattr $C$DW$69, DW_AT_name("SETIFG")
    1339                            .dwattr $C$DW$69, DW_AT_TI_symbol_name("SETIFG")
    1340                            .dwattr $C$DW$69, DW_AT_data_member_location[DW_OP_plus_uconst 0x58]
    1341                            .dwattr $C$DW$69, DW_AT_accessibility(DW_ACCESS_public)
    1342                            .dwattr $C$DW$69, DW_AT_decl_file("C:\ti\ccs1200\ccs\ccs_base\arm\include\msp432p401r.h")
    1343                            .dwattr $C$DW$69, DW_AT_decl_line(0x1e8)
    1344                            .dwattr $C$DW$69, DW_AT_decl_column(0x11)
    1345                    
    1346                    $C$DW$70        .dwtag  DW_TAG_member
    1347                            .dwattr $C$DW$70, DW_AT_type(*$C$DW$T$22)
    1348                            .dwattr $C$DW$70, DW_AT_name("RESERVED5")
    1349                            .dwattr $C$DW$70, DW_AT_TI_symbol_name("RESERVED5")
    1350                            .dwattr $C$DW$70, DW_AT_data_member_location[DW_OP_plus_uconst 0x5c]
TI ARM Assembler PC v20.2.6 Mon Oct 31 23:16:55 2022

Copyright (c) 1996-2018 Texas Instruments Incorporated
Clock.asm                                                            PAGE   26

    1351                            .dwattr $C$DW$70, DW_AT_accessibility(DW_ACCESS_public)
    1352                            .dwattr $C$DW$70, DW_AT_decl_file("C:\ti\ccs1200\ccs\ccs_base\arm\include\msp432p401r.h")
    1353                            .dwattr $C$DW$70, DW_AT_decl_line(0x1e9)
    1354                            .dwattr $C$DW$70, DW_AT_decl_column(0x11)
    1355                    
    1356                    $C$DW$71        .dwtag  DW_TAG_member
    1357                            .dwattr $C$DW$71, DW_AT_type(*$C$DW$T$23)
    1358                            .dwattr $C$DW$71, DW_AT_name("DCOERCAL0")
    1359                            .dwattr $C$DW$71, DW_AT_TI_symbol_name("DCOERCAL0")
    1360                            .dwattr $C$DW$71, DW_AT_data_member_location[DW_OP_plus_uconst 0x60]
    1361                            .dwattr $C$DW$71, DW_AT_accessibility(DW_ACCESS_public)
    1362                            .dwattr $C$DW$71, DW_AT_decl_file("C:\ti\ccs1200\ccs\ccs_base\arm\include\msp432p401r.h")
    1363                            .dwattr $C$DW$71, DW_AT_decl_line(0x1ea)
    1364                            .dwattr $C$DW$71, DW_AT_decl_column(0x11)
    1365                    
    1366                    $C$DW$72        .dwtag  DW_TAG_member
    1367                            .dwattr $C$DW$72, DW_AT_type(*$C$DW$T$23)
    1368                            .dwattr $C$DW$72, DW_AT_name("DCOERCAL1")
    1369                            .dwattr $C$DW$72, DW_AT_TI_symbol_name("DCOERCAL1")
    1370                            .dwattr $C$DW$72, DW_AT_data_member_location[DW_OP_plus_uconst 0x64]
    1371                            .dwattr $C$DW$72, DW_AT_accessibility(DW_ACCESS_public)
    1372                            .dwattr $C$DW$72, DW_AT_decl_file("C:\ti\ccs1200\ccs\ccs_base\arm\include\msp432p401r.h")
    1373                            .dwattr $C$DW$72, DW_AT_decl_line(0x1eb)
    1374                            .dwattr $C$DW$72, DW_AT_decl_column(0x11)
    1375                    
    1376                            .dwattr $C$DW$T$44, DW_AT_decl_file("C:\ti\ccs1200\ccs\ccs_base\arm\include\msp432p401r.h")
    1377                            .dwattr $C$DW$T$44, DW_AT_decl_line(0x1d8)
    1378                            .dwattr $C$DW$T$44, DW_AT_decl_column(0x10)
    1379                            .dwendtag $C$DW$T$44
    1380                    
    1381                    $C$DW$T$183     .dwtag  DW_TAG_typedef
    1382                            .dwattr $C$DW$T$183, DW_AT_name("CS_Type")
    1383                            .dwattr $C$DW$T$183, DW_AT_type(*$C$DW$T$44)
    1384                            .dwattr $C$DW$T$183, DW_AT_language(DW_LANG_C)
    1385                            .dwattr $C$DW$T$183, DW_AT_decl_file("C:\ti\ccs1200\ccs\ccs_base\arm\include\msp432p401r.h")
    1386                            .dwattr $C$DW$T$183, DW_AT_decl_line(0x1ec)
    1387                            .dwattr $C$DW$T$183, DW_AT_decl_column(0x03)
    1388                    
    1389                    
    1390                    $C$DW$T$47      .dwtag  DW_TAG_structure_type
    1391                            .dwattr $C$DW$T$47, DW_AT_byte_size(0x124)
    1392                    $C$DW$73        .dwtag  DW_TAG_member
    1393                            .dwattr $C$DW$73, DW_AT_type(*$C$DW$T$24)
    1394                            .dwattr $C$DW$73, DW_AT_name("POWER_STAT")
    1395                            .dwattr $C$DW$73, DW_AT_TI_symbol_name("POWER_STAT")
    1396                            .dwattr $C$DW$73, DW_AT_data_member_location[DW_OP_plus_uconst 0x0]
    1397                            .dwattr $C$DW$73, DW_AT_accessibility(DW_ACCESS_public)
    1398                            .dwattr $C$DW$73, DW_AT_decl_file("C:\ti\ccs1200\ccs\ccs_base\arm\include\msp432p401r.h")
    1399                            .dwattr $C$DW$73, DW_AT_decl_line(0x352)
    1400                            .dwattr $C$DW$73, DW_AT_decl_column(0x11)
    1401                    
    1402                    $C$DW$74        .dwtag  DW_TAG_member
    1403                            .dwattr $C$DW$74, DW_AT_type(*$C$DW$T$45)
    1404                            .dwattr $C$DW$74, DW_AT_name("RESERVED0")
    1405                            .dwattr $C$DW$74, DW_AT_TI_symbol_name("RESERVED0")
TI ARM Assembler PC v20.2.6 Mon Oct 31 23:16:55 2022

Copyright (c) 1996-2018 Texas Instruments Incorporated
Clock.asm                                                            PAGE   27

    1406                            .dwattr $C$DW$74, DW_AT_data_member_location[DW_OP_plus_uconst 0x4]
    1407                            .dwattr $C$DW$74, DW_AT_accessibility(DW_ACCESS_public)
    1408                            .dwattr $C$DW$74, DW_AT_decl_file("C:\ti\ccs1200\ccs\ccs_base\arm\include\msp432p401r.h")
    1409                            .dwattr $C$DW$74, DW_AT_decl_line(0x353)
    1410                            .dwattr $C$DW$74, DW_AT_decl_column(0x11)
    1411                    
    1412                    $C$DW$75        .dwtag  DW_TAG_member
    1413                            .dwattr $C$DW$75, DW_AT_type(*$C$DW$T$23)
    1414                            .dwattr $C$DW$75, DW_AT_name("BANK0_RDCTL")
    1415                            .dwattr $C$DW$75, DW_AT_TI_symbol_name("BANK0_RDCTL")
    1416                            .dwattr $C$DW$75, DW_AT_data_member_location[DW_OP_plus_uconst 0x10]
    1417                            .dwattr $C$DW$75, DW_AT_accessibility(DW_ACCESS_public)
    1418                            .dwattr $C$DW$75, DW_AT_decl_file("C:\ti\ccs1200\ccs\ccs_base\arm\include\msp432p401r.h")
    1419                            .dwattr $C$DW$75, DW_AT_decl_line(0x354)
    1420                            .dwattr $C$DW$75, DW_AT_decl_column(0x11)
    1421                    
    1422                    $C$DW$76        .dwtag  DW_TAG_member
    1423                            .dwattr $C$DW$76, DW_AT_type(*$C$DW$T$23)
    1424                            .dwattr $C$DW$76, DW_AT_name("BANK1_RDCTL")
    1425                            .dwattr $C$DW$76, DW_AT_TI_symbol_name("BANK1_RDCTL")
    1426                            .dwattr $C$DW$76, DW_AT_data_member_location[DW_OP_plus_uconst 0x14]
    1427                            .dwattr $C$DW$76, DW_AT_accessibility(DW_ACCESS_public)
    1428                            .dwattr $C$DW$76, DW_AT_decl_file("C:\ti\ccs1200\ccs\ccs_base\arm\include\msp432p401r.h")
    1429                            .dwattr $C$DW$76, DW_AT_decl_line(0x355)
    1430                            .dwattr $C$DW$76, DW_AT_decl_column(0x11)
    1431                    
    1432                    $C$DW$77        .dwtag  DW_TAG_member
    1433                            .dwattr $C$DW$77, DW_AT_type(*$C$DW$T$43)
    1434                            .dwattr $C$DW$77, DW_AT_name("RESERVED1")
    1435                            .dwattr $C$DW$77, DW_AT_TI_symbol_name("RESERVED1")
    1436                            .dwattr $C$DW$77, DW_AT_data_member_location[DW_OP_plus_uconst 0x18]
    1437                            .dwattr $C$DW$77, DW_AT_accessibility(DW_ACCESS_public)
    1438                            .dwattr $C$DW$77, DW_AT_decl_file("C:\ti\ccs1200\ccs\ccs_base\arm\include\msp432p401r.h")
    1439                            .dwattr $C$DW$77, DW_AT_decl_line(0x356)
    1440                            .dwattr $C$DW$77, DW_AT_decl_column(0x11)
    1441                    
    1442                    $C$DW$78        .dwtag  DW_TAG_member
    1443                            .dwattr $C$DW$78, DW_AT_type(*$C$DW$T$23)
    1444                            .dwattr $C$DW$78, DW_AT_name("RDBRST_CTLSTAT")
    1445                            .dwattr $C$DW$78, DW_AT_TI_symbol_name("RDBRST_CTLSTAT")
    1446                            .dwattr $C$DW$78, DW_AT_data_member_location[DW_OP_plus_uconst 0x20]
    1447                            .dwattr $C$DW$78, DW_AT_accessibility(DW_ACCESS_public)
    1448                            .dwattr $C$DW$78, DW_AT_decl_file("C:\ti\ccs1200\ccs\ccs_base\arm\include\msp432p401r.h")
    1449                            .dwattr $C$DW$78, DW_AT_decl_line(0x357)
    1450                            .dwattr $C$DW$78, DW_AT_decl_column(0x11)
    1451                    
    1452                    $C$DW$79        .dwtag  DW_TAG_member
    1453                            .dwattr $C$DW$79, DW_AT_type(*$C$DW$T$23)
    1454                            .dwattr $C$DW$79, DW_AT_name("RDBRST_STARTADDR")
    1455                            .dwattr $C$DW$79, DW_AT_TI_symbol_name("RDBRST_STARTADDR")
    1456                            .dwattr $C$DW$79, DW_AT_data_member_location[DW_OP_plus_uconst 0x24]
    1457                            .dwattr $C$DW$79, DW_AT_accessibility(DW_ACCESS_public)
    1458                            .dwattr $C$DW$79, DW_AT_decl_file("C:\ti\ccs1200\ccs\ccs_base\arm\include\msp432p401r.h")
    1459                            .dwattr $C$DW$79, DW_AT_decl_line(0x358)
    1460                            .dwattr $C$DW$79, DW_AT_decl_column(0x11)
TI ARM Assembler PC v20.2.6 Mon Oct 31 23:16:55 2022

Copyright (c) 1996-2018 Texas Instruments Incorporated
Clock.asm                                                            PAGE   28

    1461                    
    1462                    $C$DW$80        .dwtag  DW_TAG_member
    1463                            .dwattr $C$DW$80, DW_AT_type(*$C$DW$T$23)
    1464                            .dwattr $C$DW$80, DW_AT_name("RDBRST_LEN")
    1465                            .dwattr $C$DW$80, DW_AT_TI_symbol_name("RDBRST_LEN")
    1466                            .dwattr $C$DW$80, DW_AT_data_member_location[DW_OP_plus_uconst 0x28]
    1467                            .dwattr $C$DW$80, DW_AT_accessibility(DW_ACCESS_public)
    1468                            .dwattr $C$DW$80, DW_AT_decl_file("C:\ti\ccs1200\ccs\ccs_base\arm\include\msp432p401r.h")
    1469                            .dwattr $C$DW$80, DW_AT_decl_line(0x359)
    1470                            .dwattr $C$DW$80, DW_AT_decl_column(0x11)
    1471                    
    1472                    $C$DW$81        .dwtag  DW_TAG_member
    1473                            .dwattr $C$DW$81, DW_AT_type(*$C$DW$T$46)
    1474                            .dwattr $C$DW$81, DW_AT_name("RESERVED2")
    1475                            .dwattr $C$DW$81, DW_AT_TI_symbol_name("RESERVED2")
    1476                            .dwattr $C$DW$81, DW_AT_data_member_location[DW_OP_plus_uconst 0x2c]
    1477                            .dwattr $C$DW$81, DW_AT_accessibility(DW_ACCESS_public)
    1478                            .dwattr $C$DW$81, DW_AT_decl_file("C:\ti\ccs1200\ccs\ccs_base\arm\include\msp432p401r.h")
    1479                            .dwattr $C$DW$81, DW_AT_decl_line(0x35a)
    1480                            .dwattr $C$DW$81, DW_AT_decl_column(0x11)
    1481                    
    1482                    $C$DW$82        .dwtag  DW_TAG_member
    1483                            .dwattr $C$DW$82, DW_AT_type(*$C$DW$T$23)
    1484                            .dwattr $C$DW$82, DW_AT_name("RDBRST_FAILADDR")
    1485                            .dwattr $C$DW$82, DW_AT_TI_symbol_name("RDBRST_FAILADDR")
    1486                            .dwattr $C$DW$82, DW_AT_data_member_location[DW_OP_plus_uconst 0x3c]
    1487                            .dwattr $C$DW$82, DW_AT_accessibility(DW_ACCESS_public)
    1488                            .dwattr $C$DW$82, DW_AT_decl_file("C:\ti\ccs1200\ccs\ccs_base\arm\include\msp432p401r.h")
    1489                            .dwattr $C$DW$82, DW_AT_decl_line(0x35b)
    1490                            .dwattr $C$DW$82, DW_AT_decl_column(0x11)
    1491                    
    1492                    $C$DW$83        .dwtag  DW_TAG_member
    1493                            .dwattr $C$DW$83, DW_AT_type(*$C$DW$T$23)
    1494                            .dwattr $C$DW$83, DW_AT_name("RDBRST_FAILCNT")
    1495                            .dwattr $C$DW$83, DW_AT_TI_symbol_name("RDBRST_FAILCNT")
    1496                            .dwattr $C$DW$83, DW_AT_data_member_location[DW_OP_plus_uconst 0x40]
    1497                            .dwattr $C$DW$83, DW_AT_accessibility(DW_ACCESS_public)
    1498                            .dwattr $C$DW$83, DW_AT_decl_file("C:\ti\ccs1200\ccs\ccs_base\arm\include\msp432p401r.h")
    1499                            .dwattr $C$DW$83, DW_AT_decl_line(0x35c)
    1500                            .dwattr $C$DW$83, DW_AT_decl_column(0x11)
    1501                    
    1502                    $C$DW$84        .dwtag  DW_TAG_member
    1503                            .dwattr $C$DW$84, DW_AT_type(*$C$DW$T$45)
    1504                            .dwattr $C$DW$84, DW_AT_name("RESERVED3")
    1505                            .dwattr $C$DW$84, DW_AT_TI_symbol_name("RESERVED3")
    1506                            .dwattr $C$DW$84, DW_AT_data_member_location[DW_OP_plus_uconst 0x44]
    1507                            .dwattr $C$DW$84, DW_AT_accessibility(DW_ACCESS_public)
    1508                            .dwattr $C$DW$84, DW_AT_decl_file("C:\ti\ccs1200\ccs\ccs_base\arm\include\msp432p401r.h")
    1509                            .dwattr $C$DW$84, DW_AT_decl_line(0x35d)
    1510                            .dwattr $C$DW$84, DW_AT_decl_column(0x11)
    1511                    
    1512                    $C$DW$85        .dwtag  DW_TAG_member
    1513                            .dwattr $C$DW$85, DW_AT_type(*$C$DW$T$23)
    1514                            .dwattr $C$DW$85, DW_AT_name("PRG_CTLSTAT")
    1515                            .dwattr $C$DW$85, DW_AT_TI_symbol_name("PRG_CTLSTAT")
TI ARM Assembler PC v20.2.6 Mon Oct 31 23:16:55 2022

Copyright (c) 1996-2018 Texas Instruments Incorporated
Clock.asm                                                            PAGE   29

    1516                            .dwattr $C$DW$85, DW_AT_data_member_location[DW_OP_plus_uconst 0x50]
    1517                            .dwattr $C$DW$85, DW_AT_accessibility(DW_ACCESS_public)
    1518                            .dwattr $C$DW$85, DW_AT_decl_file("C:\ti\ccs1200\ccs\ccs_base\arm\include\msp432p401r.h")
    1519                            .dwattr $C$DW$85, DW_AT_decl_line(0x35e)
    1520                            .dwattr $C$DW$85, DW_AT_decl_column(0x11)
    1521                    
    1522                    $C$DW$86        .dwtag  DW_TAG_member
    1523                            .dwattr $C$DW$86, DW_AT_type(*$C$DW$T$23)
    1524                            .dwattr $C$DW$86, DW_AT_name("PRGBRST_CTLSTAT")
    1525                            .dwattr $C$DW$86, DW_AT_TI_symbol_name("PRGBRST_CTLSTAT")
    1526                            .dwattr $C$DW$86, DW_AT_data_member_location[DW_OP_plus_uconst 0x54]
    1527                            .dwattr $C$DW$86, DW_AT_accessibility(DW_ACCESS_public)
    1528                            .dwattr $C$DW$86, DW_AT_decl_file("C:\ti\ccs1200\ccs\ccs_base\arm\include\msp432p401r.h")
    1529                            .dwattr $C$DW$86, DW_AT_decl_line(0x35f)
    1530                            .dwattr $C$DW$86, DW_AT_decl_column(0x11)
    1531                    
    1532                    $C$DW$87        .dwtag  DW_TAG_member
    1533                            .dwattr $C$DW$87, DW_AT_type(*$C$DW$T$23)
    1534                            .dwattr $C$DW$87, DW_AT_name("PRGBRST_STARTADDR")
    1535                            .dwattr $C$DW$87, DW_AT_TI_symbol_name("PRGBRST_STARTADDR")
    1536                            .dwattr $C$DW$87, DW_AT_data_member_location[DW_OP_plus_uconst 0x58]
    1537                            .dwattr $C$DW$87, DW_AT_accessibility(DW_ACCESS_public)
    1538                            .dwattr $C$DW$87, DW_AT_decl_file("C:\ti\ccs1200\ccs\ccs_base\arm\include\msp432p401r.h")
    1539                            .dwattr $C$DW$87, DW_AT_decl_line(0x360)
    1540                            .dwattr $C$DW$87, DW_AT_decl_column(0x11)
    1541                    
    1542                    $C$DW$88        .dwtag  DW_TAG_member
    1543                            .dwattr $C$DW$88, DW_AT_type(*$C$DW$T$22)
    1544                            .dwattr $C$DW$88, DW_AT_name("RESERVED4")
    1545                            .dwattr $C$DW$88, DW_AT_TI_symbol_name("RESERVED4")
    1546                            .dwattr $C$DW$88, DW_AT_data_member_location[DW_OP_plus_uconst 0x5c]
    1547                            .dwattr $C$DW$88, DW_AT_accessibility(DW_ACCESS_public)
    1548                            .dwattr $C$DW$88, DW_AT_decl_file("C:\ti\ccs1200\ccs\ccs_base\arm\include\msp432p401r.h")
    1549                            .dwattr $C$DW$88, DW_AT_decl_line(0x361)
    1550                            .dwattr $C$DW$88, DW_AT_decl_column(0x11)
    1551                    
    1552                    $C$DW$89        .dwtag  DW_TAG_member
    1553                            .dwattr $C$DW$89, DW_AT_type(*$C$DW$T$23)
    1554                            .dwattr $C$DW$89, DW_AT_name("PRGBRST_DATA0_0")
    1555                            .dwattr $C$DW$89, DW_AT_TI_symbol_name("PRGBRST_DATA0_0")
    1556                            .dwattr $C$DW$89, DW_AT_data_member_location[DW_OP_plus_uconst 0x60]
    1557                            .dwattr $C$DW$89, DW_AT_accessibility(DW_ACCESS_public)
    1558                            .dwattr $C$DW$89, DW_AT_decl_file("C:\ti\ccs1200\ccs\ccs_base\arm\include\msp432p401r.h")
    1559                            .dwattr $C$DW$89, DW_AT_decl_line(0x362)
    1560                            .dwattr $C$DW$89, DW_AT_decl_column(0x11)
    1561                    
    1562                    $C$DW$90        .dwtag  DW_TAG_member
    1563                            .dwattr $C$DW$90, DW_AT_type(*$C$DW$T$23)
    1564                            .dwattr $C$DW$90, DW_AT_name("PRGBRST_DATA0_1")
    1565                            .dwattr $C$DW$90, DW_AT_TI_symbol_name("PRGBRST_DATA0_1")
    1566                            .dwattr $C$DW$90, DW_AT_data_member_location[DW_OP_plus_uconst 0x64]
    1567                            .dwattr $C$DW$90, DW_AT_accessibility(DW_ACCESS_public)
    1568                            .dwattr $C$DW$90, DW_AT_decl_file("C:\ti\ccs1200\ccs\ccs_base\arm\include\msp432p401r.h")
    1569                            .dwattr $C$DW$90, DW_AT_decl_line(0x363)
    1570                            .dwattr $C$DW$90, DW_AT_decl_column(0x11)
TI ARM Assembler PC v20.2.6 Mon Oct 31 23:16:55 2022

Copyright (c) 1996-2018 Texas Instruments Incorporated
Clock.asm                                                            PAGE   30

    1571                    
    1572                    $C$DW$91        .dwtag  DW_TAG_member
    1573                            .dwattr $C$DW$91, DW_AT_type(*$C$DW$T$23)
    1574                            .dwattr $C$DW$91, DW_AT_name("PRGBRST_DATA0_2")
    1575                            .dwattr $C$DW$91, DW_AT_TI_symbol_name("PRGBRST_DATA0_2")
    1576                            .dwattr $C$DW$91, DW_AT_data_member_location[DW_OP_plus_uconst 0x68]
    1577                            .dwattr $C$DW$91, DW_AT_accessibility(DW_ACCESS_public)
    1578                            .dwattr $C$DW$91, DW_AT_decl_file("C:\ti\ccs1200\ccs\ccs_base\arm\include\msp432p401r.h")
    1579                            .dwattr $C$DW$91, DW_AT_decl_line(0x364)
    1580                            .dwattr $C$DW$91, DW_AT_decl_column(0x11)
    1581                    
    1582                    $C$DW$92        .dwtag  DW_TAG_member
    1583                            .dwattr $C$DW$92, DW_AT_type(*$C$DW$T$23)
    1584                            .dwattr $C$DW$92, DW_AT_name("PRGBRST_DATA0_3")
    1585                            .dwattr $C$DW$92, DW_AT_TI_symbol_name("PRGBRST_DATA0_3")
    1586                            .dwattr $C$DW$92, DW_AT_data_member_location[DW_OP_plus_uconst 0x6c]
    1587                            .dwattr $C$DW$92, DW_AT_accessibility(DW_ACCESS_public)
    1588                            .dwattr $C$DW$92, DW_AT_decl_file("C:\ti\ccs1200\ccs\ccs_base\arm\include\msp432p401r.h")
    1589                            .dwattr $C$DW$92, DW_AT_decl_line(0x365)
    1590                            .dwattr $C$DW$92, DW_AT_decl_column(0x11)
    1591                    
    1592                    $C$DW$93        .dwtag  DW_TAG_member
    1593                            .dwattr $C$DW$93, DW_AT_type(*$C$DW$T$23)
    1594                            .dwattr $C$DW$93, DW_AT_name("PRGBRST_DATA1_0")
    1595                            .dwattr $C$DW$93, DW_AT_TI_symbol_name("PRGBRST_DATA1_0")
    1596                            .dwattr $C$DW$93, DW_AT_data_member_location[DW_OP_plus_uconst 0x70]
    1597                            .dwattr $C$DW$93, DW_AT_accessibility(DW_ACCESS_public)
    1598                            .dwattr $C$DW$93, DW_AT_decl_file("C:\ti\ccs1200\ccs\ccs_base\arm\include\msp432p401r.h")
    1599                            .dwattr $C$DW$93, DW_AT_decl_line(0x366)
    1600                            .dwattr $C$DW$93, DW_AT_decl_column(0x11)
    1601                    
    1602                    $C$DW$94        .dwtag  DW_TAG_member
    1603                            .dwattr $C$DW$94, DW_AT_type(*$C$DW$T$23)
    1604                            .dwattr $C$DW$94, DW_AT_name("PRGBRST_DATA1_1")
    1605                            .dwattr $C$DW$94, DW_AT_TI_symbol_name("PRGBRST_DATA1_1")
    1606                            .dwattr $C$DW$94, DW_AT_data_member_location[DW_OP_plus_uconst 0x74]
    1607                            .dwattr $C$DW$94, DW_AT_accessibility(DW_ACCESS_public)
    1608                            .dwattr $C$DW$94, DW_AT_decl_file("C:\ti\ccs1200\ccs\ccs_base\arm\include\msp432p401r.h")
    1609                            .dwattr $C$DW$94, DW_AT_decl_line(0x367)
    1610                            .dwattr $C$DW$94, DW_AT_decl_column(0x11)
    1611                    
    1612                    $C$DW$95        .dwtag  DW_TAG_member
    1613                            .dwattr $C$DW$95, DW_AT_type(*$C$DW$T$23)
    1614                            .dwattr $C$DW$95, DW_AT_name("PRGBRST_DATA1_2")
    1615                            .dwattr $C$DW$95, DW_AT_TI_symbol_name("PRGBRST_DATA1_2")
    1616                            .dwattr $C$DW$95, DW_AT_data_member_location[DW_OP_plus_uconst 0x78]
    1617                            .dwattr $C$DW$95, DW_AT_accessibility(DW_ACCESS_public)
    1618                            .dwattr $C$DW$95, DW_AT_decl_file("C:\ti\ccs1200\ccs\ccs_base\arm\include\msp432p401r.h")
    1619                            .dwattr $C$DW$95, DW_AT_decl_line(0x368)
    1620                            .dwattr $C$DW$95, DW_AT_decl_column(0x11)
    1621                    
    1622                    $C$DW$96        .dwtag  DW_TAG_member
    1623                            .dwattr $C$DW$96, DW_AT_type(*$C$DW$T$23)
    1624                            .dwattr $C$DW$96, DW_AT_name("PRGBRST_DATA1_3")
    1625                            .dwattr $C$DW$96, DW_AT_TI_symbol_name("PRGBRST_DATA1_3")
TI ARM Assembler PC v20.2.6 Mon Oct 31 23:16:55 2022

Copyright (c) 1996-2018 Texas Instruments Incorporated
Clock.asm                                                            PAGE   31

    1626                            .dwattr $C$DW$96, DW_AT_data_member_location[DW_OP_plus_uconst 0x7c]
    1627                            .dwattr $C$DW$96, DW_AT_accessibility(DW_ACCESS_public)
    1628                            .dwattr $C$DW$96, DW_AT_decl_file("C:\ti\ccs1200\ccs\ccs_base\arm\include\msp432p401r.h")
    1629                            .dwattr $C$DW$96, DW_AT_decl_line(0x369)
    1630                            .dwattr $C$DW$96, DW_AT_decl_column(0x11)
    1631                    
    1632                    $C$DW$97        .dwtag  DW_TAG_member
    1633                            .dwattr $C$DW$97, DW_AT_type(*$C$DW$T$23)
    1634                            .dwattr $C$DW$97, DW_AT_name("PRGBRST_DATA2_0")
    1635                            .dwattr $C$DW$97, DW_AT_TI_symbol_name("PRGBRST_DATA2_0")
    1636                            .dwattr $C$DW$97, DW_AT_data_member_location[DW_OP_plus_uconst 0x80]
    1637                            .dwattr $C$DW$97, DW_AT_accessibility(DW_ACCESS_public)
    1638                            .dwattr $C$DW$97, DW_AT_decl_file("C:\ti\ccs1200\ccs\ccs_base\arm\include\msp432p401r.h")
    1639                            .dwattr $C$DW$97, DW_AT_decl_line(0x36a)
    1640                            .dwattr $C$DW$97, DW_AT_decl_column(0x11)
    1641                    
    1642                    $C$DW$98        .dwtag  DW_TAG_member
    1643                            .dwattr $C$DW$98, DW_AT_type(*$C$DW$T$23)
    1644                            .dwattr $C$DW$98, DW_AT_name("PRGBRST_DATA2_1")
    1645                            .dwattr $C$DW$98, DW_AT_TI_symbol_name("PRGBRST_DATA2_1")
    1646                            .dwattr $C$DW$98, DW_AT_data_member_location[DW_OP_plus_uconst 0x84]
    1647                            .dwattr $C$DW$98, DW_AT_accessibility(DW_ACCESS_public)
    1648                            .dwattr $C$DW$98, DW_AT_decl_file("C:\ti\ccs1200\ccs\ccs_base\arm\include\msp432p401r.h")
    1649                            .dwattr $C$DW$98, DW_AT_decl_line(0x36b)
    1650                            .dwattr $C$DW$98, DW_AT_decl_column(0x11)
    1651                    
    1652                    $C$DW$99        .dwtag  DW_TAG_member
    1653                            .dwattr $C$DW$99, DW_AT_type(*$C$DW$T$23)
    1654                            .dwattr $C$DW$99, DW_AT_name("PRGBRST_DATA2_2")
    1655                            .dwattr $C$DW$99, DW_AT_TI_symbol_name("PRGBRST_DATA2_2")
    1656                            .dwattr $C$DW$99, DW_AT_data_member_location[DW_OP_plus_uconst 0x88]
    1657                            .dwattr $C$DW$99, DW_AT_accessibility(DW_ACCESS_public)
    1658                            .dwattr $C$DW$99, DW_AT_decl_file("C:\ti\ccs1200\ccs\ccs_base\arm\include\msp432p401r.h")
    1659                            .dwattr $C$DW$99, DW_AT_decl_line(0x36c)
    1660                            .dwattr $C$DW$99, DW_AT_decl_column(0x11)
    1661                    
    1662                    $C$DW$100       .dwtag  DW_TAG_member
    1663                            .dwattr $C$DW$100, DW_AT_type(*$C$DW$T$23)
    1664                            .dwattr $C$DW$100, DW_AT_name("PRGBRST_DATA2_3")
    1665                            .dwattr $C$DW$100, DW_AT_TI_symbol_name("PRGBRST_DATA2_3")
    1666                            .dwattr $C$DW$100, DW_AT_data_member_location[DW_OP_plus_uconst 0x8c]
    1667                            .dwattr $C$DW$100, DW_AT_accessibility(DW_ACCESS_public)
    1668                            .dwattr $C$DW$100, DW_AT_decl_file("C:\ti\ccs1200\ccs\ccs_base\arm\include\msp432p401r.h")
    1669                            .dwattr $C$DW$100, DW_AT_decl_line(0x36d)
    1670                            .dwattr $C$DW$100, DW_AT_decl_column(0x11)
    1671                    
    1672                    $C$DW$101       .dwtag  DW_TAG_member
    1673                            .dwattr $C$DW$101, DW_AT_type(*$C$DW$T$23)
    1674                            .dwattr $C$DW$101, DW_AT_name("PRGBRST_DATA3_0")
    1675                            .dwattr $C$DW$101, DW_AT_TI_symbol_name("PRGBRST_DATA3_0")
    1676                            .dwattr $C$DW$101, DW_AT_data_member_location[DW_OP_plus_uconst 0x90]
    1677                            .dwattr $C$DW$101, DW_AT_accessibility(DW_ACCESS_public)
    1678                            .dwattr $C$DW$101, DW_AT_decl_file("C:\ti\ccs1200\ccs\ccs_base\arm\include\msp432p401r.h")
    1679                            .dwattr $C$DW$101, DW_AT_decl_line(0x36e)
    1680                            .dwattr $C$DW$101, DW_AT_decl_column(0x11)
TI ARM Assembler PC v20.2.6 Mon Oct 31 23:16:55 2022

Copyright (c) 1996-2018 Texas Instruments Incorporated
Clock.asm                                                            PAGE   32

    1681                    
    1682                    $C$DW$102       .dwtag  DW_TAG_member
    1683                            .dwattr $C$DW$102, DW_AT_type(*$C$DW$T$23)
    1684                            .dwattr $C$DW$102, DW_AT_name("PRGBRST_DATA3_1")
    1685                            .dwattr $C$DW$102, DW_AT_TI_symbol_name("PRGBRST_DATA3_1")
    1686                            .dwattr $C$DW$102, DW_AT_data_member_location[DW_OP_plus_uconst 0x94]
    1687                            .dwattr $C$DW$102, DW_AT_accessibility(DW_ACCESS_public)
    1688                            .dwattr $C$DW$102, DW_AT_decl_file("C:\ti\ccs1200\ccs\ccs_base\arm\include\msp432p401r.h")
    1689                            .dwattr $C$DW$102, DW_AT_decl_line(0x36f)
    1690                            .dwattr $C$DW$102, DW_AT_decl_column(0x11)
    1691                    
    1692                    $C$DW$103       .dwtag  DW_TAG_member
    1693                            .dwattr $C$DW$103, DW_AT_type(*$C$DW$T$23)
    1694                            .dwattr $C$DW$103, DW_AT_name("PRGBRST_DATA3_2")
    1695                            .dwattr $C$DW$103, DW_AT_TI_symbol_name("PRGBRST_DATA3_2")
    1696                            .dwattr $C$DW$103, DW_AT_data_member_location[DW_OP_plus_uconst 0x98]
    1697                            .dwattr $C$DW$103, DW_AT_accessibility(DW_ACCESS_public)
    1698                            .dwattr $C$DW$103, DW_AT_decl_file("C:\ti\ccs1200\ccs\ccs_base\arm\include\msp432p401r.h")
    1699                            .dwattr $C$DW$103, DW_AT_decl_line(0x370)
    1700                            .dwattr $C$DW$103, DW_AT_decl_column(0x11)
    1701                    
    1702                    $C$DW$104       .dwtag  DW_TAG_member
    1703                            .dwattr $C$DW$104, DW_AT_type(*$C$DW$T$23)
    1704                            .dwattr $C$DW$104, DW_AT_name("PRGBRST_DATA3_3")
    1705                            .dwattr $C$DW$104, DW_AT_TI_symbol_name("PRGBRST_DATA3_3")
    1706                            .dwattr $C$DW$104, DW_AT_data_member_location[DW_OP_plus_uconst 0x9c]
    1707                            .dwattr $C$DW$104, DW_AT_accessibility(DW_ACCESS_public)
    1708                            .dwattr $C$DW$104, DW_AT_decl_file("C:\ti\ccs1200\ccs\ccs_base\arm\include\msp432p401r.h")
    1709                            .dwattr $C$DW$104, DW_AT_decl_line(0x371)
    1710                            .dwattr $C$DW$104, DW_AT_decl_column(0x11)
    1711                    
    1712                    $C$DW$105       .dwtag  DW_TAG_member
    1713                            .dwattr $C$DW$105, DW_AT_type(*$C$DW$T$23)
    1714                            .dwattr $C$DW$105, DW_AT_name("ERASE_CTLSTAT")
    1715                            .dwattr $C$DW$105, DW_AT_TI_symbol_name("ERASE_CTLSTAT")
    1716                            .dwattr $C$DW$105, DW_AT_data_member_location[DW_OP_plus_uconst 0xa0]
    1717                            .dwattr $C$DW$105, DW_AT_accessibility(DW_ACCESS_public)
    1718                            .dwattr $C$DW$105, DW_AT_decl_file("C:\ti\ccs1200\ccs\ccs_base\arm\include\msp432p401r.h")
    1719                            .dwattr $C$DW$105, DW_AT_decl_line(0x372)
    1720                            .dwattr $C$DW$105, DW_AT_decl_column(0x11)
    1721                    
    1722                    $C$DW$106       .dwtag  DW_TAG_member
    1723                            .dwattr $C$DW$106, DW_AT_type(*$C$DW$T$23)
    1724                            .dwattr $C$DW$106, DW_AT_name("ERASE_SECTADDR")
    1725                            .dwattr $C$DW$106, DW_AT_TI_symbol_name("ERASE_SECTADDR")
    1726                            .dwattr $C$DW$106, DW_AT_data_member_location[DW_OP_plus_uconst 0xa4]
    1727                            .dwattr $C$DW$106, DW_AT_accessibility(DW_ACCESS_public)
    1728                            .dwattr $C$DW$106, DW_AT_decl_file("C:\ti\ccs1200\ccs\ccs_base\arm\include\msp432p401r.h")
    1729                            .dwattr $C$DW$106, DW_AT_decl_line(0x373)
    1730                            .dwattr $C$DW$106, DW_AT_decl_column(0x11)
    1731                    
    1732                    $C$DW$107       .dwtag  DW_TAG_member
    1733                            .dwattr $C$DW$107, DW_AT_type(*$C$DW$T$43)
    1734                            .dwattr $C$DW$107, DW_AT_name("RESERVED5")
    1735                            .dwattr $C$DW$107, DW_AT_TI_symbol_name("RESERVED5")
TI ARM Assembler PC v20.2.6 Mon Oct 31 23:16:55 2022

Copyright (c) 1996-2018 Texas Instruments Incorporated
Clock.asm                                                            PAGE   33

    1736                            .dwattr $C$DW$107, DW_AT_data_member_location[DW_OP_plus_uconst 0xa8]
    1737                            .dwattr $C$DW$107, DW_AT_accessibility(DW_ACCESS_public)
    1738                            .dwattr $C$DW$107, DW_AT_decl_file("C:\ti\ccs1200\ccs\ccs_base\arm\include\msp432p401r.h")
    1739                            .dwattr $C$DW$107, DW_AT_decl_line(0x374)
    1740                            .dwattr $C$DW$107, DW_AT_decl_column(0x11)
    1741                    
    1742                    $C$DW$108       .dwtag  DW_TAG_member
    1743                            .dwattr $C$DW$108, DW_AT_type(*$C$DW$T$23)
    1744                            .dwattr $C$DW$108, DW_AT_name("BANK0_INFO_WEPROT")
    1745                            .dwattr $C$DW$108, DW_AT_TI_symbol_name("BANK0_INFO_WEPROT")
    1746                            .dwattr $C$DW$108, DW_AT_data_member_location[DW_OP_plus_uconst 0xb0]
    1747                            .dwattr $C$DW$108, DW_AT_accessibility(DW_ACCESS_public)
    1748                            .dwattr $C$DW$108, DW_AT_decl_file("C:\ti\ccs1200\ccs\ccs_base\arm\include\msp432p401r.h")
    1749                            .dwattr $C$DW$108, DW_AT_decl_line(0x375)
    1750                            .dwattr $C$DW$108, DW_AT_decl_column(0x11)
    1751                    
    1752                    $C$DW$109       .dwtag  DW_TAG_member
    1753                            .dwattr $C$DW$109, DW_AT_type(*$C$DW$T$23)
    1754                            .dwattr $C$DW$109, DW_AT_name("BANK0_MAIN_WEPROT")
    1755                            .dwattr $C$DW$109, DW_AT_TI_symbol_name("BANK0_MAIN_WEPROT")
    1756                            .dwattr $C$DW$109, DW_AT_data_member_location[DW_OP_plus_uconst 0xb4]
    1757                            .dwattr $C$DW$109, DW_AT_accessibility(DW_ACCESS_public)
    1758                            .dwattr $C$DW$109, DW_AT_decl_file("C:\ti\ccs1200\ccs\ccs_base\arm\include\msp432p401r.h")
    1759                            .dwattr $C$DW$109, DW_AT_decl_line(0x376)
    1760                            .dwattr $C$DW$109, DW_AT_decl_column(0x11)
    1761                    
    1762                    $C$DW$110       .dwtag  DW_TAG_member
    1763                            .dwattr $C$DW$110, DW_AT_type(*$C$DW$T$43)
    1764                            .dwattr $C$DW$110, DW_AT_name("RESERVED6")
    1765                            .dwattr $C$DW$110, DW_AT_TI_symbol_name("RESERVED6")
    1766                            .dwattr $C$DW$110, DW_AT_data_member_location[DW_OP_plus_uconst 0xb8]
    1767                            .dwattr $C$DW$110, DW_AT_accessibility(DW_ACCESS_public)
    1768                            .dwattr $C$DW$110, DW_AT_decl_file("C:\ti\ccs1200\ccs\ccs_base\arm\include\msp432p401r.h")
    1769                            .dwattr $C$DW$110, DW_AT_decl_line(0x377)
    1770                            .dwattr $C$DW$110, DW_AT_decl_column(0x11)
    1771                    
    1772                    $C$DW$111       .dwtag  DW_TAG_member
    1773                            .dwattr $C$DW$111, DW_AT_type(*$C$DW$T$23)
    1774                            .dwattr $C$DW$111, DW_AT_name("BANK1_INFO_WEPROT")
    1775                            .dwattr $C$DW$111, DW_AT_TI_symbol_name("BANK1_INFO_WEPROT")
    1776                            .dwattr $C$DW$111, DW_AT_data_member_location[DW_OP_plus_uconst 0xc0]
    1777                            .dwattr $C$DW$111, DW_AT_accessibility(DW_ACCESS_public)
    1778                            .dwattr $C$DW$111, DW_AT_decl_file("C:\ti\ccs1200\ccs\ccs_base\arm\include\msp432p401r.h")
    1779                            .dwattr $C$DW$111, DW_AT_decl_line(0x378)
    1780                            .dwattr $C$DW$111, DW_AT_decl_column(0x11)
    1781                    
    1782                    $C$DW$112       .dwtag  DW_TAG_member
    1783                            .dwattr $C$DW$112, DW_AT_type(*$C$DW$T$23)
    1784                            .dwattr $C$DW$112, DW_AT_name("BANK1_MAIN_WEPROT")
    1785                            .dwattr $C$DW$112, DW_AT_TI_symbol_name("BANK1_MAIN_WEPROT")
    1786                            .dwattr $C$DW$112, DW_AT_data_member_location[DW_OP_plus_uconst 0xc4]
    1787                            .dwattr $C$DW$112, DW_AT_accessibility(DW_ACCESS_public)
    1788                            .dwattr $C$DW$112, DW_AT_decl_file("C:\ti\ccs1200\ccs\ccs_base\arm\include\msp432p401r.h")
    1789                            .dwattr $C$DW$112, DW_AT_decl_line(0x379)
    1790                            .dwattr $C$DW$112, DW_AT_decl_column(0x11)
TI ARM Assembler PC v20.2.6 Mon Oct 31 23:16:55 2022

Copyright (c) 1996-2018 Texas Instruments Incorporated
Clock.asm                                                            PAGE   34

    1791                    
    1792                    $C$DW$113       .dwtag  DW_TAG_member
    1793                            .dwattr $C$DW$113, DW_AT_type(*$C$DW$T$43)
    1794                            .dwattr $C$DW$113, DW_AT_name("RESERVED7")
    1795                            .dwattr $C$DW$113, DW_AT_TI_symbol_name("RESERVED7")
    1796                            .dwattr $C$DW$113, DW_AT_data_member_location[DW_OP_plus_uconst 0xc8]
    1797                            .dwattr $C$DW$113, DW_AT_accessibility(DW_ACCESS_public)
    1798                            .dwattr $C$DW$113, DW_AT_decl_file("C:\ti\ccs1200\ccs\ccs_base\arm\include\msp432p401r.h")
    1799                            .dwattr $C$DW$113, DW_AT_decl_line(0x37a)
    1800                            .dwattr $C$DW$113, DW_AT_decl_column(0x11)
    1801                    
    1802                    $C$DW$114       .dwtag  DW_TAG_member
    1803                            .dwattr $C$DW$114, DW_AT_type(*$C$DW$T$23)
    1804                            .dwattr $C$DW$114, DW_AT_name("BMRK_CTLSTAT")
    1805                            .dwattr $C$DW$114, DW_AT_TI_symbol_name("BMRK_CTLSTAT")
    1806                            .dwattr $C$DW$114, DW_AT_data_member_location[DW_OP_plus_uconst 0xd0]
    1807                            .dwattr $C$DW$114, DW_AT_accessibility(DW_ACCESS_public)
    1808                            .dwattr $C$DW$114, DW_AT_decl_file("C:\ti\ccs1200\ccs\ccs_base\arm\include\msp432p401r.h")
    1809                            .dwattr $C$DW$114, DW_AT_decl_line(0x37b)
    1810                            .dwattr $C$DW$114, DW_AT_decl_column(0x11)
    1811                    
    1812                    $C$DW$115       .dwtag  DW_TAG_member
    1813                            .dwattr $C$DW$115, DW_AT_type(*$C$DW$T$23)
    1814                            .dwattr $C$DW$115, DW_AT_name("BMRK_IFETCH")
    1815                            .dwattr $C$DW$115, DW_AT_TI_symbol_name("BMRK_IFETCH")
    1816                            .dwattr $C$DW$115, DW_AT_data_member_location[DW_OP_plus_uconst 0xd4]
    1817                            .dwattr $C$DW$115, DW_AT_accessibility(DW_ACCESS_public)
    1818                            .dwattr $C$DW$115, DW_AT_decl_file("C:\ti\ccs1200\ccs\ccs_base\arm\include\msp432p401r.h")
    1819                            .dwattr $C$DW$115, DW_AT_decl_line(0x37c)
    1820                            .dwattr $C$DW$115, DW_AT_decl_column(0x11)
    1821                    
    1822                    $C$DW$116       .dwtag  DW_TAG_member
    1823                            .dwattr $C$DW$116, DW_AT_type(*$C$DW$T$23)
    1824                            .dwattr $C$DW$116, DW_AT_name("BMRK_DREAD")
    1825                            .dwattr $C$DW$116, DW_AT_TI_symbol_name("BMRK_DREAD")
    1826                            .dwattr $C$DW$116, DW_AT_data_member_location[DW_OP_plus_uconst 0xd8]
    1827                            .dwattr $C$DW$116, DW_AT_accessibility(DW_ACCESS_public)
    1828                            .dwattr $C$DW$116, DW_AT_decl_file("C:\ti\ccs1200\ccs\ccs_base\arm\include\msp432p401r.h")
    1829                            .dwattr $C$DW$116, DW_AT_decl_line(0x37d)
    1830                            .dwattr $C$DW$116, DW_AT_decl_column(0x11)
    1831                    
    1832                    $C$DW$117       .dwtag  DW_TAG_member
    1833                            .dwattr $C$DW$117, DW_AT_type(*$C$DW$T$23)
    1834                            .dwattr $C$DW$117, DW_AT_name("BMRK_CMP")
    1835                            .dwattr $C$DW$117, DW_AT_TI_symbol_name("BMRK_CMP")
    1836                            .dwattr $C$DW$117, DW_AT_data_member_location[DW_OP_plus_uconst 0xdc]
    1837                            .dwattr $C$DW$117, DW_AT_accessibility(DW_ACCESS_public)
    1838                            .dwattr $C$DW$117, DW_AT_decl_file("C:\ti\ccs1200\ccs\ccs_base\arm\include\msp432p401r.h")
    1839                            .dwattr $C$DW$117, DW_AT_decl_line(0x37e)
    1840                            .dwattr $C$DW$117, DW_AT_decl_column(0x11)
    1841                    
    1842                    $C$DW$118       .dwtag  DW_TAG_member
    1843                            .dwattr $C$DW$118, DW_AT_type(*$C$DW$T$46)
    1844                            .dwattr $C$DW$118, DW_AT_name("RESERVED8")
    1845                            .dwattr $C$DW$118, DW_AT_TI_symbol_name("RESERVED8")
TI ARM Assembler PC v20.2.6 Mon Oct 31 23:16:55 2022

Copyright (c) 1996-2018 Texas Instruments Incorporated
Clock.asm                                                            PAGE   35

    1846                            .dwattr $C$DW$118, DW_AT_data_member_location[DW_OP_plus_uconst 0xe0]
    1847                            .dwattr $C$DW$118, DW_AT_accessibility(DW_ACCESS_public)
    1848                            .dwattr $C$DW$118, DW_AT_decl_file("C:\ti\ccs1200\ccs\ccs_base\arm\include\msp432p401r.h")
    1849                            .dwattr $C$DW$118, DW_AT_decl_line(0x37f)
    1850                            .dwattr $C$DW$118, DW_AT_decl_column(0x11)
    1851                    
    1852                    $C$DW$119       .dwtag  DW_TAG_member
    1853                            .dwattr $C$DW$119, DW_AT_type(*$C$DW$T$23)
    1854                            .dwattr $C$DW$119, DW_AT_name("IFG")
    1855                            .dwattr $C$DW$119, DW_AT_TI_symbol_name("IFG")
    1856                            .dwattr $C$DW$119, DW_AT_data_member_location[DW_OP_plus_uconst 0xf0]
    1857                            .dwattr $C$DW$119, DW_AT_accessibility(DW_ACCESS_public)
    1858                            .dwattr $C$DW$119, DW_AT_decl_file("C:\ti\ccs1200\ccs\ccs_base\arm\include\msp432p401r.h")
    1859                            .dwattr $C$DW$119, DW_AT_decl_line(0x380)
    1860                            .dwattr $C$DW$119, DW_AT_decl_column(0x11)
    1861                    
    1862                    $C$DW$120       .dwtag  DW_TAG_member
    1863                            .dwattr $C$DW$120, DW_AT_type(*$C$DW$T$23)
    1864                            .dwattr $C$DW$120, DW_AT_name("IE")
    1865                            .dwattr $C$DW$120, DW_AT_TI_symbol_name("IE")
    1866                            .dwattr $C$DW$120, DW_AT_data_member_location[DW_OP_plus_uconst 0xf4]
    1867                            .dwattr $C$DW$120, DW_AT_accessibility(DW_ACCESS_public)
    1868                            .dwattr $C$DW$120, DW_AT_decl_file("C:\ti\ccs1200\ccs\ccs_base\arm\include\msp432p401r.h")
    1869                            .dwattr $C$DW$120, DW_AT_decl_line(0x381)
    1870                            .dwattr $C$DW$120, DW_AT_decl_column(0x11)
    1871                    
    1872                    $C$DW$121       .dwtag  DW_TAG_member
    1873                            .dwattr $C$DW$121, DW_AT_type(*$C$DW$T$23)
    1874                            .dwattr $C$DW$121, DW_AT_name("CLRIFG")
    1875                            .dwattr $C$DW$121, DW_AT_TI_symbol_name("CLRIFG")
    1876                            .dwattr $C$DW$121, DW_AT_data_member_location[DW_OP_plus_uconst 0xf8]
    1877                            .dwattr $C$DW$121, DW_AT_accessibility(DW_ACCESS_public)
    1878                            .dwattr $C$DW$121, DW_AT_decl_file("C:\ti\ccs1200\ccs\ccs_base\arm\include\msp432p401r.h")
    1879                            .dwattr $C$DW$121, DW_AT_decl_line(0x382)
    1880                            .dwattr $C$DW$121, DW_AT_decl_column(0x11)
    1881                    
    1882                    $C$DW$122       .dwtag  DW_TAG_member
    1883                            .dwattr $C$DW$122, DW_AT_type(*$C$DW$T$23)
    1884                            .dwattr $C$DW$122, DW_AT_name("SETIFG")
    1885                            .dwattr $C$DW$122, DW_AT_TI_symbol_name("SETIFG")
    1886                            .dwattr $C$DW$122, DW_AT_data_member_location[DW_OP_plus_uconst 0xfc]
    1887                            .dwattr $C$DW$122, DW_AT_accessibility(DW_ACCESS_public)
    1888                            .dwattr $C$DW$122, DW_AT_decl_file("C:\ti\ccs1200\ccs\ccs_base\arm\include\msp432p401r.h")
    1889                            .dwattr $C$DW$122, DW_AT_decl_line(0x383)
    1890                            .dwattr $C$DW$122, DW_AT_decl_column(0x11)
    1891                    
    1892                    $C$DW$123       .dwtag  DW_TAG_member
    1893                            .dwattr $C$DW$123, DW_AT_type(*$C$DW$T$24)
    1894                            .dwattr $C$DW$123, DW_AT_name("READ_TIMCTL")
    1895                            .dwattr $C$DW$123, DW_AT_TI_symbol_name("READ_TIMCTL")
    1896                            .dwattr $C$DW$123, DW_AT_data_member_location[DW_OP_plus_uconst 0x100]
    1897                            .dwattr $C$DW$123, DW_AT_accessibility(DW_ACCESS_public)
    1898                            .dwattr $C$DW$123, DW_AT_decl_file("C:\ti\ccs1200\ccs\ccs_base\arm\include\msp432p401r.h")
    1899                            .dwattr $C$DW$123, DW_AT_decl_line(0x384)
    1900                            .dwattr $C$DW$123, DW_AT_decl_column(0x11)
TI ARM Assembler PC v20.2.6 Mon Oct 31 23:16:55 2022

Copyright (c) 1996-2018 Texas Instruments Incorporated
Clock.asm                                                            PAGE   36

    1901                    
    1902                    $C$DW$124       .dwtag  DW_TAG_member
    1903                            .dwattr $C$DW$124, DW_AT_type(*$C$DW$T$24)
    1904                            .dwattr $C$DW$124, DW_AT_name("READMARGIN_TIMCTL")
    1905                            .dwattr $C$DW$124, DW_AT_TI_symbol_name("READMARGIN_TIMCTL")
    1906                            .dwattr $C$DW$124, DW_AT_data_member_location[DW_OP_plus_uconst 0x104]
    1907                            .dwattr $C$DW$124, DW_AT_accessibility(DW_ACCESS_public)
    1908                            .dwattr $C$DW$124, DW_AT_decl_file("C:\ti\ccs1200\ccs\ccs_base\arm\include\msp432p401r.h")
    1909                            .dwattr $C$DW$124, DW_AT_decl_line(0x385)
    1910                            .dwattr $C$DW$124, DW_AT_decl_column(0x11)
    1911                    
    1912                    $C$DW$125       .dwtag  DW_TAG_member
    1913                            .dwattr $C$DW$125, DW_AT_type(*$C$DW$T$24)
    1914                            .dwattr $C$DW$125, DW_AT_name("PRGVER_TIMCTL")
    1915                            .dwattr $C$DW$125, DW_AT_TI_symbol_name("PRGVER_TIMCTL")
    1916                            .dwattr $C$DW$125, DW_AT_data_member_location[DW_OP_plus_uconst 0x108]
    1917                            .dwattr $C$DW$125, DW_AT_accessibility(DW_ACCESS_public)
    1918                            .dwattr $C$DW$125, DW_AT_decl_file("C:\ti\ccs1200\ccs\ccs_base\arm\include\msp432p401r.h")
    1919                            .dwattr $C$DW$125, DW_AT_decl_line(0x386)
    1920                            .dwattr $C$DW$125, DW_AT_decl_column(0x11)
    1921                    
    1922                    $C$DW$126       .dwtag  DW_TAG_member
    1923                            .dwattr $C$DW$126, DW_AT_type(*$C$DW$T$24)
    1924                            .dwattr $C$DW$126, DW_AT_name("ERSVER_TIMCTL")
    1925                            .dwattr $C$DW$126, DW_AT_TI_symbol_name("ERSVER_TIMCTL")
    1926                            .dwattr $C$DW$126, DW_AT_data_member_location[DW_OP_plus_uconst 0x10c]
    1927                            .dwattr $C$DW$126, DW_AT_accessibility(DW_ACCESS_public)
    1928                            .dwattr $C$DW$126, DW_AT_decl_file("C:\ti\ccs1200\ccs\ccs_base\arm\include\msp432p401r.h")
    1929                            .dwattr $C$DW$126, DW_AT_decl_line(0x387)
    1930                            .dwattr $C$DW$126, DW_AT_decl_column(0x11)
    1931                    
    1932                    $C$DW$127       .dwtag  DW_TAG_member
    1933                            .dwattr $C$DW$127, DW_AT_type(*$C$DW$T$24)
    1934                            .dwattr $C$DW$127, DW_AT_name("LKGVER_TIMCTL")
    1935                            .dwattr $C$DW$127, DW_AT_TI_symbol_name("LKGVER_TIMCTL")
    1936                            .dwattr $C$DW$127, DW_AT_data_member_location[DW_OP_plus_uconst 0x110]
    1937                            .dwattr $C$DW$127, DW_AT_accessibility(DW_ACCESS_public)
    1938                            .dwattr $C$DW$127, DW_AT_decl_file("C:\ti\ccs1200\ccs\ccs_base\arm\include\msp432p401r.h")
    1939                            .dwattr $C$DW$127, DW_AT_decl_line(0x388)
    1940                            .dwattr $C$DW$127, DW_AT_decl_column(0x11)
    1941                    
    1942                    $C$DW$128       .dwtag  DW_TAG_member
    1943                            .dwattr $C$DW$128, DW_AT_type(*$C$DW$T$24)
    1944                            .dwattr $C$DW$128, DW_AT_name("PROGRAM_TIMCTL")
    1945                            .dwattr $C$DW$128, DW_AT_TI_symbol_name("PROGRAM_TIMCTL")
    1946                            .dwattr $C$DW$128, DW_AT_data_member_location[DW_OP_plus_uconst 0x114]
    1947                            .dwattr $C$DW$128, DW_AT_accessibility(DW_ACCESS_public)
    1948                            .dwattr $C$DW$128, DW_AT_decl_file("C:\ti\ccs1200\ccs\ccs_base\arm\include\msp432p401r.h")
    1949                            .dwattr $C$DW$128, DW_AT_decl_line(0x389)
    1950                            .dwattr $C$DW$128, DW_AT_decl_column(0x11)
    1951                    
    1952                    $C$DW$129       .dwtag  DW_TAG_member
    1953                            .dwattr $C$DW$129, DW_AT_type(*$C$DW$T$24)
    1954                            .dwattr $C$DW$129, DW_AT_name("ERASE_TIMCTL")
    1955                            .dwattr $C$DW$129, DW_AT_TI_symbol_name("ERASE_TIMCTL")
TI ARM Assembler PC v20.2.6 Mon Oct 31 23:16:55 2022

Copyright (c) 1996-2018 Texas Instruments Incorporated
Clock.asm                                                            PAGE   37

    1956                            .dwattr $C$DW$129, DW_AT_data_member_location[DW_OP_plus_uconst 0x118]
    1957                            .dwattr $C$DW$129, DW_AT_accessibility(DW_ACCESS_public)
    1958                            .dwattr $C$DW$129, DW_AT_decl_file("C:\ti\ccs1200\ccs\ccs_base\arm\include\msp432p401r.h")
    1959                            .dwattr $C$DW$129, DW_AT_decl_line(0x38a)
    1960                            .dwattr $C$DW$129, DW_AT_decl_column(0x11)
    1961                    
    1962                    $C$DW$130       .dwtag  DW_TAG_member
    1963                            .dwattr $C$DW$130, DW_AT_type(*$C$DW$T$24)
    1964                            .dwattr $C$DW$130, DW_AT_name("MASSERASE_TIMCTL")
    1965                            .dwattr $C$DW$130, DW_AT_TI_symbol_name("MASSERASE_TIMCTL")
    1966                            .dwattr $C$DW$130, DW_AT_data_member_location[DW_OP_plus_uconst 0x11c]
    1967                            .dwattr $C$DW$130, DW_AT_accessibility(DW_ACCESS_public)
    1968                            .dwattr $C$DW$130, DW_AT_decl_file("C:\ti\ccs1200\ccs\ccs_base\arm\include\msp432p401r.h")
    1969                            .dwattr $C$DW$130, DW_AT_decl_line(0x38b)
    1970                            .dwattr $C$DW$130, DW_AT_decl_column(0x11)
    1971                    
    1972                    $C$DW$131       .dwtag  DW_TAG_member
    1973                            .dwattr $C$DW$131, DW_AT_type(*$C$DW$T$24)
    1974                            .dwattr $C$DW$131, DW_AT_name("BURSTPRG_TIMCTL")
    1975                            .dwattr $C$DW$131, DW_AT_TI_symbol_name("BURSTPRG_TIMCTL")
    1976                            .dwattr $C$DW$131, DW_AT_data_member_location[DW_OP_plus_uconst 0x120]
    1977                            .dwattr $C$DW$131, DW_AT_accessibility(DW_ACCESS_public)
    1978                            .dwattr $C$DW$131, DW_AT_decl_file("C:\ti\ccs1200\ccs\ccs_base\arm\include\msp432p401r.h")
    1979                            .dwattr $C$DW$131, DW_AT_decl_line(0x38c)
    1980                            .dwattr $C$DW$131, DW_AT_decl_column(0x11)
    1981                    
    1982                            .dwattr $C$DW$T$47, DW_AT_decl_file("C:\ti\ccs1200\ccs\ccs_base\arm\include\msp432p401r.h")
    1983                            .dwattr $C$DW$T$47, DW_AT_decl_line(0x351)
    1984                            .dwattr $C$DW$T$47, DW_AT_decl_column(0x10)
    1985                            .dwendtag $C$DW$T$47
    1986                    
    1987                    $C$DW$T$185     .dwtag  DW_TAG_typedef
    1988                            .dwattr $C$DW$T$185, DW_AT_name("FLCTL_Type")
    1989                            .dwattr $C$DW$T$185, DW_AT_type(*$C$DW$T$47)
    1990                            .dwattr $C$DW$T$185, DW_AT_language(DW_LANG_C)
    1991                            .dwattr $C$DW$T$185, DW_AT_decl_file("C:\ti\ccs1200\ccs\ccs_base\arm\include\msp432p401r.h")
    1992                            .dwattr $C$DW$T$185, DW_AT_decl_line(0x38d)
    1993                            .dwattr $C$DW$T$185, DW_AT_decl_column(0x03)
    1994                    
    1995                    
    1996                    $C$DW$T$48      .dwtag  DW_TAG_structure_type
    1997                            .dwattr $C$DW$T$48, DW_AT_byte_size(0x10)
    1998                    $C$DW$132       .dwtag  DW_TAG_member
    1999                            .dwattr $C$DW$132, DW_AT_type(*$C$DW$T$14)
    2000                            .dwattr $C$DW$132, DW_AT_name("__max_align1")
    2001                            .dwattr $C$DW$132, DW_AT_TI_symbol_name("__max_align1")
    2002                            .dwattr $C$DW$132, DW_AT_data_member_location[DW_OP_plus_uconst 0x0]
    2003                            .dwattr $C$DW$132, DW_AT_accessibility(DW_ACCESS_public)
    2004                            .dwattr $C$DW$132, DW_AT_decl_file("C:/ti/ccs1200/ccs/tools/compiler/ti-cgt-arm_20.2.6.LTS/inc
    2005                            .dwattr $C$DW$132, DW_AT_decl_line(0x7b)
    2006                            .dwattr $C$DW$132, DW_AT_decl_column(0x0c)
    2007                    
    2008                    $C$DW$133       .dwtag  DW_TAG_member
    2009                            .dwattr $C$DW$133, DW_AT_type(*$C$DW$T$18)
    2010                            .dwattr $C$DW$133, DW_AT_name("__max_align2")
TI ARM Assembler PC v20.2.6 Mon Oct 31 23:16:55 2022

Copyright (c) 1996-2018 Texas Instruments Incorporated
Clock.asm                                                            PAGE   38

    2011                            .dwattr $C$DW$133, DW_AT_TI_symbol_name("__max_align2")
    2012                            .dwattr $C$DW$133, DW_AT_data_member_location[DW_OP_plus_uconst 0x8]
    2013                            .dwattr $C$DW$133, DW_AT_accessibility(DW_ACCESS_public)
    2014                            .dwattr $C$DW$133, DW_AT_decl_file("C:/ti/ccs1200/ccs/tools/compiler/ti-cgt-arm_20.2.6.LTS/inc
    2015                            .dwattr $C$DW$133, DW_AT_decl_line(0x7c)
    2016                            .dwattr $C$DW$133, DW_AT_decl_column(0x0e)
    2017                    
    2018                            .dwattr $C$DW$T$48, DW_AT_decl_file("C:/ti/ccs1200/ccs/tools/compiler/ti-cgt-arm_20.2.6.LTS/in
    2019                            .dwattr $C$DW$T$48, DW_AT_decl_line(0x7a)
    2020                            .dwattr $C$DW$T$48, DW_AT_decl_column(0x10)
    2021                            .dwendtag $C$DW$T$48
    2022                    
    2023                    $C$DW$T$187     .dwtag  DW_TAG_typedef
    2024                            .dwattr $C$DW$T$187, DW_AT_name("__max_align_t")
    2025                            .dwattr $C$DW$T$187, DW_AT_type(*$C$DW$T$48)
    2026                            .dwattr $C$DW$T$187, DW_AT_language(DW_LANG_C)
    2027                            .dwattr $C$DW$T$187, DW_AT_decl_file("C:/ti/ccs1200/ccs/tools/compiler/ti-cgt-arm_20.2.6.LTS/i
    2028                            .dwattr $C$DW$T$187, DW_AT_decl_line(0x7d)
    2029                            .dwattr $C$DW$T$187, DW_AT_decl_column(0x03)
    2030                    
    2031                    
    2032                    $C$DW$T$49      .dwtag  DW_TAG_structure_type
    2033                            .dwattr $C$DW$T$49, DW_AT_byte_size(0x04)
    2034                    $C$DW$134       .dwtag  DW_TAG_member
    2035                            .dwattr $C$DW$134, DW_AT_type(*$C$DW$T$22)
    2036                            .dwattr $C$DW$134, DW_AT_name("_reserved0")
    2037                            .dwattr $C$DW$134, DW_AT_TI_symbol_name("_reserved0")
    2038                            .dwattr $C$DW$134, DW_AT_bit_offset(0x10)
    2039                            .dwattr $C$DW$134, DW_AT_bit_size(0x10)
    2040                            .dwattr $C$DW$134, DW_AT_data_member_location[DW_OP_plus_uconst 0x0]
    2041                            .dwattr $C$DW$134, DW_AT_accessibility(DW_ACCESS_public)
    2042                            .dwattr $C$DW$134, DW_AT_decl_file("C:/ti/ccs1200/ccs/ccs_base/arm/include/CMSIS/core_cm4.h")
    2043                            .dwattr $C$DW$134, DW_AT_decl_line(0x105)
    2044                            .dwattr $C$DW$134, DW_AT_decl_column(0x0e)
    2045                    
    2046                    $C$DW$135       .dwtag  DW_TAG_member
    2047                            .dwattr $C$DW$135, DW_AT_type(*$C$DW$T$22)
    2048                            .dwattr $C$DW$135, DW_AT_name("GE")
    2049                            .dwattr $C$DW$135, DW_AT_TI_symbol_name("GE")
    2050                            .dwattr $C$DW$135, DW_AT_bit_offset(0x0c)
    2051                            .dwattr $C$DW$135, DW_AT_bit_size(0x04)
    2052                            .dwattr $C$DW$135, DW_AT_data_member_location[DW_OP_plus_uconst 0x0]
    2053                            .dwattr $C$DW$135, DW_AT_accessibility(DW_ACCESS_public)
    2054                            .dwattr $C$DW$135, DW_AT_decl_file("C:/ti/ccs1200/ccs/ccs_base/arm/include/CMSIS/core_cm4.h")
    2055                            .dwattr $C$DW$135, DW_AT_decl_line(0x106)
    2056                            .dwattr $C$DW$135, DW_AT_decl_column(0x0e)
    2057                    
    2058                    $C$DW$136       .dwtag  DW_TAG_member
    2059                            .dwattr $C$DW$136, DW_AT_type(*$C$DW$T$22)
    2060                            .dwattr $C$DW$136, DW_AT_name("_reserved1")
    2061                            .dwattr $C$DW$136, DW_AT_TI_symbol_name("_reserved1")
    2062                            .dwattr $C$DW$136, DW_AT_bit_offset(0x05)
    2063                            .dwattr $C$DW$136, DW_AT_bit_size(0x07)
    2064                            .dwattr $C$DW$136, DW_AT_data_member_location[DW_OP_plus_uconst 0x0]
    2065                            .dwattr $C$DW$136, DW_AT_accessibility(DW_ACCESS_public)
TI ARM Assembler PC v20.2.6 Mon Oct 31 23:16:55 2022

Copyright (c) 1996-2018 Texas Instruments Incorporated
Clock.asm                                                            PAGE   39

    2066                            .dwattr $C$DW$136, DW_AT_decl_file("C:/ti/ccs1200/ccs/ccs_base/arm/include/CMSIS/core_cm4.h")
    2067                            .dwattr $C$DW$136, DW_AT_decl_line(0x107)
    2068                            .dwattr $C$DW$136, DW_AT_decl_column(0x0e)
    2069                    
    2070                    $C$DW$137       .dwtag  DW_TAG_member
    2071                            .dwattr $C$DW$137, DW_AT_type(*$C$DW$T$22)
    2072                            .dwattr $C$DW$137, DW_AT_name("Q")
    2073                            .dwattr $C$DW$137, DW_AT_TI_symbol_name("Q")
    2074                            .dwattr $C$DW$137, DW_AT_bit_offset(0x04)
    2075                            .dwattr $C$DW$137, DW_AT_bit_size(0x01)
    2076                            .dwattr $C$DW$137, DW_AT_data_member_location[DW_OP_plus_uconst 0x0]
    2077                            .dwattr $C$DW$137, DW_AT_accessibility(DW_ACCESS_public)
    2078                            .dwattr $C$DW$137, DW_AT_decl_file("C:/ti/ccs1200/ccs/ccs_base/arm/include/CMSIS/core_cm4.h")
    2079                            .dwattr $C$DW$137, DW_AT_decl_line(0x108)
    2080                            .dwattr $C$DW$137, DW_AT_decl_column(0x0e)
    2081                    
    2082                    $C$DW$138       .dwtag  DW_TAG_member
    2083                            .dwattr $C$DW$138, DW_AT_type(*$C$DW$T$22)
    2084                            .dwattr $C$DW$138, DW_AT_name("V")
    2085                            .dwattr $C$DW$138, DW_AT_TI_symbol_name("V")
    2086                            .dwattr $C$DW$138, DW_AT_bit_offset(0x03)
    2087                            .dwattr $C$DW$138, DW_AT_bit_size(0x01)
    2088                            .dwattr $C$DW$138, DW_AT_data_member_location[DW_OP_plus_uconst 0x0]
    2089                            .dwattr $C$DW$138, DW_AT_accessibility(DW_ACCESS_public)
    2090                            .dwattr $C$DW$138, DW_AT_decl_file("C:/ti/ccs1200/ccs/ccs_base/arm/include/CMSIS/core_cm4.h")
    2091                            .dwattr $C$DW$138, DW_AT_decl_line(0x109)
    2092                            .dwattr $C$DW$138, DW_AT_decl_column(0x0e)
    2093                    
    2094                    $C$DW$139       .dwtag  DW_TAG_member
    2095                            .dwattr $C$DW$139, DW_AT_type(*$C$DW$T$22)
    2096                            .dwattr $C$DW$139, DW_AT_name("C")
    2097                            .dwattr $C$DW$139, DW_AT_TI_symbol_name("C")
    2098                            .dwattr $C$DW$139, DW_AT_bit_offset(0x02)
    2099                            .dwattr $C$DW$139, DW_AT_bit_size(0x01)
    2100                            .dwattr $C$DW$139, DW_AT_data_member_location[DW_OP_plus_uconst 0x0]
    2101                            .dwattr $C$DW$139, DW_AT_accessibility(DW_ACCESS_public)
    2102                            .dwattr $C$DW$139, DW_AT_decl_file("C:/ti/ccs1200/ccs/ccs_base/arm/include/CMSIS/core_cm4.h")
    2103                            .dwattr $C$DW$139, DW_AT_decl_line(0x10a)
    2104                            .dwattr $C$DW$139, DW_AT_decl_column(0x0e)
    2105                    
    2106                    $C$DW$140       .dwtag  DW_TAG_member
    2107                            .dwattr $C$DW$140, DW_AT_type(*$C$DW$T$22)
    2108                            .dwattr $C$DW$140, DW_AT_name("Z")
    2109                            .dwattr $C$DW$140, DW_AT_TI_symbol_name("Z")
    2110                            .dwattr $C$DW$140, DW_AT_bit_offset(0x01)
    2111                            .dwattr $C$DW$140, DW_AT_bit_size(0x01)
    2112                            .dwattr $C$DW$140, DW_AT_data_member_location[DW_OP_plus_uconst 0x0]
    2113                            .dwattr $C$DW$140, DW_AT_accessibility(DW_ACCESS_public)
    2114                            .dwattr $C$DW$140, DW_AT_decl_file("C:/ti/ccs1200/ccs/ccs_base/arm/include/CMSIS/core_cm4.h")
    2115                            .dwattr $C$DW$140, DW_AT_decl_line(0x10b)
    2116                            .dwattr $C$DW$140, DW_AT_decl_column(0x0e)
    2117                    
    2118                    $C$DW$141       .dwtag  DW_TAG_member
    2119                            .dwattr $C$DW$141, DW_AT_type(*$C$DW$T$22)
    2120                            .dwattr $C$DW$141, DW_AT_name("N")
TI ARM Assembler PC v20.2.6 Mon Oct 31 23:16:55 2022

Copyright (c) 1996-2018 Texas Instruments Incorporated
Clock.asm                                                            PAGE   40

    2121                            .dwattr $C$DW$141, DW_AT_TI_symbol_name("N")
    2122                            .dwattr $C$DW$141, DW_AT_bit_offset(0x00)
    2123                            .dwattr $C$DW$141, DW_AT_bit_size(0x01)
    2124                            .dwattr $C$DW$141, DW_AT_data_member_location[DW_OP_plus_uconst 0x0]
    2125                            .dwattr $C$DW$141, DW_AT_accessibility(DW_ACCESS_public)
    2126                            .dwattr $C$DW$141, DW_AT_decl_file("C:/ti/ccs1200/ccs/ccs_base/arm/include/CMSIS/core_cm4.h")
    2127                            .dwattr $C$DW$141, DW_AT_decl_line(0x10c)
    2128                            .dwattr $C$DW$141, DW_AT_decl_column(0x0e)
    2129                    
    2130                            .dwattr $C$DW$T$49, DW_AT_decl_file("C:/ti/ccs1200/ccs/ccs_base/arm/include/CMSIS/core_cm4.h")
    2131                            .dwattr $C$DW$T$49, DW_AT_decl_line(0x104)
    2132                            .dwattr $C$DW$T$49, DW_AT_decl_column(0x03)
    2133                            .dwendtag $C$DW$T$49
    2134                    
    2135                    
    2136                    $C$DW$T$50      .dwtag  DW_TAG_structure_type
    2137                            .dwattr $C$DW$T$50, DW_AT_byte_size(0x04)
    2138                    $C$DW$142       .dwtag  DW_TAG_member
    2139                            .dwattr $C$DW$142, DW_AT_type(*$C$DW$T$22)
    2140                            .dwattr $C$DW$142, DW_AT_name("ISR")
    2141                            .dwattr $C$DW$142, DW_AT_TI_symbol_name("ISR")
    2142                            .dwattr $C$DW$142, DW_AT_bit_offset(0x17)
    2143                            .dwattr $C$DW$142, DW_AT_bit_size(0x09)
    2144                            .dwattr $C$DW$142, DW_AT_data_member_location[DW_OP_plus_uconst 0x0]
    2145                            .dwattr $C$DW$142, DW_AT_accessibility(DW_ACCESS_public)
    2146                            .dwattr $C$DW$142, DW_AT_decl_file("C:/ti/ccs1200/ccs/ccs_base/arm/include/CMSIS/core_cm4.h")
    2147                            .dwattr $C$DW$142, DW_AT_decl_line(0x12c)
    2148                            .dwattr $C$DW$142, DW_AT_decl_column(0x0e)
    2149                    
    2150                    $C$DW$143       .dwtag  DW_TAG_member
    2151                            .dwattr $C$DW$143, DW_AT_type(*$C$DW$T$22)
    2152                            .dwattr $C$DW$143, DW_AT_name("_reserved0")
    2153                            .dwattr $C$DW$143, DW_AT_TI_symbol_name("_reserved0")
    2154                            .dwattr $C$DW$143, DW_AT_bit_offset(0x00)
    2155                            .dwattr $C$DW$143, DW_AT_bit_size(0x17)
    2156                            .dwattr $C$DW$143, DW_AT_data_member_location[DW_OP_plus_uconst 0x0]
    2157                            .dwattr $C$DW$143, DW_AT_accessibility(DW_ACCESS_public)
    2158                            .dwattr $C$DW$143, DW_AT_decl_file("C:/ti/ccs1200/ccs/ccs_base/arm/include/CMSIS/core_cm4.h")
    2159                            .dwattr $C$DW$143, DW_AT_decl_line(0x12d)
    2160                            .dwattr $C$DW$143, DW_AT_decl_column(0x0e)
    2161                    
    2162                            .dwattr $C$DW$T$50, DW_AT_decl_file("C:/ti/ccs1200/ccs/ccs_base/arm/include/CMSIS/core_cm4.h")
    2163                            .dwattr $C$DW$T$50, DW_AT_decl_line(0x12b)
    2164                            .dwattr $C$DW$T$50, DW_AT_decl_column(0x03)
    2165                            .dwendtag $C$DW$T$50
    2166                    
    2167                    
    2168                    $C$DW$T$51      .dwtag  DW_TAG_structure_type
    2169                            .dwattr $C$DW$T$51, DW_AT_byte_size(0x04)
    2170                    $C$DW$144       .dwtag  DW_TAG_member
    2171                            .dwattr $C$DW$144, DW_AT_type(*$C$DW$T$22)
    2172                            .dwattr $C$DW$144, DW_AT_name("ISR")
    2173                            .dwattr $C$DW$144, DW_AT_TI_symbol_name("ISR")
    2174                            .dwattr $C$DW$144, DW_AT_bit_offset(0x17)
    2175                            .dwattr $C$DW$144, DW_AT_bit_size(0x09)
TI ARM Assembler PC v20.2.6 Mon Oct 31 23:16:55 2022

Copyright (c) 1996-2018 Texas Instruments Incorporated
Clock.asm                                                            PAGE   41

    2176                            .dwattr $C$DW$144, DW_AT_data_member_location[DW_OP_plus_uconst 0x0]
    2177                            .dwattr $C$DW$144, DW_AT_accessibility(DW_ACCESS_public)
    2178                            .dwattr $C$DW$144, DW_AT_decl_file("C:/ti/ccs1200/ccs/ccs_base/arm/include/CMSIS/core_cm4.h")
    2179                            .dwattr $C$DW$144, DW_AT_decl_line(0x13e)
    2180                            .dwattr $C$DW$144, DW_AT_decl_column(0x0e)
    2181                    
    2182                    $C$DW$145       .dwtag  DW_TAG_member
    2183                            .dwattr $C$DW$145, DW_AT_type(*$C$DW$T$22)
    2184                            .dwattr $C$DW$145, DW_AT_name("_reserved0")
    2185                            .dwattr $C$DW$145, DW_AT_TI_symbol_name("_reserved0")
    2186                            .dwattr $C$DW$145, DW_AT_bit_offset(0x16)
    2187                            .dwattr $C$DW$145, DW_AT_bit_size(0x01)
    2188                            .dwattr $C$DW$145, DW_AT_data_member_location[DW_OP_plus_uconst 0x0]
    2189                            .dwattr $C$DW$145, DW_AT_accessibility(DW_ACCESS_public)
    2190                            .dwattr $C$DW$145, DW_AT_decl_file("C:/ti/ccs1200/ccs/ccs_base/arm/include/CMSIS/core_cm4.h")
    2191                            .dwattr $C$DW$145, DW_AT_decl_line(0x13f)
    2192                            .dwattr $C$DW$145, DW_AT_decl_column(0x0e)
    2193                    
    2194                    $C$DW$146       .dwtag  DW_TAG_member
    2195                            .dwattr $C$DW$146, DW_AT_type(*$C$DW$T$22)
    2196                            .dwattr $C$DW$146, DW_AT_name("ICI_IT_1")
    2197                            .dwattr $C$DW$146, DW_AT_TI_symbol_name("ICI_IT_1")
    2198                            .dwattr $C$DW$146, DW_AT_bit_offset(0x10)
    2199                            .dwattr $C$DW$146, DW_AT_bit_size(0x06)
    2200                            .dwattr $C$DW$146, DW_AT_data_member_location[DW_OP_plus_uconst 0x0]
    2201                            .dwattr $C$DW$146, DW_AT_accessibility(DW_ACCESS_public)
    2202                            .dwattr $C$DW$146, DW_AT_decl_file("C:/ti/ccs1200/ccs/ccs_base/arm/include/CMSIS/core_cm4.h")
    2203                            .dwattr $C$DW$146, DW_AT_decl_line(0x140)
    2204                            .dwattr $C$DW$146, DW_AT_decl_column(0x0e)
    2205                    
    2206                    $C$DW$147       .dwtag  DW_TAG_member
    2207                            .dwattr $C$DW$147, DW_AT_type(*$C$DW$T$22)
    2208                            .dwattr $C$DW$147, DW_AT_name("GE")
    2209                            .dwattr $C$DW$147, DW_AT_TI_symbol_name("GE")
    2210                            .dwattr $C$DW$147, DW_AT_bit_offset(0x0c)
    2211                            .dwattr $C$DW$147, DW_AT_bit_size(0x04)
    2212                            .dwattr $C$DW$147, DW_AT_data_member_location[DW_OP_plus_uconst 0x0]
    2213                            .dwattr $C$DW$147, DW_AT_accessibility(DW_ACCESS_public)
    2214                            .dwattr $C$DW$147, DW_AT_decl_file("C:/ti/ccs1200/ccs/ccs_base/arm/include/CMSIS/core_cm4.h")
    2215                            .dwattr $C$DW$147, DW_AT_decl_line(0x141)
    2216                            .dwattr $C$DW$147, DW_AT_decl_column(0x0e)
    2217                    
    2218                    $C$DW$148       .dwtag  DW_TAG_member
    2219                            .dwattr $C$DW$148, DW_AT_type(*$C$DW$T$22)
    2220                            .dwattr $C$DW$148, DW_AT_name("_reserved1")
    2221                            .dwattr $C$DW$148, DW_AT_TI_symbol_name("_reserved1")
    2222                            .dwattr $C$DW$148, DW_AT_bit_offset(0x08)
    2223                            .dwattr $C$DW$148, DW_AT_bit_size(0x04)
    2224                            .dwattr $C$DW$148, DW_AT_data_member_location[DW_OP_plus_uconst 0x0]
    2225                            .dwattr $C$DW$148, DW_AT_accessibility(DW_ACCESS_public)
    2226                            .dwattr $C$DW$148, DW_AT_decl_file("C:/ti/ccs1200/ccs/ccs_base/arm/include/CMSIS/core_cm4.h")
    2227                            .dwattr $C$DW$148, DW_AT_decl_line(0x142)
    2228                            .dwattr $C$DW$148, DW_AT_decl_column(0x0e)
    2229                    
    2230                    $C$DW$149       .dwtag  DW_TAG_member
TI ARM Assembler PC v20.2.6 Mon Oct 31 23:16:55 2022

Copyright (c) 1996-2018 Texas Instruments Incorporated
Clock.asm                                                            PAGE   42

    2231                            .dwattr $C$DW$149, DW_AT_type(*$C$DW$T$22)
    2232                            .dwattr $C$DW$149, DW_AT_name("T")
    2233                            .dwattr $C$DW$149, DW_AT_TI_symbol_name("T")
    2234                            .dwattr $C$DW$149, DW_AT_bit_offset(0x07)
    2235                            .dwattr $C$DW$149, DW_AT_bit_size(0x01)
    2236                            .dwattr $C$DW$149, DW_AT_data_member_location[DW_OP_plus_uconst 0x0]
    2237                            .dwattr $C$DW$149, DW_AT_accessibility(DW_ACCESS_public)
    2238                            .dwattr $C$DW$149, DW_AT_decl_file("C:/ti/ccs1200/ccs/ccs_base/arm/include/CMSIS/core_cm4.h")
    2239                            .dwattr $C$DW$149, DW_AT_decl_line(0x143)
    2240                            .dwattr $C$DW$149, DW_AT_decl_column(0x0e)
    2241                    
    2242                    $C$DW$150       .dwtag  DW_TAG_member
    2243                            .dwattr $C$DW$150, DW_AT_type(*$C$DW$T$22)
    2244                            .dwattr $C$DW$150, DW_AT_name("ICI_IT_2")
    2245                            .dwattr $C$DW$150, DW_AT_TI_symbol_name("ICI_IT_2")
    2246                            .dwattr $C$DW$150, DW_AT_bit_offset(0x05)
    2247                            .dwattr $C$DW$150, DW_AT_bit_size(0x02)
    2248                            .dwattr $C$DW$150, DW_AT_data_member_location[DW_OP_plus_uconst 0x0]
    2249                            .dwattr $C$DW$150, DW_AT_accessibility(DW_ACCESS_public)
    2250                            .dwattr $C$DW$150, DW_AT_decl_file("C:/ti/ccs1200/ccs/ccs_base/arm/include/CMSIS/core_cm4.h")
    2251                            .dwattr $C$DW$150, DW_AT_decl_line(0x144)
    2252                            .dwattr $C$DW$150, DW_AT_decl_column(0x0e)
    2253                    
    2254                    $C$DW$151       .dwtag  DW_TAG_member
    2255                            .dwattr $C$DW$151, DW_AT_type(*$C$DW$T$22)
    2256                            .dwattr $C$DW$151, DW_AT_name("Q")
    2257                            .dwattr $C$DW$151, DW_AT_TI_symbol_name("Q")
    2258                            .dwattr $C$DW$151, DW_AT_bit_offset(0x04)
    2259                            .dwattr $C$DW$151, DW_AT_bit_size(0x01)
    2260                            .dwattr $C$DW$151, DW_AT_data_member_location[DW_OP_plus_uconst 0x0]
    2261                            .dwattr $C$DW$151, DW_AT_accessibility(DW_ACCESS_public)
    2262                            .dwattr $C$DW$151, DW_AT_decl_file("C:/ti/ccs1200/ccs/ccs_base/arm/include/CMSIS/core_cm4.h")
    2263                            .dwattr $C$DW$151, DW_AT_decl_line(0x145)
    2264                            .dwattr $C$DW$151, DW_AT_decl_column(0x0e)
    2265                    
    2266                    $C$DW$152       .dwtag  DW_TAG_member
    2267                            .dwattr $C$DW$152, DW_AT_type(*$C$DW$T$22)
    2268                            .dwattr $C$DW$152, DW_AT_name("V")
    2269                            .dwattr $C$DW$152, DW_AT_TI_symbol_name("V")
    2270                            .dwattr $C$DW$152, DW_AT_bit_offset(0x03)
    2271                            .dwattr $C$DW$152, DW_AT_bit_size(0x01)
    2272                            .dwattr $C$DW$152, DW_AT_data_member_location[DW_OP_plus_uconst 0x0]
    2273                            .dwattr $C$DW$152, DW_AT_accessibility(DW_ACCESS_public)
    2274                            .dwattr $C$DW$152, DW_AT_decl_file("C:/ti/ccs1200/ccs/ccs_base/arm/include/CMSIS/core_cm4.h")
    2275                            .dwattr $C$DW$152, DW_AT_decl_line(0x146)
    2276                            .dwattr $C$DW$152, DW_AT_decl_column(0x0e)
    2277                    
    2278                    $C$DW$153       .dwtag  DW_TAG_member
    2279                            .dwattr $C$DW$153, DW_AT_type(*$C$DW$T$22)
    2280                            .dwattr $C$DW$153, DW_AT_name("C")
    2281                            .dwattr $C$DW$153, DW_AT_TI_symbol_name("C")
    2282                            .dwattr $C$DW$153, DW_AT_bit_offset(0x02)
    2283                            .dwattr $C$DW$153, DW_AT_bit_size(0x01)
    2284                            .dwattr $C$DW$153, DW_AT_data_member_location[DW_OP_plus_uconst 0x0]
    2285                            .dwattr $C$DW$153, DW_AT_accessibility(DW_ACCESS_public)
TI ARM Assembler PC v20.2.6 Mon Oct 31 23:16:55 2022

Copyright (c) 1996-2018 Texas Instruments Incorporated
Clock.asm                                                            PAGE   43

    2286                            .dwattr $C$DW$153, DW_AT_decl_file("C:/ti/ccs1200/ccs/ccs_base/arm/include/CMSIS/core_cm4.h")
    2287                            .dwattr $C$DW$153, DW_AT_decl_line(0x147)
    2288                            .dwattr $C$DW$153, DW_AT_decl_column(0x0e)
    2289                    
    2290                    $C$DW$154       .dwtag  DW_TAG_member
    2291                            .dwattr $C$DW$154, DW_AT_type(*$C$DW$T$22)
    2292                            .dwattr $C$DW$154, DW_AT_name("Z")
    2293                            .dwattr $C$DW$154, DW_AT_TI_symbol_name("Z")
    2294                            .dwattr $C$DW$154, DW_AT_bit_offset(0x01)
    2295                            .dwattr $C$DW$154, DW_AT_bit_size(0x01)
    2296                            .dwattr $C$DW$154, DW_AT_data_member_location[DW_OP_plus_uconst 0x0]
    2297                            .dwattr $C$DW$154, DW_AT_accessibility(DW_ACCESS_public)
    2298                            .dwattr $C$DW$154, DW_AT_decl_file("C:/ti/ccs1200/ccs/ccs_base/arm/include/CMSIS/core_cm4.h")
    2299                            .dwattr $C$DW$154, DW_AT_decl_line(0x148)
    2300                            .dwattr $C$DW$154, DW_AT_decl_column(0x0e)
    2301                    
    2302                    $C$DW$155       .dwtag  DW_TAG_member
    2303                            .dwattr $C$DW$155, DW_AT_type(*$C$DW$T$22)
    2304                            .dwattr $C$DW$155, DW_AT_name("N")
    2305                            .dwattr $C$DW$155, DW_AT_TI_symbol_name("N")
    2306                            .dwattr $C$DW$155, DW_AT_bit_offset(0x00)
    2307                            .dwattr $C$DW$155, DW_AT_bit_size(0x01)
    2308                            .dwattr $C$DW$155, DW_AT_data_member_location[DW_OP_plus_uconst 0x0]
    2309                            .dwattr $C$DW$155, DW_AT_accessibility(DW_ACCESS_public)
    2310                            .dwattr $C$DW$155, DW_AT_decl_file("C:/ti/ccs1200/ccs/ccs_base/arm/include/CMSIS/core_cm4.h")
    2311                            .dwattr $C$DW$155, DW_AT_decl_line(0x149)
    2312                            .dwattr $C$DW$155, DW_AT_decl_column(0x0e)
    2313                    
    2314                            .dwattr $C$DW$T$51, DW_AT_decl_file("C:/ti/ccs1200/ccs/ccs_base/arm/include/CMSIS/core_cm4.h")
    2315                            .dwattr $C$DW$T$51, DW_AT_decl_line(0x13d)
    2316                            .dwattr $C$DW$T$51, DW_AT_decl_column(0x03)
    2317                            .dwendtag $C$DW$T$51
    2318                    
    2319                    
    2320                    $C$DW$T$52      .dwtag  DW_TAG_structure_type
    2321                            .dwattr $C$DW$T$52, DW_AT_byte_size(0x04)
    2322                    $C$DW$156       .dwtag  DW_TAG_member
    2323                            .dwattr $C$DW$156, DW_AT_type(*$C$DW$T$22)
    2324                            .dwattr $C$DW$156, DW_AT_name("nPRIV")
    2325                            .dwattr $C$DW$156, DW_AT_TI_symbol_name("nPRIV")
    2326                            .dwattr $C$DW$156, DW_AT_bit_offset(0x1f)
    2327                            .dwattr $C$DW$156, DW_AT_bit_size(0x01)
    2328                            .dwattr $C$DW$156, DW_AT_data_member_location[DW_OP_plus_uconst 0x0]
    2329                            .dwattr $C$DW$156, DW_AT_accessibility(DW_ACCESS_public)
    2330                            .dwattr $C$DW$156, DW_AT_decl_file("C:/ti/ccs1200/ccs/ccs_base/arm/include/CMSIS/core_cm4.h")
    2331                            .dwattr $C$DW$156, DW_AT_decl_line(0x175)
    2332                            .dwattr $C$DW$156, DW_AT_decl_column(0x0e)
    2333                    
    2334                    $C$DW$157       .dwtag  DW_TAG_member
    2335                            .dwattr $C$DW$157, DW_AT_type(*$C$DW$T$22)
    2336                            .dwattr $C$DW$157, DW_AT_name("SPSEL")
    2337                            .dwattr $C$DW$157, DW_AT_TI_symbol_name("SPSEL")
    2338                            .dwattr $C$DW$157, DW_AT_bit_offset(0x1e)
    2339                            .dwattr $C$DW$157, DW_AT_bit_size(0x01)
    2340                            .dwattr $C$DW$157, DW_AT_data_member_location[DW_OP_plus_uconst 0x0]
TI ARM Assembler PC v20.2.6 Mon Oct 31 23:16:55 2022

Copyright (c) 1996-2018 Texas Instruments Incorporated
Clock.asm                                                            PAGE   44

    2341                            .dwattr $C$DW$157, DW_AT_accessibility(DW_ACCESS_public)
    2342                            .dwattr $C$DW$157, DW_AT_decl_file("C:/ti/ccs1200/ccs/ccs_base/arm/include/CMSIS/core_cm4.h")
    2343                            .dwattr $C$DW$157, DW_AT_decl_line(0x176)
    2344                            .dwattr $C$DW$157, DW_AT_decl_column(0x0e)
    2345                    
    2346                    $C$DW$158       .dwtag  DW_TAG_member
    2347                            .dwattr $C$DW$158, DW_AT_type(*$C$DW$T$22)
    2348                            .dwattr $C$DW$158, DW_AT_name("FPCA")
    2349                            .dwattr $C$DW$158, DW_AT_TI_symbol_name("FPCA")
    2350                            .dwattr $C$DW$158, DW_AT_bit_offset(0x1d)
    2351                            .dwattr $C$DW$158, DW_AT_bit_size(0x01)
    2352                            .dwattr $C$DW$158, DW_AT_data_member_location[DW_OP_plus_uconst 0x0]
    2353                            .dwattr $C$DW$158, DW_AT_accessibility(DW_ACCESS_public)
    2354                            .dwattr $C$DW$158, DW_AT_decl_file("C:/ti/ccs1200/ccs/ccs_base/arm/include/CMSIS/core_cm4.h")
    2355                            .dwattr $C$DW$158, DW_AT_decl_line(0x177)
    2356                            .dwattr $C$DW$158, DW_AT_decl_column(0x0e)
    2357                    
    2358                    $C$DW$159       .dwtag  DW_TAG_member
    2359                            .dwattr $C$DW$159, DW_AT_type(*$C$DW$T$22)
    2360                            .dwattr $C$DW$159, DW_AT_name("_reserved0")
    2361                            .dwattr $C$DW$159, DW_AT_TI_symbol_name("_reserved0")
    2362                            .dwattr $C$DW$159, DW_AT_bit_offset(0x00)
    2363                            .dwattr $C$DW$159, DW_AT_bit_size(0x1d)
    2364                            .dwattr $C$DW$159, DW_AT_data_member_location[DW_OP_plus_uconst 0x0]
    2365                            .dwattr $C$DW$159, DW_AT_accessibility(DW_ACCESS_public)
    2366                            .dwattr $C$DW$159, DW_AT_decl_file("C:/ti/ccs1200/ccs/ccs_base/arm/include/CMSIS/core_cm4.h")
    2367                            .dwattr $C$DW$159, DW_AT_decl_line(0x178)
    2368                            .dwattr $C$DW$159, DW_AT_decl_column(0x0e)
    2369                    
    2370                            .dwattr $C$DW$T$52, DW_AT_decl_file("C:/ti/ccs1200/ccs/ccs_base/arm/include/CMSIS/core_cm4.h")
    2371                            .dwattr $C$DW$T$52, DW_AT_decl_line(0x174)
    2372                            .dwattr $C$DW$T$52, DW_AT_decl_column(0x03)
    2373                            .dwendtag $C$DW$T$52
    2374                    
    2375                    
    2376                    $C$DW$T$58      .dwtag  DW_TAG_structure_type
    2377                            .dwattr $C$DW$T$58, DW_AT_byte_size(0xe04)
    2378                    $C$DW$160       .dwtag  DW_TAG_member
    2379                            .dwattr $C$DW$160, DW_AT_type(*$C$DW$T$53)
    2380                            .dwattr $C$DW$160, DW_AT_name("ISER")
    2381                            .dwattr $C$DW$160, DW_AT_TI_symbol_name("ISER")
    2382                            .dwattr $C$DW$160, DW_AT_data_member_location[DW_OP_plus_uconst 0x0]
    2383                            .dwattr $C$DW$160, DW_AT_accessibility(DW_ACCESS_public)
    2384                            .dwattr $C$DW$160, DW_AT_decl_file("C:/ti/ccs1200/ccs/ccs_base/arm/include/CMSIS/core_cm4.h")
    2385                            .dwattr $C$DW$160, DW_AT_decl_line(0x196)
    2386                            .dwattr $C$DW$160, DW_AT_decl_column(0x12)
    2387                    
    2388                    $C$DW$161       .dwtag  DW_TAG_member
    2389                            .dwattr $C$DW$161, DW_AT_type(*$C$DW$T$54)
    2390                            .dwattr $C$DW$161, DW_AT_name("RESERVED0")
    2391                            .dwattr $C$DW$161, DW_AT_TI_symbol_name("RESERVED0")
    2392                            .dwattr $C$DW$161, DW_AT_data_member_location[DW_OP_plus_uconst 0x20]
    2393                            .dwattr $C$DW$161, DW_AT_accessibility(DW_ACCESS_public)
    2394                            .dwattr $C$DW$161, DW_AT_decl_file("C:/ti/ccs1200/ccs/ccs_base/arm/include/CMSIS/core_cm4.h")
    2395                            .dwattr $C$DW$161, DW_AT_decl_line(0x197)
TI ARM Assembler PC v20.2.6 Mon Oct 31 23:16:55 2022

Copyright (c) 1996-2018 Texas Instruments Incorporated
Clock.asm                                                            PAGE   45

    2396                            .dwattr $C$DW$161, DW_AT_decl_column(0x12)
    2397                    
    2398                    $C$DW$162       .dwtag  DW_TAG_member
    2399                            .dwattr $C$DW$162, DW_AT_type(*$C$DW$T$53)
    2400                            .dwattr $C$DW$162, DW_AT_name("ICER")
    2401                            .dwattr $C$DW$162, DW_AT_TI_symbol_name("ICER")
    2402                            .dwattr $C$DW$162, DW_AT_data_member_location[DW_OP_plus_uconst 0x80]
    2403                            .dwattr $C$DW$162, DW_AT_accessibility(DW_ACCESS_public)
    2404                            .dwattr $C$DW$162, DW_AT_decl_file("C:/ti/ccs1200/ccs/ccs_base/arm/include/CMSIS/core_cm4.h")
    2405                            .dwattr $C$DW$162, DW_AT_decl_line(0x198)
    2406                            .dwattr $C$DW$162, DW_AT_decl_column(0x12)
    2407                    
    2408                    $C$DW$163       .dwtag  DW_TAG_member
    2409                            .dwattr $C$DW$163, DW_AT_type(*$C$DW$T$54)
    2410                            .dwattr $C$DW$163, DW_AT_name("RSERVED1")
    2411                            .dwattr $C$DW$163, DW_AT_TI_symbol_name("RSERVED1")
    2412                            .dwattr $C$DW$163, DW_AT_data_member_location[DW_OP_plus_uconst 0xa0]
    2413                            .dwattr $C$DW$163, DW_AT_accessibility(DW_ACCESS_public)
    2414                            .dwattr $C$DW$163, DW_AT_decl_file("C:/ti/ccs1200/ccs/ccs_base/arm/include/CMSIS/core_cm4.h")
    2415                            .dwattr $C$DW$163, DW_AT_decl_line(0x199)
    2416                            .dwattr $C$DW$163, DW_AT_decl_column(0x12)
    2417                    
    2418                    $C$DW$164       .dwtag  DW_TAG_member
    2419                            .dwattr $C$DW$164, DW_AT_type(*$C$DW$T$53)
    2420                            .dwattr $C$DW$164, DW_AT_name("ISPR")
    2421                            .dwattr $C$DW$164, DW_AT_TI_symbol_name("ISPR")
    2422                            .dwattr $C$DW$164, DW_AT_data_member_location[DW_OP_plus_uconst 0x100]
    2423                            .dwattr $C$DW$164, DW_AT_accessibility(DW_ACCESS_public)
    2424                            .dwattr $C$DW$164, DW_AT_decl_file("C:/ti/ccs1200/ccs/ccs_base/arm/include/CMSIS/core_cm4.h")
    2425                            .dwattr $C$DW$164, DW_AT_decl_line(0x19a)
    2426                            .dwattr $C$DW$164, DW_AT_decl_column(0x12)
    2427                    
    2428                    $C$DW$165       .dwtag  DW_TAG_member
    2429                            .dwattr $C$DW$165, DW_AT_type(*$C$DW$T$54)
    2430                            .dwattr $C$DW$165, DW_AT_name("RESERVED2")
    2431                            .dwattr $C$DW$165, DW_AT_TI_symbol_name("RESERVED2")
    2432                            .dwattr $C$DW$165, DW_AT_data_member_location[DW_OP_plus_uconst 0x120]
    2433                            .dwattr $C$DW$165, DW_AT_accessibility(DW_ACCESS_public)
    2434                            .dwattr $C$DW$165, DW_AT_decl_file("C:/ti/ccs1200/ccs/ccs_base/arm/include/CMSIS/core_cm4.h")
    2435                            .dwattr $C$DW$165, DW_AT_decl_line(0x19b)
    2436                            .dwattr $C$DW$165, DW_AT_decl_column(0x12)
    2437                    
    2438                    $C$DW$166       .dwtag  DW_TAG_member
    2439                            .dwattr $C$DW$166, DW_AT_type(*$C$DW$T$53)
    2440                            .dwattr $C$DW$166, DW_AT_name("ICPR")
    2441                            .dwattr $C$DW$166, DW_AT_TI_symbol_name("ICPR")
    2442                            .dwattr $C$DW$166, DW_AT_data_member_location[DW_OP_plus_uconst 0x180]
    2443                            .dwattr $C$DW$166, DW_AT_accessibility(DW_ACCESS_public)
    2444                            .dwattr $C$DW$166, DW_AT_decl_file("C:/ti/ccs1200/ccs/ccs_base/arm/include/CMSIS/core_cm4.h")
    2445                            .dwattr $C$DW$166, DW_AT_decl_line(0x19c)
    2446                            .dwattr $C$DW$166, DW_AT_decl_column(0x12)
    2447                    
    2448                    $C$DW$167       .dwtag  DW_TAG_member
    2449                            .dwattr $C$DW$167, DW_AT_type(*$C$DW$T$54)
    2450                            .dwattr $C$DW$167, DW_AT_name("RESERVED3")
TI ARM Assembler PC v20.2.6 Mon Oct 31 23:16:55 2022

Copyright (c) 1996-2018 Texas Instruments Incorporated
Clock.asm                                                            PAGE   46

    2451                            .dwattr $C$DW$167, DW_AT_TI_symbol_name("RESERVED3")
    2452                            .dwattr $C$DW$167, DW_AT_data_member_location[DW_OP_plus_uconst 0x1a0]
    2453                            .dwattr $C$DW$167, DW_AT_accessibility(DW_ACCESS_public)
    2454                            .dwattr $C$DW$167, DW_AT_decl_file("C:/ti/ccs1200/ccs/ccs_base/arm/include/CMSIS/core_cm4.h")
    2455                            .dwattr $C$DW$167, DW_AT_decl_line(0x19d)
    2456                            .dwattr $C$DW$167, DW_AT_decl_column(0x12)
    2457                    
    2458                    $C$DW$168       .dwtag  DW_TAG_member
    2459                            .dwattr $C$DW$168, DW_AT_type(*$C$DW$T$53)
    2460                            .dwattr $C$DW$168, DW_AT_name("IABR")
    2461                            .dwattr $C$DW$168, DW_AT_TI_symbol_name("IABR")
    2462                            .dwattr $C$DW$168, DW_AT_data_member_location[DW_OP_plus_uconst 0x200]
    2463                            .dwattr $C$DW$168, DW_AT_accessibility(DW_ACCESS_public)
    2464                            .dwattr $C$DW$168, DW_AT_decl_file("C:/ti/ccs1200/ccs/ccs_base/arm/include/CMSIS/core_cm4.h")
    2465                            .dwattr $C$DW$168, DW_AT_decl_line(0x19e)
    2466                            .dwattr $C$DW$168, DW_AT_decl_column(0x12)
    2467                    
    2468                    $C$DW$169       .dwtag  DW_TAG_member
    2469                            .dwattr $C$DW$169, DW_AT_type(*$C$DW$T$55)
    2470                            .dwattr $C$DW$169, DW_AT_name("RESERVED4")
    2471                            .dwattr $C$DW$169, DW_AT_TI_symbol_name("RESERVED4")
    2472                            .dwattr $C$DW$169, DW_AT_data_member_location[DW_OP_plus_uconst 0x220]
    2473                            .dwattr $C$DW$169, DW_AT_accessibility(DW_ACCESS_public)
    2474                            .dwattr $C$DW$169, DW_AT_decl_file("C:/ti/ccs1200/ccs/ccs_base/arm/include/CMSIS/core_cm4.h")
    2475                            .dwattr $C$DW$169, DW_AT_decl_line(0x19f)
    2476                            .dwattr $C$DW$169, DW_AT_decl_column(0x12)
    2477                    
    2478                    $C$DW$170       .dwtag  DW_TAG_member
    2479                            .dwattr $C$DW$170, DW_AT_type(*$C$DW$T$56)
    2480                            .dwattr $C$DW$170, DW_AT_name("IP")
    2481                            .dwattr $C$DW$170, DW_AT_TI_symbol_name("IP")
    2482                            .dwattr $C$DW$170, DW_AT_data_member_location[DW_OP_plus_uconst 0x300]
    2483                            .dwattr $C$DW$170, DW_AT_accessibility(DW_ACCESS_public)
    2484                            .dwattr $C$DW$170, DW_AT_decl_file("C:/ti/ccs1200/ccs/ccs_base/arm/include/CMSIS/core_cm4.h")
    2485                            .dwattr $C$DW$170, DW_AT_decl_line(0x1a0)
    2486                            .dwattr $C$DW$170, DW_AT_decl_column(0x12)
    2487                    
    2488                    $C$DW$171       .dwtag  DW_TAG_member
    2489                            .dwattr $C$DW$171, DW_AT_type(*$C$DW$T$57)
    2490                            .dwattr $C$DW$171, DW_AT_name("RESERVED5")
    2491                            .dwattr $C$DW$171, DW_AT_TI_symbol_name("RESERVED5")
    2492                            .dwattr $C$DW$171, DW_AT_data_member_location[DW_OP_plus_uconst 0x3f0]
    2493                            .dwattr $C$DW$171, DW_AT_accessibility(DW_ACCESS_public)
    2494                            .dwattr $C$DW$171, DW_AT_decl_file("C:/ti/ccs1200/ccs/ccs_base/arm/include/CMSIS/core_cm4.h")
    2495                            .dwattr $C$DW$171, DW_AT_decl_line(0x1a1)
    2496                            .dwattr $C$DW$171, DW_AT_decl_column(0x12)
    2497                    
    2498                    $C$DW$172       .dwtag  DW_TAG_member
    2499                            .dwattr $C$DW$172, DW_AT_type(*$C$DW$T$23)
    2500                            .dwattr $C$DW$172, DW_AT_name("STIR")
    2501                            .dwattr $C$DW$172, DW_AT_TI_symbol_name("STIR")
    2502                            .dwattr $C$DW$172, DW_AT_data_member_location[DW_OP_plus_uconst 0xe00]
    2503                            .dwattr $C$DW$172, DW_AT_accessibility(DW_ACCESS_public)
    2504                            .dwattr $C$DW$172, DW_AT_decl_file("C:/ti/ccs1200/ccs/ccs_base/arm/include/CMSIS/core_cm4.h")
    2505                            .dwattr $C$DW$172, DW_AT_decl_line(0x1a2)
TI ARM Assembler PC v20.2.6 Mon Oct 31 23:16:55 2022

Copyright (c) 1996-2018 Texas Instruments Incorporated
Clock.asm                                                            PAGE   47

    2506                            .dwattr $C$DW$172, DW_AT_decl_column(0x12)
    2507                    
    2508                            .dwattr $C$DW$T$58, DW_AT_decl_file("C:/ti/ccs1200/ccs/ccs_base/arm/include/CMSIS/core_cm4.h")
    2509                            .dwattr $C$DW$T$58, DW_AT_decl_line(0x195)
    2510                            .dwattr $C$DW$T$58, DW_AT_decl_column(0x01)
    2511                            .dwendtag $C$DW$T$58
    2512                    
    2513                    $C$DW$T$188     .dwtag  DW_TAG_typedef
    2514                            .dwattr $C$DW$T$188, DW_AT_name("NVIC_Type")
    2515                            .dwattr $C$DW$T$188, DW_AT_type(*$C$DW$T$58)
    2516                            .dwattr $C$DW$T$188, DW_AT_language(DW_LANG_C)
    2517                            .dwattr $C$DW$T$188, DW_AT_decl_file("C:/ti/ccs1200/ccs/ccs_base/arm/include/CMSIS/core_cm4.h"
    2518                            .dwattr $C$DW$T$188, DW_AT_decl_line(0x1a3)
    2519                            .dwattr $C$DW$T$188, DW_AT_decl_column(0x04)
    2520                    
    2521                    
    2522                    $C$DW$T$64      .dwtag  DW_TAG_structure_type
    2523                            .dwattr $C$DW$T$64, DW_AT_byte_size(0x8c)
    2524                    $C$DW$173       .dwtag  DW_TAG_member
    2525                            .dwattr $C$DW$173, DW_AT_type(*$C$DW$T$24)
    2526                            .dwattr $C$DW$173, DW_AT_name("CPUID")
    2527                            .dwattr $C$DW$173, DW_AT_TI_symbol_name("CPUID")
    2528                            .dwattr $C$DW$173, DW_AT_data_member_location[DW_OP_plus_uconst 0x0]
    2529                            .dwattr $C$DW$173, DW_AT_accessibility(DW_ACCESS_public)
    2530                            .dwattr $C$DW$173, DW_AT_decl_file("C:/ti/ccs1200/ccs/ccs_base/arm/include/CMSIS/core_cm4.h")
    2531                            .dwattr $C$DW$173, DW_AT_decl_line(0x1b8)
    2532                            .dwattr $C$DW$173, DW_AT_decl_column(0x12)
    2533                    
    2534                    $C$DW$174       .dwtag  DW_TAG_member
    2535                            .dwattr $C$DW$174, DW_AT_type(*$C$DW$T$23)
    2536                            .dwattr $C$DW$174, DW_AT_name("ICSR")
    2537                            .dwattr $C$DW$174, DW_AT_TI_symbol_name("ICSR")
    2538                            .dwattr $C$DW$174, DW_AT_data_member_location[DW_OP_plus_uconst 0x4]
    2539                            .dwattr $C$DW$174, DW_AT_accessibility(DW_ACCESS_public)
    2540                            .dwattr $C$DW$174, DW_AT_decl_file("C:/ti/ccs1200/ccs/ccs_base/arm/include/CMSIS/core_cm4.h")
    2541                            .dwattr $C$DW$174, DW_AT_decl_line(0x1b9)
    2542                            .dwattr $C$DW$174, DW_AT_decl_column(0x12)
    2543                    
    2544                    $C$DW$175       .dwtag  DW_TAG_member
    2545                            .dwattr $C$DW$175, DW_AT_type(*$C$DW$T$23)
    2546                            .dwattr $C$DW$175, DW_AT_name("VTOR")
    2547                            .dwattr $C$DW$175, DW_AT_TI_symbol_name("VTOR")
    2548                            .dwattr $C$DW$175, DW_AT_data_member_location[DW_OP_plus_uconst 0x8]
    2549                            .dwattr $C$DW$175, DW_AT_accessibility(DW_ACCESS_public)
    2550                            .dwattr $C$DW$175, DW_AT_decl_file("C:/ti/ccs1200/ccs/ccs_base/arm/include/CMSIS/core_cm4.h")
    2551                            .dwattr $C$DW$175, DW_AT_decl_line(0x1ba)
    2552                            .dwattr $C$DW$175, DW_AT_decl_column(0x12)
    2553                    
    2554                    $C$DW$176       .dwtag  DW_TAG_member
    2555                            .dwattr $C$DW$176, DW_AT_type(*$C$DW$T$23)
    2556                            .dwattr $C$DW$176, DW_AT_name("AIRCR")
    2557                            .dwattr $C$DW$176, DW_AT_TI_symbol_name("AIRCR")
    2558                            .dwattr $C$DW$176, DW_AT_data_member_location[DW_OP_plus_uconst 0xc]
    2559                            .dwattr $C$DW$176, DW_AT_accessibility(DW_ACCESS_public)
    2560                            .dwattr $C$DW$176, DW_AT_decl_file("C:/ti/ccs1200/ccs/ccs_base/arm/include/CMSIS/core_cm4.h")
TI ARM Assembler PC v20.2.6 Mon Oct 31 23:16:55 2022

Copyright (c) 1996-2018 Texas Instruments Incorporated
Clock.asm                                                            PAGE   48

    2561                            .dwattr $C$DW$176, DW_AT_decl_line(0x1bb)
    2562                            .dwattr $C$DW$176, DW_AT_decl_column(0x12)
    2563                    
    2564                    $C$DW$177       .dwtag  DW_TAG_member
    2565                            .dwattr $C$DW$177, DW_AT_type(*$C$DW$T$23)
    2566                            .dwattr $C$DW$177, DW_AT_name("SCR")
    2567                            .dwattr $C$DW$177, DW_AT_TI_symbol_name("SCR")
    2568                            .dwattr $C$DW$177, DW_AT_data_member_location[DW_OP_plus_uconst 0x10]
    2569                            .dwattr $C$DW$177, DW_AT_accessibility(DW_ACCESS_public)
    2570                            .dwattr $C$DW$177, DW_AT_decl_file("C:/ti/ccs1200/ccs/ccs_base/arm/include/CMSIS/core_cm4.h")
    2571                            .dwattr $C$DW$177, DW_AT_decl_line(0x1bc)
    2572                            .dwattr $C$DW$177, DW_AT_decl_column(0x12)
    2573                    
    2574                    $C$DW$178       .dwtag  DW_TAG_member
    2575                            .dwattr $C$DW$178, DW_AT_type(*$C$DW$T$23)
    2576                            .dwattr $C$DW$178, DW_AT_name("CCR")
    2577                            .dwattr $C$DW$178, DW_AT_TI_symbol_name("CCR")
    2578                            .dwattr $C$DW$178, DW_AT_data_member_location[DW_OP_plus_uconst 0x14]
    2579                            .dwattr $C$DW$178, DW_AT_accessibility(DW_ACCESS_public)
    2580                            .dwattr $C$DW$178, DW_AT_decl_file("C:/ti/ccs1200/ccs/ccs_base/arm/include/CMSIS/core_cm4.h")
    2581                            .dwattr $C$DW$178, DW_AT_decl_line(0x1bd)
    2582                            .dwattr $C$DW$178, DW_AT_decl_column(0x12)
    2583                    
    2584                    $C$DW$179       .dwtag  DW_TAG_member
    2585                            .dwattr $C$DW$179, DW_AT_type(*$C$DW$T$59)
    2586                            .dwattr $C$DW$179, DW_AT_name("SHP")
    2587                            .dwattr $C$DW$179, DW_AT_TI_symbol_name("SHP")
    2588                            .dwattr $C$DW$179, DW_AT_data_member_location[DW_OP_plus_uconst 0x18]
    2589                            .dwattr $C$DW$179, DW_AT_accessibility(DW_ACCESS_public)
    2590                            .dwattr $C$DW$179, DW_AT_decl_file("C:/ti/ccs1200/ccs/ccs_base/arm/include/CMSIS/core_cm4.h")
    2591                            .dwattr $C$DW$179, DW_AT_decl_line(0x1be)
    2592                            .dwattr $C$DW$179, DW_AT_decl_column(0x12)
    2593                    
    2594                    $C$DW$180       .dwtag  DW_TAG_member
    2595                            .dwattr $C$DW$180, DW_AT_type(*$C$DW$T$23)
    2596                            .dwattr $C$DW$180, DW_AT_name("SHCSR")
    2597                            .dwattr $C$DW$180, DW_AT_TI_symbol_name("SHCSR")
    2598                            .dwattr $C$DW$180, DW_AT_data_member_location[DW_OP_plus_uconst 0x24]
    2599                            .dwattr $C$DW$180, DW_AT_accessibility(DW_ACCESS_public)
    2600                            .dwattr $C$DW$180, DW_AT_decl_file("C:/ti/ccs1200/ccs/ccs_base/arm/include/CMSIS/core_cm4.h")
    2601                            .dwattr $C$DW$180, DW_AT_decl_line(0x1bf)
    2602                            .dwattr $C$DW$180, DW_AT_decl_column(0x12)
    2603                    
    2604                    $C$DW$181       .dwtag  DW_TAG_member
    2605                            .dwattr $C$DW$181, DW_AT_type(*$C$DW$T$23)
    2606                            .dwattr $C$DW$181, DW_AT_name("CFSR")
    2607                            .dwattr $C$DW$181, DW_AT_TI_symbol_name("CFSR")
    2608                            .dwattr $C$DW$181, DW_AT_data_member_location[DW_OP_plus_uconst 0x28]
    2609                            .dwattr $C$DW$181, DW_AT_accessibility(DW_ACCESS_public)
    2610                            .dwattr $C$DW$181, DW_AT_decl_file("C:/ti/ccs1200/ccs/ccs_base/arm/include/CMSIS/core_cm4.h")
    2611                            .dwattr $C$DW$181, DW_AT_decl_line(0x1c0)
    2612                            .dwattr $C$DW$181, DW_AT_decl_column(0x12)
    2613                    
    2614                    $C$DW$182       .dwtag  DW_TAG_member
    2615                            .dwattr $C$DW$182, DW_AT_type(*$C$DW$T$23)
TI ARM Assembler PC v20.2.6 Mon Oct 31 23:16:55 2022

Copyright (c) 1996-2018 Texas Instruments Incorporated
Clock.asm                                                            PAGE   49

    2616                            .dwattr $C$DW$182, DW_AT_name("HFSR")
    2617                            .dwattr $C$DW$182, DW_AT_TI_symbol_name("HFSR")
    2618                            .dwattr $C$DW$182, DW_AT_data_member_location[DW_OP_plus_uconst 0x2c]
    2619                            .dwattr $C$DW$182, DW_AT_accessibility(DW_ACCESS_public)
    2620                            .dwattr $C$DW$182, DW_AT_decl_file("C:/ti/ccs1200/ccs/ccs_base/arm/include/CMSIS/core_cm4.h")
    2621                            .dwattr $C$DW$182, DW_AT_decl_line(0x1c1)
    2622                            .dwattr $C$DW$182, DW_AT_decl_column(0x12)
    2623                    
    2624                    $C$DW$183       .dwtag  DW_TAG_member
    2625                            .dwattr $C$DW$183, DW_AT_type(*$C$DW$T$23)
    2626                            .dwattr $C$DW$183, DW_AT_name("DFSR")
    2627                            .dwattr $C$DW$183, DW_AT_TI_symbol_name("DFSR")
    2628                            .dwattr $C$DW$183, DW_AT_data_member_location[DW_OP_plus_uconst 0x30]
    2629                            .dwattr $C$DW$183, DW_AT_accessibility(DW_ACCESS_public)
    2630                            .dwattr $C$DW$183, DW_AT_decl_file("C:/ti/ccs1200/ccs/ccs_base/arm/include/CMSIS/core_cm4.h")
    2631                            .dwattr $C$DW$183, DW_AT_decl_line(0x1c2)
    2632                            .dwattr $C$DW$183, DW_AT_decl_column(0x12)
    2633                    
    2634                    $C$DW$184       .dwtag  DW_TAG_member
    2635                            .dwattr $C$DW$184, DW_AT_type(*$C$DW$T$23)
    2636                            .dwattr $C$DW$184, DW_AT_name("MMFAR")
    2637                            .dwattr $C$DW$184, DW_AT_TI_symbol_name("MMFAR")
    2638                            .dwattr $C$DW$184, DW_AT_data_member_location[DW_OP_plus_uconst 0x34]
    2639                            .dwattr $C$DW$184, DW_AT_accessibility(DW_ACCESS_public)
    2640                            .dwattr $C$DW$184, DW_AT_decl_file("C:/ti/ccs1200/ccs/ccs_base/arm/include/CMSIS/core_cm4.h")
    2641                            .dwattr $C$DW$184, DW_AT_decl_line(0x1c3)
    2642                            .dwattr $C$DW$184, DW_AT_decl_column(0x12)
    2643                    
    2644                    $C$DW$185       .dwtag  DW_TAG_member
    2645                            .dwattr $C$DW$185, DW_AT_type(*$C$DW$T$23)
    2646                            .dwattr $C$DW$185, DW_AT_name("BFAR")
    2647                            .dwattr $C$DW$185, DW_AT_TI_symbol_name("BFAR")
    2648                            .dwattr $C$DW$185, DW_AT_data_member_location[DW_OP_plus_uconst 0x38]
    2649                            .dwattr $C$DW$185, DW_AT_accessibility(DW_ACCESS_public)
    2650                            .dwattr $C$DW$185, DW_AT_decl_file("C:/ti/ccs1200/ccs/ccs_base/arm/include/CMSIS/core_cm4.h")
    2651                            .dwattr $C$DW$185, DW_AT_decl_line(0x1c4)
    2652                            .dwattr $C$DW$185, DW_AT_decl_column(0x12)
    2653                    
    2654                    $C$DW$186       .dwtag  DW_TAG_member
    2655                            .dwattr $C$DW$186, DW_AT_type(*$C$DW$T$23)
    2656                            .dwattr $C$DW$186, DW_AT_name("AFSR")
    2657                            .dwattr $C$DW$186, DW_AT_TI_symbol_name("AFSR")
    2658                            .dwattr $C$DW$186, DW_AT_data_member_location[DW_OP_plus_uconst 0x3c]
    2659                            .dwattr $C$DW$186, DW_AT_accessibility(DW_ACCESS_public)
    2660                            .dwattr $C$DW$186, DW_AT_decl_file("C:/ti/ccs1200/ccs/ccs_base/arm/include/CMSIS/core_cm4.h")
    2661                            .dwattr $C$DW$186, DW_AT_decl_line(0x1c5)
    2662                            .dwattr $C$DW$186, DW_AT_decl_column(0x12)
    2663                    
    2664                    $C$DW$187       .dwtag  DW_TAG_member
    2665                            .dwattr $C$DW$187, DW_AT_type(*$C$DW$T$60)
    2666                            .dwattr $C$DW$187, DW_AT_name("PFR")
    2667                            .dwattr $C$DW$187, DW_AT_TI_symbol_name("PFR")
    2668                            .dwattr $C$DW$187, DW_AT_data_member_location[DW_OP_plus_uconst 0x40]
    2669                            .dwattr $C$DW$187, DW_AT_accessibility(DW_ACCESS_public)
    2670                            .dwattr $C$DW$187, DW_AT_decl_file("C:/ti/ccs1200/ccs/ccs_base/arm/include/CMSIS/core_cm4.h")
TI ARM Assembler PC v20.2.6 Mon Oct 31 23:16:55 2022

Copyright (c) 1996-2018 Texas Instruments Incorporated
Clock.asm                                                            PAGE   50

    2671                            .dwattr $C$DW$187, DW_AT_decl_line(0x1c6)
    2672                            .dwattr $C$DW$187, DW_AT_decl_column(0x12)
    2673                    
    2674                    $C$DW$188       .dwtag  DW_TAG_member
    2675                            .dwattr $C$DW$188, DW_AT_type(*$C$DW$T$24)
    2676                            .dwattr $C$DW$188, DW_AT_name("DFR")
    2677                            .dwattr $C$DW$188, DW_AT_TI_symbol_name("DFR")
    2678                            .dwattr $C$DW$188, DW_AT_data_member_location[DW_OP_plus_uconst 0x48]
    2679                            .dwattr $C$DW$188, DW_AT_accessibility(DW_ACCESS_public)
    2680                            .dwattr $C$DW$188, DW_AT_decl_file("C:/ti/ccs1200/ccs/ccs_base/arm/include/CMSIS/core_cm4.h")
    2681                            .dwattr $C$DW$188, DW_AT_decl_line(0x1c7)
    2682                            .dwattr $C$DW$188, DW_AT_decl_column(0x12)
    2683                    
    2684                    $C$DW$189       .dwtag  DW_TAG_member
    2685                            .dwattr $C$DW$189, DW_AT_type(*$C$DW$T$24)
    2686                            .dwattr $C$DW$189, DW_AT_name("ADR")
    2687                            .dwattr $C$DW$189, DW_AT_TI_symbol_name("ADR")
    2688                            .dwattr $C$DW$189, DW_AT_data_member_location[DW_OP_plus_uconst 0x4c]
    2689                            .dwattr $C$DW$189, DW_AT_accessibility(DW_ACCESS_public)
    2690                            .dwattr $C$DW$189, DW_AT_decl_file("C:/ti/ccs1200/ccs/ccs_base/arm/include/CMSIS/core_cm4.h")
    2691                            .dwattr $C$DW$189, DW_AT_decl_line(0x1c8)
    2692                            .dwattr $C$DW$189, DW_AT_decl_column(0x12)
    2693                    
    2694                    $C$DW$190       .dwtag  DW_TAG_member
    2695                            .dwattr $C$DW$190, DW_AT_type(*$C$DW$T$61)
    2696                            .dwattr $C$DW$190, DW_AT_name("MMFR")
    2697                            .dwattr $C$DW$190, DW_AT_TI_symbol_name("MMFR")
    2698                            .dwattr $C$DW$190, DW_AT_data_member_location[DW_OP_plus_uconst 0x50]
    2699                            .dwattr $C$DW$190, DW_AT_accessibility(DW_ACCESS_public)
    2700                            .dwattr $C$DW$190, DW_AT_decl_file("C:/ti/ccs1200/ccs/ccs_base/arm/include/CMSIS/core_cm4.h")
    2701                            .dwattr $C$DW$190, DW_AT_decl_line(0x1c9)
    2702                            .dwattr $C$DW$190, DW_AT_decl_column(0x12)
    2703                    
    2704                    $C$DW$191       .dwtag  DW_TAG_member
    2705                            .dwattr $C$DW$191, DW_AT_type(*$C$DW$T$62)
    2706                            .dwattr $C$DW$191, DW_AT_name("ISAR")
    2707                            .dwattr $C$DW$191, DW_AT_TI_symbol_name("ISAR")
    2708                            .dwattr $C$DW$191, DW_AT_data_member_location[DW_OP_plus_uconst 0x60]
    2709                            .dwattr $C$DW$191, DW_AT_accessibility(DW_ACCESS_public)
    2710                            .dwattr $C$DW$191, DW_AT_decl_file("C:/ti/ccs1200/ccs/ccs_base/arm/include/CMSIS/core_cm4.h")
    2711                            .dwattr $C$DW$191, DW_AT_decl_line(0x1ca)
    2712                            .dwattr $C$DW$191, DW_AT_decl_column(0x12)
    2713                    
    2714                    $C$DW$192       .dwtag  DW_TAG_member
    2715                            .dwattr $C$DW$192, DW_AT_type(*$C$DW$T$63)
    2716                            .dwattr $C$DW$192, DW_AT_name("RESERVED0")
    2717                            .dwattr $C$DW$192, DW_AT_TI_symbol_name("RESERVED0")
    2718                            .dwattr $C$DW$192, DW_AT_data_member_location[DW_OP_plus_uconst 0x74]
    2719                            .dwattr $C$DW$192, DW_AT_accessibility(DW_ACCESS_public)
    2720                            .dwattr $C$DW$192, DW_AT_decl_file("C:/ti/ccs1200/ccs/ccs_base/arm/include/CMSIS/core_cm4.h")
    2721                            .dwattr $C$DW$192, DW_AT_decl_line(0x1cb)
    2722                            .dwattr $C$DW$192, DW_AT_decl_column(0x12)
    2723                    
    2724                    $C$DW$193       .dwtag  DW_TAG_member
    2725                            .dwattr $C$DW$193, DW_AT_type(*$C$DW$T$23)
TI ARM Assembler PC v20.2.6 Mon Oct 31 23:16:55 2022

Copyright (c) 1996-2018 Texas Instruments Incorporated
Clock.asm                                                            PAGE   51

    2726                            .dwattr $C$DW$193, DW_AT_name("CPACR")
    2727                            .dwattr $C$DW$193, DW_AT_TI_symbol_name("CPACR")
    2728                            .dwattr $C$DW$193, DW_AT_data_member_location[DW_OP_plus_uconst 0x88]
    2729                            .dwattr $C$DW$193, DW_AT_accessibility(DW_ACCESS_public)
    2730                            .dwattr $C$DW$193, DW_AT_decl_file("C:/ti/ccs1200/ccs/ccs_base/arm/include/CMSIS/core_cm4.h")
    2731                            .dwattr $C$DW$193, DW_AT_decl_line(0x1cc)
    2732                            .dwattr $C$DW$193, DW_AT_decl_column(0x12)
    2733                    
    2734                            .dwattr $C$DW$T$64, DW_AT_decl_file("C:/ti/ccs1200/ccs/ccs_base/arm/include/CMSIS/core_cm4.h")
    2735                            .dwattr $C$DW$T$64, DW_AT_decl_line(0x1b7)
    2736                            .dwattr $C$DW$T$64, DW_AT_decl_column(0x01)
    2737                            .dwendtag $C$DW$T$64
    2738                    
    2739                    $C$DW$T$189     .dwtag  DW_TAG_typedef
    2740                            .dwattr $C$DW$T$189, DW_AT_name("SCB_Type")
    2741                            .dwattr $C$DW$T$189, DW_AT_type(*$C$DW$T$64)
    2742                            .dwattr $C$DW$T$189, DW_AT_language(DW_LANG_C)
    2743                            .dwattr $C$DW$T$189, DW_AT_decl_file("C:/ti/ccs1200/ccs/ccs_base/arm/include/CMSIS/core_cm4.h"
    2744                            .dwattr $C$DW$T$189, DW_AT_decl_line(0x1cd)
    2745                            .dwattr $C$DW$T$189, DW_AT_decl_column(0x03)
    2746                    
    2747                    
    2748                    $C$DW$T$66      .dwtag  DW_TAG_structure_type
    2749                            .dwattr $C$DW$T$66, DW_AT_byte_size(0x0c)
    2750                    $C$DW$194       .dwtag  DW_TAG_member
    2751                            .dwattr $C$DW$194, DW_AT_type(*$C$DW$T$65)
    2752                            .dwattr $C$DW$194, DW_AT_name("RESERVED0")
    2753                            .dwattr $C$DW$194, DW_AT_TI_symbol_name("RESERVED0")
    2754                            .dwattr $C$DW$194, DW_AT_data_member_location[DW_OP_plus_uconst 0x0]
    2755                            .dwattr $C$DW$194, DW_AT_accessibility(DW_ACCESS_public)
    2756                            .dwattr $C$DW$194, DW_AT_decl_file("C:/ti/ccs1200/ccs/ccs_base/arm/include/CMSIS/core_cm4.h")
    2757                            .dwattr $C$DW$194, DW_AT_decl_line(0x2cf)
    2758                            .dwattr $C$DW$194, DW_AT_decl_column(0x12)
    2759                    
    2760                    $C$DW$195       .dwtag  DW_TAG_member
    2761                            .dwattr $C$DW$195, DW_AT_type(*$C$DW$T$24)
    2762                            .dwattr $C$DW$195, DW_AT_name("ICTR")
    2763                            .dwattr $C$DW$195, DW_AT_TI_symbol_name("ICTR")
    2764                            .dwattr $C$DW$195, DW_AT_data_member_location[DW_OP_plus_uconst 0x4]
    2765                            .dwattr $C$DW$195, DW_AT_accessibility(DW_ACCESS_public)
    2766                            .dwattr $C$DW$195, DW_AT_decl_file("C:/ti/ccs1200/ccs/ccs_base/arm/include/CMSIS/core_cm4.h")
    2767                            .dwattr $C$DW$195, DW_AT_decl_line(0x2d0)
    2768                            .dwattr $C$DW$195, DW_AT_decl_column(0x12)
    2769                    
    2770                    $C$DW$196       .dwtag  DW_TAG_member
    2771                            .dwattr $C$DW$196, DW_AT_type(*$C$DW$T$23)
    2772                            .dwattr $C$DW$196, DW_AT_name("ACTLR")
    2773                            .dwattr $C$DW$196, DW_AT_TI_symbol_name("ACTLR")
    2774                            .dwattr $C$DW$196, DW_AT_data_member_location[DW_OP_plus_uconst 0x8]
    2775                            .dwattr $C$DW$196, DW_AT_accessibility(DW_ACCESS_public)
    2776                            .dwattr $C$DW$196, DW_AT_decl_file("C:/ti/ccs1200/ccs/ccs_base/arm/include/CMSIS/core_cm4.h")
    2777                            .dwattr $C$DW$196, DW_AT_decl_line(0x2d1)
    2778                            .dwattr $C$DW$196, DW_AT_decl_column(0x12)
    2779                    
    2780                            .dwattr $C$DW$T$66, DW_AT_decl_file("C:/ti/ccs1200/ccs/ccs_base/arm/include/CMSIS/core_cm4.h")
TI ARM Assembler PC v20.2.6 Mon Oct 31 23:16:55 2022

Copyright (c) 1996-2018 Texas Instruments Incorporated
Clock.asm                                                            PAGE   52

    2781                            .dwattr $C$DW$T$66, DW_AT_decl_line(0x2ce)
    2782                            .dwattr $C$DW$T$66, DW_AT_decl_column(0x01)
    2783                            .dwendtag $C$DW$T$66
    2784                    
    2785                    $C$DW$T$190     .dwtag  DW_TAG_typedef
    2786                            .dwattr $C$DW$T$190, DW_AT_name("SCnSCB_Type")
    2787                            .dwattr $C$DW$T$190, DW_AT_type(*$C$DW$T$66)
    2788                            .dwattr $C$DW$T$190, DW_AT_language(DW_LANG_C)
    2789                            .dwattr $C$DW$T$190, DW_AT_decl_file("C:/ti/ccs1200/ccs/ccs_base/arm/include/CMSIS/core_cm4.h"
    2790                            .dwattr $C$DW$T$190, DW_AT_decl_line(0x2d2)
    2791                            .dwattr $C$DW$T$190, DW_AT_decl_column(0x03)
    2792                    
    2793                    
    2794                    $C$DW$T$67      .dwtag  DW_TAG_structure_type
    2795                            .dwattr $C$DW$T$67, DW_AT_byte_size(0x10)
    2796                    $C$DW$197       .dwtag  DW_TAG_member
    2797                            .dwattr $C$DW$197, DW_AT_type(*$C$DW$T$23)
    2798                            .dwattr $C$DW$197, DW_AT_name("CTRL")
    2799                            .dwattr $C$DW$197, DW_AT_TI_symbol_name("CTRL")
    2800                            .dwattr $C$DW$197, DW_AT_data_member_location[DW_OP_plus_uconst 0x0]
    2801                            .dwattr $C$DW$197, DW_AT_accessibility(DW_ACCESS_public)
    2802                            .dwattr $C$DW$197, DW_AT_decl_file("C:/ti/ccs1200/ccs/ccs_base/arm/include/CMSIS/core_cm4.h")
    2803                            .dwattr $C$DW$197, DW_AT_decl_line(0x2f7)
    2804                            .dwattr $C$DW$197, DW_AT_decl_column(0x12)
    2805                    
    2806                    $C$DW$198       .dwtag  DW_TAG_member
    2807                            .dwattr $C$DW$198, DW_AT_type(*$C$DW$T$23)
    2808                            .dwattr $C$DW$198, DW_AT_name("LOAD")
    2809                            .dwattr $C$DW$198, DW_AT_TI_symbol_name("LOAD")
    2810                            .dwattr $C$DW$198, DW_AT_data_member_location[DW_OP_plus_uconst 0x4]
    2811                            .dwattr $C$DW$198, DW_AT_accessibility(DW_ACCESS_public)
    2812                            .dwattr $C$DW$198, DW_AT_decl_file("C:/ti/ccs1200/ccs/ccs_base/arm/include/CMSIS/core_cm4.h")
    2813                            .dwattr $C$DW$198, DW_AT_decl_line(0x2f8)
    2814                            .dwattr $C$DW$198, DW_AT_decl_column(0x12)
    2815                    
    2816                    $C$DW$199       .dwtag  DW_TAG_member
    2817                            .dwattr $C$DW$199, DW_AT_type(*$C$DW$T$23)
    2818                            .dwattr $C$DW$199, DW_AT_name("VAL")
    2819                            .dwattr $C$DW$199, DW_AT_TI_symbol_name("VAL")
    2820                            .dwattr $C$DW$199, DW_AT_data_member_location[DW_OP_plus_uconst 0x8]
    2821                            .dwattr $C$DW$199, DW_AT_accessibility(DW_ACCESS_public)
    2822                            .dwattr $C$DW$199, DW_AT_decl_file("C:/ti/ccs1200/ccs/ccs_base/arm/include/CMSIS/core_cm4.h")
    2823                            .dwattr $C$DW$199, DW_AT_decl_line(0x2f9)
    2824                            .dwattr $C$DW$199, DW_AT_decl_column(0x12)
    2825                    
    2826                    $C$DW$200       .dwtag  DW_TAG_member
    2827                            .dwattr $C$DW$200, DW_AT_type(*$C$DW$T$24)
    2828                            .dwattr $C$DW$200, DW_AT_name("CALIB")
    2829                            .dwattr $C$DW$200, DW_AT_TI_symbol_name("CALIB")
    2830                            .dwattr $C$DW$200, DW_AT_data_member_location[DW_OP_plus_uconst 0xc]
    2831                            .dwattr $C$DW$200, DW_AT_accessibility(DW_ACCESS_public)
    2832                            .dwattr $C$DW$200, DW_AT_decl_file("C:/ti/ccs1200/ccs/ccs_base/arm/include/CMSIS/core_cm4.h")
    2833                            .dwattr $C$DW$200, DW_AT_decl_line(0x2fa)
    2834                            .dwattr $C$DW$200, DW_AT_decl_column(0x12)
    2835                    
TI ARM Assembler PC v20.2.6 Mon Oct 31 23:16:55 2022

Copyright (c) 1996-2018 Texas Instruments Incorporated
Clock.asm                                                            PAGE   53

    2836                            .dwattr $C$DW$T$67, DW_AT_decl_file("C:/ti/ccs1200/ccs/ccs_base/arm/include/CMSIS/core_cm4.h")
    2837                            .dwattr $C$DW$T$67, DW_AT_decl_line(0x2f6)
    2838                            .dwattr $C$DW$T$67, DW_AT_decl_column(0x01)
    2839                            .dwendtag $C$DW$T$67
    2840                    
    2841                    $C$DW$T$191     .dwtag  DW_TAG_typedef
    2842                            .dwattr $C$DW$T$191, DW_AT_name("SysTick_Type")
    2843                            .dwattr $C$DW$T$191, DW_AT_type(*$C$DW$T$67)
    2844                            .dwattr $C$DW$T$191, DW_AT_language(DW_LANG_C)
    2845                            .dwattr $C$DW$T$191, DW_AT_decl_file("C:/ti/ccs1200/ccs/ccs_base/arm/include/CMSIS/core_cm4.h"
    2846                            .dwattr $C$DW$T$191, DW_AT_decl_line(0x2fb)
    2847                            .dwattr $C$DW$T$191, DW_AT_decl_column(0x03)
    2848                    
    2849                    
    2850                    $C$DW$T$75      .dwtag  DW_TAG_structure_type
    2851                            .dwattr $C$DW$T$75, DW_AT_byte_size(0x1000)
    2852                    $C$DW$201       .dwtag  DW_TAG_member
    2853                            .dwattr $C$DW$201, DW_AT_type(*$C$DW$T$69)
    2854                            .dwattr $C$DW$201, DW_AT_name("PORT")
    2855                            .dwattr $C$DW$201, DW_AT_TI_symbol_name("PORT")
    2856                            .dwattr $C$DW$201, DW_AT_data_member_location[DW_OP_plus_uconst 0x0]
    2857                            .dwattr $C$DW$201, DW_AT_accessibility(DW_ACCESS_public)
    2858                            .dwattr $C$DW$201, DW_AT_decl_file("C:/ti/ccs1200/ccs/ccs_base/arm/include/CMSIS/core_cm4.h")
    2859                            .dwattr $C$DW$201, DW_AT_decl_line(0x330)
    2860                            .dwattr $C$DW$201, DW_AT_decl_column(0x06)
    2861                    
    2862                    $C$DW$202       .dwtag  DW_TAG_member
    2863                            .dwattr $C$DW$202, DW_AT_type(*$C$DW$T$70)
    2864                            .dwattr $C$DW$202, DW_AT_name("RESERVED0")
    2865                            .dwattr $C$DW$202, DW_AT_TI_symbol_name("RESERVED0")
    2866                            .dwattr $C$DW$202, DW_AT_data_member_location[DW_OP_plus_uconst 0x80]
    2867                            .dwattr $C$DW$202, DW_AT_accessibility(DW_ACCESS_public)
    2868                            .dwattr $C$DW$202, DW_AT_decl_file("C:/ti/ccs1200/ccs/ccs_base/arm/include/CMSIS/core_cm4.h")
    2869                            .dwattr $C$DW$202, DW_AT_decl_line(0x331)
    2870                            .dwattr $C$DW$202, DW_AT_decl_column(0x12)
    2871                    
    2872                    $C$DW$203       .dwtag  DW_TAG_member
    2873                            .dwattr $C$DW$203, DW_AT_type(*$C$DW$T$23)
    2874                            .dwattr $C$DW$203, DW_AT_name("TER")
    2875                            .dwattr $C$DW$203, DW_AT_TI_symbol_name("TER")
    2876                            .dwattr $C$DW$203, DW_AT_data_member_location[DW_OP_plus_uconst 0xe00]
    2877                            .dwattr $C$DW$203, DW_AT_accessibility(DW_ACCESS_public)
    2878                            .dwattr $C$DW$203, DW_AT_decl_file("C:/ti/ccs1200/ccs/ccs_base/arm/include/CMSIS/core_cm4.h")
    2879                            .dwattr $C$DW$203, DW_AT_decl_line(0x332)
    2880                            .dwattr $C$DW$203, DW_AT_decl_column(0x12)
    2881                    
    2882                    $C$DW$204       .dwtag  DW_TAG_member
    2883                            .dwattr $C$DW$204, DW_AT_type(*$C$DW$T$71)
    2884                            .dwattr $C$DW$204, DW_AT_name("RESERVED1")
    2885                            .dwattr $C$DW$204, DW_AT_TI_symbol_name("RESERVED1")
    2886                            .dwattr $C$DW$204, DW_AT_data_member_location[DW_OP_plus_uconst 0xe04]
    2887                            .dwattr $C$DW$204, DW_AT_accessibility(DW_ACCESS_public)
    2888                            .dwattr $C$DW$204, DW_AT_decl_file("C:/ti/ccs1200/ccs/ccs_base/arm/include/CMSIS/core_cm4.h")
    2889                            .dwattr $C$DW$204, DW_AT_decl_line(0x333)
    2890                            .dwattr $C$DW$204, DW_AT_decl_column(0x12)
TI ARM Assembler PC v20.2.6 Mon Oct 31 23:16:55 2022

Copyright (c) 1996-2018 Texas Instruments Incorporated
Clock.asm                                                            PAGE   54

    2891                    
    2892                    $C$DW$205       .dwtag  DW_TAG_member
    2893                            .dwattr $C$DW$205, DW_AT_type(*$C$DW$T$23)
    2894                            .dwattr $C$DW$205, DW_AT_name("TPR")
    2895                            .dwattr $C$DW$205, DW_AT_TI_symbol_name("TPR")
    2896                            .dwattr $C$DW$205, DW_AT_data_member_location[DW_OP_plus_uconst 0xe40]
    2897                            .dwattr $C$DW$205, DW_AT_accessibility(DW_ACCESS_public)
    2898                            .dwattr $C$DW$205, DW_AT_decl_file("C:/ti/ccs1200/ccs/ccs_base/arm/include/CMSIS/core_cm4.h")
    2899                            .dwattr $C$DW$205, DW_AT_decl_line(0x334)
    2900                            .dwattr $C$DW$205, DW_AT_decl_column(0x12)
    2901                    
    2902                    $C$DW$206       .dwtag  DW_TAG_member
    2903                            .dwattr $C$DW$206, DW_AT_type(*$C$DW$T$71)
    2904                            .dwattr $C$DW$206, DW_AT_name("RESERVED2")
