TI ARM Assembler PC v20.2.6 Mon Oct 31 23:16:56 2022

Copyright (c) 1996-2018 Texas Instruments Incorporated
main.asm                                                             PAGE    1

       1                    ;******************************************************************************
       2                    ;* TI ARM G3 C/C++ Codegen                                              PC v20.2.6.LTS *
       3                    ;* Date/Time created: Mon Oct 31 23:16:54 2022                                *
       4                    ;******************************************************************************
       5                            .compiler_opts --abi=eabi --arm_vmrs_si_workaround=off --code_state=16 --diag_wrap=off --embed
       6 00000000                   .thumb
       7                    
       8                    $C$DW$CU        .dwtag  DW_TAG_compile_unit
       9                            .dwattr $C$DW$CU, DW_AT_name("../main.c")
      10                            .dwattr $C$DW$CU, DW_AT_producer("TI TI ARM G3 C/C++ Codegen PC v20.2.6.LTS Copyright (c) 1996
      11                            .dwattr $C$DW$CU, DW_AT_TI_version(0x01)
      12                            .dwattr $C$DW$CU, DW_AT_comp_dir("D:\Y2S1\SC2107 Lab\Lab1_C_Programming\Debug")
      13                    
      14                    $C$DW$1 .dwtag  DW_TAG_subprogram
      15                            .dwattr $C$DW$1, DW_AT_name("Clock_Delay1ms")
      16                            .dwattr $C$DW$1, DW_AT_TI_symbol_name("Clock_Delay1ms")
      17                            .dwattr $C$DW$1, DW_AT_declaration
      18                            .dwattr $C$DW$1, DW_AT_external
      19                            .dwattr $C$DW$1, DW_AT_decl_file("..\..\inc\Clock.h")
      20                            .dwattr $C$DW$1, DW_AT_decl_line(0x56)
      21                            .dwattr $C$DW$1, DW_AT_decl_column(0x06)
      22                    $C$DW$2 .dwtag  DW_TAG_formal_parameter
      23                            .dwattr $C$DW$2, DW_AT_type(*$C$DW$T$34)
      24                    
      25                            .dwendtag $C$DW$1
      26                    
      27 00000000                   .sect   ".const:$P$T0$1"
      28                            .align  4
      29                            .elfsym ||$P$T0$1||,SYM_SIZE(24)
      30 00000000           ||$P$T0$1||:
      31 00000000 0000000A          .bits           0xa,32
      32                                            ; $P$T0$1[0] @ 0
      33 00000004 0000000B          .bits           0xb,32
      34                                            ; $P$T0$1[1] @ 32
      35 00000008 0000000C          .bits           0xc,32
      36                                            ; $P$T0$1[2] @ 64
      37 0000000c 0000000D          .bits           0xd,32
      38                                            ; $P$T0$1[3] @ 96
      39 00000010 0000000E          .bits           0xe,32
      40                                            ; $P$T0$1[4] @ 128
      41 00000014 0000000F          .bits           0xf,32
      42                                            ; $P$T0$1[5] @ 160
      43                    
      44                    $C$DW$3 .dwtag  DW_TAG_variable
      45                            .dwattr $C$DW$3, DW_AT_name("$P$T0$1")
      46                            .dwattr $C$DW$3, DW_AT_TI_symbol_name("$P$T0$1")
      47                            .dwattr $C$DW$3, DW_AT_type(*$C$DW$T$265)
      48                            .dwattr $C$DW$3, DW_AT_location[DW_OP_addr ||$P$T0$1||]
      49                            .dwattr $C$DW$3, DW_AT_decl_file("../main.c")
      50                            .dwattr $C$DW$3, DW_AT_decl_line(0xd0)
      51                            .dwattr $C$DW$3, DW_AT_decl_column(0x12)
      52                    
      53                    ;       C:\ti\ccs1200\ccs\tools\compiler\ti-cgt-arm_20.2.6.LTS\bin\armopt.exe C:\\Users\\daych\\AppDat
      54 00000000                   .sect   ".text"
      55                            .clink
TI ARM Assembler PC v20.2.6 Mon Oct 31 23:16:56 2022

Copyright (c) 1996-2018 Texas Instruments Incorporated
main.asm                                                             PAGE    2

      56                            .thumbfunc Port1_Init
      57 00000000                   .thumb
      58                            .global Port1_Init
      59                    
      60                    $C$DW$4 .dwtag  DW_TAG_subprogram
      61                            .dwattr $C$DW$4, DW_AT_name("Port1_Init")
      62                            .dwattr $C$DW$4, DW_AT_low_pc(Port1_Init)
      63                            .dwattr $C$DW$4, DW_AT_high_pc(0x00)
      64                            .dwattr $C$DW$4, DW_AT_TI_symbol_name("Port1_Init")
      65                            .dwattr $C$DW$4, DW_AT_external
      66                            .dwattr $C$DW$4, DW_AT_TI_begin_file("../main.c")
      67                            .dwattr $C$DW$4, DW_AT_TI_begin_line(0x59)
      68                            .dwattr $C$DW$4, DW_AT_TI_begin_column(0x06)
      69                            .dwattr $C$DW$4, DW_AT_decl_file("../main.c")
      70                            .dwattr $C$DW$4, DW_AT_decl_line(0x59)
      71                            .dwattr $C$DW$4, DW_AT_decl_column(0x06)
      72                            .dwattr $C$DW$4, DW_AT_TI_max_frame_size(0x00)
      73                            .dwpsn  file "../main.c",line 89,column 22,is_stmt,address Port1_Init,isa 1
      74                    
      75                            .dwfde $C$DW$CIE, Port1_Init
      76                    
      77                    ;*****************************************************************************
      78                    ;* FUNCTION NAME: Port1_Init                                                 *
      79                    ;*                                                                           *
      80                    ;*   Regs Modified     : A1,A2,A3,SR                                         *
      81                    ;*   Regs Used         : A1,A2,A3,LR,SR                                      *
      82                    ;*   Local Frame Size  : 0 Args + 0 Auto + 0 Save = 0 byte                   *
      83                    ;*****************************************************************************
      84 00000000           Port1_Init:
      85                    ;* --------------------------------------------------------------------------*
      86                            .dwcfi  cfa_offset, 0
      87                            .dwpsn  file "../main.c",line 90,column 3,is_stmt,isa 1
      88 00000000 494C              LDR       A2, $C$CON2           ; [DPU_V7M3_PIPE] |90|  ; [ORIG 16-BIT INS]
      89 00000002 2000              MOVS      A1, #0                ; [DPU_V7M3_PIPE] |90|  ; [ORIG 16-BIT INS]
      90 00000004 1E8A              SUBS      A3, A2, #2            ; [DPU_V7M3_PIPE]  ; [ORIG 16-BIT INS]
      91 00000006 7010              STRB      A1, [A3, #0]          ; [DPU_V7M3_PIPE] |90|  ; [ORIG 16-BIT INS]
      92                            .dwpsn  file "../main.c",line 91,column 3,is_stmt,isa 1
      93 00000008 7008              STRB      A1, [A2, #0]          ; [DPU_V7M3_PIPE] |91|  ; [ORIG 16-BIT INS]
      94                            .dwpsn  file "../main.c",line 92,column 3,is_stmt,isa 1
      95 0000000a 2001              MOVS      A1, #1                ; [DPU_V7M3_PIPE] |92|  ; [ORIG 16-BIT INS]
      96 0000000c 0208F1A1          SUB       A3, A2, #8            ; [DPU_V7M3_PIPE]  ; [KEEP 32-BIT INS]
      97 00000010 7010              STRB      A1, [A3, #0]          ; [DPU_V7M3_PIPE] |92|  ; [ORIG 16-BIT INS]
      98                            .dwpsn  file "../main.c",line 93,column 3,is_stmt,isa 1
      99 00000012 2012              MOVS      A1, #18               ; [DPU_V7M3_PIPE] |93|  ; [ORIG 16-BIT INS]
     100 00000014 1F8A              SUBS      A3, A2, #6            ; [DPU_V7M3_PIPE]  ; [ORIG 16-BIT INS]
     101 00000016 7010              STRB      A1, [A3, #0]          ; [DPU_V7M3_PIPE] |93|  ; [ORIG 16-BIT INS]
     102                            .dwpsn  file "../main.c",line 94,column 3,is_stmt,isa 1
     103 00000018 390A              SUBS      A2, A2, #10           ; [DPU_V7M3_PIPE]  ; [ORIG 16-BIT INS]
     104 0000001a 7008              STRB      A1, [A2, #0]          ; [DPU_V7M3_PIPE] |94|  ; [ORIG 16-BIT INS]
     105                            .dwpsn  file "../main.c",line 95,column 1,is_stmt,isa 1
     106                    $C$DW$5 .dwtag  DW_TAG_TI_branch
     107                            .dwattr $C$DW$5, DW_AT_low_pc(0x00)
     108                            .dwattr $C$DW$5, DW_AT_TI_return
     109                    
     110 0000001c 4770              BX        LR                    ; [DPU_V7M3_PIPE]  ; [ORIG 16-BIT INS]
TI ARM Assembler PC v20.2.6 Mon Oct 31 23:16:56 2022

Copyright (c) 1996-2018 Texas Instruments Incorporated
main.asm                                                             PAGE    3

     111                            ; BRANCH OCCURS                  ; [] 
     112                            .dwattr $C$DW$4, DW_AT_TI_end_file("../main.c")
     113                            .dwattr $C$DW$4, DW_AT_TI_end_line(0x5f)
     114                            .dwattr $C$DW$4, DW_AT_TI_end_column(0x01)
     115                            .dwendentry
     116                            .dwendtag $C$DW$4
     117                    
     118 0000001e                   .sect   ".text"
     119                            .clink
     120                            .thumbfunc Port2_Init
     121 0000001e                   .thumb
     122                            .global Port2_Init
     123                    
     124                    $C$DW$6 .dwtag  DW_TAG_subprogram
     125                            .dwattr $C$DW$6, DW_AT_name("Port2_Init")
     126                            .dwattr $C$DW$6, DW_AT_low_pc(Port2_Init)
     127                            .dwattr $C$DW$6, DW_AT_high_pc(0x00)
     128                            .dwattr $C$DW$6, DW_AT_TI_symbol_name("Port2_Init")
     129                            .dwattr $C$DW$6, DW_AT_external
     130                            .dwattr $C$DW$6, DW_AT_TI_begin_file("../main.c")
     131                            .dwattr $C$DW$6, DW_AT_TI_begin_line(0x67)
     132                            .dwattr $C$DW$6, DW_AT_TI_begin_column(0x06)
     133                            .dwattr $C$DW$6, DW_AT_decl_file("../main.c")
     134                            .dwattr $C$DW$6, DW_AT_decl_line(0x67)
     135                            .dwattr $C$DW$6, DW_AT_decl_column(0x06)
     136                            .dwattr $C$DW$6, DW_AT_TI_max_frame_size(0x00)
     137                            .dwpsn  file "../main.c",line 103,column 22,is_stmt,address Port2_Init,isa 1
     138                    
     139                            .dwfde $C$DW$CIE, Port2_Init
     140                    
     141                    ;*****************************************************************************
     142                    ;* FUNCTION NAME: Port2_Init                                                 *
     143                    ;*                                                                           *
     144                    ;*   Regs Modified     : A1,A2,A3,A4,SR                                      *
     145                    ;*   Regs Used         : A1,A2,A3,A4,LR,SR                                   *
     146                    ;*   Local Frame Size  : 0 Args + 0 Auto + 0 Save = 0 byte                   *
     147                    ;*****************************************************************************
     148 0000001e           Port2_Init:
     149                    ;* --------------------------------------------------------------------------*
     150                            .dwcfi  cfa_offset, 0
     151                            .dwpsn  file "../main.c",line 104,column 3,is_stmt,isa 1
     152 0000001e 4845              LDR       A1, $C$CON2           ; [DPU_V7M3_PIPE] |104|  ; [ORIG 16-BIT INS]
     153 00000020 2200              MOVS      A3, #0                ; [DPU_V7M3_PIPE] |104|  ; [ORIG 16-BIT INS]
     154 00000022 1E41              SUBS      A2, A1, #1            ; [DPU_V7M3_PIPE]  ; [ORIG 16-BIT INS]
     155 00000024 700A              STRB      A3, [A2, #0]          ; [DPU_V7M3_PIPE] |104|  ; [ORIG 16-BIT INS]
     156                            .dwpsn  file "../main.c",line 105,column 3,is_stmt,isa 1
     157 00000026 1C41              ADDS      A2, A1, #1            ; [DPU_V7M3_PIPE]  ; [ORIG 16-BIT INS]
     158 00000028 700A              STRB      A3, [A2, #0]          ; [DPU_V7M3_PIPE] |105|  ; [ORIG 16-BIT INS]
     159                            .dwpsn  file "../main.c",line 106,column 3,is_stmt,isa 1
     160 0000002a 2107              MOVS      A2, #7                ; [DPU_V7M3_PIPE] |106|  ; [ORIG 16-BIT INS]
     161 0000002c 1EC3              SUBS      A4, A1, #3            ; [DPU_V7M3_PIPE]  ; [ORIG 16-BIT INS]
     162 0000002e 7019              STRB      A2, [A4, #0]          ; [DPU_V7M3_PIPE] |106|  ; [ORIG 16-BIT INS]
     163                            .dwpsn  file "../main.c",line 107,column 3,is_stmt,isa 1
     164 00000030 1FC3              SUBS      A4, A1, #7            ; [DPU_V7M3_PIPE]  ; [ORIG 16-BIT INS]
     165 00000032 7019              STRB      A2, [A4, #0]          ; [DPU_V7M3_PIPE] |107|  ; [ORIG 16-BIT INS]
TI ARM Assembler PC v20.2.6 Mon Oct 31 23:16:56 2022

Copyright (c) 1996-2018 Texas Instruments Incorporated
main.asm                                                             PAGE    4

     166                            .dwpsn  file "../main.c",line 108,column 3,is_stmt,isa 1
     167 00000034 3809              SUBS      A1, A1, #9            ; [DPU_V7M3_PIPE]  ; [ORIG 16-BIT INS]
     168 00000036 7002              STRB      A3, [A1, #0]          ; [DPU_V7M3_PIPE] |108|  ; [ORIG 16-BIT INS]
     169                            .dwpsn  file "../main.c",line 109,column 1,is_stmt,isa 1
     170                    $C$DW$7 .dwtag  DW_TAG_TI_branch
     171                            .dwattr $C$DW$7, DW_AT_low_pc(0x00)
     172                            .dwattr $C$DW$7, DW_AT_TI_return
     173                    
     174 00000038 4770              BX        LR                    ; [DPU_V7M3_PIPE]  ; [ORIG 16-BIT INS]
     175                            ; BRANCH OCCURS                  ; [] 
     176                            .dwattr $C$DW$6, DW_AT_TI_end_file("../main.c")
     177                            .dwattr $C$DW$6, DW_AT_TI_end_line(0x6d)
     178                            .dwattr $C$DW$6, DW_AT_TI_end_column(0x01)
     179                            .dwendentry
     180                            .dwendtag $C$DW$6
     181                    
     182 0000003a                   .sect   ".text"
     183                            .clink
     184                            .thumbfunc Volatile_KeyWord
     185 0000003a                   .thumb
     186                            .global Volatile_KeyWord
     187                    
     188                    $C$DW$8 .dwtag  DW_TAG_subprogram
     189                            .dwattr $C$DW$8, DW_AT_name("Volatile_KeyWord")
     190                            .dwattr $C$DW$8, DW_AT_low_pc(Volatile_KeyWord)
     191                            .dwattr $C$DW$8, DW_AT_high_pc(0x00)
     192                            .dwattr $C$DW$8, DW_AT_TI_symbol_name("Volatile_KeyWord")
     193                            .dwattr $C$DW$8, DW_AT_external
     194                            .dwattr $C$DW$8, DW_AT_TI_begin_file("../main.c")
     195                            .dwattr $C$DW$8, DW_AT_TI_begin_line(0xe3)
     196                            .dwattr $C$DW$8, DW_AT_TI_begin_column(0x06)
     197                            .dwattr $C$DW$8, DW_AT_decl_file("../main.c")
     198                            .dwattr $C$DW$8, DW_AT_decl_line(0xe3)
     199                            .dwattr $C$DW$8, DW_AT_decl_column(0x06)
     200                            .dwattr $C$DW$8, DW_AT_TI_max_frame_size(0x00)
     201                            .dwpsn  file "../main.c",line 228,column 1,is_stmt,address Volatile_KeyWord,isa 1
     202                    
     203                            .dwfde $C$DW$CIE, Volatile_KeyWord
     204                    
     205                    ;*****************************************************************************
     206                    ;* FUNCTION NAME: Volatile_KeyWord                                           *
     207                    ;*                                                                           *
     208                    ;*   Regs Modified     :                                                     *
     209                    ;*   Regs Used         : LR                                                  *
     210                    ;*   Local Frame Size  : 0 Args + 0 Auto + 0 Save = 0 byte                   *
     211                    ;*****************************************************************************
     212 0000003a           Volatile_KeyWord:
     213                    ;* --------------------------------------------------------------------------*
     214                            .dwcfi  cfa_offset, 0
     215                            .dwpsn  file "../main.c",line 234,column 5,is_stmt,isa 1
     216                            .dwpsn  file "../main.c",line 241,column 1,is_stmt,isa 1
     217                    $C$DW$9 .dwtag  DW_TAG_TI_branch
     218                            .dwattr $C$DW$9, DW_AT_low_pc(0x00)
     219                            .dwattr $C$DW$9, DW_AT_TI_return
     220                    
TI ARM Assembler PC v20.2.6 Mon Oct 31 23:16:56 2022

Copyright (c) 1996-2018 Texas Instruments Incorporated
main.asm                                                             PAGE    5

     221 0000003a 4770              BX        LR                    ; [DPU_V7M3_PIPE]  ; [ORIG 16-BIT INS]
     222                            ; BRANCH OCCURS                  ; [] 
     223                            .dwattr $C$DW$8, DW_AT_TI_end_file("../main.c")
     224                            .dwattr $C$DW$8, DW_AT_TI_end_line(0xf1)
     225                            .dwattr $C$DW$8, DW_AT_TI_end_column(0x01)
     226                            .dwendentry
     227                            .dwendtag $C$DW$8
     228                    
     229 0000003c                   .sect   ".text"
     230                            .clink
     231                            .thumbfunc Bit_Manipulation
     232 0000003c                   .thumb
     233                            .global Bit_Manipulation
     234                    
     235                    $C$DW$10        .dwtag  DW_TAG_subprogram
     236                            .dwattr $C$DW$10, DW_AT_name("Bit_Manipulation")
     237                            .dwattr $C$DW$10, DW_AT_low_pc(Bit_Manipulation)
     238                            .dwattr $C$DW$10, DW_AT_high_pc(0x00)
     239                            .dwattr $C$DW$10, DW_AT_TI_symbol_name("Bit_Manipulation")
     240                            .dwattr $C$DW$10, DW_AT_external
     241                            .dwattr $C$DW$10, DW_AT_TI_begin_file("../main.c")
     242                            .dwattr $C$DW$10, DW_AT_TI_begin_line(0xae)
     243                            .dwattr $C$DW$10, DW_AT_TI_begin_column(0x06)
     244                            .dwattr $C$DW$10, DW_AT_decl_file("../main.c")
     245                            .dwattr $C$DW$10, DW_AT_decl_line(0xae)
     246                            .dwattr $C$DW$10, DW_AT_decl_column(0x06)
     247                            .dwattr $C$DW$10, DW_AT_TI_max_frame_size(0x08)
     248                            .dwpsn  file "../main.c",line 175,column 1,is_stmt,address Bit_Manipulation,isa 1
     249                    
     250                            .dwfde $C$DW$CIE, Bit_Manipulation
     251                    
     252                    ;*****************************************************************************
     253                    ;* FUNCTION NAME: Bit_Manipulation                                           *
     254                    ;*                                                                           *
     255                    ;*   Regs Modified     : A1,A2,A3,A4,V1,V9,SP,LR,SR,D0,D0_hi,D1,D1_hi,D2,    *
     256                    ;*                           D2_hi,D3,D3_hi,D4,D4_hi,D5,D5_hi,D6,D6_hi,D7,   *
     257                    ;*                           D7_hi,FPEXC,FPSCR                               *
     258                    ;*   Regs Used         : A1,A2,A3,A4,V1,V9,SP,LR,SR,D0,D0_hi,D1,D1_hi,D2,    *
     259                    ;*                           D2_hi,D3,D3_hi,D4,D4_hi,D5,D5_hi,D6,D6_hi,D7,   *
     260                    ;*                           D7_hi,FPEXC,FPSCR                               *
     261                    ;*   Local Frame Size  : 0 Args + 0 Auto + 8 Save = 8 byte                   *
     262                    ;*****************************************************************************
     263 0000003c           Bit_Manipulation:
     264                    ;* --------------------------------------------------------------------------*
     265                            .dwcfi  cfa_offset, 0
     266 0000003c B510              PUSH      {V1, LR}              ; [DPU_V7M3_PIPE]  ; [ORIG 16-BIT INS]
     267                            .dwcfi  cfa_offset, 8
     268                            .dwcfi  save_reg_to_mem, 14, -4
     269                            .dwcfi  save_reg_to_mem, 4, -8
     270                            .dwpsn  file "../main.c",line 184,column 5,is_stmt,isa 1
     271 0000003e 4C3F              LDR       V1, $C$CON10          ; [DPU_V7M3_PIPE] |184|  ; [ORIG 16-BIT INS]
     272 00000040 7820              LDRB      A1, [V1, #0]          ; [DPU_V7M3_PIPE] |184|  ; [ORIG 16-BIT INS]
     273 00000042 0001F040          ORR       A1, A1, #1            ; [DPU_V7M3_PIPE] |184|  ; [KEEP 32-BIT INS]
     274 00000046 7020              STRB      A1, [V1, #0]          ; [DPU_V7M3_PIPE] |184|  ; [ORIG 16-BIT INS]
     275                            .dwpsn  file "../main.c",line 185,column 5,is_stmt,isa 1
TI ARM Assembler PC v20.2.6 Mon Oct 31 23:16:56 2022

Copyright (c) 1996-2018 Texas Instruments Incorporated
main.asm                                                             PAGE    6

     276 00000048 7820              LDRB      A1, [V1, #0]          ; [DPU_V7M3_PIPE] |185|  ; [ORIG 16-BIT INS]
     277 0000004a 0002F040          ORR       A1, A1, #2            ; [DPU_V7M3_PIPE] |185|  ; [KEEP 32-BIT INS]
     278 0000004e 7020              STRB      A1, [V1, #0]          ; [DPU_V7M3_PIPE] |185|  ; [ORIG 16-BIT INS]
     279                            .dwpsn  file "../main.c",line 186,column 5,is_stmt,isa 1
     280 00000050 7820              LDRB      A1, [V1, #0]          ; [DPU_V7M3_PIPE] |186|  ; [ORIG 16-BIT INS]
     281 00000052 0004F040          ORR       A1, A1, #4            ; [DPU_V7M3_PIPE] |186|  ; [KEEP 32-BIT INS]
     282 00000056 7020              STRB      A1, [V1, #0]          ; [DPU_V7M3_PIPE] |186|  ; [ORIG 16-BIT INS]
     283                            .dwpsn  file "../main.c",line 195,column 5,is_stmt,isa 1
     284 00000058 7820              LDRB      A1, [V1, #0]          ; [DPU_V7M3_PIPE] |195|  ; [ORIG 16-BIT INS]
     285 0000005a 00FDF000          AND       A1, A1, #253          ; [DPU_V7M3_PIPE] |195|  ; [KEEP 32-BIT INS]
     286 0000005e 7020              STRB      A1, [V1, #0]          ; [DPU_V7M3_PIPE] |195|  ; [ORIG 16-BIT INS]
     287                            .dwpsn  file "../main.c",line 196,column 5,is_stmt,isa 1
     288 00000060 707AF44F          MOV       A1, #1000             ; [DPU_V7M3_PIPE] |196|  ; [KEEP 32-BIT INS]
     289                    $C$DW$11        .dwtag  DW_TAG_TI_branch
     290                            .dwattr $C$DW$11, DW_AT_low_pc(0x00)
     291                            .dwattr $C$DW$11, DW_AT_name("Clock_Delay1ms")
     292                            .dwattr $C$DW$11, DW_AT_TI_call
     293                    
     294 00000064 FFFEF7FF!         BL        Clock_Delay1ms        ; [DPU_V7M3_PIPE] |196|  ; [KEEP 32-BIT INS]
     295                            ; CALL OCCURS {Clock_Delay1ms }  ; [] |196| 
     296                            .dwpsn  file "../main.c",line 197,column 5,is_stmt,isa 1
     297 00000068 7820              LDRB      A1, [V1, #0]          ; [DPU_V7M3_PIPE] |197|  ; [ORIG 16-BIT INS]
     298 0000006a 00F8F000          AND       A1, A1, #248          ; [DPU_V7M3_PIPE] |197|  ; [KEEP 32-BIT INS]
     299 0000006e 7020              STRB      A1, [V1, #0]          ; [DPU_V7M3_PIPE] |197|  ; [ORIG 16-BIT INS]
     300                            .dwpsn  file "../main.c",line 200,column 1,is_stmt,isa 1
     301                    $C$DW$12        .dwtag  DW_TAG_TI_branch
     302                            .dwattr $C$DW$12, DW_AT_low_pc(0x00)
     303                            .dwattr $C$DW$12, DW_AT_TI_return
     304                    
     305 00000070 BD10              POP       {V1, PC}              ; [DPU_V7M3_PIPE]  ; [ORIG 16-BIT INS]
     306                            .dwcfi  cfa_offset, 0
     307                            .dwcfi  restore_reg, 4
     308                            ; BRANCH OCCURS                  ; [] 
     309                            .dwattr $C$DW$10, DW_AT_TI_end_file("../main.c")
     310                            .dwattr $C$DW$10, DW_AT_TI_end_line(0xc8)
     311                            .dwattr $C$DW$10, DW_AT_TI_end_column(0x01)
     312                            .dwendentry
     313                            .dwendtag $C$DW$10
     314                    
     315 00000072                   .sect   ".text"
     316                            .clink
     317                            .thumbfunc Bit_ShiftExtract
     318 00000072                   .thumb
     319                            .global Bit_ShiftExtract
     320                    
     321                    $C$DW$13        .dwtag  DW_TAG_subprogram
     322                            .dwattr $C$DW$13, DW_AT_name("Bit_ShiftExtract")
     323                            .dwattr $C$DW$13, DW_AT_low_pc(Bit_ShiftExtract)
     324                            .dwattr $C$DW$13, DW_AT_high_pc(0x00)
     325                            .dwattr $C$DW$13, DW_AT_TI_symbol_name("Bit_ShiftExtract")
     326                            .dwattr $C$DW$13, DW_AT_external
     327                            .dwattr $C$DW$13, DW_AT_TI_begin_file("../main.c")
     328                            .dwattr $C$DW$13, DW_AT_TI_begin_line(0xce)
     329                            .dwattr $C$DW$13, DW_AT_TI_begin_column(0x06)
     330                            .dwattr $C$DW$13, DW_AT_decl_file("../main.c")
TI ARM Assembler PC v20.2.6 Mon Oct 31 23:16:56 2022

Copyright (c) 1996-2018 Texas Instruments Incorporated
main.asm                                                             PAGE    7

     331                            .dwattr $C$DW$13, DW_AT_decl_line(0xce)
     332                            .dwattr $C$DW$13, DW_AT_decl_column(0x06)
     333                            .dwattr $C$DW$13, DW_AT_TI_max_frame_size(0x30)
     334                            .dwpsn  file "../main.c",line 207,column 1,is_stmt,address Bit_ShiftExtract,isa 1
     335                    
     336                            .dwfde $C$DW$CIE, Bit_ShiftExtract
     337                    
     338                    ;*****************************************************************************
     339                    ;* FUNCTION NAME: Bit_ShiftExtract                                           *
     340                    ;*                                                                           *
     341                    ;*   Regs Modified     : A1,A2,A3,A4,V1,SP,SR                                *
     342                    ;*   Regs Used         : A1,A2,A3,A4,V1,SP,LR,SR                             *
     343                    ;*   Local Frame Size  : 0 Args + 36 Auto + 8 Save = 44 byte                 *
     344                    ;*****************************************************************************
     345 00000072           Bit_ShiftExtract:
     346                    ;* --------------------------------------------------------------------------*
     347                            .dwcfi  cfa_offset, 0
     348 00000072 B510              PUSH      {V1, LR}              ; [DPU_V7M3_PIPE]  ; [ORIG 16-BIT INS]
     349                            .dwcfi  cfa_offset, 8
     350                            .dwcfi  save_reg_to_mem, 14, -4
     351                            .dwcfi  save_reg_to_mem, 4, -8
     352 00000074 0D28F1AD          SUB       SP, SP, #40           ; [DPU_V7M3_PIPE]  ; [KEEP 32-BIT INS]
     353                            .dwcfi  cfa_offset, 48
     354                    $C$DW$14        .dwtag  DW_TAG_variable
     355                            .dwattr $C$DW$14, DW_AT_name("test")
     356                            .dwattr $C$DW$14, DW_AT_TI_symbol_name("test")
     357                            .dwattr $C$DW$14, DW_AT_type(*$C$DW$T$262)
     358                            .dwattr $C$DW$14, DW_AT_location[DW_OP_breg13 0]
     359                    
     360                    $C$DW$15        .dwtag  DW_TAG_variable
     361                            .dwattr $C$DW$15, DW_AT_name("i")
     362                            .dwattr $C$DW$15, DW_AT_TI_symbol_name("i")
     363                            .dwattr $C$DW$15, DW_AT_type(*$C$DW$T$261)
     364                            .dwattr $C$DW$15, DW_AT_location[DW_OP_breg13 24]
     365                    
     366                    $C$DW$16        .dwtag  DW_TAG_variable
     367                            .dwattr $C$DW$16, DW_AT_name("testbit")
     368                            .dwattr $C$DW$16, DW_AT_TI_symbol_name("testbit")
     369                            .dwattr $C$DW$16, DW_AT_type(*$C$DW$T$261)
     370                            .dwattr $C$DW$16, DW_AT_location[DW_OP_breg13 28]
     371                    
     372                    $C$DW$17        .dwtag  DW_TAG_variable
     373                            .dwattr $C$DW$17, DW_AT_name("count")
     374                            .dwattr $C$DW$17, DW_AT_TI_symbol_name("count")
     375                            .dwattr $C$DW$17, DW_AT_type(*$C$DW$T$261)
     376                            .dwattr $C$DW$17, DW_AT_location[DW_OP_breg13 32]
     377                    
     378                            .dwpsn  file "../main.c",line 208,column 18,is_stmt,isa 1
     379 00000078 4831              LDR       A1, $C$CON11          ; [DPU_V7M3_PIPE] |208|  ; [ORIG 16-BIT INS]
     380 0000007a C81C              LDMIA     A1!, {V1, A4, A3}     ; [DPU_V7M3_PIPE] |208|  ; [ORIG 16-BIT INS]
     381 0000007c 4669              MOV       A2, SP                ; [DPU_V7M3_PIPE] |208|  ; [ORIG 16-BIT INS]
     382 0000007e C11C              STMIA     A2!, {V1, A4, A3}     ; [DPU_V7M3_PIPE] |208|  ; [ORIG 16-BIT INS]
     383 00000080 C80D              LDMIA     A1, {A4, A3, A1}      ; [DPU_V7M3_PIPE] |208|  ; [ORIG 16-BIT INS]
     384 00000082 000DE881          STMIA     A2, {A4, A3, A1}      ; [DPU_V7M3_PIPE] |208|  ; [KEEP 32-BIT INS]
     385                            .dwpsn  file "../main.c",line 209,column 35,is_stmt,isa 1
TI ARM Assembler PC v20.2.6 Mon Oct 31 23:16:56 2022

Copyright (c) 1996-2018 Texas Instruments Incorporated
main.asm                                                             PAGE    8

     386 00000086 2000              MOVS      A1, #0                ; [DPU_V7M3_PIPE] |209|  ; [ORIG 16-BIT INS]
     387 00000088 9008              STR       A1, [SP, #32]         ; [DPU_V7M3_PIPE] |209|  ; [ORIG 16-BIT INS]
     388                            .dwpsn  file "../main.c",line 217,column 10,is_stmt,isa 1
     389 0000008a 9006              STR       A1, [SP, #24]         ; [DPU_V7M3_PIPE] |217|  ; [ORIG 16-BIT INS]
     390                            .dwpsn  file "../main.c",line 217,column 14,is_stmt,isa 1
     391 0000008c 9806              LDR       A1, [SP, #24]         ; [DPU_V7M3_PIPE] |217|  ; [ORIG 16-BIT INS]
     392 0000008e 2806              CMP       A1, #6                ; [DPU_V7M3_PIPE] |217|  ; [ORIG 16-BIT INS]
     393 00000090 DA10              BGE       ||$C$L3||             ; [DPU_V7M3_PIPE] |217|  ; [ORIG 16-BIT INS]
     394                            ; BRANCHCC OCCURS {||$C$L3||}    ; [] |217| 
     395                    ;* --------------------------------------------------------------------------*
     396                    ;*   BEGIN LOOP ||$C$L1||
     397                    ;*
     398                    ;*   Loop source line                : 217
     399                    ;*   Loop closing brace source line  : 220
     400                    ;*   Known Minimum Trip Count        : 1
     401                    ;*   Known Maximum Trip Count        : 4294967295
     402                    ;*   Known Max Trip Count Factor     : 1
     403                    ;* --------------------------------------------------------------------------*
     404 00000092           ||$C$L1||:    
     405                            .dwpsn  file "../main.c",line 218,column 9,is_stmt,isa 1
     406 00000092 9806              LDR       A1, [SP, #24]         ; [DPU_V7M3_PIPE] |218|  ; [ORIG 16-BIT INS]
     407 00000094 0020F85D          LDR       A1, [SP, +A1, LSL #2] ; [DPU_V7M3_PIPE] |218|  ; [KEEP 32-BIT INS]
     408 00000098 0080F3C0          UBFX      A1, A1, #2, #1        ; [DPU_V7M3_PIPE] |218|  ; [KEEP 32-BIT INS]
     409 0000009c 9007              STR       A1, [SP, #28]         ; [DPU_V7M3_PIPE] |218|  ; [ORIG 16-BIT INS]
     410                            .dwpsn  file "../main.c",line 219,column 9,is_stmt,isa 1
     411 0000009e 9807              LDR       A1, [SP, #28]         ; [DPU_V7M3_PIPE] |219|  ; [ORIG 16-BIT INS]
     412 000000a0 B110              CBZ       A1, ||$C$L2||         ; []  ; [ORIG 16-BIT INS]
     413                            ; BRANCHCC OCCURS {||$C$L2||}    ; [] |219| 
     414                    ;* --------------------------------------------------------------------------*
     415                            .dwpsn  file "../main.c",line 219,column 20,is_stmt,isa 1
     416 000000a2 9808              LDR       A1, [SP, #32]         ; [DPU_V7M3_PIPE] |219|  ; [ORIG 16-BIT INS]
     417 000000a4 1C40              ADDS      A1, A1, #1            ; [DPU_V7M3_PIPE] |219|  ; [ORIG 16-BIT INS]
     418 000000a6 9008              STR       A1, [SP, #32]         ; [DPU_V7M3_PIPE] |219|  ; [ORIG 16-BIT INS]
     419                    ;* --------------------------------------------------------------------------*
     420 000000a8           ||$C$L2||:    
     421                            .dwpsn  file "../main.c",line 217,column 18,is_stmt,isa 1
     422 000000a8 9806              LDR       A1, [SP, #24]         ; [DPU_V7M3_PIPE] |217|  ; [ORIG 16-BIT INS]
     423 000000aa 1C40              ADDS      A1, A1, #1            ; [DPU_V7M3_PIPE] |217|  ; [ORIG 16-BIT INS]
     424 000000ac 9006              STR       A1, [SP, #24]         ; [DPU_V7M3_PIPE] |217|  ; [ORIG 16-BIT INS]
     425                            .dwpsn  file "../main.c",line 217,column 14,is_stmt,isa 1
     426 000000ae 9806              LDR       A1, [SP, #24]         ; [DPU_V7M3_PIPE] |217|  ; [ORIG 16-BIT INS]
     427 000000b0 2806              CMP       A1, #6                ; [DPU_V7M3_PIPE] |217|  ; [ORIG 16-BIT INS]
     428 000000b2 DBEE              BLT       ||$C$L1||             ; [DPU_V7M3_PIPE] |217|  ; [ORIG 16-BIT INS]
     429                            ; BRANCHCC OCCURS {||$C$L1||}    ; [] |217| 
     430                    ;* --------------------------------------------------------------------------*
     431 000000b4           ||$C$L3||:    
     432                            .dwpsn  file "../main.c",line 221,column 1,is_stmt,isa 1
     433 000000b4 B00A              ADD       SP, SP, #40           ; [DPU_V7M3_PIPE]  ; [ORIG 16-BIT INS]
     434                            .dwcfi  cfa_offset, 8
     435                    $C$DW$18        .dwtag  DW_TAG_TI_branch
     436                            .dwattr $C$DW$18, DW_AT_low_pc(0x00)
     437                            .dwattr $C$DW$18, DW_AT_TI_return
     438                    
     439 000000b6 BD10              POP       {V1, PC}              ; [DPU_V7M3_PIPE]  ; [ORIG 16-BIT INS]
     440                            .dwcfi  cfa_offset, 0
TI ARM Assembler PC v20.2.6 Mon Oct 31 23:16:56 2022

Copyright (c) 1996-2018 Texas Instruments Incorporated
main.asm                                                             PAGE    9

     441                            .dwcfi  restore_reg, 4
     442                            ; BRANCH OCCURS                  ; [] 
     443                            .dwattr $C$DW$13, DW_AT_TI_end_file("../main.c")
     444                            .dwattr $C$DW$13, DW_AT_TI_end_line(0xdd)
     445                            .dwattr $C$DW$13, DW_AT_TI_end_column(0x01)
     446                            .dwendentry
     447                            .dwendtag $C$DW$13
     448                    
     449 000000b8                   .sect   ".text"
     450                            .clink
     451                            .thumbfunc Port1_Input
     452 000000b8                   .thumb
     453                            .global Port1_Input
     454                    
     455                    $C$DW$19        .dwtag  DW_TAG_subprogram
     456                            .dwattr $C$DW$19, DW_AT_name("Port1_Input")
     457                            .dwattr $C$DW$19, DW_AT_low_pc(Port1_Input)
     458                            .dwattr $C$DW$19, DW_AT_high_pc(0x00)
     459                            .dwattr $C$DW$19, DW_AT_TI_symbol_name("Port1_Input")
     460                            .dwattr $C$DW$19, DW_AT_external
     461                            .dwattr $C$DW$19, DW_AT_type(*$C$DW$T$22)
     462                            .dwattr $C$DW$19, DW_AT_TI_begin_file("../main.c")
     463                            .dwattr $C$DW$19, DW_AT_TI_begin_line(0x62)
     464                            .dwattr $C$DW$19, DW_AT_TI_begin_column(0x09)
     465                            .dwattr $C$DW$19, DW_AT_decl_file("../main.c")
     466                            .dwattr $C$DW$19, DW_AT_decl_line(0x62)
     467                            .dwattr $C$DW$19, DW_AT_decl_column(0x09)
     468                            .dwattr $C$DW$19, DW_AT_TI_max_frame_size(0x00)
     469                            .dwpsn  file "../main.c",line 98,column 26,is_stmt,address Port1_Input,isa 1
     470                    
     471                            .dwfde $C$DW$CIE, Port1_Input
     472                    
     473                    ;*****************************************************************************
     474                    ;* FUNCTION NAME: Port1_Input                                                *
     475                    ;*                                                                           *
     476                    ;*   Regs Modified     : A1,SR                                               *
     477                    ;*   Regs Used         : A1,LR,SR                                            *
     478                    ;*   Local Frame Size  : 0 Args + 0 Auto + 0 Save = 0 byte                   *
     479                    ;*****************************************************************************
     480 000000b8           Port1_Input:
     481                    ;* --------------------------------------------------------------------------*
     482                            .dwcfi  cfa_offset, 0
     483                            .dwpsn  file "../main.c",line 99,column 3,is_stmt,isa 1
     484 000000b8 481E              LDR       A1, $C$CON2           ; [DPU_V7M3_PIPE] |99|  ; [ORIG 16-BIT INS]
     485 000000ba 380C              SUBS      A1, A1, #12           ; [DPU_V7M3_PIPE]  ; [ORIG 16-BIT INS]
     486 000000bc 7800              LDRB      A1, [A1, #0]          ; [DPU_V7M3_PIPE] |99|  ; [ORIG 16-BIT INS]
     487 000000be 0012F000          AND       A1, A1, #18           ; [DPU_V7M3_PIPE] |99|  ; [KEEP 32-BIT INS]
     488                            .dwpsn  file "../main.c",line 100,column 1,is_stmt,isa 1
     489                    $C$DW$20        .dwtag  DW_TAG_TI_branch
     490                            .dwattr $C$DW$20, DW_AT_low_pc(0x00)
     491                            .dwattr $C$DW$20, DW_AT_TI_return
     492                    
     493 000000c2 4770              BX        LR                    ; [DPU_V7M3_PIPE]  ; [ORIG 16-BIT INS]
     494                            ; BRANCH OCCURS                  ; [] 
     495                            .dwattr $C$DW$19, DW_AT_TI_end_file("../main.c")
TI ARM Assembler PC v20.2.6 Mon Oct 31 23:16:56 2022

Copyright (c) 1996-2018 Texas Instruments Incorporated
main.asm                                                             PAGE   10

     496                            .dwattr $C$DW$19, DW_AT_TI_end_line(0x64)
     497                            .dwattr $C$DW$19, DW_AT_TI_end_column(0x01)
     498                            .dwendentry
     499                            .dwendtag $C$DW$19
     500                    
     501 000000c4                   .sect   ".text"
     502                            .clink
     503                            .thumbfunc Port2_Output
     504 000000c4                   .thumb
     505                            .global Port2_Output
     506                    
     507                    $C$DW$21        .dwtag  DW_TAG_subprogram
     508                            .dwattr $C$DW$21, DW_AT_name("Port2_Output")
     509                            .dwattr $C$DW$21, DW_AT_low_pc(Port2_Output)
     510                            .dwattr $C$DW$21, DW_AT_high_pc(0x00)
     511                            .dwattr $C$DW$21, DW_AT_TI_symbol_name("Port2_Output")
     512                            .dwattr $C$DW$21, DW_AT_external
     513                            .dwattr $C$DW$21, DW_AT_TI_begin_file("../main.c")
     514                            .dwattr $C$DW$21, DW_AT_TI_begin_line(0x75)
     515                            .dwattr $C$DW$21, DW_AT_TI_begin_column(0x06)
     516                            .dwattr $C$DW$21, DW_AT_decl_file("../main.c")
     517                            .dwattr $C$DW$21, DW_AT_decl_line(0x75)
     518                            .dwattr $C$DW$21, DW_AT_decl_column(0x06)
     519                            .dwattr $C$DW$21, DW_AT_TI_max_frame_size(0x00)
     520                            .dwpsn  file "../main.c",line 117,column 32,is_stmt,address Port2_Output,isa 1
     521                    
     522                            .dwfde $C$DW$CIE, Port2_Output
     523                    $C$DW$22        .dwtag  DW_TAG_formal_parameter
     524                            .dwattr $C$DW$22, DW_AT_name("data")
     525                            .dwattr $C$DW$22, DW_AT_TI_symbol_name("data")
     526                            .dwattr $C$DW$22, DW_AT_type(*$C$DW$T$10)
     527                            .dwattr $C$DW$22, DW_AT_location[DW_OP_reg0]
     528                    
     529                    
     530                    ;*****************************************************************************
     531                    ;* FUNCTION NAME: Port2_Output                                               *
     532                    ;*                                                                           *
     533                    ;*   Regs Modified     : A2                                                  *
     534                    ;*   Regs Used         : A1,A2,LR                                            *
     535                    ;*   Local Frame Size  : 0 Args + 0 Auto + 0 Save = 0 byte                   *
     536                    ;*****************************************************************************
     537 000000c4           Port2_Output:
     538                    ;* --------------------------------------------------------------------------*
     539                            .dwcfi  cfa_offset, 0
     540                    ;* A1    assigned to data
     541                    $C$DW$23        .dwtag  DW_TAG_variable
     542                            .dwattr $C$DW$23, DW_AT_name("data")
     543                            .dwattr $C$DW$23, DW_AT_TI_symbol_name("data")
     544                            .dwattr $C$DW$23, DW_AT_type(*$C$DW$T$22)
     545                            .dwattr $C$DW$23, DW_AT_location[DW_OP_reg0]
     546                    
     547                            .dwpsn  file "../main.c",line 118,column 3,is_stmt,isa 1
     548 000000c4 491D              LDR       A2, $C$CON10          ; [DPU_V7M3_PIPE] |118|  ; [ORIG 16-BIT INS]
     549 000000c6 7008              STRB      A1, [A2, #0]          ; [DPU_V7M3_PIPE] |118|  ; [ORIG 16-BIT INS]
     550                            .dwpsn  file "../main.c",line 119,column 1,is_stmt,isa 1
TI ARM Assembler PC v20.2.6 Mon Oct 31 23:16:56 2022

Copyright (c) 1996-2018 Texas Instruments Incorporated
main.asm                                                             PAGE   11

     551                    $C$DW$24        .dwtag  DW_TAG_TI_branch
     552                            .dwattr $C$DW$24, DW_AT_low_pc(0x00)
     553                            .dwattr $C$DW$24, DW_AT_TI_return
     554                    
     555 000000c8 4770              BX        LR                    ; [DPU_V7M3_PIPE]  ; [ORIG 16-BIT INS]
     556                            ; BRANCH OCCURS                  ; [] 
     557                            .dwattr $C$DW$21, DW_AT_TI_end_file("../main.c")
     558                            .dwattr $C$DW$21, DW_AT_TI_end_line(0x77)
     559                            .dwattr $C$DW$21, DW_AT_TI_end_column(0x01)
     560                            .dwendentry
     561                            .dwendtag $C$DW$21
     562                    
     563 000000ca                   .sect   ".text"
     564                            .clink
     565                            .thumbfunc Port1_Output
     566 000000ca                   .thumb
     567                            .global Port1_Output
     568                    
     569                    $C$DW$25        .dwtag  DW_TAG_subprogram
     570                            .dwattr $C$DW$25, DW_AT_name("Port1_Output")
     571                            .dwattr $C$DW$25, DW_AT_low_pc(Port1_Output)
     572                            .dwattr $C$DW$25, DW_AT_high_pc(0x00)
     573                            .dwattr $C$DW$25, DW_AT_TI_symbol_name("Port1_Output")
     574                            .dwattr $C$DW$25, DW_AT_external
     575                            .dwattr $C$DW$25, DW_AT_TI_begin_file("../main.c")
     576                            .dwattr $C$DW$25, DW_AT_TI_begin_line(0x70)
     577                            .dwattr $C$DW$25, DW_AT_TI_begin_column(0x06)
     578                            .dwattr $C$DW$25, DW_AT_decl_file("../main.c")
     579                            .dwattr $C$DW$25, DW_AT_decl_line(0x70)
     580                            .dwattr $C$DW$25, DW_AT_decl_column(0x06)
     581                            .dwattr $C$DW$25, DW_AT_TI_max_frame_size(0x00)
     582                            .dwpsn  file "../main.c",line 112,column 32,is_stmt,address Port1_Output,isa 1
     583                    
     584                            .dwfde $C$DW$CIE, Port1_Output
     585                    $C$DW$26        .dwtag  DW_TAG_formal_parameter
     586                            .dwattr $C$DW$26, DW_AT_name("data")
     587                            .dwattr $C$DW$26, DW_AT_TI_symbol_name("data")
     588                            .dwattr $C$DW$26, DW_AT_type(*$C$DW$T$10)
     589                            .dwattr $C$DW$26, DW_AT_location[DW_OP_reg0]
     590                    
     591                    
     592                    ;*****************************************************************************
     593                    ;* FUNCTION NAME: Port1_Output                                               *
     594                    ;*                                                                           *
     595                    ;*   Regs Modified     : A1,A2,A3,SR                                         *
     596                    ;*   Regs Used         : A1,A2,A3,LR,SR                                      *
     597                    ;*   Local Frame Size  : 0 Args + 0 Auto + 0 Save = 0 byte                   *
     598                    ;*****************************************************************************
     599 000000ca           Port1_Output:
     600                    ;* --------------------------------------------------------------------------*
     601                            .dwcfi  cfa_offset, 0
     602                    ;* A1    assigned to data
     603                    $C$DW$27        .dwtag  DW_TAG_variable
     604                            .dwattr $C$DW$27, DW_AT_name("data")
     605                            .dwattr $C$DW$27, DW_AT_TI_symbol_name("data")
TI ARM Assembler PC v20.2.6 Mon Oct 31 23:16:56 2022

Copyright (c) 1996-2018 Texas Instruments Incorporated
main.asm                                                             PAGE   12

     606                            .dwattr $C$DW$27, DW_AT_type(*$C$DW$T$22)
     607                            .dwattr $C$DW$27, DW_AT_location[DW_OP_reg0]
     608                    
     609                            .dwpsn  file "../main.c",line 113,column 3,is_stmt,isa 1
     610 000000ca 4A1B              LDR       A3, $C$CON5           ; [DPU_V7M3_PIPE] |113|  ; [ORIG 16-BIT INS]
     611 000000cc 7811              LDRB      A2, [A3, #0]          ; [DPU_V7M3_PIPE] |113|  ; [ORIG 16-BIT INS]
     612 000000ce 01FEF001          AND       A2, A2, #254          ; [DPU_V7M3_PIPE] |113|  ; [KEEP 32-BIT INS]
     613 000000d2 4308              ORRS      A1, A1, A2            ; [DPU_V7M3_PIPE] |113|  ; [ORIG 16-BIT INS]
     614 000000d4 7010              STRB      A1, [A3, #0]          ; [DPU_V7M3_PIPE] |113|  ; [ORIG 16-BIT INS]
     615                            .dwpsn  file "../main.c",line 114,column 1,is_stmt,isa 1
     616                    $C$DW$28        .dwtag  DW_TAG_TI_branch
     617                            .dwattr $C$DW$28, DW_AT_low_pc(0x00)
     618                            .dwattr $C$DW$28, DW_AT_TI_return
     619                    
     620 000000d6 4770              BX        LR                    ; [DPU_V7M3_PIPE]  ; [ORIG 16-BIT INS]
     621                            ; BRANCH OCCURS                  ; [] 
     622                            .dwattr $C$DW$25, DW_AT_TI_end_file("../main.c")
     623                            .dwattr $C$DW$25, DW_AT_TI_end_line(0x72)
     624                            .dwattr $C$DW$25, DW_AT_TI_end_column(0x01)
     625                            .dwendentry
     626                            .dwendtag $C$DW$25
     627                    
     628 000000d8                   .sect   ".text"
     629                            .clink
     630                            .thumbfunc main
     631 000000d8                   .thumb
     632                            .global main
     633                    
     634                    $C$DW$29        .dwtag  DW_TAG_subprogram
     635                            .dwattr $C$DW$29, DW_AT_name("main")
     636                            .dwattr $C$DW$29, DW_AT_low_pc(main)
     637                            .dwattr $C$DW$29, DW_AT_high_pc(0x00)
     638                            .dwattr $C$DW$29, DW_AT_TI_symbol_name("main")
     639                            .dwattr $C$DW$29, DW_AT_external
     640                            .dwattr $C$DW$29, DW_AT_type(*$C$DW$T$10)
     641                            .dwattr $C$DW$29, DW_AT_TI_begin_file("../main.c")
     642                            .dwattr $C$DW$29, DW_AT_TI_begin_line(0x79)
     643                            .dwattr $C$DW$29, DW_AT_TI_begin_column(0x05)
     644                            .dwattr $C$DW$29, DW_AT_decl_file("../main.c")
     645                            .dwattr $C$DW$29, DW_AT_decl_line(0x79)
     646                            .dwattr $C$DW$29, DW_AT_decl_column(0x05)
     647                            .dwattr $C$DW$29, DW_AT_TI_max_frame_size(0x08)
     648                            .dwpsn  file "../main.c",line 121,column 15,is_stmt,address main,isa 1
     649                    
     650                            .dwfde $C$DW$CIE, main
     651                    
     652                    ;*****************************************************************************
     653                    ;* FUNCTION NAME: main                                                       *
     654                    ;*                                                                           *
     655                    ;*   Regs Modified     : A1,A2,A3,A4,V9,SP,LR,SR,D0,D0_hi,D1,D1_hi,D2,D2_hi, *
     656                    ;*                           D3,D3_hi,D4,D4_hi,D5,D5_hi,D6,D6_hi,D7,D7_hi,   *
     657                    ;*                           FPEXC,FPSCR                                     *
     658                    ;*   Regs Used         : A1,A2,A3,A4,V9,SP,LR,SR,D0,D0_hi,D1,D1_hi,D2,D2_hi, *
     659                    ;*                           D3,D3_hi,D4,D4_hi,D5,D5_hi,D6,D6_hi,D7,D7_hi,   *
     660                    ;*                           FPEXC,FPSCR                                     *
TI ARM Assembler PC v20.2.6 Mon Oct 31 23:16:56 2022

Copyright (c) 1996-2018 Texas Instruments Incorporated
main.asm                                                             PAGE   13

     661                    ;*   Local Frame Size  : 0 Args + 0 Auto + 4 Save = 4 byte                   *
     662                    ;*****************************************************************************
     663 000000d8           main:
     664                    ;* --------------------------------------------------------------------------*
     665                            .dwcfi  cfa_offset, 0
     666 000000d8 B508              PUSH      {A4, LR}              ; [DPU_V7M3_PIPE]  ; [ORIG 16-BIT INS]
     667                            .dwcfi  cfa_offset, 8
     668                            .dwcfi  save_reg_to_mem, 14, -4
     669                            .dwcfi  save_reg_to_mem, 3, -8
     670                            .dwpsn  file "../main.c",line 124,column 3,is_stmt,isa 1
     671                    $C$DW$30        .dwtag  DW_TAG_TI_branch
     672                            .dwattr $C$DW$30, DW_AT_low_pc(0x00)
     673                            .dwattr $C$DW$30, DW_AT_name("Port1_Init")
     674                            .dwattr $C$DW$30, DW_AT_TI_call
     675                    
     676 000000da FFFEF7FF!         BL        Port1_Init            ; [DPU_V7M3_PIPE] |124|  ; [KEEP 32-BIT INS]
     677                            ; CALL OCCURS {Port1_Init }      ; [] |124| 
     678                            .dwpsn  file "../main.c",line 126,column 3,is_stmt,isa 1
     679                    $C$DW$31        .dwtag  DW_TAG_TI_branch
     680                            .dwattr $C$DW$31, DW_AT_low_pc(0x00)
     681                            .dwattr $C$DW$31, DW_AT_name("Port2_Init")
     682                            .dwattr $C$DW$31, DW_AT_TI_call
     683                    
     684 000000de FFFEF7FF!         BL        Port2_Init            ; [DPU_V7M3_PIPE] |126|  ; [KEEP 32-BIT INS]
     685                            ; CALL OCCURS {Port2_Init }      ; [] |126| 
     686                            .dwpsn  file "../main.c",line 128,column 3,is_stmt,isa 1
     687                    $C$DW$32        .dwtag  DW_TAG_TI_branch
     688                            .dwattr $C$DW$32, DW_AT_low_pc(0x00)
     689                            .dwattr $C$DW$32, DW_AT_name("Bit_Manipulation")
     690                            .dwattr $C$DW$32, DW_AT_TI_call
     691                    
     692 000000e2 FFFEF7FF!         BL        Bit_Manipulation      ; [DPU_V7M3_PIPE] |128|  ; [KEEP 32-BIT INS]
     693                            ; CALL OCCURS {Bit_Manipulation }  ; [] |128| 
     694                            .dwpsn  file "../main.c",line 129,column 3,is_stmt,isa 1
     695                    $C$DW$33        .dwtag  DW_TAG_TI_branch
     696                            .dwattr $C$DW$33, DW_AT_low_pc(0x00)
     697                            .dwattr $C$DW$33, DW_AT_name("Bit_ShiftExtract")
     698                            .dwattr $C$DW$33, DW_AT_TI_call
     699                    
     700 000000e6 FFFEF7FF!         BL        Bit_ShiftExtract      ; [DPU_V7M3_PIPE] |129|  ; [KEEP 32-BIT INS]
     701                            ; CALL OCCURS {Bit_ShiftExtract }  ; [] |129| 
     702 000000ea E011              B         ||$C$L7||             ; [DPU_V7M3_PIPE]  ; [ORIG 16-BIT INS]
     703                            ; BRANCH OCCURS {||$C$L7||}      ; [] 
     704                    ;* --------------------------------------------------------------------------*
     705 000000ec           ||$C$L4||:    
     706                            .dwpsn  file "../main.c",line 160,column 9,is_stmt,isa 1
     707 000000ec 2000              MOVS      A1, #0                ; [DPU_V7M3_PIPE] |160|  ; [ORIG 16-BIT INS]
     708                    $C$DW$34        .dwtag  DW_TAG_TI_branch
     709                            .dwattr $C$DW$34, DW_AT_low_pc(0x00)
     710                            .dwattr $C$DW$34, DW_AT_name("Port2_Output")
     711                            .dwattr $C$DW$34, DW_AT_TI_call
     712                    
     713 000000ee FFFEF7FF!         BL        Port2_Output          ; [DPU_V7M3_PIPE] |160|  ; [KEEP 32-BIT INS]
     714                            ; CALL OCCURS {Port2_Output }    ; [] |160| 
     715                            .dwpsn  file "../main.c",line 161,column 9,is_stmt,isa 1
TI ARM Assembler PC v20.2.6 Mon Oct 31 23:16:56 2022

Copyright (c) 1996-2018 Texas Instruments Incorporated
main.asm                                                             PAGE   14

     716                    $C$DW$35        .dwtag  DW_TAG_TI_branch
     717                            .dwattr $C$DW$35, DW_AT_low_pc(0x00)
     718                            .dwattr $C$DW$35, DW_AT_name("Port1_Output")
     719                            .dwattr $C$DW$35, DW_AT_TI_call
     720                    
     721 000000f2 FFFEF7FF!         BL        Port1_Output          ; [DPU_V7M3_PIPE] |161|  ; [KEEP 32-BIT INS]
     722                            ; CALL OCCURS {Port1_Output }    ; [] |161| 
     723                            .dwpsn  file "../main.c",line 162,column 9,is_stmt,isa 1
     724 000000f6 E00B              B         ||$C$L7||             ; [DPU_V7M3_PIPE] |162|  ; [ORIG 16-BIT INS]
     725                            ; BRANCH OCCURS {||$C$L7||}      ; [] |162| 
     726                    ;* --------------------------------------------------------------------------*
     727 000000f8           ||$C$L5||:    
     728                            .dwpsn  file "../main.c",line 136,column 9,is_stmt,isa 1
     729 000000f8 2004              MOVS      A1, #4                ; [DPU_V7M3_PIPE] |136|  ; [ORIG 16-BIT INS]
     730                    $C$DW$36        .dwtag  DW_TAG_TI_branch
     731                            .dwattr $C$DW$36, DW_AT_low_pc(0x00)
     732                            .dwattr $C$DW$36, DW_AT_name("Port2_Output")
     733                            .dwattr $C$DW$36, DW_AT_TI_call
     734                    
     735 000000fa FFFEF7FF!         BL        Port2_Output          ; [DPU_V7M3_PIPE] |136|  ; [KEEP 32-BIT INS]
     736                            ; CALL OCCURS {Port2_Output }    ; [] |136| 
     737                            .dwpsn  file "../main.c",line 140,column 9,is_stmt,isa 1
     738 000000fe 2001              MOVS      A1, #1                ; [DPU_V7M3_PIPE] |140|  ; [ORIG 16-BIT INS]
     739                    $C$DW$37        .dwtag  DW_TAG_TI_branch
     740                            .dwattr $C$DW$37, DW_AT_low_pc(0x00)
     741                            .dwattr $C$DW$37, DW_AT_name("Port1_Output")
     742                            .dwattr $C$DW$37, DW_AT_TI_call
     743                    
     744 00000100 FFFEF7FF!         BL        Port1_Output          ; [DPU_V7M3_PIPE] |140|  ; [KEEP 32-BIT INS]
     745                            ; CALL OCCURS {Port1_Output }    ; [] |140| 
     746                            .dwpsn  file "../main.c",line 141,column 9,is_stmt,isa 1
     747 00000104 E004              B         ||$C$L7||             ; [DPU_V7M3_PIPE] |141|  ; [ORIG 16-BIT INS]
     748                            ; BRANCH OCCURS {||$C$L7||}      ; [] |141| 
     749                    ;* --------------------------------------------------------------------------*
     750 00000106           ||$C$L6||:    
     751                            .dwpsn  file "../main.c",line 144,column 9,is_stmt,isa 1
     752 00000106 2001              MOVS      A1, #1                ; [DPU_V7M3_PIPE] |144|  ; [ORIG 16-BIT INS]
     753                    $C$DW$38        .dwtag  DW_TAG_TI_branch
     754                            .dwattr $C$DW$38, DW_AT_low_pc(0x00)
     755                            .dwattr $C$DW$38, DW_AT_name("Port2_Output")
     756                            .dwattr $C$DW$38, DW_AT_TI_call
     757                    
     758 00000108 FFFEF7FF!         BL        Port2_Output          ; [DPU_V7M3_PIPE] |144|  ; [KEEP 32-BIT INS]
     759                            ; CALL OCCURS {Port2_Output }    ; [] |144| 
     760                            .dwpsn  file "../main.c",line 148,column 9,is_stmt,isa 1
     761                    $C$DW$39        .dwtag  DW_TAG_TI_branch
     762                            .dwattr $C$DW$39, DW_AT_low_pc(0x00)
     763                            .dwattr $C$DW$39, DW_AT_name("Port1_Output")
     764                            .dwattr $C$DW$39, DW_AT_TI_call
     765                    
     766 0000010c FFFEF7FF!         BL        Port1_Output          ; [DPU_V7M3_PIPE] |148|  ; [KEEP 32-BIT INS]
     767                            ; CALL OCCURS {Port1_Output }    ; [] |148| 
     768                    ;* --------------------------------------------------------------------------*
     769                    ;*   BEGIN LOOP ||$C$L7||
     770                    ;* --------------------------------------------------------------------------*
TI ARM Assembler PC v20.2.6 Mon Oct 31 23:16:56 2022

Copyright (c) 1996-2018 Texas Instruments Incorporated
main.asm                                                             PAGE   15

     771 00000110           ||$C$L7||:    
     772                            .dwpsn  file "../main.c",line 132,column 5,is_stmt,isa 1
     773                    $C$DW$40        .dwtag  DW_TAG_TI_branch
     774                            .dwattr $C$DW$40, DW_AT_low_pc(0x00)
     775                            .dwattr $C$DW$40, DW_AT_name("Port1_Input")
     776                            .dwattr $C$DW$40, DW_AT_TI_call
     777                    
     778 00000110 FFFEF7FF!         BL        Port1_Input           ; [DPU_V7M3_PIPE] |132|  ; [KEEP 32-BIT INS]
     779                            ; CALL OCCURS {Port1_Input }     ; [] |132| 
     780                            .dwpsn  file "../main.c",line 133,column 5,is_stmt,isa 1
     781 00000114 B130              CBZ       A1, ||$C$L8||         ; []  ; [ORIG 16-BIT INS]
     782                            ; BRANCHCC OCCURS {||$C$L8||}    ; [] |133| 
     783                    ;* --------------------------------------------------------------------------*
     784 00000116 1E80              SUBS      A1, A1, #2            ; [DPU_V7M3_PIPE] |133|  ; [ORIG 16-BIT INS]
     785 00000118 D0F5              BEQ       ||$C$L6||             ; [DPU_V7M3_PIPE] |133|  ; [ORIG 16-BIT INS]
     786                            ; BRANCHCC OCCURS {||$C$L6||}    ; [] |133| 
     787                    ;* --------------------------------------------------------------------------*
     788 0000011a 380E              SUBS      A1, A1, #14           ; [DPU_V7M3_PIPE] |133|  ; [ORIG 16-BIT INS]
     789 0000011c D0EC              BEQ       ||$C$L5||             ; [DPU_V7M3_PIPE] |133|  ; [ORIG 16-BIT INS]
     790                            ; BRANCHCC OCCURS {||$C$L5||}    ; [] |133| 
     791                    ;* --------------------------------------------------------------------------*
     792 0000011e 1E80              SUBS      A1, A1, #2            ; [DPU_V7M3_PIPE] |133|  ; [ORIG 16-BIT INS]
     793 00000120 D0E4              BEQ       ||$C$L4||             ; [DPU_V7M3_PIPE] |133|  ; [ORIG 16-BIT INS]
     794                            ; BRANCHCC OCCURS {||$C$L4||}    ; [] |133| 
     795                    ;* --------------------------------------------------------------------------*
     796 00000122 E7F5              B         ||$C$L7||             ; [DPU_V7M3_PIPE] |133|  ; [ORIG 16-BIT INS]
     797                            ; BRANCH OCCURS {||$C$L7||}      ; [] |133| 
     798                    ;* --------------------------------------------------------------------------*
     799 00000124           ||$C$L8||:    
     800                            .dwpsn  file "../main.c",line 152,column 9,is_stmt,isa 1
     801 00000124 2005              MOVS      A1, #5                ; [DPU_V7M3_PIPE] |152|  ; [ORIG 16-BIT INS]
     802                    $C$DW$41        .dwtag  DW_TAG_TI_branch
     803                            .dwattr $C$DW$41, DW_AT_low_pc(0x00)
     804                            .dwattr $C$DW$41, DW_AT_name("Port2_Output")
     805                            .dwattr $C$DW$41, DW_AT_TI_call
     806                    
     807 00000126 FFFEF7FF!         BL        Port2_Output          ; [DPU_V7M3_PIPE] |152|  ; [KEEP 32-BIT INS]
     808                            ; CALL OCCURS {Port2_Output }    ; [] |152| 
     809                            .dwpsn  file "../main.c",line 157,column 9,is_stmt,isa 1
     810 0000012a 2001              MOVS      A1, #1                ; [DPU_V7M3_PIPE] |157|  ; [ORIG 16-BIT INS]
     811                    $C$DW$42        .dwtag  DW_TAG_TI_branch
     812                            .dwattr $C$DW$42, DW_AT_low_pc(0x00)
     813                            .dwattr $C$DW$42, DW_AT_name("Port1_Output")
     814                            .dwattr $C$DW$42, DW_AT_TI_call
     815                    
     816 0000012c FFFEF7FF!         BL        Port1_Output          ; [DPU_V7M3_PIPE] |157|  ; [KEEP 32-BIT INS]
     817                            ; CALL OCCURS {Port1_Output }    ; [] |157| 
     818                            .dwpsn  file "../main.c",line 158,column 9,is_stmt,isa 1
     819 00000130 E7EE              B         ||$C$L7||             ; [DPU_V7M3_PIPE] |158|  ; [ORIG 16-BIT INS]
     820                            ; BRANCH OCCURS {||$C$L7||}      ; [] |158| 
     821                    ;* --------------------------------------------------------------------------*
     822                            .dwattr $C$DW$29, DW_AT_TI_end_file("../main.c")
     823                            .dwattr $C$DW$29, DW_AT_TI_end_line(0xa5)
     824                            .dwattr $C$DW$29, DW_AT_TI_end_column(0x01)
     825                            .dwendentry
TI ARM Assembler PC v20.2.6 Mon Oct 31 23:16:56 2022

Copyright (c) 1996-2018 Texas Instruments Incorporated
main.asm                                                             PAGE   16

     826                            .dwendtag $C$DW$29
     827                    
     828                    ;******************************************************************************
     829                    ;* CONSTANT TABLE                                                             *
     830                    ;******************************************************************************
     831 00000132                   .sect   ".text"
     832                            .align  4
     833 00000132 4C0C46C0  ||$C$CON2||:    .bits           0x40004c0c,32
         00000136 00004000 
     834                    
     835                            .align  4
     836 00000136 4C024000  ||$C$CON5||:    .bits           0x40004c02,32
         0000013a 00004000 
     837                    
     838                            .align  4
     839 0000013a 4C034000  ||$C$CON10||:   .bits           0x40004c03,32
         0000013e 00004000 
     840                    
     841                            .align  4
     842 0000013e 00004000! ||$C$CON11||:   .bits   ||$P$T0$1||,32
         00000142 00000000 
     843                    ;*****************************************************************************
     844                    ;* UNDEFINED EXTERNAL REFERENCES                                             *
     845                    ;*****************************************************************************
     846                            .global Clock_Delay1ms
     847                    
     848                    ;******************************************************************************
     849                    ;* BUILD ATTRIBUTES                                                           *
     850                    ;******************************************************************************
     851                            .battr "TI", Tag_File, 1, Tag_LPM_INFO(1)
     852                            .battr "TI", Tag_File, 1, Tag_PORTS_INIT_INFO("012345678901ABCDEFGHIJ0111111111100000000000000
     853                            .battr "aeabi", Tag_File, 1, Tag_ABI_PCS_wchar_t(2)
     854                            .battr "aeabi", Tag_File, 1, Tag_ABI_FP_rounding(0)
     855                            .battr "aeabi", Tag_File, 1, Tag_ABI_FP_denormal(0)
     856                            .battr "aeabi", Tag_File, 1, Tag_ABI_FP_exceptions(0)
     857                            .battr "aeabi", Tag_File, 1, Tag_ABI_FP_number_model(1)
     858                            .battr "aeabi", Tag_File, 1, Tag_ABI_enum_size(1)
     859                            .battr "aeabi", Tag_File, 1, Tag_ABI_optimization_goals(3)
     860                            .battr "aeabi", Tag_File, 1, Tag_ABI_FP_optimization_goals(0)
     861                            .battr "TI", Tag_File, 1, Tag_Bitfield_layout(0)
     862                            .battr "aeabi", Tag_File, 1, Tag_ABI_VFP_args(3)
     863                            .battr "TI", Tag_File, 1, Tag_FP_interface(1)
     864                    
     865                    ;******************************************************************************
     866                    ;* TYPE INFORMATION                                                           *
     867                    ;******************************************************************************
     868                    
     869                    $C$DW$T$29      .dwtag  DW_TAG_structure_type
     870                            .dwattr $C$DW$T$29, DW_AT_byte_size(0x1e)
     871                    $C$DW$43        .dwtag  DW_TAG_member
     872                            .dwattr $C$DW$43, DW_AT_type(*$C$DW$T$23)
     873                            .dwattr $C$DW$43, DW_AT_name("IN")
     874                            .dwattr $C$DW$43, DW_AT_TI_symbol_name("IN")
     875                            .dwattr $C$DW$43, DW_AT_data_member_location[DW_OP_plus_uconst 0x0]
     876                            .dwattr $C$DW$43, DW_AT_accessibility(DW_ACCESS_public)
TI ARM Assembler PC v20.2.6 Mon Oct 31 23:16:56 2022

Copyright (c) 1996-2018 Texas Instruments Incorporated
main.asm                                                             PAGE   17

     877                            .dwattr $C$DW$43, DW_AT_decl_file("C:\ti\ccs1200\ccs\ccs_base\arm\include\msp432p401r.h")
     878                            .dwattr $C$DW$43, DW_AT_decl_line(0x288)
     879                            .dwattr $C$DW$43, DW_AT_decl_column(0x0f)
     880                    
     881                    $C$DW$44        .dwtag  DW_TAG_member
     882                            .dwattr $C$DW$44, DW_AT_type(*$C$DW$T$22)
     883                            .dwattr $C$DW$44, DW_AT_name("RESERVED0")
     884                            .dwattr $C$DW$44, DW_AT_TI_symbol_name("RESERVED0")
     885                            .dwattr $C$DW$44, DW_AT_data_member_location[DW_OP_plus_uconst 0x1]
     886                            .dwattr $C$DW$44, DW_AT_accessibility(DW_ACCESS_public)
     887                            .dwattr $C$DW$44, DW_AT_decl_file("C:\ti\ccs1200\ccs\ccs_base\arm\include\msp432p401r.h")
     888                            .dwattr $C$DW$44, DW_AT_decl_line(0x289)
     889                            .dwattr $C$DW$44, DW_AT_decl_column(0x0b)
     890                    
     891                    $C$DW$45        .dwtag  DW_TAG_member
     892                            .dwattr $C$DW$45, DW_AT_type(*$C$DW$T$24)
     893                            .dwattr $C$DW$45, DW_AT_name("OUT")
     894                            .dwattr $C$DW$45, DW_AT_TI_symbol_name("OUT")
     895                            .dwattr $C$DW$45, DW_AT_data_member_location[DW_OP_plus_uconst 0x2]
     896                            .dwattr $C$DW$45, DW_AT_accessibility(DW_ACCESS_public)
     897                            .dwattr $C$DW$45, DW_AT_decl_file("C:\ti\ccs1200\ccs\ccs_base\arm\include\msp432p401r.h")
     898                            .dwattr $C$DW$45, DW_AT_decl_line(0x28a)
     899                            .dwattr $C$DW$45, DW_AT_decl_column(0x10)
     900                    
     901                    $C$DW$46        .dwtag  DW_TAG_member
     902                            .dwattr $C$DW$46, DW_AT_type(*$C$DW$T$22)
     903                            .dwattr $C$DW$46, DW_AT_name("RESERVED1")
     904                            .dwattr $C$DW$46, DW_AT_TI_symbol_name("RESERVED1")
     905                            .dwattr $C$DW$46, DW_AT_data_member_location[DW_OP_plus_uconst 0x3]
     906                            .dwattr $C$DW$46, DW_AT_accessibility(DW_ACCESS_public)
     907                            .dwattr $C$DW$46, DW_AT_decl_file("C:\ti\ccs1200\ccs\ccs_base\arm\include\msp432p401r.h")
     908                            .dwattr $C$DW$46, DW_AT_decl_line(0x28b)
     909                            .dwattr $C$DW$46, DW_AT_decl_column(0x0b)
     910                    
     911                    $C$DW$47        .dwtag  DW_TAG_member
     912                            .dwattr $C$DW$47, DW_AT_type(*$C$DW$T$24)
     913                            .dwattr $C$DW$47, DW_AT_name("DIR")
     914                            .dwattr $C$DW$47, DW_AT_TI_symbol_name("DIR")
     915                            .dwattr $C$DW$47, DW_AT_data_member_location[DW_OP_plus_uconst 0x4]
     916                            .dwattr $C$DW$47, DW_AT_accessibility(DW_ACCESS_public)
     917                            .dwattr $C$DW$47, DW_AT_decl_file("C:\ti\ccs1200\ccs\ccs_base\arm\include\msp432p401r.h")
     918                            .dwattr $C$DW$47, DW_AT_decl_line(0x28c)
     919                            .dwattr $C$DW$47, DW_AT_decl_column(0x10)
     920                    
     921                    $C$DW$48        .dwtag  DW_TAG_member
     922                            .dwattr $C$DW$48, DW_AT_type(*$C$DW$T$22)
     923                            .dwattr $C$DW$48, DW_AT_name("RESERVED2")
     924                            .dwattr $C$DW$48, DW_AT_TI_symbol_name("RESERVED2")
     925                            .dwattr $C$DW$48, DW_AT_data_member_location[DW_OP_plus_uconst 0x5]
     926                            .dwattr $C$DW$48, DW_AT_accessibility(DW_ACCESS_public)
     927                            .dwattr $C$DW$48, DW_AT_decl_file("C:\ti\ccs1200\ccs\ccs_base\arm\include\msp432p401r.h")
     928                            .dwattr $C$DW$48, DW_AT_decl_line(0x28d)
     929                            .dwattr $C$DW$48, DW_AT_decl_column(0x0b)
     930                    
     931                    $C$DW$49        .dwtag  DW_TAG_member
TI ARM Assembler PC v20.2.6 Mon Oct 31 23:16:56 2022

Copyright (c) 1996-2018 Texas Instruments Incorporated
main.asm                                                             PAGE   18

     932                            .dwattr $C$DW$49, DW_AT_type(*$C$DW$T$24)
     933                            .dwattr $C$DW$49, DW_AT_name("REN")
     934                            .dwattr $C$DW$49, DW_AT_TI_symbol_name("REN")
     935                            .dwattr $C$DW$49, DW_AT_data_member_location[DW_OP_plus_uconst 0x6]
     936                            .dwattr $C$DW$49, DW_AT_accessibility(DW_ACCESS_public)
     937                            .dwattr $C$DW$49, DW_AT_decl_file("C:\ti\ccs1200\ccs\ccs_base\arm\include\msp432p401r.h")
     938                            .dwattr $C$DW$49, DW_AT_decl_line(0x28e)
     939                            .dwattr $C$DW$49, DW_AT_decl_column(0x10)
     940                    
     941                    $C$DW$50        .dwtag  DW_TAG_member
     942                            .dwattr $C$DW$50, DW_AT_type(*$C$DW$T$22)
     943                            .dwattr $C$DW$50, DW_AT_name("RESERVED3")
     944                            .dwattr $C$DW$50, DW_AT_TI_symbol_name("RESERVED3")
     945                            .dwattr $C$DW$50, DW_AT_data_member_location[DW_OP_plus_uconst 0x7]
     946                            .dwattr $C$DW$50, DW_AT_accessibility(DW_ACCESS_public)
     947                            .dwattr $C$DW$50, DW_AT_decl_file("C:\ti\ccs1200\ccs\ccs_base\arm\include\msp432p401r.h")
     948                            .dwattr $C$DW$50, DW_AT_decl_line(0x28f)
     949                            .dwattr $C$DW$50, DW_AT_decl_column(0x0b)
     950                    
     951                    $C$DW$51        .dwtag  DW_TAG_member
     952                            .dwattr $C$DW$51, DW_AT_type(*$C$DW$T$24)
     953                            .dwattr $C$DW$51, DW_AT_name("DS")
     954                            .dwattr $C$DW$51, DW_AT_TI_symbol_name("DS")
     955                            .dwattr $C$DW$51, DW_AT_data_member_location[DW_OP_plus_uconst 0x8]
     956                            .dwattr $C$DW$51, DW_AT_accessibility(DW_ACCESS_public)
     957                            .dwattr $C$DW$51, DW_AT_decl_file("C:\ti\ccs1200\ccs\ccs_base\arm\include\msp432p401r.h")
     958                            .dwattr $C$DW$51, DW_AT_decl_line(0x290)
     959                            .dwattr $C$DW$51, DW_AT_decl_column(0x10)
     960                    
     961                    $C$DW$52        .dwtag  DW_TAG_member
     962                            .dwattr $C$DW$52, DW_AT_type(*$C$DW$T$22)
     963                            .dwattr $C$DW$52, DW_AT_name("RESERVED4")
     964                            .dwattr $C$DW$52, DW_AT_TI_symbol_name("RESERVED4")
     965                            .dwattr $C$DW$52, DW_AT_data_member_location[DW_OP_plus_uconst 0x9]
     966                            .dwattr $C$DW$52, DW_AT_accessibility(DW_ACCESS_public)
     967                            .dwattr $C$DW$52, DW_AT_decl_file("C:\ti\ccs1200\ccs\ccs_base\arm\include\msp432p401r.h")
     968                            .dwattr $C$DW$52, DW_AT_decl_line(0x291)
     969                            .dwattr $C$DW$52, DW_AT_decl_column(0x0b)
     970                    
     971                    $C$DW$53        .dwtag  DW_TAG_member
     972                            .dwattr $C$DW$53, DW_AT_type(*$C$DW$T$24)
     973                            .dwattr $C$DW$53, DW_AT_name("SEL0")
     974                            .dwattr $C$DW$53, DW_AT_TI_symbol_name("SEL0")
     975                            .dwattr $C$DW$53, DW_AT_data_member_location[DW_OP_plus_uconst 0xa]
     976                            .dwattr $C$DW$53, DW_AT_accessibility(DW_ACCESS_public)
     977                            .dwattr $C$DW$53, DW_AT_decl_file("C:\ti\ccs1200\ccs\ccs_base\arm\include\msp432p401r.h")
     978                            .dwattr $C$DW$53, DW_AT_decl_line(0x292)
     979                            .dwattr $C$DW$53, DW_AT_decl_column(0x10)
     980                    
     981                    $C$DW$54        .dwtag  DW_TAG_member
     982                            .dwattr $C$DW$54, DW_AT_type(*$C$DW$T$22)
     983                            .dwattr $C$DW$54, DW_AT_name("RESERVED5")
     984                            .dwattr $C$DW$54, DW_AT_TI_symbol_name("RESERVED5")
     985                            .dwattr $C$DW$54, DW_AT_data_member_location[DW_OP_plus_uconst 0xb]
     986                            .dwattr $C$DW$54, DW_AT_accessibility(DW_ACCESS_public)
TI ARM Assembler PC v20.2.6 Mon Oct 31 23:16:56 2022

Copyright (c) 1996-2018 Texas Instruments Incorporated
main.asm                                                             PAGE   19

     987                            .dwattr $C$DW$54, DW_AT_decl_file("C:\ti\ccs1200\ccs\ccs_base\arm\include\msp432p401r.h")
     988                            .dwattr $C$DW$54, DW_AT_decl_line(0x293)
     989                            .dwattr $C$DW$54, DW_AT_decl_column(0x0b)
     990                    
     991                    $C$DW$55        .dwtag  DW_TAG_member
     992                            .dwattr $C$DW$55, DW_AT_type(*$C$DW$T$24)
     993                            .dwattr $C$DW$55, DW_AT_name("SEL1")
     994                            .dwattr $C$DW$55, DW_AT_TI_symbol_name("SEL1")
     995                            .dwattr $C$DW$55, DW_AT_data_member_location[DW_OP_plus_uconst 0xc]
     996                            .dwattr $C$DW$55, DW_AT_accessibility(DW_ACCESS_public)
     997                            .dwattr $C$DW$55, DW_AT_decl_file("C:\ti\ccs1200\ccs\ccs_base\arm\include\msp432p401r.h")
     998                            .dwattr $C$DW$55, DW_AT_decl_line(0x294)
     999                            .dwattr $C$DW$55, DW_AT_decl_column(0x10)
    1000                    
    1001                    $C$DW$56        .dwtag  DW_TAG_member
    1002                            .dwattr $C$DW$56, DW_AT_type(*$C$DW$T$22)
    1003                            .dwattr $C$DW$56, DW_AT_name("RESERVED6")
    1004                            .dwattr $C$DW$56, DW_AT_TI_symbol_name("RESERVED6")
    1005                            .dwattr $C$DW$56, DW_AT_data_member_location[DW_OP_plus_uconst 0xd]
    1006                            .dwattr $C$DW$56, DW_AT_accessibility(DW_ACCESS_public)
    1007                            .dwattr $C$DW$56, DW_AT_decl_file("C:\ti\ccs1200\ccs\ccs_base\arm\include\msp432p401r.h")
    1008                            .dwattr $C$DW$56, DW_AT_decl_line(0x295)
    1009                            .dwattr $C$DW$56, DW_AT_decl_column(0x0b)
    1010                    
    1011                    $C$DW$57        .dwtag  DW_TAG_member
    1012                            .dwattr $C$DW$57, DW_AT_type(*$C$DW$T$27)
    1013                            .dwattr $C$DW$57, DW_AT_name("IV")
    1014                            .dwattr $C$DW$57, DW_AT_TI_symbol_name("IV")
    1015                            .dwattr $C$DW$57, DW_AT_data_member_location[DW_OP_plus_uconst 0xe]
    1016                            .dwattr $C$DW$57, DW_AT_accessibility(DW_ACCESS_public)
    1017                            .dwattr $C$DW$57, DW_AT_decl_file("C:\ti\ccs1200\ccs\ccs_base\arm\include\msp432p401r.h")
    1018                            .dwattr $C$DW$57, DW_AT_decl_line(0x296)
    1019                            .dwattr $C$DW$57, DW_AT_decl_column(0x11)
    1020                    
    1021                    $C$DW$58        .dwtag  DW_TAG_member
    1022                            .dwattr $C$DW$58, DW_AT_type(*$C$DW$T$28)
    1023                            .dwattr $C$DW$58, DW_AT_name("RESERVED7")
    1024                            .dwattr $C$DW$58, DW_AT_TI_symbol_name("RESERVED7")
    1025                            .dwattr $C$DW$58, DW_AT_data_member_location[DW_OP_plus_uconst 0x10]
    1026                            .dwattr $C$DW$58, DW_AT_accessibility(DW_ACCESS_public)
    1027                            .dwattr $C$DW$58, DW_AT_decl_file("C:\ti\ccs1200\ccs\ccs_base\arm\include\msp432p401r.h")
    1028                            .dwattr $C$DW$58, DW_AT_decl_line(0x297)
    1029                            .dwattr $C$DW$58, DW_AT_decl_column(0x0b)
    1030                    
    1031                    $C$DW$59        .dwtag  DW_TAG_member
    1032                            .dwattr $C$DW$59, DW_AT_type(*$C$DW$T$24)
    1033                            .dwattr $C$DW$59, DW_AT_name("SELC")
    1034                            .dwattr $C$DW$59, DW_AT_TI_symbol_name("SELC")
    1035                            .dwattr $C$DW$59, DW_AT_data_member_location[DW_OP_plus_uconst 0x16]
    1036                            .dwattr $C$DW$59, DW_AT_accessibility(DW_ACCESS_public)
    1037                            .dwattr $C$DW$59, DW_AT_decl_file("C:\ti\ccs1200\ccs\ccs_base\arm\include\msp432p401r.h")
    1038                            .dwattr $C$DW$59, DW_AT_decl_line(0x298)
    1039                            .dwattr $C$DW$59, DW_AT_decl_column(0x10)
    1040                    
    1041                    $C$DW$60        .dwtag  DW_TAG_member
TI ARM Assembler PC v20.2.6 Mon Oct 31 23:16:56 2022

Copyright (c) 1996-2018 Texas Instruments Incorporated
main.asm                                                             PAGE   20

    1042                            .dwattr $C$DW$60, DW_AT_type(*$C$DW$T$22)
    1043                            .dwattr $C$DW$60, DW_AT_name("RESERVED8")
    1044                            .dwattr $C$DW$60, DW_AT_TI_symbol_name("RESERVED8")
    1045                            .dwattr $C$DW$60, DW_AT_data_member_location[DW_OP_plus_uconst 0x17]
    1046                            .dwattr $C$DW$60, DW_AT_accessibility(DW_ACCESS_public)
    1047                            .dwattr $C$DW$60, DW_AT_decl_file("C:\ti\ccs1200\ccs\ccs_base\arm\include\msp432p401r.h")
    1048                            .dwattr $C$DW$60, DW_AT_decl_line(0x299)
    1049                            .dwattr $C$DW$60, DW_AT_decl_column(0x0b)
    1050                    
    1051                    $C$DW$61        .dwtag  DW_TAG_member
    1052                            .dwattr $C$DW$61, DW_AT_type(*$C$DW$T$24)
    1053                            .dwattr $C$DW$61, DW_AT_name("IES")
    1054                            .dwattr $C$DW$61, DW_AT_TI_symbol_name("IES")
    1055                            .dwattr $C$DW$61, DW_AT_data_member_location[DW_OP_plus_uconst 0x18]
    1056                            .dwattr $C$DW$61, DW_AT_accessibility(DW_ACCESS_public)
    1057                            .dwattr $C$DW$61, DW_AT_decl_file("C:\ti\ccs1200\ccs\ccs_base\arm\include\msp432p401r.h")
    1058                            .dwattr $C$DW$61, DW_AT_decl_line(0x29a)
    1059                            .dwattr $C$DW$61, DW_AT_decl_column(0x10)
    1060                    
    1061                    $C$DW$62        .dwtag  DW_TAG_member
    1062                            .dwattr $C$DW$62, DW_AT_type(*$C$DW$T$22)
    1063                            .dwattr $C$DW$62, DW_AT_name("RESERVED9")
    1064                            .dwattr $C$DW$62, DW_AT_TI_symbol_name("RESERVED9")
    1065                            .dwattr $C$DW$62, DW_AT_data_member_location[DW_OP_plus_uconst 0x19]
    1066                            .dwattr $C$DW$62, DW_AT_accessibility(DW_ACCESS_public)
    1067                            .dwattr $C$DW$62, DW_AT_decl_file("C:\ti\ccs1200\ccs\ccs_base\arm\include\msp432p401r.h")
    1068                            .dwattr $C$DW$62, DW_AT_decl_line(0x29b)
    1069                            .dwattr $C$DW$62, DW_AT_decl_column(0x0b)
    1070                    
    1071                    $C$DW$63        .dwtag  DW_TAG_member
    1072                            .dwattr $C$DW$63, DW_AT_type(*$C$DW$T$24)
    1073                            .dwattr $C$DW$63, DW_AT_name("IE")
    1074                            .dwattr $C$DW$63, DW_AT_TI_symbol_name("IE")
    1075                            .dwattr $C$DW$63, DW_AT_data_member_location[DW_OP_plus_uconst 0x1a]
    1076                            .dwattr $C$DW$63, DW_AT_accessibility(DW_ACCESS_public)
    1077                            .dwattr $C$DW$63, DW_AT_decl_file("C:\ti\ccs1200\ccs\ccs_base\arm\include\msp432p401r.h")
    1078                            .dwattr $C$DW$63, DW_AT_decl_line(0x29c)
    1079                            .dwattr $C$DW$63, DW_AT_decl_column(0x10)
    1080                    
    1081                    $C$DW$64        .dwtag  DW_TAG_member
    1082                            .dwattr $C$DW$64, DW_AT_type(*$C$DW$T$22)
    1083                            .dwattr $C$DW$64, DW_AT_name("RESERVED10")
    1084                            .dwattr $C$DW$64, DW_AT_TI_symbol_name("RESERVED10")
    1085                            .dwattr $C$DW$64, DW_AT_data_member_location[DW_OP_plus_uconst 0x1b]
    1086                            .dwattr $C$DW$64, DW_AT_accessibility(DW_ACCESS_public)
    1087                            .dwattr $C$DW$64, DW_AT_decl_file("C:\ti\ccs1200\ccs\ccs_base\arm\include\msp432p401r.h")
    1088                            .dwattr $C$DW$64, DW_AT_decl_line(0x29d)
    1089                            .dwattr $C$DW$64, DW_AT_decl_column(0x0b)
    1090                    
    1091                    $C$DW$65        .dwtag  DW_TAG_member
    1092                            .dwattr $C$DW$65, DW_AT_type(*$C$DW$T$24)
    1093                            .dwattr $C$DW$65, DW_AT_name("IFG")
    1094                            .dwattr $C$DW$65, DW_AT_TI_symbol_name("IFG")
    1095                            .dwattr $C$DW$65, DW_AT_data_member_location[DW_OP_plus_uconst 0x1c]
    1096                            .dwattr $C$DW$65, DW_AT_accessibility(DW_ACCESS_public)
TI ARM Assembler PC v20.2.6 Mon Oct 31 23:16:56 2022

Copyright (c) 1996-2018 Texas Instruments Incorporated
main.asm                                                             PAGE   21

    1097                            .dwattr $C$DW$65, DW_AT_decl_file("C:\ti\ccs1200\ccs\ccs_base\arm\include\msp432p401r.h")
    1098                            .dwattr $C$DW$65, DW_AT_decl_line(0x29e)
    1099                            .dwattr $C$DW$65, DW_AT_decl_column(0x10)
    1100                    
    1101                    $C$DW$66        .dwtag  DW_TAG_member
    1102                            .dwattr $C$DW$66, DW_AT_type(*$C$DW$T$22)
    1103                            .dwattr $C$DW$66, DW_AT_name("RESERVED11")
    1104                            .dwattr $C$DW$66, DW_AT_TI_symbol_name("RESERVED11")
    1105                            .dwattr $C$DW$66, DW_AT_data_member_location[DW_OP_plus_uconst 0x1d]
    1106                            .dwattr $C$DW$66, DW_AT_accessibility(DW_ACCESS_public)
    1107                            .dwattr $C$DW$66, DW_AT_decl_file("C:\ti\ccs1200\ccs\ccs_base\arm\include\msp432p401r.h")
    1108                            .dwattr $C$DW$66, DW_AT_decl_line(0x29f)
    1109                            .dwattr $C$DW$66, DW_AT_decl_column(0x0b)
    1110                    
    1111                            .dwattr $C$DW$T$29, DW_AT_decl_file("C:\ti\ccs1200\ccs\ccs_base\arm\include\msp432p401r.h")
    1112                            .dwattr $C$DW$T$29, DW_AT_decl_line(0x287)
    1113                            .dwattr $C$DW$T$29, DW_AT_decl_column(0x10)
    1114                            .dwendtag $C$DW$T$29
    1115                    
    1116                    $C$DW$T$179     .dwtag  DW_TAG_typedef
    1117                            .dwattr $C$DW$T$179, DW_AT_name("DIO_PORT_Odd_Interruptable_Type")
    1118                            .dwattr $C$DW$T$179, DW_AT_type(*$C$DW$T$29)
    1119                            .dwattr $C$DW$T$179, DW_AT_language(DW_LANG_C)
    1120                            .dwattr $C$DW$T$179, DW_AT_decl_file("C:\ti\ccs1200\ccs\ccs_base\arm\include\msp432p401r.h")
    1121                            .dwattr $C$DW$T$179, DW_AT_decl_line(0x2a0)
    1122                            .dwattr $C$DW$T$179, DW_AT_decl_column(0x03)
    1123                    
    1124                    
    1125                    $C$DW$T$31      .dwtag  DW_TAG_structure_type
    1126                            .dwattr $C$DW$T$31, DW_AT_byte_size(0x20)
    1127                    $C$DW$67        .dwtag  DW_TAG_member
    1128                            .dwattr $C$DW$67, DW_AT_type(*$C$DW$T$22)
    1129                            .dwattr $C$DW$67, DW_AT_name("RESERVED0")
    1130                            .dwattr $C$DW$67, DW_AT_TI_symbol_name("RESERVED0")
    1131                            .dwattr $C$DW$67, DW_AT_data_member_location[DW_OP_plus_uconst 0x0]
    1132                            .dwattr $C$DW$67, DW_AT_accessibility(DW_ACCESS_public)
    1133                            .dwattr $C$DW$67, DW_AT_decl_file("C:\ti\ccs1200\ccs\ccs_base\arm\include\msp432p401r.h")
    1134                            .dwattr $C$DW$67, DW_AT_decl_line(0x2a3)
    1135                            .dwattr $C$DW$67, DW_AT_decl_column(0x0b)
    1136                    
    1137                    $C$DW$68        .dwtag  DW_TAG_member
    1138                            .dwattr $C$DW$68, DW_AT_type(*$C$DW$T$23)
    1139                            .dwattr $C$DW$68, DW_AT_name("IN")
    1140                            .dwattr $C$DW$68, DW_AT_TI_symbol_name("IN")
    1141                            .dwattr $C$DW$68, DW_AT_data_member_location[DW_OP_plus_uconst 0x1]
    1142                            .dwattr $C$DW$68, DW_AT_accessibility(DW_ACCESS_public)
    1143                            .dwattr $C$DW$68, DW_AT_decl_file("C:\ti\ccs1200\ccs\ccs_base\arm\include\msp432p401r.h")
    1144                            .dwattr $C$DW$68, DW_AT_decl_line(0x2a4)
    1145                            .dwattr $C$DW$68, DW_AT_decl_column(0x0f)
    1146                    
    1147                    $C$DW$69        .dwtag  DW_TAG_member
    1148                            .dwattr $C$DW$69, DW_AT_type(*$C$DW$T$22)
    1149                            .dwattr $C$DW$69, DW_AT_name("RESERVED1")
    1150                            .dwattr $C$DW$69, DW_AT_TI_symbol_name("RESERVED1")
    1151                            .dwattr $C$DW$69, DW_AT_data_member_location[DW_OP_plus_uconst 0x2]
TI ARM Assembler PC v20.2.6 Mon Oct 31 23:16:56 2022

Copyright (c) 1996-2018 Texas Instruments Incorporated
main.asm                                                             PAGE   22

    1152                            .dwattr $C$DW$69, DW_AT_accessibility(DW_ACCESS_public)
    1153                            .dwattr $C$DW$69, DW_AT_decl_file("C:\ti\ccs1200\ccs\ccs_base\arm\include\msp432p401r.h")
    1154                            .dwattr $C$DW$69, DW_AT_decl_line(0x2a5)
    1155                            .dwattr $C$DW$69, DW_AT_decl_column(0x0b)
    1156                    
    1157                    $C$DW$70        .dwtag  DW_TAG_member
    1158                            .dwattr $C$DW$70, DW_AT_type(*$C$DW$T$24)
    1159                            .dwattr $C$DW$70, DW_AT_name("OUT")
    1160                            .dwattr $C$DW$70, DW_AT_TI_symbol_name("OUT")
    1161                            .dwattr $C$DW$70, DW_AT_data_member_location[DW_OP_plus_uconst 0x3]
    1162                            .dwattr $C$DW$70, DW_AT_accessibility(DW_ACCESS_public)
    1163                            .dwattr $C$DW$70, DW_AT_decl_file("C:\ti\ccs1200\ccs\ccs_base\arm\include\msp432p401r.h")
    1164                            .dwattr $C$DW$70, DW_AT_decl_line(0x2a6)
    1165                            .dwattr $C$DW$70, DW_AT_decl_column(0x10)
    1166                    
    1167                    $C$DW$71        .dwtag  DW_TAG_member
    1168                            .dwattr $C$DW$71, DW_AT_type(*$C$DW$T$22)
    1169                            .dwattr $C$DW$71, DW_AT_name("RESERVED2")
    1170                            .dwattr $C$DW$71, DW_AT_TI_symbol_name("RESERVED2")
    1171                            .dwattr $C$DW$71, DW_AT_data_member_location[DW_OP_plus_uconst 0x4]
    1172                            .dwattr $C$DW$71, DW_AT_accessibility(DW_ACCESS_public)
    1173                            .dwattr $C$DW$71, DW_AT_decl_file("C:\ti\ccs1200\ccs\ccs_base\arm\include\msp432p401r.h")
    1174                            .dwattr $C$DW$71, DW_AT_decl_line(0x2a7)
    1175                            .dwattr $C$DW$71, DW_AT_decl_column(0x0b)
    1176                    
    1177                    $C$DW$72        .dwtag  DW_TAG_member
    1178                            .dwattr $C$DW$72, DW_AT_type(*$C$DW$T$24)
    1179                            .dwattr $C$DW$72, DW_AT_name("DIR")
    1180                            .dwattr $C$DW$72, DW_AT_TI_symbol_name("DIR")
    1181                            .dwattr $C$DW$72, DW_AT_data_member_location[DW_OP_plus_uconst 0x5]
    1182                            .dwattr $C$DW$72, DW_AT_accessibility(DW_ACCESS_public)
    1183                            .dwattr $C$DW$72, DW_AT_decl_file("C:\ti\ccs1200\ccs\ccs_base\arm\include\msp432p401r.h")
    1184                            .dwattr $C$DW$72, DW_AT_decl_line(0x2a8)
    1185                            .dwattr $C$DW$72, DW_AT_decl_column(0x10)
    1186                    
    1187                    $C$DW$73        .dwtag  DW_TAG_member
    1188                            .dwattr $C$DW$73, DW_AT_type(*$C$DW$T$22)
    1189                            .dwattr $C$DW$73, DW_AT_name("RESERVED3")
    1190                            .dwattr $C$DW$73, DW_AT_TI_symbol_name("RESERVED3")
    1191                            .dwattr $C$DW$73, DW_AT_data_member_location[DW_OP_plus_uconst 0x6]
    1192                            .dwattr $C$DW$73, DW_AT_accessibility(DW_ACCESS_public)
    1193                            .dwattr $C$DW$73, DW_AT_decl_file("C:\ti\ccs1200\ccs\ccs_base\arm\include\msp432p401r.h")
    1194                            .dwattr $C$DW$73, DW_AT_decl_line(0x2a9)
    1195                            .dwattr $C$DW$73, DW_AT_decl_column(0x0b)
    1196                    
    1197                    $C$DW$74        .dwtag  DW_TAG_member
    1198                            .dwattr $C$DW$74, DW_AT_type(*$C$DW$T$24)
    1199                            .dwattr $C$DW$74, DW_AT_name("REN")
    1200                            .dwattr $C$DW$74, DW_AT_TI_symbol_name("REN")
    1201                            .dwattr $C$DW$74, DW_AT_data_member_location[DW_OP_plus_uconst 0x7]
    1202                            .dwattr $C$DW$74, DW_AT_accessibility(DW_ACCESS_public)
    1203                            .dwattr $C$DW$74, DW_AT_decl_file("C:\ti\ccs1200\ccs\ccs_base\arm\include\msp432p401r.h")
    1204                            .dwattr $C$DW$74, DW_AT_decl_line(0x2aa)
    1205                            .dwattr $C$DW$74, DW_AT_decl_column(0x10)
    1206                    
TI ARM Assembler PC v20.2.6 Mon Oct 31 23:16:56 2022

Copyright (c) 1996-2018 Texas Instruments Incorporated
main.asm                                                             PAGE   23

    1207                    $C$DW$75        .dwtag  DW_TAG_member
    1208                            .dwattr $C$DW$75, DW_AT_type(*$C$DW$T$22)
    1209                            .dwattr $C$DW$75, DW_AT_name("RESERVED4")
    1210                            .dwattr $C$DW$75, DW_AT_TI_symbol_name("RESERVED4")
    1211                            .dwattr $C$DW$75, DW_AT_data_member_location[DW_OP_plus_uconst 0x8]
    1212                            .dwattr $C$DW$75, DW_AT_accessibility(DW_ACCESS_public)
    1213                            .dwattr $C$DW$75, DW_AT_decl_file("C:\ti\ccs1200\ccs\ccs_base\arm\include\msp432p401r.h")
    1214                            .dwattr $C$DW$75, DW_AT_decl_line(0x2ab)
    1215                            .dwattr $C$DW$75, DW_AT_decl_column(0x0b)
    1216                    
    1217                    $C$DW$76        .dwtag  DW_TAG_member
    1218                            .dwattr $C$DW$76, DW_AT_type(*$C$DW$T$24)
    1219                            .dwattr $C$DW$76, DW_AT_name("DS")
    1220                            .dwattr $C$DW$76, DW_AT_TI_symbol_name("DS")
    1221                            .dwattr $C$DW$76, DW_AT_data_member_location[DW_OP_plus_uconst 0x9]
    1222                            .dwattr $C$DW$76, DW_AT_accessibility(DW_ACCESS_public)
    1223                            .dwattr $C$DW$76, DW_AT_decl_file("C:\ti\ccs1200\ccs\ccs_base\arm\include\msp432p401r.h")
    1224                            .dwattr $C$DW$76, DW_AT_decl_line(0x2ac)
    1225                            .dwattr $C$DW$76, DW_AT_decl_column(0x10)
    1226                    
    1227                    $C$DW$77        .dwtag  DW_TAG_member
    1228                            .dwattr $C$DW$77, DW_AT_type(*$C$DW$T$22)
    1229                            .dwattr $C$DW$77, DW_AT_name("RESERVED5")
    1230                            .dwattr $C$DW$77, DW_AT_TI_symbol_name("RESERVED5")
    1231                            .dwattr $C$DW$77, DW_AT_data_member_location[DW_OP_plus_uconst 0xa]
    1232                            .dwattr $C$DW$77, DW_AT_accessibility(DW_ACCESS_public)
    1233                            .dwattr $C$DW$77, DW_AT_decl_file("C:\ti\ccs1200\ccs\ccs_base\arm\include\msp432p401r.h")
    1234                            .dwattr $C$DW$77, DW_AT_decl_line(0x2ad)
    1235                            .dwattr $C$DW$77, DW_AT_decl_column(0x0b)
    1236                    
    1237                    $C$DW$78        .dwtag  DW_TAG_member
    1238                            .dwattr $C$DW$78, DW_AT_type(*$C$DW$T$24)
    1239                            .dwattr $C$DW$78, DW_AT_name("SEL0")
    1240                            .dwattr $C$DW$78, DW_AT_TI_symbol_name("SEL0")
    1241                            .dwattr $C$DW$78, DW_AT_data_member_location[DW_OP_plus_uconst 0xb]
    1242                            .dwattr $C$DW$78, DW_AT_accessibility(DW_ACCESS_public)
    1243                            .dwattr $C$DW$78, DW_AT_decl_file("C:\ti\ccs1200\ccs\ccs_base\arm\include\msp432p401r.h")
    1244                            .dwattr $C$DW$78, DW_AT_decl_line(0x2ae)
    1245                            .dwattr $C$DW$78, DW_AT_decl_column(0x10)
    1246                    
    1247                    $C$DW$79        .dwtag  DW_TAG_member
    1248                            .dwattr $C$DW$79, DW_AT_type(*$C$DW$T$22)
    1249                            .dwattr $C$DW$79, DW_AT_name("RESERVED6")
    1250                            .dwattr $C$DW$79, DW_AT_TI_symbol_name("RESERVED6")
    1251                            .dwattr $C$DW$79, DW_AT_data_member_location[DW_OP_plus_uconst 0xc]
    1252                            .dwattr $C$DW$79, DW_AT_accessibility(DW_ACCESS_public)
    1253                            .dwattr $C$DW$79, DW_AT_decl_file("C:\ti\ccs1200\ccs\ccs_base\arm\include\msp432p401r.h")
    1254                            .dwattr $C$DW$79, DW_AT_decl_line(0x2af)
    1255                            .dwattr $C$DW$79, DW_AT_decl_column(0x0b)
    1256                    
    1257                    $C$DW$80        .dwtag  DW_TAG_member
    1258                            .dwattr $C$DW$80, DW_AT_type(*$C$DW$T$24)
    1259                            .dwattr $C$DW$80, DW_AT_name("SEL1")
    1260                            .dwattr $C$DW$80, DW_AT_TI_symbol_name("SEL1")
    1261                            .dwattr $C$DW$80, DW_AT_data_member_location[DW_OP_plus_uconst 0xd]
TI ARM Assembler PC v20.2.6 Mon Oct 31 23:16:56 2022

Copyright (c) 1996-2018 Texas Instruments Incorporated
main.asm                                                             PAGE   24

    1262                            .dwattr $C$DW$80, DW_AT_accessibility(DW_ACCESS_public)
    1263                            .dwattr $C$DW$80, DW_AT_decl_file("C:\ti\ccs1200\ccs\ccs_base\arm\include\msp432p401r.h")
    1264                            .dwattr $C$DW$80, DW_AT_decl_line(0x2b0)
    1265                            .dwattr $C$DW$80, DW_AT_decl_column(0x10)
    1266                    
    1267                    $C$DW$81        .dwtag  DW_TAG_member
    1268                            .dwattr $C$DW$81, DW_AT_type(*$C$DW$T$30)
    1269                            .dwattr $C$DW$81, DW_AT_name("RESERVED7")
    1270                            .dwattr $C$DW$81, DW_AT_TI_symbol_name("RESERVED7")
    1271                            .dwattr $C$DW$81, DW_AT_data_member_location[DW_OP_plus_uconst 0xe]
    1272                            .dwattr $C$DW$81, DW_AT_accessibility(DW_ACCESS_public)
    1273                            .dwattr $C$DW$81, DW_AT_decl_file("C:\ti\ccs1200\ccs\ccs_base\arm\include\msp432p401r.h")
    1274                            .dwattr $C$DW$81, DW_AT_decl_line(0x2b1)
    1275                            .dwattr $C$DW$81, DW_AT_decl_column(0x0b)
    1276                    
    1277                    $C$DW$82        .dwtag  DW_TAG_member
    1278                            .dwattr $C$DW$82, DW_AT_type(*$C$DW$T$24)
    1279                            .dwattr $C$DW$82, DW_AT_name("SELC")
    1280                            .dwattr $C$DW$82, DW_AT_TI_symbol_name("SELC")
    1281                            .dwattr $C$DW$82, DW_AT_data_member_location[DW_OP_plus_uconst 0x17]
    1282                            .dwattr $C$DW$82, DW_AT_accessibility(DW_ACCESS_public)
    1283                            .dwattr $C$DW$82, DW_AT_decl_file("C:\ti\ccs1200\ccs\ccs_base\arm\include\msp432p401r.h")
    1284                            .dwattr $C$DW$82, DW_AT_decl_line(0x2b2)
    1285                            .dwattr $C$DW$82, DW_AT_decl_column(0x10)
    1286                    
    1287                    $C$DW$83        .dwtag  DW_TAG_member
    1288                            .dwattr $C$DW$83, DW_AT_type(*$C$DW$T$22)
    1289                            .dwattr $C$DW$83, DW_AT_name("RESERVED8")
    1290                            .dwattr $C$DW$83, DW_AT_TI_symbol_name("RESERVED8")
    1291                            .dwattr $C$DW$83, DW_AT_data_member_location[DW_OP_plus_uconst 0x18]
    1292                            .dwattr $C$DW$83, DW_AT_accessibility(DW_ACCESS_public)
    1293                            .dwattr $C$DW$83, DW_AT_decl_file("C:\ti\ccs1200\ccs\ccs_base\arm\include\msp432p401r.h")
    1294                            .dwattr $C$DW$83, DW_AT_decl_line(0x2b3)
    1295                            .dwattr $C$DW$83, DW_AT_decl_column(0x0b)
    1296                    
    1297                    $C$DW$84        .dwtag  DW_TAG_member
    1298                            .dwattr $C$DW$84, DW_AT_type(*$C$DW$T$24)
    1299                            .dwattr $C$DW$84, DW_AT_name("IES")
    1300                            .dwattr $C$DW$84, DW_AT_TI_symbol_name("IES")
    1301                            .dwattr $C$DW$84, DW_AT_data_member_location[DW_OP_plus_uconst 0x19]
    1302                            .dwattr $C$DW$84, DW_AT_accessibility(DW_ACCESS_public)
    1303                            .dwattr $C$DW$84, DW_AT_decl_file("C:\ti\ccs1200\ccs\ccs_base\arm\include\msp432p401r.h")
    1304                            .dwattr $C$DW$84, DW_AT_decl_line(0x2b4)
    1305                            .dwattr $C$DW$84, DW_AT_decl_column(0x10)
    1306                    
    1307                    $C$DW$85        .dwtag  DW_TAG_member
    1308                            .dwattr $C$DW$85, DW_AT_type(*$C$DW$T$22)
    1309                            .dwattr $C$DW$85, DW_AT_name("RESERVED9")
    1310                            .dwattr $C$DW$85, DW_AT_TI_symbol_name("RESERVED9")
    1311                            .dwattr $C$DW$85, DW_AT_data_member_location[DW_OP_plus_uconst 0x1a]
    1312                            .dwattr $C$DW$85, DW_AT_accessibility(DW_ACCESS_public)
    1313                            .dwattr $C$DW$85, DW_AT_decl_file("C:\ti\ccs1200\ccs\ccs_base\arm\include\msp432p401r.h")
    1314                            .dwattr $C$DW$85, DW_AT_decl_line(0x2b5)
    1315                            .dwattr $C$DW$85, DW_AT_decl_column(0x0b)
    1316                    
TI ARM Assembler PC v20.2.6 Mon Oct 31 23:16:56 2022

Copyright (c) 1996-2018 Texas Instruments Incorporated
main.asm                                                             PAGE   25

    1317                    $C$DW$86        .dwtag  DW_TAG_member
    1318                            .dwattr $C$DW$86, DW_AT_type(*$C$DW$T$24)
    1319                            .dwattr $C$DW$86, DW_AT_name("IE")
    1320                            .dwattr $C$DW$86, DW_AT_TI_symbol_name("IE")
    1321                            .dwattr $C$DW$86, DW_AT_data_member_location[DW_OP_plus_uconst 0x1b]
    1322                            .dwattr $C$DW$86, DW_AT_accessibility(DW_ACCESS_public)
    1323                            .dwattr $C$DW$86, DW_AT_decl_file("C:\ti\ccs1200\ccs\ccs_base\arm\include\msp432p401r.h")
    1324                            .dwattr $C$DW$86, DW_AT_decl_line(0x2b6)
    1325                            .dwattr $C$DW$86, DW_AT_decl_column(0x10)
    1326                    
    1327                    $C$DW$87        .dwtag  DW_TAG_member
    1328                            .dwattr $C$DW$87, DW_AT_type(*$C$DW$T$22)
    1329                            .dwattr $C$DW$87, DW_AT_name("RESERVED10")
    1330                            .dwattr $C$DW$87, DW_AT_TI_symbol_name("RESERVED10")
    1331                            .dwattr $C$DW$87, DW_AT_data_member_location[DW_OP_plus_uconst 0x1c]
    1332                            .dwattr $C$DW$87, DW_AT_accessibility(DW_ACCESS_public)
    1333                            .dwattr $C$DW$87, DW_AT_decl_file("C:\ti\ccs1200\ccs\ccs_base\arm\include\msp432p401r.h")
    1334                            .dwattr $C$DW$87, DW_AT_decl_line(0x2b7)
    1335                            .dwattr $C$DW$87, DW_AT_decl_column(0x0b)
    1336                    
    1337                    $C$DW$88        .dwtag  DW_TAG_member
    1338                            .dwattr $C$DW$88, DW_AT_type(*$C$DW$T$24)
    1339                            .dwattr $C$DW$88, DW_AT_name("IFG")
    1340                            .dwattr $C$DW$88, DW_AT_TI_symbol_name("IFG")
    1341                            .dwattr $C$DW$88, DW_AT_data_member_location[DW_OP_plus_uconst 0x1d]
    1342                            .dwattr $C$DW$88, DW_AT_accessibility(DW_ACCESS_public)
    1343                            .dwattr $C$DW$88, DW_AT_decl_file("C:\ti\ccs1200\ccs\ccs_base\arm\include\msp432p401r.h")
    1344                            .dwattr $C$DW$88, DW_AT_decl_line(0x2b8)
    1345                            .dwattr $C$DW$88, DW_AT_decl_column(0x10)
    1346                    
    1347                    $C$DW$89        .dwtag  DW_TAG_member
    1348                            .dwattr $C$DW$89, DW_AT_type(*$C$DW$T$27)
    1349                            .dwattr $C$DW$89, DW_AT_name("IV")
    1350                            .dwattr $C$DW$89, DW_AT_TI_symbol_name("IV")
    1351                            .dwattr $C$DW$89, DW_AT_data_member_location[DW_OP_plus_uconst 0x1e]
    1352                            .dwattr $C$DW$89, DW_AT_accessibility(DW_ACCESS_public)
    1353                            .dwattr $C$DW$89, DW_AT_decl_file("C:\ti\ccs1200\ccs\ccs_base\arm\include\msp432p401r.h")
    1354                            .dwattr $C$DW$89, DW_AT_decl_line(0x2b9)
    1355                            .dwattr $C$DW$89, DW_AT_decl_column(0x10)
    1356                    
    1357                            .dwattr $C$DW$T$31, DW_AT_decl_file("C:\ti\ccs1200\ccs\ccs_base\arm\include\msp432p401r.h")
    1358                            .dwattr $C$DW$T$31, DW_AT_decl_line(0x2a2)
    1359                            .dwattr $C$DW$T$31, DW_AT_decl_column(0x10)
    1360                            .dwendtag $C$DW$T$31
    1361                    
    1362                    $C$DW$T$181     .dwtag  DW_TAG_typedef
    1363                            .dwattr $C$DW$T$181, DW_AT_name("DIO_PORT_Even_Interruptable_Type")
    1364                            .dwattr $C$DW$T$181, DW_AT_type(*$C$DW$T$31)
    1365                            .dwattr $C$DW$T$181, DW_AT_language(DW_LANG_C)
    1366                            .dwattr $C$DW$T$181, DW_AT_decl_file("C:\ti\ccs1200\ccs\ccs_base\arm\include\msp432p401r.h")
    1367                            .dwattr $C$DW$T$181, DW_AT_decl_line(0x2ba)
    1368                            .dwattr $C$DW$T$181, DW_AT_decl_column(0x03)
    1369                    
    1370                    
    1371                    $C$DW$T$32      .dwtag  DW_TAG_structure_type
TI ARM Assembler PC v20.2.6 Mon Oct 31 23:16:56 2022

Copyright (c) 1996-2018 Texas Instruments Incorporated
main.asm                                                             PAGE   26

    1372                            .dwattr $C$DW$T$32, DW_AT_byte_size(0x10)
    1373                    $C$DW$90        .dwtag  DW_TAG_member
    1374                            .dwattr $C$DW$90, DW_AT_type(*$C$DW$T$14)
    1375                            .dwattr $C$DW$90, DW_AT_name("__max_align1")
    1376                            .dwattr $C$DW$90, DW_AT_TI_symbol_name("__max_align1")
    1377                            .dwattr $C$DW$90, DW_AT_data_member_location[DW_OP_plus_uconst 0x0]
    1378                            .dwattr $C$DW$90, DW_AT_accessibility(DW_ACCESS_public)
    1379                            .dwattr $C$DW$90, DW_AT_decl_file("C:/ti/ccs1200/ccs/tools/compiler/ti-cgt-arm_20.2.6.LTS/incl
    1380                            .dwattr $C$DW$90, DW_AT_decl_line(0x7b)
    1381                            .dwattr $C$DW$90, DW_AT_decl_column(0x0c)
    1382                    
    1383                    $C$DW$91        .dwtag  DW_TAG_member
    1384                            .dwattr $C$DW$91, DW_AT_type(*$C$DW$T$18)
    1385                            .dwattr $C$DW$91, DW_AT_name("__max_align2")
    1386                            .dwattr $C$DW$91, DW_AT_TI_symbol_name("__max_align2")
    1387                            .dwattr $C$DW$91, DW_AT_data_member_location[DW_OP_plus_uconst 0x8]
    1388                            .dwattr $C$DW$91, DW_AT_accessibility(DW_ACCESS_public)
    1389                            .dwattr $C$DW$91, DW_AT_decl_file("C:/ti/ccs1200/ccs/tools/compiler/ti-cgt-arm_20.2.6.LTS/incl
    1390                            .dwattr $C$DW$91, DW_AT_decl_line(0x7c)
    1391                            .dwattr $C$DW$91, DW_AT_decl_column(0x0e)
    1392                    
    1393                            .dwattr $C$DW$T$32, DW_AT_decl_file("C:/ti/ccs1200/ccs/tools/compiler/ti-cgt-arm_20.2.6.LTS/in
    1394                            .dwattr $C$DW$T$32, DW_AT_decl_line(0x7a)
    1395                            .dwattr $C$DW$T$32, DW_AT_decl_column(0x10)
    1396                            .dwendtag $C$DW$T$32
    1397                    
    1398                    $C$DW$T$183     .dwtag  DW_TAG_typedef
    1399                            .dwattr $C$DW$T$183, DW_AT_name("__max_align_t")
    1400                            .dwattr $C$DW$T$183, DW_AT_type(*$C$DW$T$32)
    1401                            .dwattr $C$DW$T$183, DW_AT_language(DW_LANG_C)
    1402                            .dwattr $C$DW$T$183, DW_AT_decl_file("C:/ti/ccs1200/ccs/tools/compiler/ti-cgt-arm_20.2.6.LTS/i
    1403                            .dwattr $C$DW$T$183, DW_AT_decl_line(0x7d)
    1404                            .dwattr $C$DW$T$183, DW_AT_decl_column(0x03)
    1405                    
    1406                    
    1407                    $C$DW$T$35      .dwtag  DW_TAG_structure_type
    1408                            .dwattr $C$DW$T$35, DW_AT_byte_size(0x04)
    1409                    $C$DW$92        .dwtag  DW_TAG_member
    1410                            .dwattr $C$DW$92, DW_AT_type(*$C$DW$T$34)
    1411                            .dwattr $C$DW$92, DW_AT_name("_reserved0")
    1412                            .dwattr $C$DW$92, DW_AT_TI_symbol_name("_reserved0")
    1413                            .dwattr $C$DW$92, DW_AT_bit_offset(0x10)
    1414                            .dwattr $C$DW$92, DW_AT_bit_size(0x10)
    1415                            .dwattr $C$DW$92, DW_AT_data_member_location[DW_OP_plus_uconst 0x0]
    1416                            .dwattr $C$DW$92, DW_AT_accessibility(DW_ACCESS_public)
    1417                            .dwattr $C$DW$92, DW_AT_decl_file("C:/ti/ccs1200/ccs/ccs_base/arm/include/CMSIS/core_cm4.h")
    1418                            .dwattr $C$DW$92, DW_AT_decl_line(0x105)
    1419                            .dwattr $C$DW$92, DW_AT_decl_column(0x0e)
    1420                    
    1421                    $C$DW$93        .dwtag  DW_TAG_member
    1422                            .dwattr $C$DW$93, DW_AT_type(*$C$DW$T$34)
    1423                            .dwattr $C$DW$93, DW_AT_name("GE")
    1424                            .dwattr $C$DW$93, DW_AT_TI_symbol_name("GE")
    1425                            .dwattr $C$DW$93, DW_AT_bit_offset(0x0c)
    1426                            .dwattr $C$DW$93, DW_AT_bit_size(0x04)
TI ARM Assembler PC v20.2.6 Mon Oct 31 23:16:56 2022

Copyright (c) 1996-2018 Texas Instruments Incorporated
main.asm                                                             PAGE   27

    1427                            .dwattr $C$DW$93, DW_AT_data_member_location[DW_OP_plus_uconst 0x0]
    1428                            .dwattr $C$DW$93, DW_AT_accessibility(DW_ACCESS_public)
    1429                            .dwattr $C$DW$93, DW_AT_decl_file("C:/ti/ccs1200/ccs/ccs_base/arm/include/CMSIS/core_cm4.h")
    1430                            .dwattr $C$DW$93, DW_AT_decl_line(0x106)
    1431                            .dwattr $C$DW$93, DW_AT_decl_column(0x0e)
    1432                    
    1433                    $C$DW$94        .dwtag  DW_TAG_member
    1434                            .dwattr $C$DW$94, DW_AT_type(*$C$DW$T$34)
    1435                            .dwattr $C$DW$94, DW_AT_name("_reserved1")
    1436                            .dwattr $C$DW$94, DW_AT_TI_symbol_name("_reserved1")
    1437                            .dwattr $C$DW$94, DW_AT_bit_offset(0x05)
    1438                            .dwattr $C$DW$94, DW_AT_bit_size(0x07)
    1439                            .dwattr $C$DW$94, DW_AT_data_member_location[DW_OP_plus_uconst 0x0]
    1440                            .dwattr $C$DW$94, DW_AT_accessibility(DW_ACCESS_public)
    1441                            .dwattr $C$DW$94, DW_AT_decl_file("C:/ti/ccs1200/ccs/ccs_base/arm/include/CMSIS/core_cm4.h")
    1442                            .dwattr $C$DW$94, DW_AT_decl_line(0x107)
    1443                            .dwattr $C$DW$94, DW_AT_decl_column(0x0e)
    1444                    
    1445                    $C$DW$95        .dwtag  DW_TAG_member
    1446                            .dwattr $C$DW$95, DW_AT_type(*$C$DW$T$34)
    1447                            .dwattr $C$DW$95, DW_AT_name("Q")
    1448                            .dwattr $C$DW$95, DW_AT_TI_symbol_name("Q")
    1449                            .dwattr $C$DW$95, DW_AT_bit_offset(0x04)
    1450                            .dwattr $C$DW$95, DW_AT_bit_size(0x01)
    1451                            .dwattr $C$DW$95, DW_AT_data_member_location[DW_OP_plus_uconst 0x0]
    1452                            .dwattr $C$DW$95, DW_AT_accessibility(DW_ACCESS_public)
    1453                            .dwattr $C$DW$95, DW_AT_decl_file("C:/ti/ccs1200/ccs/ccs_base/arm/include/CMSIS/core_cm4.h")
    1454                            .dwattr $C$DW$95, DW_AT_decl_line(0x108)
    1455                            .dwattr $C$DW$95, DW_AT_decl_column(0x0e)
    1456                    
    1457                    $C$DW$96        .dwtag  DW_TAG_member
    1458                            .dwattr $C$DW$96, DW_AT_type(*$C$DW$T$34)
    1459                            .dwattr $C$DW$96, DW_AT_name("V")
    1460                            .dwattr $C$DW$96, DW_AT_TI_symbol_name("V")
    1461                            .dwattr $C$DW$96, DW_AT_bit_offset(0x03)
    1462                            .dwattr $C$DW$96, DW_AT_bit_size(0x01)
    1463                            .dwattr $C$DW$96, DW_AT_data_member_location[DW_OP_plus_uconst 0x0]
    1464                            .dwattr $C$DW$96, DW_AT_accessibility(DW_ACCESS_public)
    1465                            .dwattr $C$DW$96, DW_AT_decl_file("C:/ti/ccs1200/ccs/ccs_base/arm/include/CMSIS/core_cm4.h")
    1466                            .dwattr $C$DW$96, DW_AT_decl_line(0x109)
    1467                            .dwattr $C$DW$96, DW_AT_decl_column(0x0e)
    1468                    
    1469                    $C$DW$97        .dwtag  DW_TAG_member
    1470                            .dwattr $C$DW$97, DW_AT_type(*$C$DW$T$34)
    1471                            .dwattr $C$DW$97, DW_AT_name("C")
    1472                            .dwattr $C$DW$97, DW_AT_TI_symbol_name("C")
    1473                            .dwattr $C$DW$97, DW_AT_bit_offset(0x02)
    1474                            .dwattr $C$DW$97, DW_AT_bit_size(0x01)
    1475                            .dwattr $C$DW$97, DW_AT_data_member_location[DW_OP_plus_uconst 0x0]
    1476                            .dwattr $C$DW$97, DW_AT_accessibility(DW_ACCESS_public)
    1477                            .dwattr $C$DW$97, DW_AT_decl_file("C:/ti/ccs1200/ccs/ccs_base/arm/include/CMSIS/core_cm4.h")
    1478                            .dwattr $C$DW$97, DW_AT_decl_line(0x10a)
    1479                            .dwattr $C$DW$97, DW_AT_decl_column(0x0e)
    1480                    
    1481                    $C$DW$98        .dwtag  DW_TAG_member
TI ARM Assembler PC v20.2.6 Mon Oct 31 23:16:56 2022

Copyright (c) 1996-2018 Texas Instruments Incorporated
main.asm                                                             PAGE   28

    1482                            .dwattr $C$DW$98, DW_AT_type(*$C$DW$T$34)
    1483                            .dwattr $C$DW$98, DW_AT_name("Z")
    1484                            .dwattr $C$DW$98, DW_AT_TI_symbol_name("Z")
    1485                            .dwattr $C$DW$98, DW_AT_bit_offset(0x01)
    1486                            .dwattr $C$DW$98, DW_AT_bit_size(0x01)
    1487                            .dwattr $C$DW$98, DW_AT_data_member_location[DW_OP_plus_uconst 0x0]
    1488                            .dwattr $C$DW$98, DW_AT_accessibility(DW_ACCESS_public)
    1489                            .dwattr $C$DW$98, DW_AT_decl_file("C:/ti/ccs1200/ccs/ccs_base/arm/include/CMSIS/core_cm4.h")
    1490                            .dwattr $C$DW$98, DW_AT_decl_line(0x10b)
    1491                            .dwattr $C$DW$98, DW_AT_decl_column(0x0e)
    1492                    
    1493                    $C$DW$99        .dwtag  DW_TAG_member
    1494                            .dwattr $C$DW$99, DW_AT_type(*$C$DW$T$34)
    1495                            .dwattr $C$DW$99, DW_AT_name("N")
    1496                            .dwattr $C$DW$99, DW_AT_TI_symbol_name("N")
    1497                            .dwattr $C$DW$99, DW_AT_bit_offset(0x00)
    1498                            .dwattr $C$DW$99, DW_AT_bit_size(0x01)
    1499                            .dwattr $C$DW$99, DW_AT_data_member_location[DW_OP_plus_uconst 0x0]
    1500                            .dwattr $C$DW$99, DW_AT_accessibility(DW_ACCESS_public)
    1501                            .dwattr $C$DW$99, DW_AT_decl_file("C:/ti/ccs1200/ccs/ccs_base/arm/include/CMSIS/core_cm4.h")
    1502                            .dwattr $C$DW$99, DW_AT_decl_line(0x10c)
    1503                            .dwattr $C$DW$99, DW_AT_decl_column(0x0e)
    1504                    
    1505                            .dwattr $C$DW$T$35, DW_AT_decl_file("C:/ti/ccs1200/ccs/ccs_base/arm/include/CMSIS/core_cm4.h")
    1506                            .dwattr $C$DW$T$35, DW_AT_decl_line(0x104)
    1507                            .dwattr $C$DW$T$35, DW_AT_decl_column(0x03)
    1508                            .dwendtag $C$DW$T$35
    1509                    
    1510                    
    1511                    $C$DW$T$36      .dwtag  DW_TAG_structure_type
    1512                            .dwattr $C$DW$T$36, DW_AT_byte_size(0x04)
    1513                    $C$DW$100       .dwtag  DW_TAG_member
    1514                            .dwattr $C$DW$100, DW_AT_type(*$C$DW$T$34)
    1515                            .dwattr $C$DW$100, DW_AT_name("ISR")
    1516                            .dwattr $C$DW$100, DW_AT_TI_symbol_name("ISR")
    1517                            .dwattr $C$DW$100, DW_AT_bit_offset(0x17)
    1518                            .dwattr $C$DW$100, DW_AT_bit_size(0x09)
    1519                            .dwattr $C$DW$100, DW_AT_data_member_location[DW_OP_plus_uconst 0x0]
    1520                            .dwattr $C$DW$100, DW_AT_accessibility(DW_ACCESS_public)
    1521                            .dwattr $C$DW$100, DW_AT_decl_file("C:/ti/ccs1200/ccs/ccs_base/arm/include/CMSIS/core_cm4.h")
    1522                            .dwattr $C$DW$100, DW_AT_decl_line(0x12c)
    1523                            .dwattr $C$DW$100, DW_AT_decl_column(0x0e)
    1524                    
    1525                    $C$DW$101       .dwtag  DW_TAG_member
    1526                            .dwattr $C$DW$101, DW_AT_type(*$C$DW$T$34)
    1527                            .dwattr $C$DW$101, DW_AT_name("_reserved0")
    1528                            .dwattr $C$DW$101, DW_AT_TI_symbol_name("_reserved0")
    1529                            .dwattr $C$DW$101, DW_AT_bit_offset(0x00)
    1530                            .dwattr $C$DW$101, DW_AT_bit_size(0x17)
    1531                            .dwattr $C$DW$101, DW_AT_data_member_location[DW_OP_plus_uconst 0x0]
    1532                            .dwattr $C$DW$101, DW_AT_accessibility(DW_ACCESS_public)
    1533                            .dwattr $C$DW$101, DW_AT_decl_file("C:/ti/ccs1200/ccs/ccs_base/arm/include/CMSIS/core_cm4.h")
    1534                            .dwattr $C$DW$101, DW_AT_decl_line(0x12d)
    1535                            .dwattr $C$DW$101, DW_AT_decl_column(0x0e)
    1536                    
TI ARM Assembler PC v20.2.6 Mon Oct 31 23:16:56 2022

Copyright (c) 1996-2018 Texas Instruments Incorporated
main.asm                                                             PAGE   29

    1537                            .dwattr $C$DW$T$36, DW_AT_decl_file("C:/ti/ccs1200/ccs/ccs_base/arm/include/CMSIS/core_cm4.h")
    1538                            .dwattr $C$DW$T$36, DW_AT_decl_line(0x12b)
    1539                            .dwattr $C$DW$T$36, DW_AT_decl_column(0x03)
    1540                            .dwendtag $C$DW$T$36
    1541                    
    1542                    
    1543                    $C$DW$T$37      .dwtag  DW_TAG_structure_type
    1544                            .dwattr $C$DW$T$37, DW_AT_byte_size(0x04)
    1545                    $C$DW$102       .dwtag  DW_TAG_member
    1546                            .dwattr $C$DW$102, DW_AT_type(*$C$DW$T$34)
    1547                            .dwattr $C$DW$102, DW_AT_name("ISR")
    1548                            .dwattr $C$DW$102, DW_AT_TI_symbol_name("ISR")
    1549                            .dwattr $C$DW$102, DW_AT_bit_offset(0x17)
    1550                            .dwattr $C$DW$102, DW_AT_bit_size(0x09)
    1551                            .dwattr $C$DW$102, DW_AT_data_member_location[DW_OP_plus_uconst 0x0]
    1552                            .dwattr $C$DW$102, DW_AT_accessibility(DW_ACCESS_public)
    1553                            .dwattr $C$DW$102, DW_AT_decl_file("C:/ti/ccs1200/ccs/ccs_base/arm/include/CMSIS/core_cm4.h")
    1554                            .dwattr $C$DW$102, DW_AT_decl_line(0x13e)
    1555                            .dwattr $C$DW$102, DW_AT_decl_column(0x0e)
    1556                    
    1557                    $C$DW$103       .dwtag  DW_TAG_member
    1558                            .dwattr $C$DW$103, DW_AT_type(*$C$DW$T$34)
    1559                            .dwattr $C$DW$103, DW_AT_name("_reserved0")
    1560                            .dwattr $C$DW$103, DW_AT_TI_symbol_name("_reserved0")
    1561                            .dwattr $C$DW$103, DW_AT_bit_offset(0x16)
    1562                            .dwattr $C$DW$103, DW_AT_bit_size(0x01)
    1563                            .dwattr $C$DW$103, DW_AT_data_member_location[DW_OP_plus_uconst 0x0]
    1564                            .dwattr $C$DW$103, DW_AT_accessibility(DW_ACCESS_public)
    1565                            .dwattr $C$DW$103, DW_AT_decl_file("C:/ti/ccs1200/ccs/ccs_base/arm/include/CMSIS/core_cm4.h")
    1566                            .dwattr $C$DW$103, DW_AT_decl_line(0x13f)
    1567                            .dwattr $C$DW$103, DW_AT_decl_column(0x0e)
    1568                    
    1569                    $C$DW$104       .dwtag  DW_TAG_member
    1570                            .dwattr $C$DW$104, DW_AT_type(*$C$DW$T$34)
    1571                            .dwattr $C$DW$104, DW_AT_name("ICI_IT_1")
    1572                            .dwattr $C$DW$104, DW_AT_TI_symbol_name("ICI_IT_1")
    1573                            .dwattr $C$DW$104, DW_AT_bit_offset(0x10)
    1574                            .dwattr $C$DW$104, DW_AT_bit_size(0x06)
    1575                            .dwattr $C$DW$104, DW_AT_data_member_location[DW_OP_plus_uconst 0x0]
    1576                            .dwattr $C$DW$104, DW_AT_accessibility(DW_ACCESS_public)
    1577                            .dwattr $C$DW$104, DW_AT_decl_file("C:/ti/ccs1200/ccs/ccs_base/arm/include/CMSIS/core_cm4.h")
    1578                            .dwattr $C$DW$104, DW_AT_decl_line(0x140)
    1579                            .dwattr $C$DW$104, DW_AT_decl_column(0x0e)
    1580                    
    1581                    $C$DW$105       .dwtag  DW_TAG_member
    1582                            .dwattr $C$DW$105, DW_AT_type(*$C$DW$T$34)
    1583                            .dwattr $C$DW$105, DW_AT_name("GE")
    1584                            .dwattr $C$DW$105, DW_AT_TI_symbol_name("GE")
    1585                            .dwattr $C$DW$105, DW_AT_bit_offset(0x0c)
    1586                            .dwattr $C$DW$105, DW_AT_bit_size(0x04)
    1587                            .dwattr $C$DW$105, DW_AT_data_member_location[DW_OP_plus_uconst 0x0]
    1588                            .dwattr $C$DW$105, DW_AT_accessibility(DW_ACCESS_public)
    1589                            .dwattr $C$DW$105, DW_AT_decl_file("C:/ti/ccs1200/ccs/ccs_base/arm/include/CMSIS/core_cm4.h")
    1590                            .dwattr $C$DW$105, DW_AT_decl_line(0x141)
    1591                            .dwattr $C$DW$105, DW_AT_decl_column(0x0e)
TI ARM Assembler PC v20.2.6 Mon Oct 31 23:16:56 2022

Copyright (c) 1996-2018 Texas Instruments Incorporated
main.asm                                                             PAGE   30

    1592                    
    1593                    $C$DW$106       .dwtag  DW_TAG_member
    1594                            .dwattr $C$DW$106, DW_AT_type(*$C$DW$T$34)
    1595                            .dwattr $C$DW$106, DW_AT_name("_reserved1")
    1596                            .dwattr $C$DW$106, DW_AT_TI_symbol_name("_reserved1")
    1597                            .dwattr $C$DW$106, DW_AT_bit_offset(0x08)
    1598                            .dwattr $C$DW$106, DW_AT_bit_size(0x04)
    1599                            .dwattr $C$DW$106, DW_AT_data_member_location[DW_OP_plus_uconst 0x0]
    1600                            .dwattr $C$DW$106, DW_AT_accessibility(DW_ACCESS_public)
    1601                            .dwattr $C$DW$106, DW_AT_decl_file("C:/ti/ccs1200/ccs/ccs_base/arm/include/CMSIS/core_cm4.h")
    1602                            .dwattr $C$DW$106, DW_AT_decl_line(0x142)
    1603                            .dwattr $C$DW$106, DW_AT_decl_column(0x0e)
    1604                    
    1605                    $C$DW$107       .dwtag  DW_TAG_member
    1606                            .dwattr $C$DW$107, DW_AT_type(*$C$DW$T$34)
    1607                            .dwattr $C$DW$107, DW_AT_name("T")
    1608                            .dwattr $C$DW$107, DW_AT_TI_symbol_name("T")
    1609                            .dwattr $C$DW$107, DW_AT_bit_offset(0x07)
    1610                            .dwattr $C$DW$107, DW_AT_bit_size(0x01)
    1611                            .dwattr $C$DW$107, DW_AT_data_member_location[DW_OP_plus_uconst 0x0]
    1612                            .dwattr $C$DW$107, DW_AT_accessibility(DW_ACCESS_public)
    1613                            .dwattr $C$DW$107, DW_AT_decl_file("C:/ti/ccs1200/ccs/ccs_base/arm/include/CMSIS/core_cm4.h")
    1614                            .dwattr $C$DW$107, DW_AT_decl_line(0x143)
    1615                            .dwattr $C$DW$107, DW_AT_decl_column(0x0e)
    1616                    
    1617                    $C$DW$108       .dwtag  DW_TAG_member
    1618                            .dwattr $C$DW$108, DW_AT_type(*$C$DW$T$34)
    1619                            .dwattr $C$DW$108, DW_AT_name("ICI_IT_2")
    1620                            .dwattr $C$DW$108, DW_AT_TI_symbol_name("ICI_IT_2")
    1621                            .dwattr $C$DW$108, DW_AT_bit_offset(0x05)
    1622                            .dwattr $C$DW$108, DW_AT_bit_size(0x02)
    1623                            .dwattr $C$DW$108, DW_AT_data_member_location[DW_OP_plus_uconst 0x0]
    1624                            .dwattr $C$DW$108, DW_AT_accessibility(DW_ACCESS_public)
    1625                            .dwattr $C$DW$108, DW_AT_decl_file("C:/ti/ccs1200/ccs/ccs_base/arm/include/CMSIS/core_cm4.h")
    1626                            .dwattr $C$DW$108, DW_AT_decl_line(0x144)
    1627                            .dwattr $C$DW$108, DW_AT_decl_column(0x0e)
    1628                    
    1629                    $C$DW$109       .dwtag  DW_TAG_member
    1630                            .dwattr $C$DW$109, DW_AT_type(*$C$DW$T$34)
    1631                            .dwattr $C$DW$109, DW_AT_name("Q")
    1632                            .dwattr $C$DW$109, DW_AT_TI_symbol_name("Q")
    1633                            .dwattr $C$DW$109, DW_AT_bit_offset(0x04)
    1634                            .dwattr $C$DW$109, DW_AT_bit_size(0x01)
    1635                            .dwattr $C$DW$109, DW_AT_data_member_location[DW_OP_plus_uconst 0x0]
    1636                            .dwattr $C$DW$109, DW_AT_accessibility(DW_ACCESS_public)
    1637                            .dwattr $C$DW$109, DW_AT_decl_file("C:/ti/ccs1200/ccs/ccs_base/arm/include/CMSIS/core_cm4.h")
    1638                            .dwattr $C$DW$109, DW_AT_decl_line(0x145)
    1639                            .dwattr $C$DW$109, DW_AT_decl_column(0x0e)
    1640                    
    1641                    $C$DW$110       .dwtag  DW_TAG_member
    1642                            .dwattr $C$DW$110, DW_AT_type(*$C$DW$T$34)
    1643                            .dwattr $C$DW$110, DW_AT_name("V")
    1644                            .dwattr $C$DW$110, DW_AT_TI_symbol_name("V")
    1645                            .dwattr $C$DW$110, DW_AT_bit_offset(0x03)
    1646                            .dwattr $C$DW$110, DW_AT_bit_size(0x01)
TI ARM Assembler PC v20.2.6 Mon Oct 31 23:16:56 2022

Copyright (c) 1996-2018 Texas Instruments Incorporated
main.asm                                                             PAGE   31

    1647                            .dwattr $C$DW$110, DW_AT_data_member_location[DW_OP_plus_uconst 0x0]
    1648                            .dwattr $C$DW$110, DW_AT_accessibility(DW_ACCESS_public)
    1649                            .dwattr $C$DW$110, DW_AT_decl_file("C:/ti/ccs1200/ccs/ccs_base/arm/include/CMSIS/core_cm4.h")
    1650                            .dwattr $C$DW$110, DW_AT_decl_line(0x146)
    1651                            .dwattr $C$DW$110, DW_AT_decl_column(0x0e)
    1652                    
    1653                    $C$DW$111       .dwtag  DW_TAG_member
    1654                            .dwattr $C$DW$111, DW_AT_type(*$C$DW$T$34)
    1655                            .dwattr $C$DW$111, DW_AT_name("C")
    1656                            .dwattr $C$DW$111, DW_AT_TI_symbol_name("C")
    1657                            .dwattr $C$DW$111, DW_AT_bit_offset(0x02)
    1658                            .dwattr $C$DW$111, DW_AT_bit_size(0x01)
    1659                            .dwattr $C$DW$111, DW_AT_data_member_location[DW_OP_plus_uconst 0x0]
    1660                            .dwattr $C$DW$111, DW_AT_accessibility(DW_ACCESS_public)
    1661                            .dwattr $C$DW$111, DW_AT_decl_file("C:/ti/ccs1200/ccs/ccs_base/arm/include/CMSIS/core_cm4.h")
    1662                            .dwattr $C$DW$111, DW_AT_decl_line(0x147)
    1663                            .dwattr $C$DW$111, DW_AT_decl_column(0x0e)
    1664                    
    1665                    $C$DW$112       .dwtag  DW_TAG_member
    1666                            .dwattr $C$DW$112, DW_AT_type(*$C$DW$T$34)
    1667                            .dwattr $C$DW$112, DW_AT_name("Z")
    1668                            .dwattr $C$DW$112, DW_AT_TI_symbol_name("Z")
    1669                            .dwattr $C$DW$112, DW_AT_bit_offset(0x01)
    1670                            .dwattr $C$DW$112, DW_AT_bit_size(0x01)
    1671                            .dwattr $C$DW$112, DW_AT_data_member_location[DW_OP_plus_uconst 0x0]
    1672                            .dwattr $C$DW$112, DW_AT_accessibility(DW_ACCESS_public)
    1673                            .dwattr $C$DW$112, DW_AT_decl_file("C:/ti/ccs1200/ccs/ccs_base/arm/include/CMSIS/core_cm4.h")
    1674                            .dwattr $C$DW$112, DW_AT_decl_line(0x148)
    1675                            .dwattr $C$DW$112, DW_AT_decl_column(0x0e)
    1676                    
    1677                    $C$DW$113       .dwtag  DW_TAG_member
    1678                            .dwattr $C$DW$113, DW_AT_type(*$C$DW$T$34)
    1679                            .dwattr $C$DW$113, DW_AT_name("N")
    1680                            .dwattr $C$DW$113, DW_AT_TI_symbol_name("N")
    1681                            .dwattr $C$DW$113, DW_AT_bit_offset(0x00)
    1682                            .dwattr $C$DW$113, DW_AT_bit_size(0x01)
    1683                            .dwattr $C$DW$113, DW_AT_data_member_location[DW_OP_plus_uconst 0x0]
    1684                            .dwattr $C$DW$113, DW_AT_accessibility(DW_ACCESS_public)
    1685                            .dwattr $C$DW$113, DW_AT_decl_file("C:/ti/ccs1200/ccs/ccs_base/arm/include/CMSIS/core_cm4.h")
    1686                            .dwattr $C$DW$113, DW_AT_decl_line(0x149)
    1687                            .dwattr $C$DW$113, DW_AT_decl_column(0x0e)
    1688                    
    1689                            .dwattr $C$DW$T$37, DW_AT_decl_file("C:/ti/ccs1200/ccs/ccs_base/arm/include/CMSIS/core_cm4.h")
    1690                            .dwattr $C$DW$T$37, DW_AT_decl_line(0x13d)
    1691                            .dwattr $C$DW$T$37, DW_AT_decl_column(0x03)
    1692                            .dwendtag $C$DW$T$37
    1693                    
    1694                    
    1695                    $C$DW$T$38      .dwtag  DW_TAG_structure_type
    1696                            .dwattr $C$DW$T$38, DW_AT_byte_size(0x04)
    1697                    $C$DW$114       .dwtag  DW_TAG_member
    1698                            .dwattr $C$DW$114, DW_AT_type(*$C$DW$T$34)
    1699                            .dwattr $C$DW$114, DW_AT_name("nPRIV")
    1700                            .dwattr $C$DW$114, DW_AT_TI_symbol_name("nPRIV")
    1701                            .dwattr $C$DW$114, DW_AT_bit_offset(0x1f)
TI ARM Assembler PC v20.2.6 Mon Oct 31 23:16:56 2022

Copyright (c) 1996-2018 Texas Instruments Incorporated
main.asm                                                             PAGE   32

    1702                            .dwattr $C$DW$114, DW_AT_bit_size(0x01)
    1703                            .dwattr $C$DW$114, DW_AT_data_member_location[DW_OP_plus_uconst 0x0]
    1704                            .dwattr $C$DW$114, DW_AT_accessibility(DW_ACCESS_public)
    1705                            .dwattr $C$DW$114, DW_AT_decl_file("C:/ti/ccs1200/ccs/ccs_base/arm/include/CMSIS/core_cm4.h")
    1706                            .dwattr $C$DW$114, DW_AT_decl_line(0x175)
    1707                            .dwattr $C$DW$114, DW_AT_decl_column(0x0e)
    1708                    
    1709                    $C$DW$115       .dwtag  DW_TAG_member
    1710                            .dwattr $C$DW$115, DW_AT_type(*$C$DW$T$34)
    1711                            .dwattr $C$DW$115, DW_AT_name("SPSEL")
    1712                            .dwattr $C$DW$115, DW_AT_TI_symbol_name("SPSEL")
    1713                            .dwattr $C$DW$115, DW_AT_bit_offset(0x1e)
    1714                            .dwattr $C$DW$115, DW_AT_bit_size(0x01)
    1715                            .dwattr $C$DW$115, DW_AT_data_member_location[DW_OP_plus_uconst 0x0]
    1716                            .dwattr $C$DW$115, DW_AT_accessibility(DW_ACCESS_public)
    1717                            .dwattr $C$DW$115, DW_AT_decl_file("C:/ti/ccs1200/ccs/ccs_base/arm/include/CMSIS/core_cm4.h")
    1718                            .dwattr $C$DW$115, DW_AT_decl_line(0x176)
    1719                            .dwattr $C$DW$115, DW_AT_decl_column(0x0e)
    1720                    
    1721                    $C$DW$116       .dwtag  DW_TAG_member
    1722                            .dwattr $C$DW$116, DW_AT_type(*$C$DW$T$34)
    1723                            .dwattr $C$DW$116, DW_AT_name("FPCA")
    1724                            .dwattr $C$DW$116, DW_AT_TI_symbol_name("FPCA")
    1725                            .dwattr $C$DW$116, DW_AT_bit_offset(0x1d)
    1726                            .dwattr $C$DW$116, DW_AT_bit_size(0x01)
    1727                            .dwattr $C$DW$116, DW_AT_data_member_location[DW_OP_plus_uconst 0x0]
    1728                            .dwattr $C$DW$116, DW_AT_accessibility(DW_ACCESS_public)
    1729                            .dwattr $C$DW$116, DW_AT_decl_file("C:/ti/ccs1200/ccs/ccs_base/arm/include/CMSIS/core_cm4.h")
    1730                            .dwattr $C$DW$116, DW_AT_decl_line(0x177)
    1731                            .dwattr $C$DW$116, DW_AT_decl_column(0x0e)
    1732                    
    1733                    $C$DW$117       .dwtag  DW_TAG_member
    1734                            .dwattr $C$DW$117, DW_AT_type(*$C$DW$T$34)
    1735                            .dwattr $C$DW$117, DW_AT_name("_reserved0")
    1736                            .dwattr $C$DW$117, DW_AT_TI_symbol_name("_reserved0")
    1737                            .dwattr $C$DW$117, DW_AT_bit_offset(0x00)
    1738                            .dwattr $C$DW$117, DW_AT_bit_size(0x1d)
    1739                            .dwattr $C$DW$117, DW_AT_data_member_location[DW_OP_plus_uconst 0x0]
    1740                            .dwattr $C$DW$117, DW_AT_accessibility(DW_ACCESS_public)
    1741                            .dwattr $C$DW$117, DW_AT_decl_file("C:/ti/ccs1200/ccs/ccs_base/arm/include/CMSIS/core_cm4.h")
    1742                            .dwattr $C$DW$117, DW_AT_decl_line(0x178)
    1743                            .dwattr $C$DW$117, DW_AT_decl_column(0x0e)
    1744                    
    1745                            .dwattr $C$DW$T$38, DW_AT_decl_file("C:/ti/ccs1200/ccs/ccs_base/arm/include/CMSIS/core_cm4.h")
    1746                            .dwattr $C$DW$T$38, DW_AT_decl_line(0x174)
    1747                            .dwattr $C$DW$T$38, DW_AT_decl_column(0x03)
    1748                            .dwendtag $C$DW$T$38
    1749                    
    1750                    
    1751                    $C$DW$T$45      .dwtag  DW_TAG_structure_type
    1752                            .dwattr $C$DW$T$45, DW_AT_byte_size(0xe04)
    1753                    $C$DW$118       .dwtag  DW_TAG_member
    1754                            .dwattr $C$DW$118, DW_AT_type(*$C$DW$T$40)
    1755                            .dwattr $C$DW$118, DW_AT_name("ISER")
    1756                            .dwattr $C$DW$118, DW_AT_TI_symbol_name("ISER")
TI ARM Assembler PC v20.2.6 Mon Oct 31 23:16:56 2022

Copyright (c) 1996-2018 Texas Instruments Incorporated
main.asm                                                             PAGE   33

    1757                            .dwattr $C$DW$118, DW_AT_data_member_location[DW_OP_plus_uconst 0x0]
    1758                            .dwattr $C$DW$118, DW_AT_accessibility(DW_ACCESS_public)
    1759                            .dwattr $C$DW$118, DW_AT_decl_file("C:/ti/ccs1200/ccs/ccs_base/arm/include/CMSIS/core_cm4.h")
    1760                            .dwattr $C$DW$118, DW_AT_decl_line(0x196)
    1761                            .dwattr $C$DW$118, DW_AT_decl_column(0x12)
    1762                    
    1763                    $C$DW$119       .dwtag  DW_TAG_member
    1764                            .dwattr $C$DW$119, DW_AT_type(*$C$DW$T$41)
    1765                            .dwattr $C$DW$119, DW_AT_name("RESERVED0")
    1766                            .dwattr $C$DW$119, DW_AT_TI_symbol_name("RESERVED0")
    1767                            .dwattr $C$DW$119, DW_AT_data_member_location[DW_OP_plus_uconst 0x20]
    1768                            .dwattr $C$DW$119, DW_AT_accessibility(DW_ACCESS_public)
    1769                            .dwattr $C$DW$119, DW_AT_decl_file("C:/ti/ccs1200/ccs/ccs_base/arm/include/CMSIS/core_cm4.h")
    1770                            .dwattr $C$DW$119, DW_AT_decl_line(0x197)
    1771                            .dwattr $C$DW$119, DW_AT_decl_column(0x12)
    1772                    
    1773                    $C$DW$120       .dwtag  DW_TAG_member
    1774                            .dwattr $C$DW$120, DW_AT_type(*$C$DW$T$40)
    1775                            .dwattr $C$DW$120, DW_AT_name("ICER")
    1776                            .dwattr $C$DW$120, DW_AT_TI_symbol_name("ICER")
    1777                            .dwattr $C$DW$120, DW_AT_data_member_location[DW_OP_plus_uconst 0x80]
    1778                            .dwattr $C$DW$120, DW_AT_accessibility(DW_ACCESS_public)
    1779                            .dwattr $C$DW$120, DW_AT_decl_file("C:/ti/ccs1200/ccs/ccs_base/arm/include/CMSIS/core_cm4.h")
    1780                            .dwattr $C$DW$120, DW_AT_decl_line(0x198)
    1781                            .dwattr $C$DW$120, DW_AT_decl_column(0x12)
    1782                    
    1783                    $C$DW$121       .dwtag  DW_TAG_member
    1784                            .dwattr $C$DW$121, DW_AT_type(*$C$DW$T$41)
    1785                            .dwattr $C$DW$121, DW_AT_name("RSERVED1")
    1786                            .dwattr $C$DW$121, DW_AT_TI_symbol_name("RSERVED1")
    1787                            .dwattr $C$DW$121, DW_AT_data_member_location[DW_OP_plus_uconst 0xa0]
    1788                            .dwattr $C$DW$121, DW_AT_accessibility(DW_ACCESS_public)
    1789                            .dwattr $C$DW$121, DW_AT_decl_file("C:/ti/ccs1200/ccs/ccs_base/arm/include/CMSIS/core_cm4.h")
    1790                            .dwattr $C$DW$121, DW_AT_decl_line(0x199)
    1791                            .dwattr $C$DW$121, DW_AT_decl_column(0x12)
    1792                    
    1793                    $C$DW$122       .dwtag  DW_TAG_member
    1794                            .dwattr $C$DW$122, DW_AT_type(*$C$DW$T$40)
    1795                            .dwattr $C$DW$122, DW_AT_name("ISPR")
    1796                            .dwattr $C$DW$122, DW_AT_TI_symbol_name("ISPR")
    1797                            .dwattr $C$DW$122, DW_AT_data_member_location[DW_OP_plus_uconst 0x100]
    1798                            .dwattr $C$DW$122, DW_AT_accessibility(DW_ACCESS_public)
    1799                            .dwattr $C$DW$122, DW_AT_decl_file("C:/ti/ccs1200/ccs/ccs_base/arm/include/CMSIS/core_cm4.h")
    1800                            .dwattr $C$DW$122, DW_AT_decl_line(0x19a)
    1801                            .dwattr $C$DW$122, DW_AT_decl_column(0x12)
    1802                    
    1803                    $C$DW$123       .dwtag  DW_TAG_member
    1804                            .dwattr $C$DW$123, DW_AT_type(*$C$DW$T$41)
    1805                            .dwattr $C$DW$123, DW_AT_name("RESERVED2")
    1806                            .dwattr $C$DW$123, DW_AT_TI_symbol_name("RESERVED2")
    1807                            .dwattr $C$DW$123, DW_AT_data_member_location[DW_OP_plus_uconst 0x120]
    1808                            .dwattr $C$DW$123, DW_AT_accessibility(DW_ACCESS_public)
    1809                            .dwattr $C$DW$123, DW_AT_decl_file("C:/ti/ccs1200/ccs/ccs_base/arm/include/CMSIS/core_cm4.h")
    1810                            .dwattr $C$DW$123, DW_AT_decl_line(0x19b)
    1811                            .dwattr $C$DW$123, DW_AT_decl_column(0x12)
TI ARM Assembler PC v20.2.6 Mon Oct 31 23:16:56 2022

Copyright (c) 1996-2018 Texas Instruments Incorporated
main.asm                                                             PAGE   34

    1812                    
    1813                    $C$DW$124       .dwtag  DW_TAG_member
    1814                            .dwattr $C$DW$124, DW_AT_type(*$C$DW$T$40)
    1815                            .dwattr $C$DW$124, DW_AT_name("ICPR")
    1816                            .dwattr $C$DW$124, DW_AT_TI_symbol_name("ICPR")
    1817                            .dwattr $C$DW$124, DW_AT_data_member_location[DW_OP_plus_uconst 0x180]
    1818                            .dwattr $C$DW$124, DW_AT_accessibility(DW_ACCESS_public)
    1819                            .dwattr $C$DW$124, DW_AT_decl_file("C:/ti/ccs1200/ccs/ccs_base/arm/include/CMSIS/core_cm4.h")
    1820                            .dwattr $C$DW$124, DW_AT_decl_line(0x19c)
    1821                            .dwattr $C$DW$124, DW_AT_decl_column(0x12)
    1822                    
    1823                    $C$DW$125       .dwtag  DW_TAG_member
    1824                            .dwattr $C$DW$125, DW_AT_type(*$C$DW$T$41)
    1825                            .dwattr $C$DW$125, DW_AT_name("RESERVED3")
    1826                            .dwattr $C$DW$125, DW_AT_TI_symbol_name("RESERVED3")
    1827                            .dwattr $C$DW$125, DW_AT_data_member_location[DW_OP_plus_uconst 0x1a0]
    1828                            .dwattr $C$DW$125, DW_AT_accessibility(DW_ACCESS_public)
    1829                            .dwattr $C$DW$125, DW_AT_decl_file("C:/ti/ccs1200/ccs/ccs_base/arm/include/CMSIS/core_cm4.h")
    1830                            .dwattr $C$DW$125, DW_AT_decl_line(0x19d)
    1831                            .dwattr $C$DW$125, DW_AT_decl_column(0x12)
    1832                    
    1833                    $C$DW$126       .dwtag  DW_TAG_member
    1834                            .dwattr $C$DW$126, DW_AT_type(*$C$DW$T$40)
    1835                            .dwattr $C$DW$126, DW_AT_name("IABR")
    1836                            .dwattr $C$DW$126, DW_AT_TI_symbol_name("IABR")
    1837                            .dwattr $C$DW$126, DW_AT_data_member_location[DW_OP_plus_uconst 0x200]
    1838                            .dwattr $C$DW$126, DW_AT_accessibility(DW_ACCESS_public)
    1839                            .dwattr $C$DW$126, DW_AT_decl_file("C:/ti/ccs1200/ccs/ccs_base/arm/include/CMSIS/core_cm4.h")
    1840                            .dwattr $C$DW$126, DW_AT_decl_line(0x19e)
    1841                            .dwattr $C$DW$126, DW_AT_decl_column(0x12)
    1842                    
    1843                    $C$DW$127       .dwtag  DW_TAG_member
    1844                            .dwattr $C$DW$127, DW_AT_type(*$C$DW$T$42)
    1845                            .dwattr $C$DW$127, DW_AT_name("RESERVED4")
    1846                            .dwattr $C$DW$127, DW_AT_TI_symbol_name("RESERVED4")
    1847                            .dwattr $C$DW$127, DW_AT_data_member_location[DW_OP_plus_uconst 0x220]
    1848                            .dwattr $C$DW$127, DW_AT_accessibility(DW_ACCESS_public)
    1849                            .dwattr $C$DW$127, DW_AT_decl_file("C:/ti/ccs1200/ccs/ccs_base/arm/include/CMSIS/core_cm4.h")
    1850                            .dwattr $C$DW$127, DW_AT_decl_line(0x19f)
    1851                            .dwattr $C$DW$127, DW_AT_decl_column(0x12)
    1852                    
    1853                    $C$DW$128       .dwtag  DW_TAG_member
    1854                            .dwattr $C$DW$128, DW_AT_type(*$C$DW$T$43)
    1855                            .dwattr $C$DW$128, DW_AT_name("IP")
    1856                            .dwattr $C$DW$128, DW_AT_TI_symbol_name("IP")
    1857                            .dwattr $C$DW$128, DW_AT_data_member_location[DW_OP_plus_uconst 0x300]
    1858                            .dwattr $C$DW$128, DW_AT_accessibility(DW_ACCESS_public)
    1859                            .dwattr $C$DW$128, DW_AT_decl_file("C:/ti/ccs1200/ccs/ccs_base/arm/include/CMSIS/core_cm4.h")
    1860                            .dwattr $C$DW$128, DW_AT_decl_line(0x1a0)
    1861                            .dwattr $C$DW$128, DW_AT_decl_column(0x12)
    1862                    
    1863                    $C$DW$129       .dwtag  DW_TAG_member
    1864                            .dwattr $C$DW$129, DW_AT_type(*$C$DW$T$44)
    1865                            .dwattr $C$DW$129, DW_AT_name("RESERVED5")
    1866                            .dwattr $C$DW$129, DW_AT_TI_symbol_name("RESERVED5")
TI ARM Assembler PC v20.2.6 Mon Oct 31 23:16:56 2022

Copyright (c) 1996-2018 Texas Instruments Incorporated
main.asm                                                             PAGE   35

    1867                            .dwattr $C$DW$129, DW_AT_data_member_location[DW_OP_plus_uconst 0x3f0]
    1868                            .dwattr $C$DW$129, DW_AT_accessibility(DW_ACCESS_public)
    1869                            .dwattr $C$DW$129, DW_AT_decl_file("C:/ti/ccs1200/ccs/ccs_base/arm/include/CMSIS/core_cm4.h")
    1870                            .dwattr $C$DW$129, DW_AT_decl_line(0x1a1)
    1871                            .dwattr $C$DW$129, DW_AT_decl_column(0x12)
    1872                    
    1873                    $C$DW$130       .dwtag  DW_TAG_member
    1874                            .dwattr $C$DW$130, DW_AT_type(*$C$DW$T$39)
    1875                            .dwattr $C$DW$130, DW_AT_name("STIR")
    1876                            .dwattr $C$DW$130, DW_AT_TI_symbol_name("STIR")
    1877                            .dwattr $C$DW$130, DW_AT_data_member_location[DW_OP_plus_uconst 0xe00]
    1878                            .dwattr $C$DW$130, DW_AT_accessibility(DW_ACCESS_public)
    1879                            .dwattr $C$DW$130, DW_AT_decl_file("C:/ti/ccs1200/ccs/ccs_base/arm/include/CMSIS/core_cm4.h")
    1880                            .dwattr $C$DW$130, DW_AT_decl_line(0x1a2)
    1881                            .dwattr $C$DW$130, DW_AT_decl_column(0x12)
    1882                    
    1883                            .dwattr $C$DW$T$45, DW_AT_decl_file("C:/ti/ccs1200/ccs/ccs_base/arm/include/CMSIS/core_cm4.h")
    1884                            .dwattr $C$DW$T$45, DW_AT_decl_line(0x195)
    1885                            .dwattr $C$DW$T$45, DW_AT_decl_column(0x01)
    1886                            .dwendtag $C$DW$T$45
    1887                    
    1888                    $C$DW$T$184     .dwtag  DW_TAG_typedef
    1889                            .dwattr $C$DW$T$184, DW_AT_name("NVIC_Type")
    1890                            .dwattr $C$DW$T$184, DW_AT_type(*$C$DW$T$45)
    1891                            .dwattr $C$DW$T$184, DW_AT_language(DW_LANG_C)
    1892                            .dwattr $C$DW$T$184, DW_AT_decl_file("C:/ti/ccs1200/ccs/ccs_base/arm/include/CMSIS/core_cm4.h"
    1893                            .dwattr $C$DW$T$184, DW_AT_decl_line(0x1a3)
    1894                            .dwattr $C$DW$T$184, DW_AT_decl_column(0x04)
    1895                    
    1896                    
    1897                    $C$DW$T$52      .dwtag  DW_TAG_structure_type
    1898                            .dwattr $C$DW$T$52, DW_AT_byte_size(0x8c)
    1899                    $C$DW$131       .dwtag  DW_TAG_member
    1900                            .dwattr $C$DW$131, DW_AT_type(*$C$DW$T$46)
    1901                            .dwattr $C$DW$131, DW_AT_name("CPUID")
    1902                            .dwattr $C$DW$131, DW_AT_TI_symbol_name("CPUID")
    1903                            .dwattr $C$DW$131, DW_AT_data_member_location[DW_OP_plus_uconst 0x0]
    1904                            .dwattr $C$DW$131, DW_AT_accessibility(DW_ACCESS_public)
    1905                            .dwattr $C$DW$131, DW_AT_decl_file("C:/ti/ccs1200/ccs/ccs_base/arm/include/CMSIS/core_cm4.h")
    1906                            .dwattr $C$DW$131, DW_AT_decl_line(0x1b8)
    1907                            .dwattr $C$DW$131, DW_AT_decl_column(0x12)
    1908                    
    1909                    $C$DW$132       .dwtag  DW_TAG_member
    1910                            .dwattr $C$DW$132, DW_AT_type(*$C$DW$T$39)
    1911                            .dwattr $C$DW$132, DW_AT_name("ICSR")
    1912                            .dwattr $C$DW$132, DW_AT_TI_symbol_name("ICSR")
    1913                            .dwattr $C$DW$132, DW_AT_data_member_location[DW_OP_plus_uconst 0x4]
    1914                            .dwattr $C$DW$132, DW_AT_accessibility(DW_ACCESS_public)
    1915                            .dwattr $C$DW$132, DW_AT_decl_file("C:/ti/ccs1200/ccs/ccs_base/arm/include/CMSIS/core_cm4.h")
    1916                            .dwattr $C$DW$132, DW_AT_decl_line(0x1b9)
    1917                            .dwattr $C$DW$132, DW_AT_decl_column(0x12)
    1918                    
    1919                    $C$DW$133       .dwtag  DW_TAG_member
    1920                            .dwattr $C$DW$133, DW_AT_type(*$C$DW$T$39)
    1921                            .dwattr $C$DW$133, DW_AT_name("VTOR")
TI ARM Assembler PC v20.2.6 Mon Oct 31 23:16:56 2022

Copyright (c) 1996-2018 Texas Instruments Incorporated
main.asm                                                             PAGE   36

    1922                            .dwattr $C$DW$133, DW_AT_TI_symbol_name("VTOR")
    1923                            .dwattr $C$DW$133, DW_AT_data_member_location[DW_OP_plus_uconst 0x8]
    1924                            .dwattr $C$DW$133, DW_AT_accessibility(DW_ACCESS_public)
    1925                            .dwattr $C$DW$133, DW_AT_decl_file("C:/ti/ccs1200/ccs/ccs_base/arm/include/CMSIS/core_cm4.h")
    1926                            .dwattr $C$DW$133, DW_AT_decl_line(0x1ba)
    1927                            .dwattr $C$DW$133, DW_AT_decl_column(0x12)
    1928                    
    1929                    $C$DW$134       .dwtag  DW_TAG_member
    1930                            .dwattr $C$DW$134, DW_AT_type(*$C$DW$T$39)
    1931                            .dwattr $C$DW$134, DW_AT_name("AIRCR")
    1932                            .dwattr $C$DW$134, DW_AT_TI_symbol_name("AIRCR")
    1933                            .dwattr $C$DW$134, DW_AT_data_member_location[DW_OP_plus_uconst 0xc]
    1934                            .dwattr $C$DW$134, DW_AT_accessibility(DW_ACCESS_public)
    1935                            .dwattr $C$DW$134, DW_AT_decl_file("C:/ti/ccs1200/ccs/ccs_base/arm/include/CMSIS/core_cm4.h")
    1936                            .dwattr $C$DW$134, DW_AT_decl_line(0x1bb)
    1937                            .dwattr $C$DW$134, DW_AT_decl_column(0x12)
    1938                    
    1939                    $C$DW$135       .dwtag  DW_TAG_member
    1940                            .dwattr $C$DW$135, DW_AT_type(*$C$DW$T$39)
    1941                            .dwattr $C$DW$135, DW_AT_name("SCR")
    1942                            .dwattr $C$DW$135, DW_AT_TI_symbol_name("SCR")
    1943                            .dwattr $C$DW$135, DW_AT_data_member_location[DW_OP_plus_uconst 0x10]
    1944                            .dwattr $C$DW$135, DW_AT_accessibility(DW_ACCESS_public)
    1945                            .dwattr $C$DW$135, DW_AT_decl_file("C:/ti/ccs1200/ccs/ccs_base/arm/include/CMSIS/core_cm4.h")
    1946                            .dwattr $C$DW$135, DW_AT_decl_line(0x1bc)
    1947                            .dwattr $C$DW$135, DW_AT_decl_column(0x12)
    1948                    
    1949                    $C$DW$136       .dwtag  DW_TAG_member
    1950                            .dwattr $C$DW$136, DW_AT_type(*$C$DW$T$39)
    1951                            .dwattr $C$DW$136, DW_AT_name("CCR")
    1952                            .dwattr $C$DW$136, DW_AT_TI_symbol_name("CCR")
    1953                            .dwattr $C$DW$136, DW_AT_data_member_location[DW_OP_plus_uconst 0x14]
    1954                            .dwattr $C$DW$136, DW_AT_accessibility(DW_ACCESS_public)
    1955                            .dwattr $C$DW$136, DW_AT_decl_file("C:/ti/ccs1200/ccs/ccs_base/arm/include/CMSIS/core_cm4.h")
    1956                            .dwattr $C$DW$136, DW_AT_decl_line(0x1bd)
    1957                            .dwattr $C$DW$136, DW_AT_decl_column(0x12)
    1958                    
    1959                    $C$DW$137       .dwtag  DW_TAG_member
    1960                            .dwattr $C$DW$137, DW_AT_type(*$C$DW$T$47)
    1961                            .dwattr $C$DW$137, DW_AT_name("SHP")
    1962                            .dwattr $C$DW$137, DW_AT_TI_symbol_name("SHP")
    1963                            .dwattr $C$DW$137, DW_AT_data_member_location[DW_OP_plus_uconst 0x18]
    1964                            .dwattr $C$DW$137, DW_AT_accessibility(DW_ACCESS_public)
    1965                            .dwattr $C$DW$137, DW_AT_decl_file("C:/ti/ccs1200/ccs/ccs_base/arm/include/CMSIS/core_cm4.h")
    1966                            .dwattr $C$DW$137, DW_AT_decl_line(0x1be)
    1967                            .dwattr $C$DW$137, DW_AT_decl_column(0x12)
    1968                    
    1969                    $C$DW$138       .dwtag  DW_TAG_member
    1970                            .dwattr $C$DW$138, DW_AT_type(*$C$DW$T$39)
    1971                            .dwattr $C$DW$138, DW_AT_name("SHCSR")
    1972                            .dwattr $C$DW$138, DW_AT_TI_symbol_name("SHCSR")
    1973                            .dwattr $C$DW$138, DW_AT_data_member_location[DW_OP_plus_uconst 0x24]
    1974                            .dwattr $C$DW$138, DW_AT_accessibility(DW_ACCESS_public)
    1975                            .dwattr $C$DW$138, DW_AT_decl_file("C:/ti/ccs1200/ccs/ccs_base/arm/include/CMSIS/core_cm4.h")
    1976                            .dwattr $C$DW$138, DW_AT_decl_line(0x1bf)
TI ARM Assembler PC v20.2.6 Mon Oct 31 23:16:56 2022

Copyright (c) 1996-2018 Texas Instruments Incorporated
main.asm                                                             PAGE   37

    1977                            .dwattr $C$DW$138, DW_AT_decl_column(0x12)
    1978                    
    1979                    $C$DW$139       .dwtag  DW_TAG_member
    1980                            .dwattr $C$DW$139, DW_AT_type(*$C$DW$T$39)
    1981                            .dwattr $C$DW$139, DW_AT_name("CFSR")
    1982                            .dwattr $C$DW$139, DW_AT_TI_symbol_name("CFSR")
    1983                            .dwattr $C$DW$139, DW_AT_data_member_location[DW_OP_plus_uconst 0x28]
    1984                            .dwattr $C$DW$139, DW_AT_accessibility(DW_ACCESS_public)
    1985                            .dwattr $C$DW$139, DW_AT_decl_file("C:/ti/ccs1200/ccs/ccs_base/arm/include/CMSIS/core_cm4.h")
    1986                            .dwattr $C$DW$139, DW_AT_decl_line(0x1c0)
    1987                            .dwattr $C$DW$139, DW_AT_decl_column(0x12)
    1988                    
    1989                    $C$DW$140       .dwtag  DW_TAG_member
    1990                            .dwattr $C$DW$140, DW_AT_type(*$C$DW$T$39)
    1991                            .dwattr $C$DW$140, DW_AT_name("HFSR")
    1992                            .dwattr $C$DW$140, DW_AT_TI_symbol_name("HFSR")
    1993                            .dwattr $C$DW$140, DW_AT_data_member_location[DW_OP_plus_uconst 0x2c]
    1994                            .dwattr $C$DW$140, DW_AT_accessibility(DW_ACCESS_public)
    1995                            .dwattr $C$DW$140, DW_AT_decl_file("C:/ti/ccs1200/ccs/ccs_base/arm/include/CMSIS/core_cm4.h")
    1996                            .dwattr $C$DW$140, DW_AT_decl_line(0x1c1)
    1997                            .dwattr $C$DW$140, DW_AT_decl_column(0x12)
    1998                    
    1999                    $C$DW$141       .dwtag  DW_TAG_member
    2000                            .dwattr $C$DW$141, DW_AT_type(*$C$DW$T$39)
    2001                            .dwattr $C$DW$141, DW_AT_name("DFSR")
    2002                            .dwattr $C$DW$141, DW_AT_TI_symbol_name("DFSR")
    2003                            .dwattr $C$DW$141, DW_AT_data_member_location[DW_OP_plus_uconst 0x30]
    2004                            .dwattr $C$DW$141, DW_AT_accessibility(DW_ACCESS_public)
    2005                            .dwattr $C$DW$141, DW_AT_decl_file("C:/ti/ccs1200/ccs/ccs_base/arm/include/CMSIS/core_cm4.h")
    2006                            .dwattr $C$DW$141, DW_AT_decl_line(0x1c2)
    2007                            .dwattr $C$DW$141, DW_AT_decl_column(0x12)
    2008                    
    2009                    $C$DW$142       .dwtag  DW_TAG_member
    2010                            .dwattr $C$DW$142, DW_AT_type(*$C$DW$T$39)
    2011                            .dwattr $C$DW$142, DW_AT_name("MMFAR")
    2012                            .dwattr $C$DW$142, DW_AT_TI_symbol_name("MMFAR")
    2013                            .dwattr $C$DW$142, DW_AT_data_member_location[DW_OP_plus_uconst 0x34]
    2014                            .dwattr $C$DW$142, DW_AT_accessibility(DW_ACCESS_public)
    2015                            .dwattr $C$DW$142, DW_AT_decl_file("C:/ti/ccs1200/ccs/ccs_base/arm/include/CMSIS/core_cm4.h")
    2016                            .dwattr $C$DW$142, DW_AT_decl_line(0x1c3)
    2017                            .dwattr $C$DW$142, DW_AT_decl_column(0x12)
    2018                    
    2019                    $C$DW$143       .dwtag  DW_TAG_member
    2020                            .dwattr $C$DW$143, DW_AT_type(*$C$DW$T$39)
    2021                            .dwattr $C$DW$143, DW_AT_name("BFAR")
    2022                            .dwattr $C$DW$143, DW_AT_TI_symbol_name("BFAR")
    2023                            .dwattr $C$DW$143, DW_AT_data_member_location[DW_OP_plus_uconst 0x38]
    2024                            .dwattr $C$DW$143, DW_AT_accessibility(DW_ACCESS_public)
    2025                            .dwattr $C$DW$143, DW_AT_decl_file("C:/ti/ccs1200/ccs/ccs_base/arm/include/CMSIS/core_cm4.h")
    2026                            .dwattr $C$DW$143, DW_AT_decl_line(0x1c4)
    2027                            .dwattr $C$DW$143, DW_AT_decl_column(0x12)
    2028                    
    2029                    $C$DW$144       .dwtag  DW_TAG_member
    2030                            .dwattr $C$DW$144, DW_AT_type(*$C$DW$T$39)
    2031                            .dwattr $C$DW$144, DW_AT_name("AFSR")
TI ARM Assembler PC v20.2.6 Mon Oct 31 23:16:56 2022

Copyright (c) 1996-2018 Texas Instruments Incorporated
main.asm                                                             PAGE   38

    2032                            .dwattr $C$DW$144, DW_AT_TI_symbol_name("AFSR")
    2033                            .dwattr $C$DW$144, DW_AT_data_member_location[DW_OP_plus_uconst 0x3c]
    2034                            .dwattr $C$DW$144, DW_AT_accessibility(DW_ACCESS_public)
    2035                            .dwattr $C$DW$144, DW_AT_decl_file("C:/ti/ccs1200/ccs/ccs_base/arm/include/CMSIS/core_cm4.h")
    2036                            .dwattr $C$DW$144, DW_AT_decl_line(0x1c5)
    2037                            .dwattr $C$DW$144, DW_AT_decl_column(0x12)
    2038                    
    2039                    $C$DW$145       .dwtag  DW_TAG_member
    2040                            .dwattr $C$DW$145, DW_AT_type(*$C$DW$T$48)
    2041                            .dwattr $C$DW$145, DW_AT_name("PFR")
    2042                            .dwattr $C$DW$145, DW_AT_TI_symbol_name("PFR")
    2043                            .dwattr $C$DW$145, DW_AT_data_member_location[DW_OP_plus_uconst 0x40]
    2044                            .dwattr $C$DW$145, DW_AT_accessibility(DW_ACCESS_public)
    2045                            .dwattr $C$DW$145, DW_AT_decl_file("C:/ti/ccs1200/ccs/ccs_base/arm/include/CMSIS/core_cm4.h")
    2046                            .dwattr $C$DW$145, DW_AT_decl_line(0x1c6)
    2047                            .dwattr $C$DW$145, DW_AT_decl_column(0x12)
    2048                    
    2049                    $C$DW$146       .dwtag  DW_TAG_member
    2050                            .dwattr $C$DW$146, DW_AT_type(*$C$DW$T$46)
    2051                            .dwattr $C$DW$146, DW_AT_name("DFR")
    2052                            .dwattr $C$DW$146, DW_AT_TI_symbol_name("DFR")
    2053                            .dwattr $C$DW$146, DW_AT_data_member_location[DW_OP_plus_uconst 0x48]
    2054                            .dwattr $C$DW$146, DW_AT_accessibility(DW_ACCESS_public)
    2055                            .dwattr $C$DW$146, DW_AT_decl_file("C:/ti/ccs1200/ccs/ccs_base/arm/include/CMSIS/core_cm4.h")
    2056                            .dwattr $C$DW$146, DW_AT_decl_line(0x1c7)
    2057                            .dwattr $C$DW$146, DW_AT_decl_column(0x12)
    2058                    
    2059                    $C$DW$147       .dwtag  DW_TAG_member
    2060                            .dwattr $C$DW$147, DW_AT_type(*$C$DW$T$46)
    2061                            .dwattr $C$DW$147, DW_AT_name("ADR")
    2062                            .dwattr $C$DW$147, DW_AT_TI_symbol_name("ADR")
    2063                            .dwattr $C$DW$147, DW_AT_data_member_location[DW_OP_plus_uconst 0x4c]
    2064                            .dwattr $C$DW$147, DW_AT_accessibility(DW_ACCESS_public)
    2065                            .dwattr $C$DW$147, DW_AT_decl_file("C:/ti/ccs1200/ccs/ccs_base/arm/include/CMSIS/core_cm4.h")
    2066                            .dwattr $C$DW$147, DW_AT_decl_line(0x1c8)
    2067                            .dwattr $C$DW$147, DW_AT_decl_column(0x12)
    2068                    
    2069                    $C$DW$148       .dwtag  DW_TAG_member
    2070                            .dwattr $C$DW$148, DW_AT_type(*$C$DW$T$49)
    2071                            .dwattr $C$DW$148, DW_AT_name("MMFR")
    2072                            .dwattr $C$DW$148, DW_AT_TI_symbol_name("MMFR")
    2073                            .dwattr $C$DW$148, DW_AT_data_member_location[DW_OP_plus_uconst 0x50]
    2074                            .dwattr $C$DW$148, DW_AT_accessibility(DW_ACCESS_public)
    2075                            .dwattr $C$DW$148, DW_AT_decl_file("C:/ti/ccs1200/ccs/ccs_base/arm/include/CMSIS/core_cm4.h")
    2076                            .dwattr $C$DW$148, DW_AT_decl_line(0x1c9)
    2077                            .dwattr $C$DW$148, DW_AT_decl_column(0x12)
    2078                    
    2079                    $C$DW$149       .dwtag  DW_TAG_member
    2080                            .dwattr $C$DW$149, DW_AT_type(*$C$DW$T$50)
    2081                            .dwattr $C$DW$149, DW_AT_name("ISAR")
    2082                            .dwattr $C$DW$149, DW_AT_TI_symbol_name("ISAR")
    2083                            .dwattr $C$DW$149, DW_AT_data_member_location[DW_OP_plus_uconst 0x60]
    2084                            .dwattr $C$DW$149, DW_AT_accessibility(DW_ACCESS_public)
    2085                            .dwattr $C$DW$149, DW_AT_decl_file("C:/ti/ccs1200/ccs/ccs_base/arm/include/CMSIS/core_cm4.h")
    2086                            .dwattr $C$DW$149, DW_AT_decl_line(0x1ca)
TI ARM Assembler PC v20.2.6 Mon Oct 31 23:16:56 2022

Copyright (c) 1996-2018 Texas Instruments Incorporated
main.asm                                                             PAGE   39

    2087                            .dwattr $C$DW$149, DW_AT_decl_column(0x12)
    2088                    
    2089                    $C$DW$150       .dwtag  DW_TAG_member
    2090                            .dwattr $C$DW$150, DW_AT_type(*$C$DW$T$51)
    2091                            .dwattr $C$DW$150, DW_AT_name("RESERVED0")
    2092                            .dwattr $C$DW$150, DW_AT_TI_symbol_name("RESERVED0")
    2093                            .dwattr $C$DW$150, DW_AT_data_member_location[DW_OP_plus_uconst 0x74]
    2094                            .dwattr $C$DW$150, DW_AT_accessibility(DW_ACCESS_public)
    2095                            .dwattr $C$DW$150, DW_AT_decl_file("C:/ti/ccs1200/ccs/ccs_base/arm/include/CMSIS/core_cm4.h")
    2096                            .dwattr $C$DW$150, DW_AT_decl_line(0x1cb)
    2097                            .dwattr $C$DW$150, DW_AT_decl_column(0x12)
    2098                    
    2099                    $C$DW$151       .dwtag  DW_TAG_member
    2100                            .dwattr $C$DW$151, DW_AT_type(*$C$DW$T$39)
    2101                            .dwattr $C$DW$151, DW_AT_name("CPACR")
    2102                            .dwattr $C$DW$151, DW_AT_TI_symbol_name("CPACR")
    2103                            .dwattr $C$DW$151, DW_AT_data_member_location[DW_OP_plus_uconst 0x88]
    2104                            .dwattr $C$DW$151, DW_AT_accessibility(DW_ACCESS_public)
    2105                            .dwattr $C$DW$151, DW_AT_decl_file("C:/ti/ccs1200/ccs/ccs_base/arm/include/CMSIS/core_cm4.h")
    2106                            .dwattr $C$DW$151, DW_AT_decl_line(0x1cc)
    2107                            .dwattr $C$DW$151, DW_AT_decl_column(0x12)
    2108                    
    2109                            .dwattr $C$DW$T$52, DW_AT_decl_file("C:/ti/ccs1200/ccs/ccs_base/arm/include/CMSIS/core_cm4.h")
    2110                            .dwattr $C$DW$T$52, DW_AT_decl_line(0x1b7)
    2111                            .dwattr $C$DW$T$52, DW_AT_decl_column(0x01)
    2112                            .dwendtag $C$DW$T$52
    2113                    
    2114                    $C$DW$T$185     .dwtag  DW_TAG_typedef
    2115                            .dwattr $C$DW$T$185, DW_AT_name("SCB_Type")
    2116                            .dwattr $C$DW$T$185, DW_AT_type(*$C$DW$T$52)
    2117                            .dwattr $C$DW$T$185, DW_AT_language(DW_LANG_C)
    2118                            .dwattr $C$DW$T$185, DW_AT_decl_file("C:/ti/ccs1200/ccs/ccs_base/arm/include/CMSIS/core_cm4.h"
    2119                            .dwattr $C$DW$T$185, DW_AT_decl_line(0x1cd)
    2120                            .dwattr $C$DW$T$185, DW_AT_decl_column(0x03)
    2121                    
    2122                    
    2123                    $C$DW$T$54      .dwtag  DW_TAG_structure_type
    2124                            .dwattr $C$DW$T$54, DW_AT_byte_size(0x0c)
    2125                    $C$DW$152       .dwtag  DW_TAG_member
    2126                            .dwattr $C$DW$152, DW_AT_type(*$C$DW$T$53)
    2127                            .dwattr $C$DW$152, DW_AT_name("RESERVED0")
    2128                            .dwattr $C$DW$152, DW_AT_TI_symbol_name("RESERVED0")
    2129                            .dwattr $C$DW$152, DW_AT_data_member_location[DW_OP_plus_uconst 0x0]
    2130                            .dwattr $C$DW$152, DW_AT_accessibility(DW_ACCESS_public)
    2131                            .dwattr $C$DW$152, DW_AT_decl_file("C:/ti/ccs1200/ccs/ccs_base/arm/include/CMSIS/core_cm4.h")
    2132                            .dwattr $C$DW$152, DW_AT_decl_line(0x2cf)
    2133                            .dwattr $C$DW$152, DW_AT_decl_column(0x12)
    2134                    
    2135                    $C$DW$153       .dwtag  DW_TAG_member
    2136                            .dwattr $C$DW$153, DW_AT_type(*$C$DW$T$46)
    2137                            .dwattr $C$DW$153, DW_AT_name("ICTR")
    2138                            .dwattr $C$DW$153, DW_AT_TI_symbol_name("ICTR")
    2139                            .dwattr $C$DW$153, DW_AT_data_member_location[DW_OP_plus_uconst 0x4]
    2140                            .dwattr $C$DW$153, DW_AT_accessibility(DW_ACCESS_public)
    2141                            .dwattr $C$DW$153, DW_AT_decl_file("C:/ti/ccs1200/ccs/ccs_base/arm/include/CMSIS/core_cm4.h")
TI ARM Assembler PC v20.2.6 Mon Oct 31 23:16:56 2022

Copyright (c) 1996-2018 Texas Instruments Incorporated
main.asm                                                             PAGE   40

    2142                            .dwattr $C$DW$153, DW_AT_decl_line(0x2d0)
    2143                            .dwattr $C$DW$153, DW_AT_decl_column(0x12)
    2144                    
    2145                    $C$DW$154       .dwtag  DW_TAG_member
    2146                            .dwattr $C$DW$154, DW_AT_type(*$C$DW$T$39)
    2147                            .dwattr $C$DW$154, DW_AT_name("ACTLR")
    2148                            .dwattr $C$DW$154, DW_AT_TI_symbol_name("ACTLR")
    2149                            .dwattr $C$DW$154, DW_AT_data_member_location[DW_OP_plus_uconst 0x8]
    2150                            .dwattr $C$DW$154, DW_AT_accessibility(DW_ACCESS_public)
    2151                            .dwattr $C$DW$154, DW_AT_decl_file("C:/ti/ccs1200/ccs/ccs_base/arm/include/CMSIS/core_cm4.h")
    2152                            .dwattr $C$DW$154, DW_AT_decl_line(0x2d1)
    2153                            .dwattr $C$DW$154, DW_AT_decl_column(0x12)
    2154                    
    2155                            .dwattr $C$DW$T$54, DW_AT_decl_file("C:/ti/ccs1200/ccs/ccs_base/arm/include/CMSIS/core_cm4.h")
    2156                            .dwattr $C$DW$T$54, DW_AT_decl_line(0x2ce)
    2157                            .dwattr $C$DW$T$54, DW_AT_decl_column(0x01)
    2158                            .dwendtag $C$DW$T$54
    2159                    
    2160                    $C$DW$T$186     .dwtag  DW_TAG_typedef
    2161                            .dwattr $C$DW$T$186, DW_AT_name("SCnSCB_Type")
    2162                            .dwattr $C$DW$T$186, DW_AT_type(*$C$DW$T$54)
    2163                            .dwattr $C$DW$T$186, DW_AT_language(DW_LANG_C)
    2164                            .dwattr $C$DW$T$186, DW_AT_decl_file("C:/ti/ccs1200/ccs/ccs_base/arm/include/CMSIS/core_cm4.h"
    2165                            .dwattr $C$DW$T$186, DW_AT_decl_line(0x2d2)
    2166                            .dwattr $C$DW$T$186, DW_AT_decl_column(0x03)
    2167                    
    2168                    
    2169                    $C$DW$T$55      .dwtag  DW_TAG_structure_type
    2170                            .dwattr $C$DW$T$55, DW_AT_byte_size(0x10)
    2171                    $C$DW$155       .dwtag  DW_TAG_member
    2172                            .dwattr $C$DW$155, DW_AT_type(*$C$DW$T$39)
    2173                            .dwattr $C$DW$155, DW_AT_name("CTRL")
    2174                            .dwattr $C$DW$155, DW_AT_TI_symbol_name("CTRL")
    2175                            .dwattr $C$DW$155, DW_AT_data_member_location[DW_OP_plus_uconst 0x0]
    2176                            .dwattr $C$DW$155, DW_AT_accessibility(DW_ACCESS_public)
    2177                            .dwattr $C$DW$155, DW_AT_decl_file("C:/ti/ccs1200/ccs/ccs_base/arm/include/CMSIS/core_cm4.h")
    2178                            .dwattr $C$DW$155, DW_AT_decl_line(0x2f7)
    2179                            .dwattr $C$DW$155, DW_AT_decl_column(0x12)
    2180                    
    2181                    $C$DW$156       .dwtag  DW_TAG_member
    2182                            .dwattr $C$DW$156, DW_AT_type(*$C$DW$T$39)
    2183                            .dwattr $C$DW$156, DW_AT_name("LOAD")
    2184                            .dwattr $C$DW$156, DW_AT_TI_symbol_name("LOAD")
    2185                            .dwattr $C$DW$156, DW_AT_data_member_location[DW_OP_plus_uconst 0x4]
    2186                            .dwattr $C$DW$156, DW_AT_accessibility(DW_ACCESS_public)
    2187                            .dwattr $C$DW$156, DW_AT_decl_file("C:/ti/ccs1200/ccs/ccs_base/arm/include/CMSIS/core_cm4.h")
    2188                            .dwattr $C$DW$156, DW_AT_decl_line(0x2f8)
    2189                            .dwattr $C$DW$156, DW_AT_decl_column(0x12)
    2190                    
    2191                    $C$DW$157       .dwtag  DW_TAG_member
    2192                            .dwattr $C$DW$157, DW_AT_type(*$C$DW$T$39)
    2193                            .dwattr $C$DW$157, DW_AT_name("VAL")
    2194                            .dwattr $C$DW$157, DW_AT_TI_symbol_name("VAL")
    2195                            .dwattr $C$DW$157, DW_AT_data_member_location[DW_OP_plus_uconst 0x8]
    2196                            .dwattr $C$DW$157, DW_AT_accessibility(DW_ACCESS_public)
TI ARM Assembler PC v20.2.6 Mon Oct 31 23:16:56 2022

Copyright (c) 1996-2018 Texas Instruments Incorporated
main.asm                                                             PAGE   41

    2197                            .dwattr $C$DW$157, DW_AT_decl_file("C:/ti/ccs1200/ccs/ccs_base/arm/include/CMSIS/core_cm4.h")
    2198                            .dwattr $C$DW$157, DW_AT_decl_line(0x2f9)
    2199                            .dwattr $C$DW$157, DW_AT_decl_column(0x12)
    2200                    
    2201                    $C$DW$158       .dwtag  DW_TAG_member
    2202                            .dwattr $C$DW$158, DW_AT_type(*$C$DW$T$46)
    2203                            .dwattr $C$DW$158, DW_AT_name("CALIB")
    2204                            .dwattr $C$DW$158, DW_AT_TI_symbol_name("CALIB")
    2205                            .dwattr $C$DW$158, DW_AT_data_member_location[DW_OP_plus_uconst 0xc]
    2206                            .dwattr $C$DW$158, DW_AT_accessibility(DW_ACCESS_public)
    2207                            .dwattr $C$DW$158, DW_AT_decl_file("C:/ti/ccs1200/ccs/ccs_base/arm/include/CMSIS/core_cm4.h")
    2208                            .dwattr $C$DW$158, DW_AT_decl_line(0x2fa)
    2209                            .dwattr $C$DW$158, DW_AT_decl_column(0x12)
    2210                    
    2211                            .dwattr $C$DW$T$55, DW_AT_decl_file("C:/ti/ccs1200/ccs/ccs_base/arm/include/CMSIS/core_cm4.h")
    2212                            .dwattr $C$DW$T$55, DW_AT_decl_line(0x2f6)
    2213                            .dwattr $C$DW$T$55, DW_AT_decl_column(0x01)
    2214                            .dwendtag $C$DW$T$55
    2215                    
    2216                    $C$DW$T$187     .dwtag  DW_TAG_typedef
    2217                            .dwattr $C$DW$T$187, DW_AT_name("SysTick_Type")
    2218                            .dwattr $C$DW$T$187, DW_AT_type(*$C$DW$T$55)
    2219                            .dwattr $C$DW$T$187, DW_AT_language(DW_LANG_C)
    2220                            .dwattr $C$DW$T$187, DW_AT_decl_file("C:/ti/ccs1200/ccs/ccs_base/arm/include/CMSIS/core_cm4.h"
    2221                            .dwattr $C$DW$T$187, DW_AT_decl_line(0x2fb)
    2222                            .dwattr $C$DW$T$187, DW_AT_decl_column(0x03)
    2223                    
    2224                    
    2225                    $C$DW$T$63      .dwtag  DW_TAG_structure_type
    2226                            .dwattr $C$DW$T$63, DW_AT_byte_size(0x1000)
    2227                    $C$DW$159       .dwtag  DW_TAG_member
    2228                            .dwattr $C$DW$159, DW_AT_type(*$C$DW$T$57)
    2229                            .dwattr $C$DW$159, DW_AT_name("PORT")
    2230                            .dwattr $C$DW$159, DW_AT_TI_symbol_name("PORT")
    2231                            .dwattr $C$DW$159, DW_AT_data_member_location[DW_OP_plus_uconst 0x0]
    2232                            .dwattr $C$DW$159, DW_AT_accessibility(DW_ACCESS_public)
    2233                            .dwattr $C$DW$159, DW_AT_decl_file("C:/ti/ccs1200/ccs/ccs_base/arm/include/CMSIS/core_cm4.h")
    2234                            .dwattr $C$DW$159, DW_AT_decl_line(0x330)
    2235                            .dwattr $C$DW$159, DW_AT_decl_column(0x06)
    2236                    
    2237                    $C$DW$160       .dwtag  DW_TAG_member
    2238                            .dwattr $C$DW$160, DW_AT_type(*$C$DW$T$58)
    2239                            .dwattr $C$DW$160, DW_AT_name("RESERVED0")
    2240                            .dwattr $C$DW$160, DW_AT_TI_symbol_name("RESERVED0")
    2241                            .dwattr $C$DW$160, DW_AT_data_member_location[DW_OP_plus_uconst 0x80]
    2242                            .dwattr $C$DW$160, DW_AT_accessibility(DW_ACCESS_public)
    2243                            .dwattr $C$DW$160, DW_AT_decl_file("C:/ti/ccs1200/ccs/ccs_base/arm/include/CMSIS/core_cm4.h")
    2244                            .dwattr $C$DW$160, DW_AT_decl_line(0x331)
    2245                            .dwattr $C$DW$160, DW_AT_decl_column(0x12)
    2246                    
    2247                    $C$DW$161       .dwtag  DW_TAG_member
    2248                            .dwattr $C$DW$161, DW_AT_type(*$C$DW$T$39)
    2249                            .dwattr $C$DW$161, DW_AT_name("TER")
    2250                            .dwattr $C$DW$161, DW_AT_TI_symbol_name("TER")
    2251                            .dwattr $C$DW$161, DW_AT_data_member_location[DW_OP_plus_uconst 0xe00]
TI ARM Assembler PC v20.2.6 Mon Oct 31 23:16:56 2022

Copyright (c) 1996-2018 Texas Instruments Incorporated
main.asm                                                             PAGE   42

    2252                            .dwattr $C$DW$161, DW_AT_accessibility(DW_ACCESS_public)
    2253                            .dwattr $C$DW$161, DW_AT_decl_file("C:/ti/ccs1200/ccs/ccs_base/arm/include/CMSIS/core_cm4.h")
    2254                            .dwattr $C$DW$161, DW_AT_decl_line(0x332)
    2255                            .dwattr $C$DW$161, DW_AT_decl_column(0x12)
    2256                    
    2257                    $C$DW$162       .dwtag  DW_TAG_member
    2258                            .dwattr $C$DW$162, DW_AT_type(*$C$DW$T$59)
    2259                            .dwattr $C$DW$162, DW_AT_name("RESERVED1")
    2260                            .dwattr $C$DW$162, DW_AT_TI_symbol_name("RESERVED1")
    2261                            .dwattr $C$DW$162, DW_AT_data_member_location[DW_OP_plus_uconst 0xe04]
    2262                            .dwattr $C$DW$162, DW_AT_accessibility(DW_ACCESS_public)
    2263                            .dwattr $C$DW$162, DW_AT_decl_file("C:/ti/ccs1200/ccs/ccs_base/arm/include/CMSIS/core_cm4.h")
    2264                            .dwattr $C$DW$162, DW_AT_decl_line(0x333)
    2265                            .dwattr $C$DW$162, DW_AT_decl_column(0x12)
    2266                    
    2267                    $C$DW$163       .dwtag  DW_TAG_member
    2268                            .dwattr $C$DW$163, DW_AT_type(*$C$DW$T$39)
    2269                            .dwattr $C$DW$163, DW_AT_name("TPR")
    2270                            .dwattr $C$DW$163, DW_AT_TI_symbol_name("TPR")
    2271                            .dwattr $C$DW$163, DW_AT_data_member_location[DW_OP_plus_uconst 0xe40]
    2272                            .dwattr $C$DW$163, DW_AT_accessibility(DW_ACCESS_public)
    2273                            .dwattr $C$DW$163, DW_AT_decl_file("C:/ti/ccs1200/ccs/ccs_base/arm/include/CMSIS/core_cm4.h")
    2274                            .dwattr $C$DW$163, DW_AT_decl_line(0x334)
    2275                            .dwattr $C$DW$163, DW_AT_decl_column(0x12)
    2276                    
    2277                    $C$DW$164       .dwtag  DW_TAG_member
    2278                            .dwattr $C$DW$164, DW_AT_type(*$C$DW$T$59)
    2279                            .dwattr $C$DW$164, DW_AT_name("RESERVED2")
    2280                            .dwattr $C$DW$164, DW_AT_TI_symbol_name("RESERVED2")
    2281                            .dwattr $C$DW$164, DW_AT_data_member_location[DW_OP_plus_uconst 0xe44]
    2282                            .dwattr $C$DW$164, DW_AT_accessibility(DW_ACCESS_public)
    2283                            .dwattr $C$DW$164, DW_AT_decl_file("C:/ti/ccs1200/ccs/ccs_base/arm/include/CMSIS/core_cm4.h")
    2284                            .dwattr $C$DW$164, DW_AT_decl_line(0x335)
    2285                            .dwattr $C$DW$164, DW_AT_decl_column(0x12)
    2286                    
    2287                    $C$DW$165       .dwtag  DW_TAG_member
    2288                            .dwattr $C$DW$165, DW_AT_type(*$C$DW$T$39)
    2289                            .dwattr $C$DW$165, DW_AT_name("TCR")
    2290                            .dwattr $C$DW$165, DW_AT_TI_symbol_name("TCR")
    2291                            .dwattr $C$DW$165, DW_AT_data_member_location[DW_OP_plus_uconst 0xe80]
    2292                            .dwattr $C$DW$165, DW_AT_accessibility(DW_ACCESS_public)
    2293                            .dwattr $C$DW$165, DW_AT_decl_file("C:/ti/ccs1200/ccs/ccs_base/arm/include/CMSIS/core_cm4.h")
    2294                            .dwattr $C$DW$165, DW_AT_decl_line(0x336)
    2295                            .dwattr $C$DW$165, DW_AT_decl_column(0x12)
    2296                    
    2297                    $C$DW$166       .dwtag  DW_TAG_member
    2298                            .dwattr $C$DW$166, DW_AT_type(*$C$DW$T$60)
    2299                            .dwattr $C$DW$166, DW_AT_name("RESERVED3")
    2300                            .dwattr $C$DW$166, DW_AT_TI_symbol_name("RESERVED3")
    2301                            .dwattr $C$DW$166, DW_AT_data_member_location[DW_OP_plus_uconst 0xe84]
    2302                            .dwattr $C$DW$166, DW_AT_accessibility(DW_ACCESS_public)
    2303                            .dwattr $C$DW$166, DW_AT_decl_file("C:/ti/ccs1200/ccs/ccs_base/arm/include/CMSIS/core_cm4.h")
    2304                            .dwattr $C$DW$166, DW_AT_decl_line(0x337)
    2305                            .dwattr $C$DW$166, DW_AT_decl_column(0x12)
    2306                    
TI ARM Assembler PC v20.2.6 Mon Oct 31 23:16:56 2022

Copyright (c) 1996-2018 Texas Instruments Incorporated
main.asm                                                             PAGE   43

    2307                    $C$DW$167       .dwtag  DW_TAG_member
    2308                            .dwattr $C$DW$167, DW_AT_type(*$C$DW$T$39)
    2309                            .dwattr $C$DW$167, DW_AT_name("IWR")
    2310                            .dwattr $C$DW$167, DW_AT_TI_symbol_name("IWR")
    2311                            .dwattr $C$DW$167, DW_AT_data_member_location[DW_OP_plus_uconst 0xef8]
    2312                            .dwattr $C$DW$167, DW_AT_accessibility(DW_ACCESS_public)
    2313                            .dwattr $C$DW$167, DW_AT_decl_file("C:/ti/ccs1200/ccs/ccs_base/arm/include/CMSIS/core_cm4.h")
    2314                            .dwattr $C$DW$167, DW_AT_decl_line(0x338)
    2315                            .dwattr $C$DW$167, DW_AT_decl_column(0x12)
    2316                    
    2317                    $C$DW$168       .dwtag  DW_TAG_member
    2318                            .dwattr $C$DW$168, DW_AT_type(*$C$DW$T$46)
    2319                            .dwattr $C$DW$168, DW_AT_name("IRR")
    2320                            .dwattr $C$DW$168, DW_AT_TI_symbol_name("IRR")
    2321                            .dwattr $C$DW$168, DW_AT_data_member_location[DW_OP_plus_uconst 0xefc]
    2322                            .dwattr $C$DW$168, DW_AT_accessibility(DW_ACCESS_public)
    2323                            .dwattr $C$DW$168, DW_AT_decl_file("C:/ti/ccs1200/ccs/ccs_base/arm/include/CMSIS/core_cm4.h")
    2324                            .dwattr $C$DW$168, DW_AT_decl_line(0x339)
    2325                            .dwattr $C$DW$168, DW_AT_decl_column(0x12)
    2326                    
    2327                    $C$DW$169       .dwtag  DW_TAG_member
    2328                            .dwattr $C$DW$169, DW_AT_type(*$C$DW$T$39)
    2329                            .dwattr $C$DW$169, DW_AT_name("IMCR")
    2330                            .dwattr $C$DW$169, DW_AT_TI_symbol_name("IMCR")
    2331                            .dwattr $C$DW$169, DW_AT_data_member_location[DW_OP_plus_uconst 0xf00]
    2332                            .dwattr $C$DW$169, DW_AT_accessibility(DW_ACCESS_public)
    2333                            .dwattr $C$DW$169, DW_AT_decl_file("C:/ti/ccs1200/ccs/ccs_base/arm/include/CMSIS/core_cm4.h")
    2334                            .dwattr $C$DW$169, DW_AT_decl_line(0x33a)
    2335                            .dwattr $C$DW$169, DW_AT_decl_column(0x12)
    2336                    
    2337                    $C$DW$170       .dwtag  DW_TAG_member
    2338                            .dwattr $C$DW$170, DW_AT_type(*$C$DW$T$61)
    2339                            .dwattr $C$DW$170, DW_AT_name("RESERVED4")
    2340                            .dwattr $C$DW$170, DW_AT_TI_symbol_name("RESERVED4")
    2341                            .dwattr $C$DW$170, DW_AT_data_member_location[DW_OP_plus_uconst 0xf04]
    2342                            .dwattr $C$DW$170, DW_AT_accessibility(DW_ACCESS_public)
    2343                            .dwattr $C$DW$170, DW_AT_decl_file("C:/ti/ccs1200/ccs/ccs_base/arm/include/CMSIS/core_cm4.h")
    2344                            .dwattr $C$DW$170, DW_AT_decl_line(0x33b)
    2345                            .dwattr $C$DW$170, DW_AT_decl_column(0x12)
    2346                    
    2347                    $C$DW$171       .dwtag  DW_TAG_member
    2348                            .dwattr $C$DW$171, DW_AT_type(*$C$DW$T$39)
    2349                            .dwattr $C$DW$171, DW_AT_name("LAR")
    2350                            .dwattr $C$DW$171, DW_AT_TI_symbol_name("LAR")
    2351                            .dwattr $C$DW$171, DW_AT_data_member_location[DW_OP_plus_uconst 0xfb0]
    2352                            .dwattr $C$DW$171, DW_AT_accessibility(DW_ACCESS_public)
    2353                            .dwattr $C$DW$171, DW_AT_decl_file("C:/ti/ccs1200/ccs/ccs_base/arm/include/CMSIS/core_cm4.h")
    2354                            .dwattr $C$DW$171, DW_AT_decl_line(0x33c)
    2355                            .dwattr $C$DW$171, DW_AT_decl_column(0x12)
    2356                    
    2357                    $C$DW$172       .dwtag  DW_TAG_member
    2358                            .dwattr $C$DW$172, DW_AT_type(*$C$DW$T$46)
    2359                            .dwattr $C$DW$172, DW_AT_name("LSR")
    2360                            .dwattr $C$DW$172, DW_AT_TI_symbol_name("LSR")
    2361                            .dwattr $C$DW$172, DW_AT_data_member_location[DW_OP_plus_uconst 0xfb4]
TI ARM Assembler PC v20.2.6 Mon Oct 31 23:16:56 2022

Copyright (c) 1996-2018 Texas Instruments Incorporated
main.asm                                                             PAGE   44

    2362                            .dwattr $C$DW$172, DW_AT_accessibility(DW_ACCESS_public)
    2363                            .dwattr $C$DW$172, DW_AT_decl_file("C:/ti/ccs1200/ccs/ccs_base/arm/include/CMSIS/core_cm4.h")
    2364                            .dwattr $C$DW$172, DW_AT_decl_line(0x33d)
    2365                            .dwattr $C$DW$172, DW_AT_decl_column(0x12)
    2366                    
    2367                    $C$DW$173       .dwtag  DW_TAG_member
    2368                            .dwattr $C$DW$173, DW_AT_type(*$C$DW$T$62)
    2369                            .dwattr $C$DW$173, DW_AT_name("RESERVED5")
    2370                            .dwattr $C$DW$173, DW_AT_TI_symbol_name("RESERVED5")
    2371                            .dwattr $C$DW$173, DW_AT_data_member_location[DW_OP_plus_uconst 0xfb8]
    2372                            .dwattr $C$DW$173, DW_AT_accessibility(DW_ACCESS_public)
    2373                            .dwattr $C$DW$173, DW_AT_decl_file("C:/ti/ccs1200/ccs/ccs_base/arm/include/CMSIS/core_cm4.h")
    2374                            .dwattr $C$DW$173, DW_AT_decl_line(0x33e)
    2375                            .dwattr $C$DW$173, DW_AT_decl_column(0x12)
    2376                    
    2377                    $C$DW$174       .dwtag  DW_TAG_member
    2378                            .dwattr $C$DW$174, DW_AT_type(*$C$DW$T$46)
    2379                            .dwattr $C$DW$174, DW_AT_name("PID4")
    2380                            .dwattr $C$DW$174, DW_AT_TI_symbol_name("PID4")
    2381                            .dwattr $C$DW$174, DW_AT_data_member_location[DW_OP_plus_uconst 0xfd0]
    2382                            .dwattr $C$DW$174, DW_AT_accessibility(DW_ACCESS_public)
    2383                            .dwattr $C$DW$174, DW_AT_decl_file("C:/ti/ccs1200/ccs/ccs_base/arm/include/CMSIS/core_cm4.h")
    2384                            .dwattr $C$DW$174, DW_AT_decl_line(0x33f)
    2385                            .dwattr $C$DW$174, DW_AT_decl_column(0x12)
    2386                    
    2387                    $C$DW$175       .dwtag  DW_TAG_member
    2388                            .dwattr $C$DW$175, DW_AT_type(*$C$DW$T$46)
    2389                            .dwattr $C$DW$175, DW_AT_name("PID5")
    2390                            .dwattr $C$DW$175, DW_AT_TI_symbol_name("PID5")
    2391                            .dwattr $C$DW$175, DW_AT_data_member_location[DW_OP_plus_uconst 0xfd4]
    2392                            .dwattr $C$DW$175, DW_AT_accessibility(DW_ACCESS_public)
    2393                            .dwattr $C$DW$175, DW_AT_decl_file("C:/ti/ccs1200/ccs/ccs_base/arm/include/CMSIS/core_cm4.h")
    2394                            .dwattr $C$DW$175, DW_AT_decl_line(0x340)
    2395                            .dwattr $C$DW$175, DW_AT_decl_column(0x12)
    2396                    
    2397                    $C$DW$176       .dwtag  DW_TAG_member
    2398                            .dwattr $C$DW$176, DW_AT_type(*$C$DW$T$46)
    2399                            .dwattr $C$DW$176, DW_AT_name("PID6")
    2400                            .dwattr $C$DW$176, DW_AT_TI_symbol_name("PID6")
    2401                            .dwattr $C$DW$176, DW_AT_data_member_location[DW_OP_plus_uconst 0xfd8]
    2402                            .dwattr $C$DW$176, DW_AT_accessibility(DW_ACCESS_public)
    2403                            .dwattr $C$DW$176, DW_AT_decl_file("C:/ti/ccs1200/ccs/ccs_base/arm/include/CMSIS/core_cm4.h")
    2404                            .dwattr $C$DW$176, DW_AT_decl_line(0x341)
    2405                            .dwattr $C$DW$176, DW_AT_decl_column(0x12)
    2406                    
    2407                    $C$DW$177       .dwtag  DW_TAG_member
    2408                            .dwattr $C$DW$177, DW_AT_type(*$C$DW$T$46)
    2409                            .dwattr $C$DW$177, DW_AT_name("PID7")
    2410                            .dwattr $C$DW$177, DW_AT_TI_symbol_name("PID7")
    2411                            .dwattr $C$DW$177, DW_AT_data_member_location[DW_OP_plus_uconst 0xfdc]
    2412                            .dwattr $C$DW$177, DW_AT_accessibility(DW_ACCESS_public)
    2413                            .dwattr $C$DW$177, DW_AT_decl_file("C:/ti/ccs1200/ccs/ccs_base/arm/include/CMSIS/core_cm4.h")
    2414                            .dwattr $C$DW$177, DW_AT_decl_line(0x342)
    2415                            .dwattr $C$DW$177, DW_AT_decl_column(0x12)
    2416                    
TI ARM Assembler PC v20.2.6 Mon Oct 31 23:16:56 2022

Copyright (c) 1996-2018 Texas Instruments Incorporated
main.asm                                                             PAGE   45

    2417                    $C$DW$178       .dwtag  DW_TAG_member
    2418                            .dwattr $C$DW$178, DW_AT_type(*$C$DW$T$46)
    2419                            .dwattr $C$DW$178, DW_AT_name("PID0")
    2420                            .dwattr $C$DW$178, DW_AT_TI_symbol_name("PID0")
    2421                            .dwattr $C$DW$178, DW_AT_data_member_location[DW_OP_plus_uconst 0xfe0]
    2422                            .dwattr $C$DW$178, DW_AT_accessibility(DW_ACCESS_public)
    2423                            .dwattr $C$DW$178, DW_AT_decl_file("C:/ti/ccs1200/ccs/ccs_base/arm/include/CMSIS/core_cm4.h")
    2424                            .dwattr $C$DW$178, DW_AT_decl_line(0x343)
    2425                            .dwattr $C$DW$178, DW_AT_decl_column(0x12)
    2426                    
    2427                    $C$DW$179       .dwtag  DW_TAG_member
    2428                            .dwattr $C$DW$179, DW_AT_type(*$C$DW$T$46)
    2429                            .dwattr $C$DW$179, DW_AT_name("PID1")
    2430                            .dwattr $C$DW$179, DW_AT_TI_symbol_name("PID1")
    2431                            .dwattr $C$DW$179, DW_AT_data_member_location[DW_OP_plus_uconst 0xfe4]
    2432                            .dwattr $C$DW$179, DW_AT_accessibility(DW_ACCESS_public)
    2433                            .dwattr $C$DW$179, DW_AT_decl_file("C:/ti/ccs1200/ccs/ccs_base/arm/include/CMSIS/core_cm4.h")
    2434                            .dwattr $C$DW$179, DW_AT_decl_line(0x344)
    2435                            .dwattr $C$DW$179, DW_AT_decl_column(0x12)
    2436                    
    2437                    $C$DW$180       .dwtag  DW_TAG_member
    2438                            .dwattr $C$DW$180, DW_AT_type(*$C$DW$T$46)
    2439                            .dwattr $C$DW$180, DW_AT_name("PID2")
    2440                            .dwattr $C$DW$180, DW_AT_TI_symbol_name("PID2")
    2441                            .dwattr $C$DW$180, DW_AT_data_member_location[DW_OP_plus_uconst 0xfe8]
    2442                            .dwattr $C$DW$180, DW_AT_accessibility(DW_ACCESS_public)
    2443                            .dwattr $C$DW$180, DW_AT_decl_file("C:/ti/ccs1200/ccs/ccs_base/arm/include/CMSIS/core_cm4.h")
    2444                            .dwattr $C$DW$180, DW_AT_decl_line(0x345)
    2445                            .dwattr $C$DW$180, DW_AT_decl_column(0x12)
    2446                    
    2447                    $C$DW$181       .dwtag  DW_TAG_member
    2448                            .dwattr $C$DW$181, DW_AT_type(*$C$DW$T$46)
    2449                            .dwattr $C$DW$181, DW_AT_name("PID3")
    2450                            .dwattr $C$DW$181, DW_AT_TI_symbol_name("PID3")
    2451                            .dwattr $C$DW$181, DW_AT_data_member_location[DW_OP_plus_uconst 0xfec]
    2452                            .dwattr $C$DW$181, DW_AT_accessibility(DW_ACCESS_public)
    2453                            .dwattr $C$DW$181, DW_AT_decl_file("C:/ti/ccs1200/ccs/ccs_base/arm/include/CMSIS/core_cm4.h")
    2454                            .dwattr $C$DW$181, DW_AT_decl_line(0x346)
    2455                            .dwattr $C$DW$181, DW_AT_decl_column(0x12)
    2456                    
    2457                    $C$DW$182       .dwtag  DW_TAG_member
    2458                            .dwattr $C$DW$182, DW_AT_type(*$C$DW$T$46)
    2459                            .dwattr $C$DW$182, DW_AT_name("CID0")
    2460                            .dwattr $C$DW$182, DW_AT_TI_symbol_name("CID0")
    2461                            .dwattr $C$DW$182, DW_AT_data_member_location[DW_OP_plus_uconst 0xff0]
    2462                            .dwattr $C$DW$182, DW_AT_accessibility(DW_ACCESS_public)
    2463                            .dwattr $C$DW$182, DW_AT_decl_file("C:/ti/ccs1200/ccs/ccs_base/arm/include/CMSIS/core_cm4.h")
    2464                            .dwattr $C$DW$182, DW_AT_decl_line(0x347)
    2465                            .dwattr $C$DW$182, DW_AT_decl_column(0x12)
    2466                    
    2467                    $C$DW$183       .dwtag  DW_TAG_member
    2468                            .dwattr $C$DW$183, DW_AT_type(*$C$DW$T$46)
    2469                            .dwattr $C$DW$183, DW_AT_name("CID1")
    2470                            .dwattr $C$DW$183, DW_AT_TI_symbol_name("CID1")
    2471                            .dwattr $C$DW$183, DW_AT_data_member_location[DW_OP_plus_uconst 0xff4]
TI ARM Assembler PC v20.2.6 Mon Oct 31 23:16:56 2022

Copyright (c) 1996-2018 Texas Instruments Incorporated
main.asm                                                             PAGE   46

    2472                            .dwattr $C$DW$183, DW_AT_accessibility(DW_ACCESS_public)
    2473                            .dwattr $C$DW$183, DW_AT_decl_file("C:/ti/ccs1200/ccs/ccs_base/arm/include/CMSIS/core_cm4.h")
    2474                            .dwattr $C$DW$183, DW_AT_decl_line(0x348)
    2475                            .dwattr $C$DW$183, DW_AT_decl_column(0x12)
    2476                    
    2477                    $C$DW$184       .dwtag  DW_TAG_member
    2478                            .dwattr $C$DW$184, DW_AT_type(*$C$DW$T$46)
    2479                            .dwattr $C$DW$184, DW_AT_name("CID2")
    2480                            .dwattr $C$DW$184, DW_AT_TI_symbol_name("CID2")
    2481                            .dwattr $C$DW$184, DW_AT_data_member_location[DW_OP_plus_uconst 0xff8]
    2482                            .dwattr $C$DW$184, DW_AT_accessibility(DW_ACCESS_public)
    2483                            .dwattr $C$DW$184, DW_AT_decl_file("C:/ti/ccs1200/ccs/ccs_base/arm/include/CMSIS/core_cm4.h")
    2484                            .dwattr $C$DW$184, DW_AT_decl_line(0x349)
    2485                            .dwattr $C$DW$184, DW_AT_decl_column(0x12)
    2486                    
    2487                    $C$DW$185       .dwtag  DW_TAG_member
    2488                            .dwattr $C$DW$185, DW_AT_type(*$C$DW$T$46)
    2489                            .dwattr $C$DW$185, DW_AT_name("CID3")
    2490                            .dwattr $C$DW$185, DW_AT_TI_symbol_name("CID3")
    2491                            .dwattr $C$DW$185, DW_AT_data_member_location[DW_OP_plus_uconst 0xffc]
    2492                            .dwattr $C$DW$185, DW_AT_accessibility(DW_ACCESS_public)
    2493                            .dwattr $C$DW$185, DW_AT_decl_file("C:/ti/ccs1200/ccs/ccs_base/arm/include/CMSIS/core_cm4.h")
    2494                            .dwattr $C$DW$185, DW_AT_decl_line(0x34a)
    2495                            .dwattr $C$DW$185, DW_AT_decl_column(0x12)
    2496                    
    2497                            .dwattr $C$DW$T$63, DW_AT_decl_file("C:/ti/ccs1200/ccs/ccs_base/arm/include/CMSIS/core_cm4.h")
    2498                            .dwattr $C$DW$T$63, DW_AT_decl_line(0x32a)
    2499                            .dwattr $C$DW$T$63, DW_AT_decl_column(0x01)
    2500                            .dwendtag $C$DW$T$63
    2501                    
    2502                    $C$DW$T$188     .dwtag  DW_TAG_typedef
    2503                            .dwattr $C$DW$T$188, DW_AT_name("ITM_Type")
    2504                            .dwattr $C$DW$T$188, DW_AT_type(*$C$DW$T$63)
    2505                            .dwattr $C$DW$T$188, DW_AT_language(DW_LANG_C)
    2506                            .dwattr $C$DW$T$188, DW_AT_decl_file("C:/ti/ccs1200/ccs/ccs_base/arm/include/CMSIS/core_cm4.h"
    2507                            .dwattr $C$DW$T$188, DW_AT_decl_line(0x34b)
    2508                            .dwattr $C$DW$T$188, DW_AT_decl_column(0x03)
    2509                    
    2510                    
    2511                    $C$DW$T$64      .dwtag  DW_TAG_structure_type
    2512                            .dwattr $C$DW$T$64, DW_AT_byte_size(0x5c)
    2513                    $C$DW$186       .dwtag  DW_TAG_member
    2514                            .dwattr $C$DW$186, DW_AT_type(*$C$DW$T$39)
    2515                            .dwattr $C$DW$186, DW_AT_name("CTRL")
    2516                            .dwattr $C$DW$186, DW_AT_TI_symbol_name("CTRL")
    2517                            .dwattr $C$DW$186, DW_AT_data_member_location[DW_OP_plus_uconst 0x0]
    2518                            .dwattr $C$DW$186, DW_AT_accessibility(DW_ACCESS_public)
    2519                            .dwattr $C$DW$186, DW_AT_decl_file("C:/ti/ccs1200/ccs/ccs_base/arm/include/CMSIS/core_cm4.h")
    2520                            .dwattr $C$DW$186, DW_AT_decl_line(0x392)
    2521                            .dwattr $C$DW$186, DW_AT_decl_column(0x12)
    2522                    
    2523                    $C$DW$187       .dwtag  DW_TAG_member
    2524                            .dwattr $C$DW$187, DW_AT_type(*$C$DW$T$39)
    2525                            .dwattr $C$DW$187, DW_AT_name("CYCCNT")
    2526                            .dwattr $C$DW$187, DW_AT_TI_symbol_name("CYCCNT")
TI ARM Assembler PC v20.2.6 Mon Oct 31 23:16:56 2022

Copyright (c) 1996-2018 Texas Instruments Incorporated
main.asm                                                             PAGE   47

    2527                            .dwattr $C$DW$187, DW_AT_data_member_location[DW_OP_plus_uconst 0x4]
    2528                            .dwattr $C$DW$187, DW_AT_accessibility(DW_ACCESS_public)
    2529                            .dwattr $C$DW$187, DW_AT_decl_file("C:/ti/ccs1200/ccs/ccs_base/arm/include/CMSIS/core_cm4.h")
    2530                            .dwattr $C$DW$187, DW_AT_decl_line(0x393)
    2531                            .dwattr $C$DW$187, DW_AT_decl_column(0x12)
    2532                    
    2533                    $C$DW$188       .dwtag  DW_TAG_member
    2534                            .dwattr $C$DW$188, DW_AT_type(*$C$DW$T$39)
    2535                            .dwattr $C$DW$188, DW_AT_name("CPICNT")
    2536                            .dwattr $C$DW$188, DW_AT_TI_symbol_name("CPICNT")
    2537                            .dwattr $C$DW$188, DW_AT_data_member_location[DW_OP_plus_uconst 0x8]
    2538                            .dwattr $C$DW$188, DW_AT_accessibility(DW_ACCESS_public)
    2539                            .dwattr $C$DW$188, DW_AT_decl_file("C:/ti/ccs1200/ccs/ccs_base/arm/include/CMSIS/core_cm4.h")
    2540                            .dwattr $C$DW$188, DW_AT_decl_line(0x394)
    2541                            .dwattr $C$DW$188, DW_AT_decl_column(0x12)
    2542                    
    2543                    $C$DW$189       .dwtag  DW_TAG_member
    2544                            .dwattr $C$DW$189, DW_AT_type(*$C$DW$T$39)
    2545                            .dwattr $C$DW$189, DW_AT_name("EXCCNT")
    2546                            .dwattr $C$DW$189, DW_AT_TI_symbol_name("EXCCNT")
    2547                            .dwattr $C$DW$189, DW_AT_data_member_location[DW_OP_plus_uconst 0xc]
    2548                            .dwattr $C$DW$189, DW_AT_accessibility(DW_ACCESS_public)
    2549                            .dwattr $C$DW$189, DW_AT_decl_file("C:/ti/ccs1200/ccs/ccs_base/arm/include/CMSIS/core_cm4.h")
    2550                            .dwattr $C$DW$189, DW_AT_decl_line(0x395)
    2551                            .dwattr $C$DW$189, DW_AT_decl_column(0x12)
    2552                    
    2553                    $C$DW$190       .dwtag  DW_TAG_member
    2554                            .dwattr $C$DW$190, DW_AT_type(*$C$DW$T$39)
    2555                            .dwattr $C$DW$190, DW_AT_name("SLEEPCNT")
    2556                            .dwattr $C$DW$190, DW_AT_TI_symbol_name("SLEEPCNT")
    2557                            .dwattr $C$DW$190, DW_AT_data_member_location[DW_OP_plus_uconst 0x10]
    2558                            .dwattr $C$DW$190, DW_AT_accessibility(DW_ACCESS_public)
    2559                            .dwattr $C$DW$190, DW_AT_decl_file("C:/ti/ccs1200/ccs/ccs_base/arm/include/CMSIS/core_cm4.h")
    2560                            .dwattr $C$DW$190, DW_AT_decl_line(0x396)
    2561                            .dwattr $C$DW$190, DW_AT_decl_column(0x12)
    2562                    
    2563                    $C$DW$191       .dwtag  DW_TAG_member
    2564                            .dwattr $C$DW$191, DW_AT_type(*$C$DW$T$39)
    2565                            .dwattr $C$DW$191, DW_AT_name("LSUCNT")
    2566                            .dwattr $C$DW$191, DW_AT_TI_symbol_name("LSUCNT")
    2567                            .dwattr $C$DW$191, DW_AT_data_member_location[DW_OP_plus_uconst 0x14]
    2568                            .dwattr $C$DW$191, DW_AT_accessibility(DW_ACCESS_public)
    2569                            .dwattr $C$DW$191, DW_AT_decl_file("C:/ti/ccs1200/ccs/ccs_base/arm/include/CMSIS/core_cm4.h")
    2570                            .dwattr $C$DW$191, DW_AT_decl_line(0x397)
    2571                            .dwattr $C$DW$191, DW_AT_decl_column(0x12)
    2572                    
    2573                    $C$DW$192       .dwtag  DW_TAG_member
    2574                            .dwattr $C$DW$192, DW_AT_type(*$C$DW$T$39)
    2575                            .dwattr $C$DW$192, DW_AT_name("FOLDCNT")
    2576                            .dwattr $C$DW$192, DW_AT_TI_symbol_name("FOLDCNT")
    2577                            .dwattr $C$DW$192, DW_AT_data_member_location[DW_OP_plus_uconst 0x18]
    2578                            .dwattr $C$DW$192, DW_AT_accessibility(DW_ACCESS_public)
    2579                            .dwattr $C$DW$192, DW_AT_decl_file("C:/ti/ccs1200/ccs/ccs_base/arm/include/CMSIS/core_cm4.h")
    2580                            .dwattr $C$DW$192, DW_AT_decl_line(0x398)
    2581                            .dwattr $C$DW$192, DW_AT_decl_column(0x12)
TI ARM Assembler PC v20.2.6 Mon Oct 31 23:16:56 2022

Copyright (c) 1996-2018 Texas Instruments Incorporated
main.asm                                                             PAGE   48

    2582                    
    2583                    $C$DW$193       .dwtag  DW_TAG_member
    2584                            .dwattr $C$DW$193, DW_AT_type(*$C$DW$T$46)
    2585                            .dwattr $C$DW$193, DW_AT_name("PCSR")
    2586                            .dwattr $C$DW$193, DW_AT_TI_symbol_name("PCSR")
    2587                            .dwattr $C$DW$193, DW_AT_data_member_location[DW_OP_plus_uconst 0x1c]
    2588                            .dwattr $C$DW$193, DW_AT_accessibility(DW_ACCESS_public)
    2589                            .dwattr $C$DW$193, DW_AT_decl_file("C:/ti/ccs1200/ccs/ccs_base/arm/include/CMSIS/core_cm4.h")
    2590                            .dwattr $C$DW$193, DW_AT_decl_line(0x399)
    2591                            .dwattr $C$DW$193, DW_AT_decl_column(0x12)
    2592                    
    2593                    $C$DW$194       .dwtag  DW_TAG_member
    2594                            .dwattr $C$DW$194, DW_AT_type(*$C$DW$T$39)
    2595                            .dwattr $C$DW$194, DW_AT_name("COMP0")
    2596                            .dwattr $C$DW$194, DW_AT_TI_symbol_name("COMP0")
    2597                            .dwattr $C$DW$194, DW_AT_data_member_location[DW_OP_plus_uconst 0x20]
    2598                            .dwattr $C$DW$194, DW_AT_accessibility(DW_ACCESS_public)
    2599                            .dwattr $C$DW$194, DW_AT_decl_file("C:/ti/ccs1200/ccs/ccs_base/arm/include/CMSIS/core_cm4.h")
    2600                            .dwattr $C$DW$194, DW_AT_decl_line(0x39a)
    2601                            .dwattr $C$DW$194, DW_AT_decl_column(0x12)
    2602                    
    2603                    $C$DW$195       .dwtag  DW_TAG_member
    2604                            .dwattr $C$DW$195, DW_AT_type(*$C$DW$T$39)
    2605                            .dwattr $C$DW$195, DW_AT_name("MASK0")
    2606                            .dwattr $C$DW$195, DW_AT_TI_symbol_name("MASK0")
    2607                            .dwattr $C$DW$195, DW_AT_data_member_location[DW_OP_plus_uconst 0x24]
    2608                            .dwattr $C$DW$195, DW_AT_accessibility(DW_ACCESS_public)
    2609                            .dwattr $C$DW$195, DW_AT_decl_file("C:/ti/ccs1200/ccs/ccs_base/arm/include/CMSIS/core_cm4.h")
    2610                            .dwattr $C$DW$195, DW_AT_decl_line(0x39b)
    2611                            .dwattr $C$DW$195, DW_AT_decl_column(0x12)
    2612                    
    2613                    $C$DW$196       .dwtag  DW_TAG_member
    2614                            .dwattr $C$DW$196, DW_AT_type(*$C$DW$T$39)
    2615                            .dwattr $C$DW$196, DW_AT_name("FUNCTION0")
    2616                            .dwattr $C$DW$196, DW_AT_TI_symbol_name("FUNCTION0")
    2617                            .dwattr $C$DW$196, DW_AT_data_member_location[DW_OP_plus_uconst 0x28]
    2618                            .dwattr $C$DW$196, DW_AT_accessibility(DW_ACCESS_public)
    2619                            .dwattr $C$DW$196, DW_AT_decl_file("C:/ti/ccs1200/ccs/ccs_base/arm/include/CMSIS/core_cm4.h")
    2620                            .dwattr $C$DW$196, DW_AT_decl_line(0x39c)
    2621                            .dwattr $C$DW$196, DW_AT_decl_column(0x12)
    2622                    
    2623                    $C$DW$197       .dwtag  DW_TAG_member
    2624                            .dwattr $C$DW$197, DW_AT_type(*$C$DW$T$53)
    2625                            .dwattr $C$DW$197, DW_AT_name("RESERVED0")
    2626                            .dwattr $C$DW$197, DW_AT_TI_symbol_name("RESERVED0")
    2627                            .dwattr $C$DW$197, DW_AT_data_member_location[DW_OP_plus_uconst 0x2c]
    2628                            .dwattr $C$DW$197, DW_AT_accessibility(DW_ACCESS_public)
    2629                            .dwattr $C$DW$197, DW_AT_decl_file("C:/ti/ccs1200/ccs/ccs_base/arm/include/CMSIS/core_cm4.h")
    2630                            .dwattr $C$DW$197, DW_AT_decl_line(0x39d)
    2631                            .dwattr $C$DW$197, DW_AT_decl_column(0x12)
    2632                    
    2633                    $C$DW$198       .dwtag  DW_TAG_member
    2634                            .dwattr $C$DW$198, DW_AT_type(*$C$DW$T$39)
    2635                            .dwattr $C$DW$198, DW_AT_name("COMP1")
    2636                            .dwattr $C$DW$198, DW_AT_TI_symbol_name("COMP1")
TI ARM Assembler PC v20.2.6 Mon Oct 31 23:16:56 2022

Copyright (c) 1996-2018 Texas Instruments Incorporated
main.asm                                                             PAGE   49

    2637                            .dwattr $C$DW$198, DW_AT_data_member_location[DW_OP_plus_uconst 0x30]
    2638                            .dwattr $C$DW$198, DW_AT_accessibility(DW_ACCESS_public)
    2639                            .dwattr $C$DW$198, DW_AT_decl_file("C:/ti/ccs1200/ccs/ccs_base/arm/include/CMSIS/core_cm4.h")
    2640                            .dwattr $C$DW$198, DW_AT_decl_line(0x39e)
    2641                            .dwattr $C$DW$198, DW_AT_decl_column(0x12)
    2642                    
    2643                    $C$DW$199       .dwtag  DW_TAG_member
    2644                            .dwattr $C$DW$199, DW_AT_type(*$C$DW$T$39)
    2645                            .dwattr $C$DW$199, DW_AT_name("MASK1")
    2646                            .dwattr $C$DW$199, DW_AT_TI_symbol_name("MASK1")
    2647                            .dwattr $C$DW$199, DW_AT_data_member_location[DW_OP_plus_uconst 0x34]
    2648                            .dwattr $C$DW$199, DW_AT_accessibility(DW_ACCESS_public)
    2649                            .dwattr $C$DW$199, DW_AT_decl_file("C:/ti/ccs1200/ccs/ccs_base/arm/include/CMSIS/core_cm4.h")
    2650                            .dwattr $C$DW$199, DW_AT_decl_line(0x39f)
    2651                            .dwattr $C$DW$199, DW_AT_decl_column(0x12)
    2652                    
    2653                    $C$DW$200       .dwtag  DW_TAG_member
    2654                            .dwattr $C$DW$200, DW_AT_type(*$C$DW$T$39)
    2655                            .dwattr $C$DW$200, DW_AT_name("FUNCTION1")
    2656                            .dwattr $C$DW$200, DW_AT_TI_symbol_name("FUNCTION1")
    2657                            .dwattr $C$DW$200, DW_AT_data_member_location[DW_OP_plus_uconst 0x38]
    2658                            .dwattr $C$DW$200, DW_AT_accessibility(DW_ACCESS_public)
    2659                            .dwattr $C$DW$200, DW_AT_decl_file("C:/ti/ccs1200/ccs/ccs_base/arm/include/CMSIS/core_cm4.h")
    2660                            .dwattr $C$DW$200, DW_AT_decl_line(0x3a0)
    2661                            .dwattr $C$DW$200, DW_AT_decl_column(0x12)
    2662                    
    2663                    $C$DW$201       .dwtag  DW_TAG_member
    2664                            .dwattr $C$DW$201, DW_AT_type(*$C$DW$T$53)
    2665                            .dwattr $C$DW$201, DW_AT_name("RESERVED1")
    2666                            .dwattr $C$DW$201, DW_AT_TI_symbol_name("RESERVED1")
    2667                            .dwattr $C$DW$201, DW_AT_data_member_location[DW_OP_plus_uconst 0x3c]
    2668                            .dwattr $C$DW$201, DW_AT_accessibility(DW_ACCESS_public)
    2669                            .dwattr $C$DW$201, DW_AT_decl_file("C:/ti/ccs1200/ccs/ccs_base/arm/include/CMSIS/core_cm4.h")
    2670                            .dwattr $C$DW$201, DW_AT_decl_line(0x3a1)
    2671                            .dwattr $C$DW$201, DW_AT_decl_column(0x12)
    2672                    
    2673                    $C$DW$202       .dwtag  DW_TAG_member
    2674                            .dwattr $C$DW$202, DW_AT_type(*$C$DW$T$39)
    2675                            .dwattr $C$DW$202, DW_AT_name("COMP2")
    2676                            .dwattr $C$DW$202, DW_AT_TI_symbol_name("COMP2")
    2677                            .dwattr $C$DW$202, DW_AT_data_member_location[DW_OP_plus_uconst 0x40]
    2678                            .dwattr $C$DW$202, DW_AT_accessibility(DW_ACCESS_public)
    2679                            .dwattr $C$DW$202, DW_AT_decl_file("C:/ti/ccs1200/ccs/ccs_base/arm/include/CMSIS/core_cm4.h")
    2680                            .dwattr $C$DW$202, DW_AT_decl_line(0x3a2)
    2681                            .dwattr $C$DW$202, DW_AT_decl_column(0x12)
    2682                    
    2683                    $C$DW$203       .dwtag  DW_TAG_member
    2684                            .dwattr $C$DW$203, DW_AT_type(*$C$DW$T$39)
    2685                            .dwattr $C$DW$203, DW_AT_name("MASK2")
    2686                            .dwattr $C$DW$203, DW_AT_TI_symbol_name("MASK2")
    2687                            .dwattr $C$DW$203, DW_AT_data_member_location[DW_OP_plus_uconst 0x44]
    2688                            .dwattr $C$DW$203, DW_AT_accessibility(DW_ACCESS_public)
    2689                            .dwattr $C$DW$203, DW_AT_decl_file("C:/ti/ccs1200/ccs/ccs_base/arm/include/CMSIS/core_cm4.h")
    2690                            .dwattr $C$DW$203, DW_AT_decl_line(0x3a3)
    2691                            .dwattr $C$DW$203, DW_AT_decl_column(0x12)
TI ARM Assembler PC v20.2.6 Mon Oct 31 23:16:56 2022

Copyright (c) 1996-2018 Texas Instruments Incorporated
main.asm                                                             PAGE   50

    2692                    
    2693                    $C$DW$204       .dwtag  DW_TAG_member
    2694                            .dwattr $C$DW$204, DW_AT_type(*$C$DW$T$39)
    2695                            .dwattr $C$DW$204, DW_AT_name("FUNCTION2")
    2696                            .dwattr $C$DW$204, DW_AT_TI_symbol_name("FUNCTION2")
    2697                            .dwattr $C$DW$204, DW_AT_data_member_location[DW_OP_plus_uconst 0x48]
    2698                            .dwattr $C$DW$204, DW_AT_accessibility(DW_ACCESS_public)
    2699                            .dwattr $C$DW$204, DW_AT_decl_file("C:/ti/ccs1200/ccs/ccs_base/arm/include/CMSIS/core_cm4.h")
    2700                            .dwattr $C$DW$204, DW_AT_decl_line(0x3a4)
    2701                            .dwattr $C$DW$204, DW_AT_decl_column(0x12)
    2702                    
    2703                    $C$DW$205       .dwtag  DW_TAG_member
    2704                            .dwattr $C$DW$205, DW_AT_type(*$C$DW$T$53)
    2705                            .dwattr $C$DW$205, DW_AT_name("RESERVED2")
    2706                            .dwattr $C$DW$205, DW_AT_TI_symbol_name("RESERVED2")
    2707                            .dwattr $C$DW$205, DW_AT_data_member_location[DW_OP_plus_uconst 0x4c]
    2708                            .dwattr $C$DW$205, DW_AT_accessibility(DW_ACCESS_public)
    2709                            .dwattr $C$DW$205, DW_AT_decl_file("C:/ti/ccs1200/ccs/ccs_base/arm/include/CMSIS/core_cm4.h")
    2710                            .dwattr $C$DW$205, DW_AT_decl_line(0x3a5)
    2711                            .dwattr $C$DW$205, DW_AT_decl_column(0x12)
    2712                    
    2713                    $C$DW$206       .dwtag  DW_TAG_member
    2714                            .dwattr $C$DW$206, DW_AT_type(*$C$DW$T$39)
    2715                            .dwattr $C$DW$206, DW_AT_name("COMP3")
    2716                            .dwattr $C$DW$206, DW_AT_TI_symbol_name("COMP3")
    2717                            .dwattr $C$DW$206, DW_AT_data_member_location[DW_OP_plus_uconst 0x50]
    2718                            .dwattr $C$DW$206, DW_AT_accessibility(DW_ACCESS_public)
    2719                            .dwattr $C$DW$206, DW_AT_decl_file("C:/ti/ccs1200/ccs/ccs_base/arm/include/CMSIS/core_cm4.h")
    2720                            .dwattr $C$DW$206, DW_AT_decl_line(0x3a6)
    2721                            .dwattr $C$DW$206, DW_AT_decl_column(0x12)
    2722                    
    2723                    $C$DW$207       .dwtag  DW_TAG_member
    2724                            .dwattr $C$DW$207, DW_AT_type(*$C$DW$T$39)
    2725                            .dwattr $C$DW$207, DW_AT_name("MASK3")
    2726                            .dwattr $C$DW$207, DW_AT_TI_symbol_name("MASK3")
    2727                            .dwattr $C$DW$207, DW_AT_data_member_location[DW_OP_plus_uconst 0x54]
    2728                            .dwattr $C$DW$207, DW_AT_accessibility(DW_ACCESS_public)
    2729                            .dwattr $C$DW$207, DW_AT_decl_file("C:/ti/ccs1200/ccs/ccs_base/arm/include/CMSIS/core_cm4.h")
    2730                            .dwattr $C$DW$207, DW_AT_decl_line(0x3a7)
    2731                            .dwattr $C$DW$207, DW_AT_decl_column(0x12)
    2732                    
    2733                    $C$DW$208       .dwtag  DW_TAG_member
    2734                            .dwattr $C$DW$208, DW_AT_type(*$C$DW$T$39)
    2735                            .dwattr $C$DW$208, DW_AT_name("FUNCTION3")
    2736                            .dwattr $C$DW$208, DW_AT_TI_symbol_name("FUNCTION3")
    2737                            .dwattr $C$DW$208, DW_AT_data_member_location[DW_OP_plus_uconst 0x58]
    2738                            .dwattr $C$DW$208, DW_AT_accessibility(DW_ACCESS_public)
    2739                            .dwattr $C$DW$208, DW_AT_decl_file("C:/ti/ccs1200/ccs/ccs_base/arm/include/CMSIS/core_cm4.h")
    2740                            .dwattr $C$DW$208, DW_AT_decl_line(0x3a8)
    2741                            .dwattr $C$DW$208, DW_AT_decl_column(0x12)
    2742                    
    2743                            .dwattr $C$DW$T$64, DW_AT_decl_file("C:/ti/ccs1200/ccs/ccs_base/arm/include/CMSIS/core_cm4.h")
    2744                            .dwattr $C$DW$T$64, DW_AT_decl_line(0x391)
    2745                            .dwattr $C$DW$T$64, DW_AT_decl_column(0x01)
    2746                            .dwendtag $C$DW$T$64
TI ARM Assembler PC v20.2.6 Mon Oct 31 23:16:56 2022

Copyright (c) 1996-2018 Texas Instruments Incorporated
main.asm                                                             PAGE   51

    2747                    
    2748                    $C$DW$T$189     .dwtag  DW_TAG_typedef
    2749                            .dwattr $C$DW$T$189, DW_AT_name("DWT_Type")
    2750                            .dwattr $C$DW$T$189, DW_AT_type(*$C$DW$T$64)
    2751                            .dwattr $C$DW$T$189, DW_AT_language(DW_LANG_C)
    2752                            .dwattr $C$DW$T$189, DW_AT_decl_file("C:/ti/ccs1200/ccs/ccs_base/arm/include/CMSIS/core_cm4.h"
    2753                            .dwattr $C$DW$T$189, DW_AT_decl_line(0x3a9)
    2754                            .dwattr $C$DW$T$189, DW_AT_decl_column(0x03)
    2755                    
    2756                    
    2757                    $C$DW$T$71      .dwtag  DW_TAG_structure_type
    2758                            .dwattr $C$DW$T$71, DW_AT_byte_size(0xfd0)
    2759                    $C$DW$209       .dwtag  DW_TAG_member
    2760                            .dwattr $C$DW$209, DW_AT_type(*$C$DW$T$39)
    2761                            .dwattr $C$DW$209, DW_AT_name("SSPSR")
    2762                            .dwattr $C$DW$209, DW_AT_TI_symbol_name("SSPSR")
    2763                            .dwattr $C$DW$209, DW_AT_data_member_location[DW_OP_plus_uconst 0x0]
    2764                            .dwattr $C$DW$209, DW_AT_accessibility(DW_ACCESS_public)
    2765                            .dwattr $C$DW$209, DW_AT_decl_file("C:/ti/ccs1200/ccs/ccs_base/arm/include/CMSIS/core_cm4.h")
    2766                            .dwattr $C$DW$209, DW_AT_decl_line(0x425)
    2767                            .dwattr $C$DW$209, DW_AT_decl_column(0x12)
    2768                    
    2769                    $C$DW$210       .dwtag  DW_TAG_member
    2770                            .dwattr $C$DW$210, DW_AT_type(*$C$DW$T$39)
    2771                            .dwattr $C$DW$210, DW_AT_name("CSPSR")
    2772                            .dwattr $C$DW$210, DW_AT_TI_symbol_name("CSPSR")
    2773                            .dwattr $C$DW$210, DW_AT_data_member_location[DW_OP_plus_uconst 0x4]
    2774                            .dwattr $C$DW$210, DW_AT_accessibility(DW_ACCESS_public)
    2775                            .dwattr $C$DW$210, DW_AT_decl_file("C:/ti/ccs1200/ccs/ccs_base/arm/include/CMSIS/core_cm4.h")
    2776                            .dwattr $C$DW$210, DW_AT_decl_line(0x426)
    2777                            .dwattr $C$DW$210, DW_AT_decl_column(0x12)
    2778                    
    2779                    $C$DW$211       .dwtag  DW_TAG_member
    2780                            .dwattr $C$DW$211, DW_AT_type(*$C$DW$T$65)
    2781                            .dwattr $C$DW$211, DW_AT_name("RESERVED0")
    2782                            .dwattr $C$DW$211, DW_AT_TI_symbol_name("RESERVED0")
    2783                            .dwattr $C$DW$211, DW_AT_data_member_location[DW_OP_plus_uconst 0x8]
    2784                            .dwattr $C$DW$211, DW_AT_accessibility(DW_ACCESS_public)
    2785                            .dwattr $C$DW$211, DW_AT_decl_file("C:/ti/ccs1200/ccs/ccs_base/arm/include/CMSIS/core_cm4.h")
    2786                            .dwattr $C$DW$211, DW_AT_decl_line(0x427)
    2787                            .dwattr $C$DW$211, DW_AT_decl_column(0x12)
    2788                    
    2789                    $C$DW$212       .dwtag  DW_TAG_member
    2790                            .dwattr $C$DW$212, DW_AT_type(*$C$DW$T$39)
    2791                            .dwattr $C$DW$212, DW_AT_name("ACPR")
    2792                            .dwattr $C$DW$212, DW_AT_TI_symbol_name("ACPR")
    2793                            .dwattr $C$DW$212, DW_AT_data_member_location[DW_OP_plus_uconst 0x10]
    2794                            .dwattr $C$DW$212, DW_AT_accessibility(DW_ACCESS_public)
    2795                            .dwattr $C$DW$212, DW_AT_decl_file("C:/ti/ccs1200/ccs/ccs_base/arm/include/CMSIS/core_cm4.h")
    2796                            .dwattr $C$DW$212, DW_AT_decl_line(0x428)
    2797                            .dwattr $C$DW$212, DW_AT_decl_column(0x12)
    2798                    
    2799                    $C$DW$213       .dwtag  DW_TAG_member
    2800                            .dwattr $C$DW$213, DW_AT_type(*$C$DW$T$66)
    2801                            .dwattr $C$DW$213, DW_AT_name("RESERVED1")
TI ARM Assembler PC v20.2.6 Mon Oct 31 23:16:56 2022

Copyright (c) 1996-2018 Texas Instruments Incorporated
main.asm                                                             PAGE   52

    2802                            .dwattr $C$DW$213, DW_AT_TI_symbol_name("RESERVED1")
    2803                            .dwattr $C$DW$213, DW_AT_data_member_location[DW_OP_plus_uconst 0x14]
    2804                            .dwattr $C$DW$213, DW_AT_accessibility(DW_ACCESS_public)
    2805                            .dwattr $C$DW$213, DW_AT_decl_file("C:/ti/ccs1200/ccs/ccs_base/arm/include/CMSIS/core_cm4.h")
    2806                            .dwattr $C$DW$213, DW_AT_decl_line(0x429)
    2807                            .dwattr $C$DW$213, DW_AT_decl_column(0x12)
    2808                    
    2809                    $C$DW$214       .dwtag  DW_TAG_member
    2810                            .dwattr $C$DW$214, DW_AT_type(*$C$DW$T$39)
    2811                            .dwattr $C$DW$214, DW_AT_name("SPPR")
    2812                            .dwattr $C$DW$214, DW_AT_TI_symbol_name("SPPR")
    2813                            .dwattr $C$DW$214, DW_AT_data_member_location[DW_OP_plus_uconst 0xf0]
    2814                            .dwattr $C$DW$214, DW_AT_accessibility(DW_ACCESS_public)
    2815                            .dwattr $C$DW$214, DW_AT_decl_file("C:/ti/ccs1200/ccs/ccs_base/arm/include/CMSIS/core_cm4.h")
    2816                            .dwattr $C$DW$214, DW_AT_decl_line(0x42a)
    2817                            .dwattr $C$DW$214, DW_AT_decl_column(0x12)
    2818                    
    2819                    $C$DW$215       .dwtag  DW_TAG_member
    2820                            .dwattr $C$DW$215, DW_AT_type(*$C$DW$T$67)
    2821                            .dwattr $C$DW$215, DW_AT_name("RESERVED2")
    2822                            .dwattr $C$DW$215, DW_AT_TI_symbol_name("RESERVED2")
    2823                            .dwattr $C$DW$215, DW_AT_data_member_location[DW_OP_plus_uconst 0xf4]
    2824                            .dwattr $C$DW$215, DW_AT_accessibility(DW_ACCESS_public)
    2825                            .dwattr $C$DW$215, DW_AT_decl_file("C:/ti/ccs1200/ccs/ccs_base/arm/include/CMSIS/core_cm4.h")
    2826                            .dwattr $C$DW$215, DW_AT_decl_line(0x42b)
    2827                            .dwattr $C$DW$215, DW_AT_decl_column(0x12)
    2828                    
    2829                    $C$DW$216       .dwtag  DW_TAG_member
    2830                            .dwattr $C$DW$216, DW_AT_type(*$C$DW$T$46)
    2831                            .dwattr $C$DW$216, DW_AT_name("FFSR")
    2832                            .dwattr $C$DW$216, DW_AT_TI_symbol_name("FFSR")
    2833                            .dwattr $C$DW$216, DW_AT_data_member_location[DW_OP_plus_uconst 0x300]
    2834                            .dwattr $C$DW$216, DW_AT_accessibility(DW_ACCESS_public)
    2835                            .dwattr $C$DW$216, DW_AT_decl_file("C:/ti/ccs1200/ccs/ccs_base/arm/include/CMSIS/core_cm4.h")
    2836                            .dwattr $C$DW$216, DW_AT_decl_line(0x42c)
    2837                            .dwattr $C$DW$216, DW_AT_decl_column(0x12)
    2838                    
    2839                    $C$DW$217       .dwtag  DW_TAG_member
    2840                            .dwattr $C$DW$217, DW_AT_type(*$C$DW$T$39)
    2841                            .dwattr $C$DW$217, DW_AT_name("FFCR")
    2842                            .dwattr $C$DW$217, DW_AT_TI_symbol_name("FFCR")
    2843                            .dwattr $C$DW$217, DW_AT_data_member_location[DW_OP_plus_uconst 0x304]
    2844                            .dwattr $C$DW$217, DW_AT_accessibility(DW_ACCESS_public)
    2845                            .dwattr $C$DW$217, DW_AT_decl_file("C:/ti/ccs1200/ccs/ccs_base/arm/include/CMSIS/core_cm4.h")
    2846                            .dwattr $C$DW$217, DW_AT_decl_line(0x42d)
    2847                            .dwattr $C$DW$217, DW_AT_decl_column(0x12)
    2848                    
    2849                    $C$DW$218       .dwtag  DW_TAG_member
    2850                            .dwattr $C$DW$218, DW_AT_type(*$C$DW$T$46)
    2851                            .dwattr $C$DW$218, DW_AT_name("FSCR")
    2852                            .dwattr $C$DW$218, DW_AT_TI_symbol_name("FSCR")
    2853                            .dwattr $C$DW$218, DW_AT_data_member_location[DW_OP_plus_uconst 0x308]
    2854                            .dwattr $C$DW$218, DW_AT_accessibility(DW_ACCESS_public)
    2855                            .dwattr $C$DW$218, DW_AT_decl_file("C:/ti/ccs1200/ccs/ccs_base/arm/include/CMSIS/core_cm4.h")
    2856                            .dwattr $C$DW$218, DW_AT_decl_line(0x42e)
TI ARM Assembler PC v20.2.6 Mon Oct 31 23:16:56 2022

Copyright (c) 1996-2018 Texas Instruments Incorporated
main.asm                                                             PAGE   53

    2857                            .dwattr $C$DW$218, DW_AT_decl_column(0x12)
    2858                    
    2859                    $C$DW$219       .dwtag  DW_TAG_member
    2860                            .dwattr $C$DW$219, DW_AT_type(*$C$DW$T$68)
    2861                            .dwattr $C$DW$219, DW_AT_name("RESERVED3")
    2862                            .dwattr $C$DW$219, DW_AT_TI_symbol_name("RESERVED3")
    2863                            .dwattr $C$DW$219, DW_AT_data_member_location[DW_OP_plus_uconst 0x30c]
    2864                            .dwattr $C$DW$219, DW_AT_accessibility(DW_ACCESS_public)
    2865                            .dwattr $C$DW$219, DW_AT_decl_file("C:/ti/ccs1200/ccs/ccs_base/arm/include/CMSIS/core_cm4.h")
    2866                            .dwattr $C$DW$219, DW_AT_decl_line(0x42f)
    2867                            .dwattr $C$DW$219, DW_AT_decl_column(0x12)
    2868                    
    2869                    $C$DW$220       .dwtag  DW_TAG_member
    2870                            .dwattr $C$DW$220, DW_AT_type(*$C$DW$T$46)
    2871                            .dwattr $C$DW$220, DW_AT_name("TRIGGER")
    2872                            .dwattr $C$DW$220, DW_AT_TI_symbol_name("TRIGGER")
    2873                            .dwattr $C$DW$220, DW_AT_data_member_location[DW_OP_plus_uconst 0xee8]
    2874                            .dwattr $C$DW$220, DW_AT_accessibility(DW_ACCESS_public)
    2875                            .dwattr $C$DW$220, DW_AT_decl_file("C:/ti/ccs1200/ccs/ccs_base/arm/include/CMSIS/core_cm4.h")
    2876                            .dwattr $C$DW$220, DW_AT_decl_line(0x430)
    2877                            .dwattr $C$DW$220, DW_AT_decl_column(0x12)
    2878                    
    2879                    $C$DW$221       .dwtag  DW_TAG_member
    2880                            .dwattr $C$DW$221, DW_AT_type(*$C$DW$T$46)
    2881                            .dwattr $C$DW$221, DW_AT_name("FIFO0")
    2882                            .dwattr $C$DW$221, DW_AT_TI_symbol_name("FIFO0")
    2883                            .dwattr $C$DW$221, DW_AT_data_member_location[DW_OP_plus_uconst 0xeec]
    2884                            .dwattr $C$DW$221, DW_AT_accessibility(DW_ACCESS_public)
    2885                            .dwattr $C$DW$221, DW_AT_decl_file("C:/ti/ccs1200/ccs/ccs_base/arm/include/CMSIS/core_cm4.h")
    2886                            .dwattr $C$DW$221, DW_AT_decl_line(0x431)
    2887                            .dwattr $C$DW$221, DW_AT_decl_column(0x12)
    2888                    
    2889                    $C$DW$222       .dwtag  DW_TAG_member
    2890                            .dwattr $C$DW$222, DW_AT_type(*$C$DW$T$46)
    2891                            .dwattr $C$DW$222, DW_AT_name("ITATBCTR2")
    2892                            .dwattr $C$DW$222, DW_AT_TI_symbol_name("ITATBCTR2")
    2893                            .dwattr $C$DW$222, DW_AT_data_member_location[DW_OP_plus_uconst 0xef0]
    2894                            .dwattr $C$DW$222, DW_AT_accessibility(DW_ACCESS_public)
    2895                            .dwattr $C$DW$222, DW_AT_decl_file("C:/ti/ccs1200/ccs/ccs_base/arm/include/CMSIS/core_cm4.h")
    2896                            .dwattr $C$DW$222, DW_AT_decl_line(0x432)
    2897                            .dwattr $C$DW$222, DW_AT_decl_column(0x12)
    2898                    
    2899                    $C$DW$223       .dwtag  DW_TAG_member
    2900                            .dwattr $C$DW$223, DW_AT_type(*$C$DW$T$53)
    2901                            .dwattr $C$DW$223, DW_AT_name("RESERVED4")
    2902                            .dwattr $C$DW$223, DW_AT_TI_symbol_name("RESERVED4")
    2903                            .dwattr $C$DW$223, DW_AT_data_member_location[DW_OP_plus_uconst 0xef4]
    2904                            .dwattr $C$DW$223, DW_AT_accessibility(DW_ACCESS_public)
    2905                            .dwattr $C$DW$223, DW_AT_decl_file("C:/ti/ccs1200/ccs/ccs_base/arm/include/CMSIS/core_cm4.h")
    2906                            .dwattr $C$DW$223, DW_AT_decl_line(0x433)
    2907                            .dwattr $C$DW$223, DW_AT_decl_column(0x12)
    2908                    
    2909                    $C$DW$224       .dwtag  DW_TAG_member
    2910                            .dwattr $C$DW$224, DW_AT_type(*$C$DW$T$46)
    2911                            .dwattr $C$DW$224, DW_AT_name("ITATBCTR0")
TI ARM Assembler PC v20.2.6 Mon Oct 31 23:16:56 2022

Copyright (c) 1996-2018 Texas Instruments Incorporated
main.asm                                                             PAGE   54

    2912                            .dwattr $C$DW$224, DW_AT_TI_symbol_name("ITATBCTR0")
    2913                            .dwattr $C$DW$224, DW_AT_data_member_location[DW_OP_plus_uconst 0xef8]
    2914                            .dwattr $C$DW$224, DW_AT_accessibility(DW_ACCESS_public)
    2915                            .dwattr $C$DW$224, DW_AT_decl_file("C:/ti/ccs1200/ccs/ccs_base/arm/include/CMSIS/core_cm4.h")
    2916                            .dwattr $C$DW$224, DW_AT_decl_line(0x434)
    2917                            .dwattr $C$DW$224, DW_AT_decl_column(0x12)
    2918                    
    2919                    $C$DW$225       .dwtag  DW_TAG_member
    2920                            .dwattr $C$DW$225, DW_AT_type(*$C$DW$T$46)
    2921                            .dwattr $C$DW$225, DW_AT_name("FIFO1")
    2922                            .dwattr $C$DW$225, DW_AT_TI_symbol_name("FIFO1")
    2923                            .dwattr $C$DW$225, DW_AT_data_member_location[DW_OP_plus_uconst 0xefc]
    2924                            .dwattr $C$DW$225, DW_AT_accessibility(DW_ACCESS_public)
    2925                            .dwattr $C$DW$225, DW_AT_decl_file("C:/ti/ccs1200/ccs/ccs_base/arm/include/CMSIS/core_cm4.h")
    2926                            .dwattr $C$DW$225, DW_AT_decl_line(0x435)
    2927                            .dwattr $C$DW$225, DW_AT_decl_column(0x12)
    2928                    
    2929                    $C$DW$226       .dwtag  DW_TAG_member
    2930                            .dwattr $C$DW$226, DW_AT_type(*$C$DW$T$39)
    2931                            .dwattr $C$DW$226, DW_AT_name("ITCTRL")
    2932                            .dwattr $C$DW$226, DW_AT_TI_symbol_name("ITCTRL")
    2933                            .dwattr $C$DW$226, DW_AT_data_member_location[DW_OP_plus_uconst 0xf00]
    2934                            .dwattr $C$DW$226, DW_AT_accessibility(DW_ACCESS_public)
