TI ARM Assembler PC v20.2.6 Mon Oct 31 23:16:56 2022

Copyright (c) 1996-2018 Texas Instruments Incorporated
system_msp432p401r.asm                                               PAGE    1

       1                    ;******************************************************************************
       2                    ;* TI ARM G3 C/C++ Codegen                                              PC v20.2.6.LTS *
       3                    ;* Date/Time created: Mon Oct 31 23:16:54 2022                                *
       4                    ;******************************************************************************
       5                            .compiler_opts --abi=eabi --arm_vmrs_si_workaround=off --code_state=16 --diag_wrap=off --embed
       6 00000000                   .thumb
       7                    
       8                    $C$DW$CU        .dwtag  DW_TAG_compile_unit
       9                            .dwattr $C$DW$CU, DW_AT_name("../system_msp432p401r.c")
      10                            .dwattr $C$DW$CU, DW_AT_producer("TI TI ARM G3 C/C++ Codegen PC v20.2.6.LTS Copyright (c) 1996
      11                            .dwattr $C$DW$CU, DW_AT_TI_version(0x01)
      12                            .dwattr $C$DW$CU, DW_AT_comp_dir("D:\Y2S1\SC2107 Lab\Lab1_C_Programming\Debug")
      13                            .global SystemCoreClock
      14 00000000                   .data
      15                            .align  4
      16                            .elfsym SystemCoreClock,SYM_SIZE(4)
      17 00000000           SystemCoreClock:
      18 00000000 002DC6C0          .bits           0x2dc6c0,32
      19                                            ; SystemCoreClock @ 0
      20                    
      21                    $C$DW$1 .dwtag  DW_TAG_variable
      22                            .dwattr $C$DW$1, DW_AT_name("SystemCoreClock")
      23                            .dwattr $C$DW$1, DW_AT_TI_symbol_name("SystemCoreClock")
      24                            .dwattr $C$DW$1, DW_AT_location[DW_OP_addr SystemCoreClock]
      25                            .dwattr $C$DW$1, DW_AT_type(*$C$DW$T$22)
      26                            .dwattr $C$DW$1, DW_AT_external
      27                            .dwattr $C$DW$1, DW_AT_decl_file("../system_msp432p401r.c")
      28                            .dwattr $C$DW$1, DW_AT_decl_line(0x5a)
      29                            .dwattr $C$DW$1, DW_AT_decl_column(0x0a)
      30                    
      31                    ;       C:\ti\ccs1200\ccs\tools\compiler\ti-cgt-arm_20.2.6.LTS\bin\armacpia.exe -@C:\\Users\\daych\\Ap
      32 00000000                   .sect   ".text"
      33                            .clink
      34                            .thumbfunc SystemCoreClockUpdate
      35 00000000                   .thumb
      36                            .global SystemCoreClockUpdate
      37                    
      38                    $C$DW$2 .dwtag  DW_TAG_subprogram
      39                            .dwattr $C$DW$2, DW_AT_name("SystemCoreClockUpdate")
      40                            .dwattr $C$DW$2, DW_AT_low_pc(SystemCoreClockUpdate)
      41                            .dwattr $C$DW$2, DW_AT_high_pc(0x00)
      42                            .dwattr $C$DW$2, DW_AT_TI_symbol_name("SystemCoreClockUpdate")
      43                            .dwattr $C$DW$2, DW_AT_external
      44                            .dwattr $C$DW$2, DW_AT_TI_begin_file("../system_msp432p401r.c")
      45                            .dwattr $C$DW$2, DW_AT_TI_begin_line(0x65)
      46                            .dwattr $C$DW$2, DW_AT_TI_begin_column(0x06)
      47                            .dwattr $C$DW$2, DW_AT_decl_file("../system_msp432p401r.c")
      48                            .dwattr $C$DW$2, DW_AT_decl_line(0x65)
      49                            .dwattr $C$DW$2, DW_AT_decl_column(0x06)
      50                            .dwattr $C$DW$2, DW_AT_TI_max_frame_size(0x18)
      51                            .dwpsn  file "../system_msp432p401r.c",line 102,column 1,is_stmt,address SystemCoreClockUpdate
      52                    
      53                            .dwfde $C$DW$CIE, SystemCoreClockUpdate
      54                    
      55                    ;*****************************************************************************
TI ARM Assembler PC v20.2.6 Mon Oct 31 23:16:56 2022

Copyright (c) 1996-2018 Texas Instruments Incorporated
system_msp432p401r.asm                                               PAGE    2

      56                    ;* FUNCTION NAME: SystemCoreClockUpdate                                      *
      57                    ;*                                                                           *
      58                    ;*   Regs Modified     : A1,A2,A3,SP,SR,D0,D0_hi,D1,D1_hi                    *
      59                    ;*   Regs Used         : A1,A2,A3,SP,LR,SR,D0,D0_hi,D1,D1_hi                 *
      60                    ;*   Local Frame Size  : 0 Args + 24 Auto + 0 Save = 24 byte                 *
      61                    ;*****************************************************************************
      62 00000000           SystemCoreClockUpdate:
      63                    ;* --------------------------------------------------------------------------*
      64                            .dwcfi  cfa_offset, 0
      65 00000000 0D18F1AD          SUB       SP, SP, #24           ; [DPU_V7M3_PIPE]  ; [KEEP 32-BIT INS]
      66                            .dwcfi  cfa_offset, 24
      67                    $C$DW$3 .dwtag  DW_TAG_variable
      68                            .dwattr $C$DW$3, DW_AT_name("source")
      69                            .dwattr $C$DW$3, DW_AT_TI_symbol_name("source")
      70                            .dwattr $C$DW$3, DW_AT_type(*$C$DW$T$22)
      71                            .dwattr $C$DW$3, DW_AT_location[DW_OP_breg13 0]
      72                    
      73                    $C$DW$4 .dwtag  DW_TAG_variable
      74                            .dwattr $C$DW$4, DW_AT_name("divider")
      75                            .dwattr $C$DW$4, DW_AT_TI_symbol_name("divider")
      76                            .dwattr $C$DW$4, DW_AT_type(*$C$DW$T$22)
      77                            .dwattr $C$DW$4, DW_AT_location[DW_OP_breg13 4]
      78                    
      79                    $C$DW$5 .dwtag  DW_TAG_variable
      80                            .dwattr $C$DW$5, DW_AT_name("dcoConst")
      81                            .dwattr $C$DW$5, DW_AT_TI_symbol_name("dcoConst")
      82                            .dwattr $C$DW$5, DW_AT_type(*$C$DW$T$16)
      83                            .dwattr $C$DW$5, DW_AT_location[DW_OP_breg13 8]
      84                    
      85                    $C$DW$6 .dwtag  DW_TAG_variable
      86                            .dwattr $C$DW$6, DW_AT_name("calVal")
      87                            .dwattr $C$DW$6, DW_AT_TI_symbol_name("calVal")
      88                            .dwattr $C$DW$6, DW_AT_type(*$C$DW$T$282)
      89                            .dwattr $C$DW$6, DW_AT_location[DW_OP_breg13 12]
      90                    
      91                    $C$DW$7 .dwtag  DW_TAG_variable
      92                            .dwattr $C$DW$7, DW_AT_name("centeredFreq")
      93                            .dwattr $C$DW$7, DW_AT_TI_symbol_name("centeredFreq")
      94                            .dwattr $C$DW$7, DW_AT_type(*$C$DW$T$22)
      95                            .dwattr $C$DW$7, DW_AT_location[DW_OP_breg13 16]
      96                    
      97                    $C$DW$8 .dwtag  DW_TAG_variable
      98                            .dwattr $C$DW$8, DW_AT_name("dcoTune")
      99                            .dwattr $C$DW$8, DW_AT_TI_symbol_name("dcoTune")
     100                            .dwattr $C$DW$8, DW_AT_type(*$C$DW$T$246)
     101                            .dwattr $C$DW$8, DW_AT_location[DW_OP_breg13 20]
     102                    
     103                    $C$DW$9 .dwtag  DW_TAG_variable
     104                            .dwattr $C$DW$9, DW_AT_name("dividerValue")
     105                            .dwattr $C$DW$9, DW_AT_TI_symbol_name("dividerValue")
     106                            .dwattr $C$DW$9, DW_AT_type(*$C$DW$T$30)
     107                            .dwattr $C$DW$9, DW_AT_location[DW_OP_breg13 22]
     108                    
     109                            .dwpsn  file "../system_msp432p401r.c",line 111,column 5,is_stmt,isa 1
     110 00000004 48B1              LDR       A1, $C$CON1           ; [DPU_V7M3_PIPE] |111|  ; [ORIG 16-BIT INS]
TI ARM Assembler PC v20.2.6 Mon Oct 31 23:16:56 2022

Copyright (c) 1996-2018 Texas Instruments Incorporated
system_msp432p401r.asm                                               PAGE    3

     111 00000006 6800              LDR       A1, [A1, #0]          ; [DPU_V7M3_PIPE] |111|  ; [ORIG 16-BIT INS]
     112 00000008 20E0F400          AND       A1, A1, #458752       ; [DPU_V7M3_PIPE] |111|  ; [KEEP 32-BIT INS]
     113 0000000c 0C00              LSRS      A1, A1, #16           ; [DPU_V7M3_PIPE] |111|  ; [ORIG 16-BIT INS]
     114 0000000e 9001              STR       A1, [SP, #4]          ; [DPU_V7M3_PIPE] |111|  ; [ORIG 16-BIT INS]
     115                            .dwpsn  file "../system_msp432p401r.c",line 112,column 5,is_stmt,isa 1
     116 00000010 9901              LDR       A2, [SP, #4]          ; [DPU_V7M3_PIPE] |112|  ; [ORIG 16-BIT INS]
     117 00000012 2001              MOVS      A1, #1                ; [DPU_V7M3_PIPE] |112|  ; [ORIG 16-BIT INS]
     118 00000014 4088              LSLS      A1, A1, A2            ; [DPU_V7M3_PIPE] |112|  ; [ORIG 16-BIT INS]
     119 00000016 0016F88D          STRB      A1, [SP, #22]         ; [DPU_V7M3_PIPE] |112|  ; [KEEP 32-BIT INS]
     120                            .dwpsn  file "../system_msp432p401r.c",line 113,column 5,is_stmt,isa 1
     121 0000001a 48AC              LDR       A1, $C$CON1           ; [DPU_V7M3_PIPE] |113|  ; [ORIG 16-BIT INS]
     122 0000001c 6800              LDR       A1, [A1, #0]          ; [DPU_V7M3_PIPE] |113|  ; [ORIG 16-BIT INS]
     123 0000001e 0007F000          AND       A1, A1, #7            ; [DPU_V7M3_PIPE] |113|  ; [KEEP 32-BIT INS]
     124 00000022 9000              STR       A1, [SP, #0]          ; [DPU_V7M3_PIPE] |113|  ; [ORIG 16-BIT INS]
     125                            .dwpsn  file "../system_msp432p401r.c",line 115,column 5,is_stmt,isa 1
     126 00000024 E112              B         ||$C$L26||            ; [DPU_V7M3_PIPE] |115|  ; [ORIG 16-BIT INS]
     127                            ; BRANCH OCCURS {||$C$L26||}     ; [] |115| 
     128                    ;* --------------------------------------------------------------------------*
     129 00000026           ||$C$L1||:    
     130                            .dwpsn  file "../system_msp432p401r.c",line 118,column 9,is_stmt,isa 1
     131 00000026 48AA              LDR       A1, $C$CON2           ; [DPU_V7M3_PIPE] |118|  ; [ORIG 16-BIT INS]
     132 00000028 7800              LDRB      A1, [A1, #0]          ; [DPU_V7M3_PIPE] |118|  ; [ORIG 16-BIT INS]
     133 0000002a B360              CBZ       A1, ||$C$L4||         ; []  ; [ORIG 16-BIT INS]
     134                            ; BRANCHCC OCCURS {||$C$L4||}    ; [] |118| 
     135                    ;* --------------------------------------------------------------------------*
     136                            .dwpsn  file "../system_msp432p401r.c",line 121,column 13,is_stmt,isa 1
     137 0000002c 49A9              LDR       A2, $C$CON3           ; [DPU_V7M3_PIPE] |121|  ; [ORIG 16-BIT INS]
     138 0000002e 105AF646          MOV       A1, #26970            ; [DPU_V7M3_PIPE] |121|  ; [KEEP 32-BIT INS]
     139 00000032 6008              STR       A1, [A2, #0]          ; [DPU_V7M3_PIPE] |121|  ; [ORIG 16-BIT INS]
     140                            .dwpsn  file "../system_msp432p401r.c",line 122,column 13,is_stmt,isa 1
     141 00000034 49A8              LDR       A2, $C$CON4           ; [DPU_V7M3_PIPE] |122|  ; [ORIG 16-BIT INS]
     142 00000036 6808              LDR       A1, [A2, #0]          ; [DPU_V7M3_PIPE] |122|  ; [ORIG 16-BIT INS]
     143 00000038 0001F040          ORR       A1, A1, #1            ; [DPU_V7M3_PIPE] |122|  ; [KEEP 32-BIT INS]
     144 0000003c 6008              STR       A1, [A2, #0]          ; [DPU_V7M3_PIPE] |122|  ; [ORIG 16-BIT INS]
     145                            .dwpsn  file "../system_msp432p401r.c",line 123,column 13,is_stmt,isa 1
     146 0000003e 49A5              LDR       A2, $C$CON3           ; [DPU_V7M3_PIPE] |123|  ; [ORIG 16-BIT INS]
     147 00000040 2001              MOVS      A1, #1                ; [DPU_V7M3_PIPE] |123|  ; [ORIG 16-BIT INS]
     148 00000042 6008              STR       A1, [A2, #0]          ; [DPU_V7M3_PIPE] |123|  ; [ORIG 16-BIT INS]
     149                            .dwpsn  file "../system_msp432p401r.c",line 125,column 13,is_stmt,isa 1
     150 00000044 48A2              LDR       A1, $C$CON2           ; [DPU_V7M3_PIPE] |125|  ; [ORIG 16-BIT INS]
     151 00000046 7800              LDRB      A1, [A1, #0]          ; [DPU_V7M3_PIPE] |125|  ; [ORIG 16-BIT INS]
     152 00000048 B1A0              CBZ       A1, ||$C$L3||         ; []  ; [ORIG 16-BIT INS]
     153                            ; BRANCHCC OCCURS {||$C$L3||}    ; [] |125| 
     154                    ;* --------------------------------------------------------------------------*
     155                            .dwpsn  file "../system_msp432p401r.c",line 127,column 17,is_stmt,isa 1
     156 0000004a 48A4              LDR       A1, $C$CON5           ; [DPU_V7M3_PIPE] |127|  ; [ORIG 16-BIT INS]
     157 0000004c 7800              LDRB      A1, [A1, #0]          ; [DPU_V7M3_PIPE] |127|  ; [ORIG 16-BIT INS]
     158 0000004e B140              CBZ       A1, ||$C$L2||         ; []  ; [ORIG 16-BIT INS]
     159                            ; BRANCHCC OCCURS {||$C$L2||}    ; [] |127| 
     160                    ;* --------------------------------------------------------------------------*
     161                            .dwpsn  file "../system_msp432p401r.c",line 129,column 21,is_stmt,isa 1
     162 00000050 0016F89D          LDRB      A1, [SP, #22]         ; [DPU_V7M3_PIPE] |129|  ; [KEEP 32-BIT INS]
     163 00000054 49A2              LDR       A2, $C$CON6           ; [DPU_V7M3_PIPE] |129|  ; [ORIG 16-BIT INS]
     164 00000056 32FAF44F          MOV       A3, #128000           ; [DPU_V7M3_PIPE] |129|  ; [KEEP 32-BIT INS]
     165 0000005a F0F0FBB2          UDIV      A1, A3, A1            ; [DPU_V7M3_PIPE] |129|  ; [KEEP 32-BIT INS]
TI ARM Assembler PC v20.2.6 Mon Oct 31 23:16:56 2022

Copyright (c) 1996-2018 Texas Instruments Incorporated
system_msp432p401r.asm                                               PAGE    4

     166 0000005e 6008              STR       A1, [A2, #0]          ; [DPU_V7M3_PIPE] |129|  ; [ORIG 16-BIT INS]
     167 00000060 E106              B         ||$C$L27||            ; [DPU_V7M3_PIPE]  ; [ORIG 16-BIT INS]
     168                            ; BRANCH OCCURS {||$C$L27||}     ; [] 
     169                    ;* --------------------------------------------------------------------------*
     170 00000062           ||$C$L2||:    
     171                            .dwpsn  file "../system_msp432p401r.c",line 133,column 21,is_stmt,isa 1
     172 00000062 0016F89D          LDRB      A1, [SP, #22]         ; [DPU_V7M3_PIPE] |133|  ; [KEEP 32-BIT INS]
     173 00000066 499E              LDR       A2, $C$CON6           ; [DPU_V7M3_PIPE] |133|  ; [ORIG 16-BIT INS]
     174 00000068 42FAF44F          MOV       A3, #32000            ; [DPU_V7M3_PIPE] |133|  ; [KEEP 32-BIT INS]
     175 0000006c F0F0FBB2          UDIV      A1, A3, A1            ; [DPU_V7M3_PIPE] |133|  ; [KEEP 32-BIT INS]
     176 00000070 6008              STR       A1, [A2, #0]          ; [DPU_V7M3_PIPE] |133|  ; [ORIG 16-BIT INS]
     177 00000072 E0FD              B         ||$C$L27||            ; [DPU_V7M3_PIPE]  ; [ORIG 16-BIT INS]
     178                            ; BRANCH OCCURS {||$C$L27||}     ; [] 
     179                    ;* --------------------------------------------------------------------------*
     180 00000074           ||$C$L3||:    
     181                            .dwpsn  file "../system_msp432p401r.c",line 138,column 17,is_stmt,isa 1
     182 00000074 0016F89D          LDRB      A1, [SP, #22]         ; [DPU_V7M3_PIPE] |138|  ; [KEEP 32-BIT INS]
     183 00000078 4999              LDR       A2, $C$CON6           ; [DPU_V7M3_PIPE] |138|  ; [ORIG 16-BIT INS]
     184 0000007a 4200F44F          MOV       A3, #32768            ; [DPU_V7M3_PIPE] |138|  ; [KEEP 32-BIT INS]
     185 0000007e F0F0FBB2          UDIV      A1, A3, A1            ; [DPU_V7M3_PIPE] |138|  ; [KEEP 32-BIT INS]
     186 00000082 6008              STR       A1, [A2, #0]          ; [DPU_V7M3_PIPE] |138|  ; [ORIG 16-BIT INS]
     187 00000084 E0F4              B         ||$C$L27||            ; [DPU_V7M3_PIPE]  ; [ORIG 16-BIT INS]
     188                            ; BRANCH OCCURS {||$C$L27||}     ; [] 
     189                    ;* --------------------------------------------------------------------------*
     190 00000086           ||$C$L4||:    
     191                            .dwpsn  file "../system_msp432p401r.c",line 143,column 13,is_stmt,isa 1
     192 00000086 0016F89D          LDRB      A1, [SP, #22]         ; [DPU_V7M3_PIPE] |143|  ; [KEEP 32-BIT INS]
     193 0000008a 4995              LDR       A2, $C$CON6           ; [DPU_V7M3_PIPE] |143|  ; [ORIG 16-BIT INS]
     194 0000008c 4200F44F          MOV       A3, #32768            ; [DPU_V7M3_PIPE] |143|  ; [KEEP 32-BIT INS]
     195 00000090 F0F0FBB2          UDIV      A1, A3, A1            ; [DPU_V7M3_PIPE] |143|  ; [KEEP 32-BIT INS]
     196 00000094 6008              STR       A1, [A2, #0]          ; [DPU_V7M3_PIPE] |143|  ; [ORIG 16-BIT INS]
     197                            .dwpsn  file "../system_msp432p401r.c",line 145,column 9,is_stmt,isa 1
     198 00000096 E0EB              B         ||$C$L27||            ; [DPU_V7M3_PIPE] |145|  ; [ORIG 16-BIT INS]
     199                            ; BRANCH OCCURS {||$C$L27||}     ; [] |145| 
     200                    ;* --------------------------------------------------------------------------*
     201 00000098           ||$C$L5||:    
     202                            .dwpsn  file "../system_msp432p401r.c",line 147,column 9,is_stmt,isa 1
     203 00000098 0016F89D          LDRB      A1, [SP, #22]         ; [DPU_V7M3_PIPE] |147|  ; [KEEP 32-BIT INS]
     204 0000009c 4990              LDR       A2, $C$CON6           ; [DPU_V7M3_PIPE] |147|  ; [ORIG 16-BIT INS]
     205 0000009e 7210F242          MOV       A3, #10000            ; [DPU_V7M3_PIPE] |147|  ; [KEEP 32-BIT INS]
     206 000000a2 F0F0FBB2          UDIV      A1, A3, A1            ; [DPU_V7M3_PIPE] |147|  ; [KEEP 32-BIT INS]
     207 000000a6 6008              STR       A1, [A2, #0]          ; [DPU_V7M3_PIPE] |147|  ; [ORIG 16-BIT INS]
     208                            .dwpsn  file "../system_msp432p401r.c",line 148,column 9,is_stmt,isa 1
     209 000000a8 E0E2              B         ||$C$L27||            ; [DPU_V7M3_PIPE] |148|  ; [ORIG 16-BIT INS]
     210                            ; BRANCH OCCURS {||$C$L27||}     ; [] |148| 
     211                    ;* --------------------------------------------------------------------------*
     212 000000aa           ||$C$L6||:    
     213                            .dwpsn  file "../system_msp432p401r.c",line 150,column 9,is_stmt,isa 1
     214 000000aa 488C              LDR       A1, $C$CON5           ; [DPU_V7M3_PIPE] |150|  ; [ORIG 16-BIT INS]
     215 000000ac 7800              LDRB      A1, [A1, #0]          ; [DPU_V7M3_PIPE] |150|  ; [ORIG 16-BIT INS]
     216 000000ae B140              CBZ       A1, ||$C$L7||         ; []  ; [ORIG 16-BIT INS]
     217                            ; BRANCHCC OCCURS {||$C$L7||}    ; [] |150| 
     218                    ;* --------------------------------------------------------------------------*
     219                            .dwpsn  file "../system_msp432p401r.c",line 152,column 13,is_stmt,isa 1
     220 000000b0 0016F89D          LDRB      A1, [SP, #22]         ; [DPU_V7M3_PIPE] |152|  ; [KEEP 32-BIT INS]
TI ARM Assembler PC v20.2.6 Mon Oct 31 23:16:56 2022

Copyright (c) 1996-2018 Texas Instruments Incorporated
system_msp432p401r.asm                                               PAGE    5

     221 000000b4 498A              LDR       A2, $C$CON6           ; [DPU_V7M3_PIPE] |152|  ; [ORIG 16-BIT INS]
     222 000000b6 32FAF44F          MOV       A3, #128000           ; [DPU_V7M3_PIPE] |152|  ; [KEEP 32-BIT INS]
     223 000000ba F0F0FBB2          UDIV      A1, A3, A1            ; [DPU_V7M3_PIPE] |152|  ; [KEEP 32-BIT INS]
     224 000000be 6008              STR       A1, [A2, #0]          ; [DPU_V7M3_PIPE] |152|  ; [ORIG 16-BIT INS]
     225 000000c0 E0D6              B         ||$C$L27||            ; [DPU_V7M3_PIPE]  ; [ORIG 16-BIT INS]
     226                            ; BRANCH OCCURS {||$C$L27||}     ; [] 
     227                    ;* --------------------------------------------------------------------------*
     228 000000c2           ||$C$L7||:    
     229                            .dwpsn  file "../system_msp432p401r.c",line 156,column 13,is_stmt,isa 1
     230 000000c2 0016F89D          LDRB      A1, [SP, #22]         ; [DPU_V7M3_PIPE] |156|  ; [KEEP 32-BIT INS]
     231 000000c6 4986              LDR       A2, $C$CON6           ; [DPU_V7M3_PIPE] |156|  ; [ORIG 16-BIT INS]
     232 000000c8 42FAF44F          MOV       A3, #32000            ; [DPU_V7M3_PIPE] |156|  ; [KEEP 32-BIT INS]
     233 000000cc F0F0FBB2          UDIV      A1, A3, A1            ; [DPU_V7M3_PIPE] |156|  ; [KEEP 32-BIT INS]
     234 000000d0 6008              STR       A1, [A2, #0]          ; [DPU_V7M3_PIPE] |156|  ; [ORIG 16-BIT INS]
     235                            .dwpsn  file "../system_msp432p401r.c",line 158,column 9,is_stmt,isa 1
     236 000000d2 E0CD              B         ||$C$L27||            ; [DPU_V7M3_PIPE] |158|  ; [ORIG 16-BIT INS]
     237                            ; BRANCH OCCURS {||$C$L27||}     ; [] |158| 
     238                    ;* --------------------------------------------------------------------------*
     239 000000d4           ||$C$L8||:    
     240                            .dwpsn  file "../system_msp432p401r.c",line 160,column 9,is_stmt,isa 1
     241 000000d4 4883              LDR       A1, $C$CON7           ; [DPU_V7M3_PIPE] |160|  ; [ORIG 16-BIT INS]
     242 000000d6 6800              LDR       A1, [A1, #0]          ; [DPU_V7M3_PIPE] |160|  ; [ORIG 16-BIT INS]
     243 000000d8 209FF36F          BFC       A1, #10, #22          ; [DPU_V7M3_PIPE] |160|  ; [KEEP 32-BIT INS]
     244 000000dc 0014F8AD          STRH      A1, [SP, #20]         ; [DPU_V7M3_PIPE] |160|  ; [KEEP 32-BIT INS]
     245                            .dwpsn  file "../system_msp432p401r.c",line 162,column 9,is_stmt,isa 1
     246 000000e0 E011              B         ||$C$L15||            ; [DPU_V7M3_PIPE] |162|  ; [ORIG 16-BIT INS]
     247                            ; BRANCH OCCURS {||$C$L15||}     ; [] |162| 
     248                    ;* --------------------------------------------------------------------------*
     249 000000e2           ||$C$L9||:    
     250                            .dwpsn  file "../system_msp432p401r.c",line 165,column 13,is_stmt,isa 1
     251 000000e2 4881              LDR       A1, $C$CON8           ; [DPU_V7M3_PIPE] |165|  ; [ORIG 16-BIT INS]
     252 000000e4 9004              STR       A1, [SP, #16]         ; [DPU_V7M3_PIPE] |165|  ; [ORIG 16-BIT INS]
     253                            .dwpsn  file "../system_msp432p401r.c",line 166,column 13,is_stmt,isa 1
     254 000000e6 E022              B         ||$C$L16||            ; [DPU_V7M3_PIPE] |166|  ; [ORIG 16-BIT INS]
     255                            ; BRANCH OCCURS {||$C$L16||}     ; [] |166| 
     256                    ;* --------------------------------------------------------------------------*
     257 000000e8           ||$C$L10||:    
     258                            .dwpsn  file "../system_msp432p401r.c",line 168,column 13,is_stmt,isa 1
     259 000000e8 4880              LDR       A1, $C$CON9           ; [DPU_V7M3_PIPE] |168|  ; [ORIG 16-BIT INS]
     260 000000ea 9004              STR       A1, [SP, #16]         ; [DPU_V7M3_PIPE] |168|  ; [ORIG 16-BIT INS]
     261                            .dwpsn  file "../system_msp432p401r.c",line 169,column 13,is_stmt,isa 1
     262 000000ec E01F              B         ||$C$L16||            ; [DPU_V7M3_PIPE] |169|  ; [ORIG 16-BIT INS]
     263                            ; BRANCH OCCURS {||$C$L16||}     ; [] |169| 
     264                    ;* --------------------------------------------------------------------------*
     265 000000ee           ||$C$L11||:    
     266                            .dwpsn  file "../system_msp432p401r.c",line 171,column 13,is_stmt,isa 1
     267 000000ee 4880              LDR       A1, $C$CON10          ; [DPU_V7M3_PIPE] |171|  ; [ORIG 16-BIT INS]
     268 000000f0 9004              STR       A1, [SP, #16]         ; [DPU_V7M3_PIPE] |171|  ; [ORIG 16-BIT INS]
     269                            .dwpsn  file "../system_msp432p401r.c",line 172,column 13,is_stmt,isa 1
     270 000000f2 E01C              B         ||$C$L16||            ; [DPU_V7M3_PIPE] |172|  ; [ORIG 16-BIT INS]
     271                            ; BRANCH OCCURS {||$C$L16||}     ; [] |172| 
     272                    ;* --------------------------------------------------------------------------*
     273 000000f4           ||$C$L12||:    
     274                            .dwpsn  file "../system_msp432p401r.c",line 174,column 13,is_stmt,isa 1
     275 000000f4 487F              LDR       A1, $C$CON11          ; [DPU_V7M3_PIPE] |174|  ; [ORIG 16-BIT INS]
TI ARM Assembler PC v20.2.6 Mon Oct 31 23:16:56 2022

Copyright (c) 1996-2018 Texas Instruments Incorporated
system_msp432p401r.asm                                               PAGE    6

     276 000000f6 9004              STR       A1, [SP, #16]         ; [DPU_V7M3_PIPE] |174|  ; [ORIG 16-BIT INS]
     277                            .dwpsn  file "../system_msp432p401r.c",line 175,column 13,is_stmt,isa 1
     278 000000f8 E019              B         ||$C$L16||            ; [DPU_V7M3_PIPE] |175|  ; [ORIG 16-BIT INS]
     279                            ; BRANCH OCCURS {||$C$L16||}     ; [] |175| 
     280                    ;* --------------------------------------------------------------------------*
     281 000000fa           ||$C$L13||:    
     282                            .dwpsn  file "../system_msp432p401r.c",line 177,column 13,is_stmt,isa 1
     283 000000fa 487F              LDR       A1, $C$CON12          ; [DPU_V7M3_PIPE] |177|  ; [ORIG 16-BIT INS]
     284 000000fc 9004              STR       A1, [SP, #16]         ; [DPU_V7M3_PIPE] |177|  ; [ORIG 16-BIT INS]
     285                            .dwpsn  file "../system_msp432p401r.c",line 178,column 13,is_stmt,isa 1
     286 000000fe E016              B         ||$C$L16||            ; [DPU_V7M3_PIPE] |178|  ; [ORIG 16-BIT INS]
     287                            ; BRANCH OCCURS {||$C$L16||}     ; [] |178| 
     288                    ;* --------------------------------------------------------------------------*
     289 00000100           ||$C$L14||:    
     290                            .dwpsn  file "../system_msp432p401r.c",line 180,column 13,is_stmt,isa 1
     291 00000100 487E              LDR       A1, $C$CON13          ; [DPU_V7M3_PIPE] |180|  ; [ORIG 16-BIT INS]
     292 00000102 9004              STR       A1, [SP, #16]         ; [DPU_V7M3_PIPE] |180|  ; [ORIG 16-BIT INS]
     293                            .dwpsn  file "../system_msp432p401r.c",line 181,column 13,is_stmt,isa 1
     294 00000104 E013              B         ||$C$L16||            ; [DPU_V7M3_PIPE] |181|  ; [ORIG 16-BIT INS]
     295                            ; BRANCH OCCURS {||$C$L16||}     ; [] |181| 
     296                    ;* --------------------------------------------------------------------------*
     297                    ;* --------------------------------------------------------------------------*
     298 00000106           ||$C$L15||:    
     299                            .dwpsn  file "../system_msp432p401r.c",line 162,column 9,is_stmt,isa 1
     300 00000106 4877              LDR       A1, $C$CON7           ; [DPU_V7M3_PIPE] |162|  ; [ORIG 16-BIT INS]
     301 00000108 6800              LDR       A1, [A1, #0]          ; [DPU_V7M3_PIPE] |162|  ; [ORIG 16-BIT INS]
     302 0000010a 20E0F410          ANDS      A1, A1, #458752       ; [DPU_V7M3_PIPE] |162|  ; [KEEP 32-BIT INS]
     303 0000010e D0E8              BEQ       ||$C$L9||             ; [DPU_V7M3_PIPE] |162|  ; [ORIG 16-BIT INS]
     304                            ; BRANCHCC OCCURS {||$C$L9||}    ; [] |162| 
     305                    ;* --------------------------------------------------------------------------*
     306 00000110 3080F5B0          SUBS      A1, A1, #65536        ; [DPU_V7M3_PIPE] |162|  ; [KEEP 32-BIT INS]
     307 00000114 D0E8              BEQ       ||$C$L10||            ; [DPU_V7M3_PIPE] |162|  ; [ORIG 16-BIT INS]
     308                            ; BRANCHCC OCCURS {||$C$L10||}   ; [] |162| 
     309                    ;* --------------------------------------------------------------------------*
     310 00000116 3080F5B0          SUBS      A1, A1, #65536        ; [DPU_V7M3_PIPE] |162|  ; [KEEP 32-BIT INS]
     311 0000011a D0E8              BEQ       ||$C$L11||            ; [DPU_V7M3_PIPE] |162|  ; [ORIG 16-BIT INS]
     312                            ; BRANCHCC OCCURS {||$C$L11||}   ; [] |162| 
     313                    ;* --------------------------------------------------------------------------*
     314 0000011c 3080F5B0          SUBS      A1, A1, #65536        ; [DPU_V7M3_PIPE] |162|  ; [KEEP 32-BIT INS]
     315 00000120 D0E8              BEQ       ||$C$L12||            ; [DPU_V7M3_PIPE] |162|  ; [ORIG 16-BIT INS]
     316                            ; BRANCHCC OCCURS {||$C$L12||}   ; [] |162| 
     317                    ;* --------------------------------------------------------------------------*
     318 00000122 3080F5B0          SUBS      A1, A1, #65536        ; [DPU_V7M3_PIPE] |162|  ; [KEEP 32-BIT INS]
     319 00000126 D0E8              BEQ       ||$C$L13||            ; [DPU_V7M3_PIPE] |162|  ; [ORIG 16-BIT INS]
     320                            ; BRANCHCC OCCURS {||$C$L13||}   ; [] |162| 
     321                    ;* --------------------------------------------------------------------------*
     322 00000128 3080F5B0          SUBS      A1, A1, #65536        ; [DPU_V7M3_PIPE] |162|  ; [KEEP 32-BIT INS]
     323 0000012c D0E8              BEQ       ||$C$L14||            ; [DPU_V7M3_PIPE] |162|  ; [ORIG 16-BIT INS]
     324                            ; BRANCHCC OCCURS {||$C$L14||}   ; [] |162| 
     325                    ;* --------------------------------------------------------------------------*
     326 0000012e           ||$C$L16||:    
     327                            .dwpsn  file "../system_msp432p401r.c",line 184,column 9,is_stmt,isa 1
     328 0000012e 0014F9BD          LDRSH     A1, [SP, #20]         ; [DPU_V7M3_PIPE] |184|  ; [KEEP 32-BIT INS]
     329 00000132 B918              CBNZ      A1, ||$C$L17||        ; []  ; [ORIG 16-BIT INS]
     330                            ; BRANCHCC OCCURS {||$C$L17||}   ; [] |184| 
TI ARM Assembler PC v20.2.6 Mon Oct 31 23:16:56 2022

Copyright (c) 1996-2018 Texas Instruments Incorporated
system_msp432p401r.asm                                               PAGE    7

     331                    ;* --------------------------------------------------------------------------*
     332                            .dwpsn  file "../system_msp432p401r.c",line 186,column 13,is_stmt,isa 1
     333 00000134 9804              LDR       A1, [SP, #16]         ; [DPU_V7M3_PIPE] |186|  ; [ORIG 16-BIT INS]
     334 00000136 496A              LDR       A2, $C$CON6           ; [DPU_V7M3_PIPE] |186|  ; [ORIG 16-BIT INS]
     335 00000138 6008              STR       A1, [A2, #0]          ; [DPU_V7M3_PIPE] |186|  ; [ORIG 16-BIT INS]
     336 0000013a E099              B         ||$C$L28||            ; [DPU_V7M3_PIPE]  ; [ORIG 16-BIT INS]
     337                            ; BRANCH OCCURS {||$C$L28||}     ; [] 
     338                    ;* --------------------------------------------------------------------------*
     339 0000013c           ||$C$L17||:    
     340                            .dwpsn  file "../system_msp432p401r.c",line 191,column 13,is_stmt,isa 1
     341 0000013c 0014F9BD          LDRSH     A1, [SP, #20]         ; [DPU_V7M3_PIPE] |191|  ; [KEEP 32-BIT INS]
     342 00000140 0B40              LSRS      A1, A1, #13           ; [DPU_V7M3_PIPE] |191|  ; [ORIG 16-BIT INS]
     343 00000142 D305              BCC       ||$C$L18||            ; [DPU_V7M3_PIPE] |191|  ; [ORIG 16-BIT INS]
     344                            ; BRANCHCC OCCURS {||$C$L18||}   ; [] |191| 
     345                    ;* --------------------------------------------------------------------------*
     346                            .dwpsn  file "../system_msp432p401r.c",line 193,column 17,is_stmt,isa 1
     347 00000144 0014F9BD          LDRSH     A1, [SP, #20]         ; [DPU_V7M3_PIPE] |193|  ; [KEEP 32-BIT INS]
     348 00000148 4070F440          ORR       A1, A1, #61440        ; [DPU_V7M3_PIPE] |193|  ; [KEEP 32-BIT INS]
     349 0000014c 0014F8AD          STRH      A1, [SP, #20]         ; [DPU_V7M3_PIPE] |193|  ; [KEEP 32-BIT INS]
     350                    ;* --------------------------------------------------------------------------*
     351 00000150           ||$C$L18||:    
     352                            .dwpsn  file "../system_msp432p401r.c",line 196,column 13,is_stmt,isa 1
     353 00000150 486B              LDR       A1, $C$CON14          ; [DPU_V7M3_PIPE] |196|  ; [ORIG 16-BIT INS]
     354 00000152 7800              LDRB      A1, [A1, #0]          ; [DPU_V7M3_PIPE] |196|  ; [ORIG 16-BIT INS]
     355 00000154 B130              CBZ       A1, ||$C$L19||        ; []  ; [ORIG 16-BIT INS]
     356                            ; BRANCHCC OCCURS {||$C$L19||}   ; [] |196| 
     357                    ;* --------------------------------------------------------------------------*
     358                            .dwpsn  file "../system_msp432p401r.c",line 198,column 17,is_stmt,isa 1
     359 00000156 486B              LDR       A1, $C$CON15          ; [DPU_V7M3_PIPE] |198|  ; [ORIG 16-BIT INS]
     360 00000158 6800              LDR       A1, [A1, #0]          ; [DPU_V7M3_PIPE] |198|  ; [ORIG 16-BIT INS]
     361 0000015a 9002              STR       A1, [SP, #8]          ; [DPU_V7M3_PIPE] |198|  ; [ORIG 16-BIT INS]
     362                            .dwpsn  file "../system_msp432p401r.c",line 199,column 17,is_stmt,isa 1
     363 0000015c 486A              LDR       A1, $C$CON16          ; [DPU_V7M3_PIPE] |199|  ; [ORIG 16-BIT INS]
     364 0000015e 6800              LDR       A1, [A1, #0]          ; [DPU_V7M3_PIPE] |199|  ; [ORIG 16-BIT INS]
     365 00000160 9003              STR       A1, [SP, #12]         ; [DPU_V7M3_PIPE] |199|  ; [ORIG 16-BIT INS]
     366 00000162 E005              B         ||$C$L20||            ; [DPU_V7M3_PIPE]  ; [ORIG 16-BIT INS]
     367                            ; BRANCH OCCURS {||$C$L20||}     ; [] 
     368                    ;* --------------------------------------------------------------------------*
     369 00000164           ||$C$L19||:    
     370                            .dwpsn  file "../system_msp432p401r.c",line 204,column 17,is_stmt,isa 1
     371 00000164 4869              LDR       A1, $C$CON17          ; [DPU_V7M3_PIPE] |204|  ; [ORIG 16-BIT INS]
     372 00000166 6800              LDR       A1, [A1, #0]          ; [DPU_V7M3_PIPE] |204|  ; [ORIG 16-BIT INS]
     373 00000168 9002              STR       A1, [SP, #8]          ; [DPU_V7M3_PIPE] |204|  ; [ORIG 16-BIT INS]
     374                            .dwpsn  file "../system_msp432p401r.c",line 205,column 17,is_stmt,isa 1
     375 0000016a 4869              LDR       A1, $C$CON18          ; [DPU_V7M3_PIPE] |205|  ; [ORIG 16-BIT INS]
     376 0000016c 6800              LDR       A1, [A1, #0]          ; [DPU_V7M3_PIPE] |205|  ; [ORIG 16-BIT INS]
     377 0000016e 9003              STR       A1, [SP, #12]         ; [DPU_V7M3_PIPE] |205|  ; [ORIG 16-BIT INS]
     378                    ;* --------------------------------------------------------------------------*
     379 00000170           ||$C$L20||:    
     380                            .dwpsn  file "../system_msp432p401r.c",line 208,column 13,is_stmt,isa 1
     381 00000170 9803              LDR       A1, [SP, #12]         ; [DPU_V7M3_PIPE] |208|  ; [ORIG 16-BIT INS]
     382 00000172 0A02EDDD          VLDR.32   S1, [SP, #8]          ; [DPU_MERLIN_PIPE] |208|  ; [KEEP 32-BIT INS]
     383 00000176 7040F5C0          RSB       A1, A1, #768          ; [DPU_V7M3_PIPE] |208|  ; [KEEP 32-BIT INS]
     384 0000017a 0A10EE00          VMOV      S0, A1                ; [DPU_MERLIN_PIPE] |208|  ; [KEEP 32-BIT INS]
     385 0000017e 1AC0EEB8          VCVT.F32.S32 S2, S0             ; [DPU_MERLIN_PIPE] |208|  ; [KEEP 32-BIT INS]
TI ARM Assembler PC v20.2.6 Mon Oct 31 23:16:56 2022

Copyright (c) 1996-2018 Texas Instruments Incorporated
system_msp432p401r.asm                                               PAGE    8

     386 00000182 0A00EEB7          VMOV.F32  S0, #1.00000000000000000000e+00 ; [DPU_MERLIN_PIPE] |208|  ; [KEEP 32-BIT INS]
     387 00000186 0A20EE01          VMLA.F32  S0, S2, S1            ; [DPU_MERLIN_PIPE] |208|  ; [KEEP 32-BIT INS]
     388 0000018a 0A02EDDD          VLDR.32   S1, [SP, #8]          ; [DPU_MERLIN_PIPE] |208|  ; [KEEP 32-BIT INS]
     389 0000018e 0014F9BD          LDRSH     A1, [SP, #20]         ; [DPU_V7M3_PIPE] |208|  ; [KEEP 32-BIT INS]
     390 00000192 0A10EE01          VMOV      S2, A1                ; [DPU_MERLIN_PIPE] |208|  ; [KEEP 32-BIT INS]
     391 00000196 1A00EEF2          VMOV.F32  S3, #8.00000000000000000000e+00 ; [DPU_MERLIN_PIPE] |208|  ; [KEEP 32-BIT INS]
     392 0000019a 1AC1EEB8          VCVT.F32.S32 S2, S2             ; [DPU_MERLIN_PIPE] |208|  ; [KEEP 32-BIT INS]
     393 0000019e 0A21EE20          VMUL.F32  S0, S0, S3            ; [DPU_MERLIN_PIPE] |208|  ; [KEEP 32-BIT INS]
     394 000001a2 0A20EE61          VMUL.F32  S1, S2, S1            ; [DPU_MERLIN_PIPE] |208|  ; [KEEP 32-BIT INS]
     395 000001a6 0A80EE80          VDIV.F32  S0, S1, S0            ; [DPU_MERLIN_PIPE] |208|  ; [KEEP 32-BIT INS]
     396 000001aa 9804              LDR       A1, [SP, #16]         ; [DPU_V7M3_PIPE] |208|  ; [ORIG 16-BIT INS]
     397 000001ac 0A90EE00          VMOV      S1, A1                ; [DPU_MERLIN_PIPE] |208|  ; [KEEP 32-BIT INS]
     398 000001b0 1A00EEB7          VMOV.F32  S2, #1.00000000000000000000e+00 ; [DPU_MERLIN_PIPE] |208|  ; [KEEP 32-BIT INS]
     399 000001b4 0A60EEF8          VCVT.F32.U32 S1, S1             ; [DPU_MERLIN_PIPE] |208|  ; [KEEP 32-BIT INS]
     400 000001b8 0A40EE31          VSUB.F32  S0, S2, S0            ; [DPU_MERLIN_PIPE] |208|  ; [KEEP 32-BIT INS]
     401 000001bc 0A80EE80          VDIV.F32  S0, S1, S0            ; [DPU_MERLIN_PIPE] |208|  ; [KEEP 32-BIT INS]
     402 000001c0 0AC0EEBC          VCVT.U32.F32 S0, S0             ; [DPU_MERLIN_PIPE] |208|  ; [KEEP 32-BIT INS]
     403 000001c4 4946              LDR       A2, $C$CON6           ; [DPU_V7M3_PIPE] |208|  ; [ORIG 16-BIT INS]
     404 000001c6 0A10EE10          VMOV      A1, S0                ; [DPU_MERLIN_PIPE] |208|  ; [KEEP 32-BIT INS]
     405 000001ca 6008              STR       A1, [A2, #0]          ; [DPU_V7M3_PIPE] |208|  ; [ORIG 16-BIT INS]
     406                            .dwpsn  file "../system_msp432p401r.c",line 213,column 9,is_stmt,isa 1
     407 000001cc E050              B         ||$C$L28||            ; [DPU_V7M3_PIPE] |213|  ; [ORIG 16-BIT INS]
     408                            ; BRANCH OCCURS {||$C$L28||}     ; [] |213| 
     409                    ;* --------------------------------------------------------------------------*
     410 000001ce           ||$C$L21||:    
     411                            .dwpsn  file "../system_msp432p401r.c",line 215,column 9,is_stmt,isa 1
     412 000001ce 2016F89D          LDRB      A3, [SP, #22]         ; [DPU_V7M3_PIPE] |215|  ; [KEEP 32-BIT INS]
     413 000001d2 4849              LDR       A1, $C$CON12          ; [DPU_V7M3_PIPE] |215|  ; [ORIG 16-BIT INS]
     414 000001d4 4942              LDR       A2, $C$CON6           ; [DPU_V7M3_PIPE] |215|  ; [ORIG 16-BIT INS]
     415 000001d6 F0F2FBB0          UDIV      A1, A1, A3            ; [DPU_V7M3_PIPE] |215|  ; [KEEP 32-BIT INS]
     416 000001da 6008              STR       A1, [A2, #0]          ; [DPU_V7M3_PIPE] |215|  ; [ORIG 16-BIT INS]
     417                            .dwpsn  file "../system_msp432p401r.c",line 216,column 9,is_stmt,isa 1
     418 000001dc E048              B         ||$C$L28||            ; [DPU_V7M3_PIPE] |216|  ; [ORIG 16-BIT INS]
     419                            ; BRANCH OCCURS {||$C$L28||}     ; [] |216| 
     420                    ;* --------------------------------------------------------------------------*
     421 000001de           ||$C$L22||:    
     422                            .dwpsn  file "../system_msp432p401r.c",line 218,column 9,is_stmt,isa 1
     423 000001de 484D              LDR       A1, $C$CON19          ; [DPU_V7M3_PIPE] |218|  ; [ORIG 16-BIT INS]
     424 000001e0 7800              LDRB      A1, [A1, #0]          ; [DPU_V7M3_PIPE] |218|  ; [ORIG 16-BIT INS]
     425 000001e2 B358              CBZ       A1, ||$C$L25||        ; []  ; [ORIG 16-BIT INS]
     426                            ; BRANCHCC OCCURS {||$C$L25||}   ; [] |218| 
     427                    ;* --------------------------------------------------------------------------*
     428                            .dwpsn  file "../system_msp432p401r.c",line 221,column 13,is_stmt,isa 1
     429 000001e4 493B              LDR       A2, $C$CON3           ; [DPU_V7M3_PIPE] |221|  ; [ORIG 16-BIT INS]
     430 000001e6 105AF646          MOV       A1, #26970            ; [DPU_V7M3_PIPE] |221|  ; [KEEP 32-BIT INS]
     431 000001ea 6008              STR       A1, [A2, #0]          ; [DPU_V7M3_PIPE] |221|  ; [ORIG 16-BIT INS]
     432                            .dwpsn  file "../system_msp432p401r.c",line 222,column 13,is_stmt,isa 1
     433 000001ec 493A              LDR       A2, $C$CON4           ; [DPU_V7M3_PIPE] |222|  ; [ORIG 16-BIT INS]
     434 000001ee 6808              LDR       A1, [A2, #0]          ; [DPU_V7M3_PIPE] |222|  ; [ORIG 16-BIT INS]
     435 000001f0 0002F040          ORR       A1, A1, #2            ; [DPU_V7M3_PIPE] |222|  ; [KEEP 32-BIT INS]
     436 000001f4 6008              STR       A1, [A2, #0]          ; [DPU_V7M3_PIPE] |222|  ; [ORIG 16-BIT INS]
     437                            .dwpsn  file "../system_msp432p401r.c",line 223,column 13,is_stmt,isa 1
     438 000001f6 4937              LDR       A2, $C$CON3           ; [DPU_V7M3_PIPE] |223|  ; [ORIG 16-BIT INS]
     439 000001f8 2001              MOVS      A1, #1                ; [DPU_V7M3_PIPE] |223|  ; [ORIG 16-BIT INS]
     440 000001fa 6008              STR       A1, [A2, #0]          ; [DPU_V7M3_PIPE] |223|  ; [ORIG 16-BIT INS]
TI ARM Assembler PC v20.2.6 Mon Oct 31 23:16:56 2022

Copyright (c) 1996-2018 Texas Instruments Incorporated
system_msp432p401r.asm                                               PAGE    9

     441                            .dwpsn  file "../system_msp432p401r.c",line 225,column 13,is_stmt,isa 1
     442 000001fc 4845              LDR       A1, $C$CON19          ; [DPU_V7M3_PIPE] |225|  ; [ORIG 16-BIT INS]
     443 000001fe 7800              LDRB      A1, [A1, #0]          ; [DPU_V7M3_PIPE] |225|  ; [ORIG 16-BIT INS]
     444 00000200 B1A0              CBZ       A1, ||$C$L24||        ; []  ; [ORIG 16-BIT INS]
     445                            ; BRANCHCC OCCURS {||$C$L24||}   ; [] |225| 
     446                    ;* --------------------------------------------------------------------------*
     447                            .dwpsn  file "../system_msp432p401r.c",line 227,column 17,is_stmt,isa 1
     448 00000202 4836              LDR       A1, $C$CON5           ; [DPU_V7M3_PIPE] |227|  ; [ORIG 16-BIT INS]
     449 00000204 7800              LDRB      A1, [A1, #0]          ; [DPU_V7M3_PIPE] |227|  ; [ORIG 16-BIT INS]
     450 00000206 B140              CBZ       A1, ||$C$L23||        ; []  ; [ORIG 16-BIT INS]
     451                            ; BRANCHCC OCCURS {||$C$L23||}   ; [] |227| 
     452                    ;* --------------------------------------------------------------------------*
     453                            .dwpsn  file "../system_msp432p401r.c",line 229,column 21,is_stmt,isa 1
     454 00000208 0016F89D          LDRB      A1, [SP, #22]         ; [DPU_V7M3_PIPE] |229|  ; [KEEP 32-BIT INS]
     455 0000020c 4934              LDR       A2, $C$CON6           ; [DPU_V7M3_PIPE] |229|  ; [ORIG 16-BIT INS]
     456 0000020e 32FAF44F          MOV       A3, #128000           ; [DPU_V7M3_PIPE] |229|  ; [KEEP 32-BIT INS]
     457 00000212 F0F0FBB2          UDIV      A1, A3, A1            ; [DPU_V7M3_PIPE] |229|  ; [KEEP 32-BIT INS]
     458 00000216 6008              STR       A1, [A2, #0]          ; [DPU_V7M3_PIPE] |229|  ; [ORIG 16-BIT INS]
     459 00000218 E02A              B         ||$C$L28||            ; [DPU_V7M3_PIPE]  ; [ORIG 16-BIT INS]
     460                            ; BRANCH OCCURS {||$C$L28||}     ; [] 
     461                    ;* --------------------------------------------------------------------------*
     462 0000021a           ||$C$L23||:    
     463                            .dwpsn  file "../system_msp432p401r.c",line 233,column 21,is_stmt,isa 1
     464 0000021a 0016F89D          LDRB      A1, [SP, #22]         ; [DPU_V7M3_PIPE] |233|  ; [KEEP 32-BIT INS]
     465 0000021e 4930              LDR       A2, $C$CON6           ; [DPU_V7M3_PIPE] |233|  ; [ORIG 16-BIT INS]
     466 00000220 42FAF44F          MOV       A3, #32000            ; [DPU_V7M3_PIPE] |233|  ; [KEEP 32-BIT INS]
     467 00000224 F0F0FBB2          UDIV      A1, A3, A1            ; [DPU_V7M3_PIPE] |233|  ; [KEEP 32-BIT INS]
     468 00000228 6008              STR       A1, [A2, #0]          ; [DPU_V7M3_PIPE] |233|  ; [ORIG 16-BIT INS]
     469 0000022a E021              B         ||$C$L28||            ; [DPU_V7M3_PIPE]  ; [ORIG 16-BIT INS]
     470                            ; BRANCH OCCURS {||$C$L28||}     ; [] 
     471                    ;* --------------------------------------------------------------------------*
     472 0000022c           ||$C$L24||:    
     473                            .dwpsn  file "../system_msp432p401r.c",line 238,column 17,is_stmt,isa 1
     474 0000022c 2016F89D          LDRB      A3, [SP, #22]         ; [DPU_V7M3_PIPE] |238|  ; [KEEP 32-BIT INS]
     475 00000230 4832              LDR       A1, $C$CON13          ; [DPU_V7M3_PIPE] |238|  ; [ORIG 16-BIT INS]
     476 00000232 492B              LDR       A2, $C$CON6           ; [DPU_V7M3_PIPE] |238|  ; [ORIG 16-BIT INS]
     477 00000234 F0F2FBB0          UDIV      A1, A1, A3            ; [DPU_V7M3_PIPE] |238|  ; [KEEP 32-BIT INS]
     478 00000238 6008              STR       A1, [A2, #0]          ; [DPU_V7M3_PIPE] |238|  ; [ORIG 16-BIT INS]
     479 0000023a E019              B         ||$C$L28||            ; [DPU_V7M3_PIPE]  ; [ORIG 16-BIT INS]
     480                            ; BRANCH OCCURS {||$C$L28||}     ; [] 
     481                    ;* --------------------------------------------------------------------------*
     482 0000023c           ||$C$L25||:    
     483                            .dwpsn  file "../system_msp432p401r.c",line 243,column 13,is_stmt,isa 1
     484 0000023c 2016F89D          LDRB      A3, [SP, #22]         ; [DPU_V7M3_PIPE] |243|  ; [KEEP 32-BIT INS]
     485 00000240 482E              LDR       A1, $C$CON13          ; [DPU_V7M3_PIPE] |243|  ; [ORIG 16-BIT INS]
     486 00000242 4927              LDR       A2, $C$CON6           ; [DPU_V7M3_PIPE] |243|  ; [ORIG 16-BIT INS]
     487 00000244 F0F2FBB0          UDIV      A1, A1, A3            ; [DPU_V7M3_PIPE] |243|  ; [KEEP 32-BIT INS]
     488 00000248 6008              STR       A1, [A2, #0]          ; [DPU_V7M3_PIPE] |243|  ; [ORIG 16-BIT INS]
     489                            .dwpsn  file "../system_msp432p401r.c",line 245,column 9,is_stmt,isa 1
     490 0000024a E011              B         ||$C$L28||            ; [DPU_V7M3_PIPE] |245|  ; [ORIG 16-BIT INS]
     491                            ; BRANCH OCCURS {||$C$L28||}     ; [] |245| 
     492                    ;* --------------------------------------------------------------------------*
     493                    ;* --------------------------------------------------------------------------*
     494 0000024c           ||$C$L26||:    
     495                            .dwpsn  file "../system_msp432p401r.c",line 115,column 5,is_stmt,isa 1
TI ARM Assembler PC v20.2.6 Mon Oct 31 23:16:56 2022

Copyright (c) 1996-2018 Texas Instruments Incorporated
system_msp432p401r.asm                                               PAGE   10

     496 0000024c 9800              LDR       A1, [SP, #0]          ; [DPU_V7M3_PIPE] |115|  ; [ORIG 16-BIT INS]
     497 0000024e 2800              CMP       A1, #0                ; [DPU_V7M3_PIPE] |115|  ; [ORIG 16-BIT INS]
     498 00000250 AFFEF43F!         BEQ       ||$C$L1||             ; [DPU_V7M3_PIPE] |115|  ; [KEEP 32-BIT INS]
     499                            ; BRANCHCC OCCURS {||$C$L1||}    ; [] |115| 
     500                    ;* --------------------------------------------------------------------------*
     501 00000254 1E40              SUBS      A1, A1, #1            ; [DPU_V7M3_PIPE] |115|  ; [ORIG 16-BIT INS]
     502 00000256 AFFEF43F!         BEQ       ||$C$L5||             ; [DPU_V7M3_PIPE] |115|  ; [KEEP 32-BIT INS]
     503                            ; BRANCHCC OCCURS {||$C$L5||}    ; [] |115| 
     504                    ;* --------------------------------------------------------------------------*
     505 0000025a 1E40              SUBS      A1, A1, #1            ; [DPU_V7M3_PIPE] |115|  ; [ORIG 16-BIT INS]
     506 0000025c AFFEF43F!         BEQ       ||$C$L6||             ; [DPU_V7M3_PIPE] |115|  ; [KEEP 32-BIT INS]
     507                            ; BRANCHCC OCCURS {||$C$L6||}    ; [] |115| 
     508                    ;* --------------------------------------------------------------------------*
     509 00000260 1E40              SUBS      A1, A1, #1            ; [DPU_V7M3_PIPE] |115|  ; [ORIG 16-BIT INS]
     510 00000262 AFFEF43F!         BEQ       ||$C$L8||             ; [DPU_V7M3_PIPE] |115|  ; [KEEP 32-BIT INS]
     511                            ; BRANCHCC OCCURS {||$C$L8||}    ; [] |115| 
     512                    ;* --------------------------------------------------------------------------*
     513 00000266 1E40              SUBS      A1, A1, #1            ; [DPU_V7M3_PIPE] |115|  ; [ORIG 16-BIT INS]
     514 00000268 D0B1              BEQ       ||$C$L21||            ; [DPU_V7M3_PIPE] |115|  ; [ORIG 16-BIT INS]
     515                            ; BRANCHCC OCCURS {||$C$L21||}   ; [] |115| 
     516                    ;* --------------------------------------------------------------------------*
     517 0000026a 1E40              SUBS      A1, A1, #1            ; [DPU_V7M3_PIPE] |115|  ; [ORIG 16-BIT INS]
     518 0000026c D0B7              BEQ       ||$C$L22||            ; [DPU_V7M3_PIPE] |115|  ; [ORIG 16-BIT INS]
     519                            ; BRANCHCC OCCURS {||$C$L22||}   ; [] |115| 
     520                    ;* --------------------------------------------------------------------------*
     521 0000026e E7FF              B         ||$C$L28||            ; [DPU_V7M3_PIPE] |115|  ; [ORIG 16-BIT INS]
     522                            ; BRANCH OCCURS {||$C$L28||}     ; [] |115| 
     523                    ;* --------------------------------------------------------------------------*
     524 00000270           ||$C$L27||:    
     525                            .dwpsn  file "../system_msp432p401r.c",line 247,column 1,is_stmt,isa 1
     526                    ;* --------------------------------------------------------------------------*
     527 00000270           ||$C$L28||:    
     528 00000270 B006              ADD       SP, SP, #24           ; [DPU_V7M3_PIPE]  ; [ORIG 16-BIT INS]
     529                            .dwcfi  cfa_offset, 0
     530                    $C$DW$10        .dwtag  DW_TAG_TI_branch
     531                            .dwattr $C$DW$10, DW_AT_low_pc(0x00)
     532                            .dwattr $C$DW$10, DW_AT_TI_return
     533                    
     534 00000272 4770              BX        LR                    ; [DPU_V7M3_PIPE]  ; [ORIG 16-BIT INS]
     535                            ; BRANCH OCCURS                  ; [] 
     536                            .dwattr $C$DW$2, DW_AT_TI_end_file("../system_msp432p401r.c")
     537                            .dwattr $C$DW$2, DW_AT_TI_end_line(0xf7)
     538                            .dwattr $C$DW$2, DW_AT_TI_end_column(0x01)
     539                            .dwendentry
     540                            .dwendtag $C$DW$2
     541                    
     542 00000274                   .sect   ".text"
     543                            .clink
     544                            .thumbfunc SystemInit
     545 00000274                   .thumb
     546                            .global SystemInit
     547                    
     548                    $C$DW$11        .dwtag  DW_TAG_subprogram
     549                            .dwattr $C$DW$11, DW_AT_name("SystemInit")
     550                            .dwattr $C$DW$11, DW_AT_low_pc(SystemInit)
TI ARM Assembler PC v20.2.6 Mon Oct 31 23:16:56 2022

Copyright (c) 1996-2018 Texas Instruments Incorporated
system_msp432p401r.asm                                               PAGE   11

     551                            .dwattr $C$DW$11, DW_AT_high_pc(0x00)
     552                            .dwattr $C$DW$11, DW_AT_TI_symbol_name("SystemInit")
     553                            .dwattr $C$DW$11, DW_AT_external
     554                            .dwattr $C$DW$11, DW_AT_TI_begin_file("../system_msp432p401r.c")
     555                            .dwattr $C$DW$11, DW_AT_TI_begin_line(0x10a)
     556                            .dwattr $C$DW$11, DW_AT_TI_begin_column(0x06)
     557                            .dwattr $C$DW$11, DW_AT_decl_file("../system_msp432p401r.c")
     558                            .dwattr $C$DW$11, DW_AT_decl_line(0x10a)
     559                            .dwattr $C$DW$11, DW_AT_decl_column(0x06)
     560                            .dwattr $C$DW$11, DW_AT_TI_max_frame_size(0x00)
     561                            .dwpsn  file "../system_msp432p401r.c",line 267,column 1,is_stmt,address SystemInit,isa 1
     562                    
     563                            .dwfde $C$DW$CIE, SystemInit
     564                    
     565                    ;*****************************************************************************
     566                    ;* FUNCTION NAME: SystemInit                                                 *
     567                    ;*                                                                           *
     568                    ;*   Regs Modified     : A1,A2,SR                                            *
     569                    ;*   Regs Used         : A1,A2,LR,SR                                         *
     570                    ;*   Local Frame Size  : 0 Args + 0 Auto + 0 Save = 0 byte                   *
     571                    ;*****************************************************************************
     572 00000274           SystemInit:
     573                    ;* --------------------------------------------------------------------------*
     574                            .dwcfi  cfa_offset, 0
     575                            .dwpsn  file "../system_msp432p401r.c",line 270,column 5,is_stmt,isa 1
     576 00000274 4928              LDR       A2, $C$CON20          ; [DPU_V7M3_PIPE] |270|  ; [ORIG 16-BIT INS]
     577 00000276 6808              LDR       A1, [A2, #0]          ; [DPU_V7M3_PIPE] |270|  ; [ORIG 16-BIT INS]
     578 00000278 0070F440          ORR       A1, A1, #15728640     ; [DPU_V7M3_PIPE] |270|  ; [KEEP 32-BIT INS]
     579 0000027c 6008              STR       A1, [A2, #0]          ; [DPU_V7M3_PIPE] |270|  ; [ORIG 16-BIT INS]
     580                            .dwpsn  file "../system_msp432p401r.c",line 275,column 5,is_stmt,isa 1
     581 0000027e 4927              LDR       A2, $C$CON21          ; [DPU_V7M3_PIPE] |275|  ; [ORIG 16-BIT INS]
     582 00000280 40B5F44F          MOV       A1, #23168            ; [DPU_V7M3_PIPE] |275|  ; [KEEP 32-BIT INS]
     583 00000284 8008              STRH      A1, [A2, #0]          ; [DPU_V7M3_PIPE] |275|  ; [ORIG 16-BIT INS]
     584                            .dwpsn  file "../system_msp432p401r.c",line 278,column 5,is_stmt,isa 1
     585 00000286 4926              LDR       A2, $C$CON22          ; [DPU_V7M3_PIPE] |278|  ; [ORIG 16-BIT INS]
     586 00000288 2080              MOVS      A1, #128              ; [DPU_V7M3_PIPE] |278|  ; [ORIG 16-BIT INS]
     587 0000028a 6008              STR       A1, [A2, #0]          ; [DPU_V7M3_PIPE] |278|  ; [ORIG 16-BIT INS]
     588                            .dwpsn  file "../system_msp432p401r.c",line 316,column 5,is_stmt,isa 1
     589 0000028c 4911              LDR       A2, $C$CON3           ; [DPU_V7M3_PIPE] |316|  ; [ORIG 16-BIT INS]
     590 0000028e 105AF646          MOV       A1, #26970            ; [DPU_V7M3_PIPE] |316|  ; [KEEP 32-BIT INS]
     591 00000292 6008              STR       A1, [A2, #0]          ; [DPU_V7M3_PIPE] |316|  ; [ORIG 16-BIT INS]
     592                            .dwpsn  file "../system_msp432p401r.c",line 317,column 5,is_stmt,isa 1
     593 00000294 4913              LDR       A2, $C$CON7           ; [DPU_V7M3_PIPE] |317|  ; [ORIG 16-BIT INS]
     594 00000296 3080F44F          MOV       A1, #65536            ; [DPU_V7M3_PIPE] |317|  ; [KEEP 32-BIT INS]
     595 0000029a 6008              STR       A1, [A2, #0]          ; [DPU_V7M3_PIPE] |317|  ; [ORIG 16-BIT INS]
     596                            .dwpsn  file "../system_msp432p401r.c",line 318,column 5,is_stmt,isa 1
     597 0000029c 480B              LDR       A1, $C$CON1           ; [DPU_V7M3_PIPE] |318|  ; [ORIG 16-BIT INS]
     598 0000029e 490B              LDR       A2, $C$CON1           ; [DPU_V7M3_PIPE] |318|  ; [ORIG 16-BIT INS]
     599 000002a0 6800              LDR       A1, [A1, #0]          ; [DPU_V7M3_PIPE] |318|  ; [ORIG 16-BIT INS]
     600 000002a2 1007F020          BIC       A1, A1, #458759       ; [DPU_V7M3_PIPE] |318|  ; [KEEP 32-BIT INS]
     601 000002a6 0003F040          ORR       A1, A1, #3            ; [DPU_V7M3_PIPE] |318|  ; [KEEP 32-BIT INS]
     602 000002aa 6008              STR       A1, [A2, #0]          ; [DPU_V7M3_PIPE] |318|  ; [ORIG 16-BIT INS]
     603                            .dwpsn  file "../system_msp432p401r.c",line 320,column 5,is_stmt,isa 1
     604 000002ac 4909              LDR       A2, $C$CON3           ; [DPU_V7M3_PIPE] |320|  ; [ORIG 16-BIT INS]
     605 000002ae 2000              MOVS      A1, #0                ; [DPU_V7M3_PIPE] |320|  ; [ORIG 16-BIT INS]
TI ARM Assembler PC v20.2.6 Mon Oct 31 23:16:56 2022

Copyright (c) 1996-2018 Texas Instruments Incorporated
system_msp432p401r.asm                                               PAGE   12

     606 000002b0 6008              STR       A1, [A2, #0]          ; [DPU_V7M3_PIPE] |320|  ; [ORIG 16-BIT INS]
     607                            .dwpsn  file "../system_msp432p401r.c",line 323,column 5,is_stmt,isa 1
     608 000002b2 481C              LDR       A1, $C$CON23          ; [DPU_V7M3_PIPE] |323|  ; [ORIG 16-BIT INS]
     609 000002b4 491B              LDR       A2, $C$CON23          ; [DPU_V7M3_PIPE] |323|  ; [ORIG 16-BIT INS]
     610 000002b6 6800              LDR       A1, [A1, #0]          ; [DPU_V7M3_PIPE] |323|  ; [ORIG 16-BIT INS]
     611 000002b8 0030F020          BIC       A1, A1, #48           ; [DPU_V7M3_PIPE] |323|  ; [KEEP 32-BIT INS]
     612 000002bc 6008              STR       A1, [A2, #0]          ; [DPU_V7M3_PIPE] |323|  ; [ORIG 16-BIT INS]
     613                            .dwpsn  file "../system_msp432p401r.c",line 324,column 5,is_stmt,isa 1
     614 000002be 481A              LDR       A1, $C$CON24          ; [DPU_V7M3_PIPE] |324|  ; [ORIG 16-BIT INS]
     615 000002c0 4919              LDR       A2, $C$CON24          ; [DPU_V7M3_PIPE] |324|  ; [ORIG 16-BIT INS]
     616 000002c2 6800              LDR       A1, [A1, #0]          ; [DPU_V7M3_PIPE] |324|  ; [ORIG 16-BIT INS]
     617 000002c4 0030F020          BIC       A1, A1, #48           ; [DPU_V7M3_PIPE] |324|  ; [KEEP 32-BIT INS]
     618 000002c8 6008              STR       A1, [A2, #0]          ; [DPU_V7M3_PIPE] |324|  ; [ORIG 16-BIT INS]
     619                            .dwpsn  file "../system_msp432p401r.c",line 403,column 1,is_stmt,isa 1
     620                    $C$DW$12        .dwtag  DW_TAG_TI_branch
     621                            .dwattr $C$DW$12, DW_AT_low_pc(0x00)
     622                            .dwattr $C$DW$12, DW_AT_TI_return
     623                    
     624 000002ca 4770              BX        LR                    ; [DPU_V7M3_PIPE]  ; [ORIG 16-BIT INS]
     625                            ; BRANCH OCCURS                  ; [] 
     626                            .dwattr $C$DW$11, DW_AT_TI_end_file("../system_msp432p401r.c")
     627                            .dwattr $C$DW$11, DW_AT_TI_end_line(0x193)
     628                            .dwattr $C$DW$11, DW_AT_TI_end_column(0x01)
     629                            .dwendentry
     630                            .dwendtag $C$DW$11
     631                    
     632                    ;******************************************************************************
     633                    ;* CONSTANT TABLE                                                             *
     634                    ;******************************************************************************
     635 000002cc                   .sect   ".text"
     636                            .align  4
     637 000002cc 40010408  ||$C$CON1||:    .bits           0x40010408,32
     638                    
     639                            .align  4
     640 000002d0 42208900  ||$C$CON2||:    .bits           0x42208900,32
     641                    
     642                            .align  4
     643 000002d4 40010400  ||$C$CON3||:    .bits           0x40010400,32
     644                    
     645                            .align  4
     646 000002d8 40010450  ||$C$CON4||:    .bits           0x40010450,32
     647                    
     648                            .align  4
     649 000002dc 4220863C  ||$C$CON5||:    .bits           0x4220863c,32
     650                    
     651                            .align  4
     652 000002e0 00000000! ||$C$CON6||:    .bits   SystemCoreClock,32
     653                            .align  4
     654 000002e4 40010404  ||$C$CON7||:    .bits           0x40010404,32
     655                    
     656                            .align  4
     657 000002e8 0016E360  ||$C$CON8||:    .bits           0x16e360,32
     658                    
     659                            .align  4
     660 000002ec 002DC6C0  ||$C$CON9||:    .bits           0x2dc6c0,32
TI ARM Assembler PC v20.2.6 Mon Oct 31 23:16:56 2022

Copyright (c) 1996-2018 Texas Instruments Incorporated
system_msp432p401r.asm                                               PAGE   13

     661                    
     662                            .align  4
     663 000002f0 005B8D80  ||$C$CON10||:   .bits           0x5b8d80,32
     664                    
     665                            .align  4
     666 000002f4 00B71B00  ||$C$CON11||:   .bits           0xb71b00,32
     667                    
     668                            .align  4
     669 000002f8 016E3600  ||$C$CON12||:   .bits           0x16e3600,32
     670                    
     671                            .align  4
     672 000002fc 02DC6C00  ||$C$CON13||:   .bits           0x2dc6c00,32
     673                    
     674                            .align  4
     675 00000300 422080D8  ||$C$CON14||:   .bits           0x422080d8,32
     676                    
     677                            .align  4
     678 00000304 00201084  ||$C$CON15||:   .bits           0x201084,32
     679                    
     680                            .align  4
     681 00000308 0020106C  ||$C$CON16||:   .bits           0x20106c,32
     682                    
     683                            .align  4
     684 0000030c 00201064  ||$C$CON17||:   .bits           0x201064,32
     685                    
     686                            .align  4
     687 00000310 0020104C  ||$C$CON18||:   .bits           0x20104c,32
     688                    
     689                            .align  4
     690 00000314 42208904  ||$C$CON19||:   .bits           0x42208904,32
     691                    
     692                            .align  4
     693 00000318 E000ED88  ||$C$CON20||:   .bits           0xe000ed88,32
     694                    
     695                            .align  4
     696 0000031c 4000480C  ||$C$CON21||:   .bits           0x4000480c,32
     697                    
     698                            .align  4
     699 00000320 E0043014  ||$C$CON22||:   .bits           0xe0043014,32
     700                    
     701                            .align  4
     702 00000324 40011010  ||$C$CON23||:   .bits           0x40011010,32
     703                    
     704                            .align  4
     705 00000328 40011014  ||$C$CON24||:   .bits           0x40011014,32
     706                    
     707                    
     708                    ;******************************************************************************
     709                    ;* BUILD ATTRIBUTES                                                           *
     710                    ;******************************************************************************
     711                            .battr "TI", Tag_File, 1, Tag_LPM_INFO(1)
     712                            .battr "TI", Tag_File, 1, Tag_PORTS_INIT_INFO("012345678901ABCDEFGHIJ0111111111100000000000000
     713                            .battr "aeabi", Tag_File, 1, Tag_ABI_PCS_wchar_t(2)
     714                            .battr "aeabi", Tag_File, 1, Tag_ABI_FP_rounding(0)
     715                            .battr "aeabi", Tag_File, 1, Tag_ABI_FP_denormal(0)
TI ARM Assembler PC v20.2.6 Mon Oct 31 23:16:56 2022

Copyright (c) 1996-2018 Texas Instruments Incorporated
system_msp432p401r.asm                                               PAGE   14

     716                            .battr "aeabi", Tag_File, 1, Tag_ABI_FP_exceptions(0)
     717                            .battr "aeabi", Tag_File, 1, Tag_ABI_FP_number_model(1)
     718                            .battr "aeabi", Tag_File, 1, Tag_ABI_enum_size(1)
     719                            .battr "aeabi", Tag_File, 1, Tag_ABI_optimization_goals(5)
     720                            .battr "aeabi", Tag_File, 1, Tag_ABI_FP_optimization_goals(0)
     721                            .battr "TI", Tag_File, 1, Tag_Bitfield_layout(0)
     722                            .battr "aeabi", Tag_File, 1, Tag_ABI_VFP_args(3)
     723                            .battr "TI", Tag_File, 1, Tag_FP_interface(1)
     724                    
     725                    ;******************************************************************************
     726                    ;* TYPE INFORMATION                                                           *
     727                    ;******************************************************************************
     728                    
     729                    $C$DW$T$27      .dwtag  DW_TAG_structure_type
     730                            .dwattr $C$DW$T$27, DW_AT_byte_size(0x68)
     731                    $C$DW$13        .dwtag  DW_TAG_member
     732                            .dwattr $C$DW$13, DW_AT_type(*$C$DW$T$23)
     733                            .dwattr $C$DW$13, DW_AT_name("KEY")
     734                            .dwattr $C$DW$13, DW_AT_TI_symbol_name("KEY")
     735                            .dwattr $C$DW$13, DW_AT_data_member_location[DW_OP_plus_uconst 0x0]
     736                            .dwattr $C$DW$13, DW_AT_accessibility(DW_ACCESS_public)
     737                            .dwattr $C$DW$13, DW_AT_decl_file("C:\ti\ccs1200\ccs\ccs_base\arm\include\msp432p401r.h")
     738                            .dwattr $C$DW$13, DW_AT_decl_line(0x1d9)
     739                            .dwattr $C$DW$13, DW_AT_decl_column(0x11)
     740                    
     741                    $C$DW$14        .dwtag  DW_TAG_member
     742                            .dwattr $C$DW$14, DW_AT_type(*$C$DW$T$23)
     743                            .dwattr $C$DW$14, DW_AT_name("CTL0")
     744                            .dwattr $C$DW$14, DW_AT_TI_symbol_name("CTL0")
     745                            .dwattr $C$DW$14, DW_AT_data_member_location[DW_OP_plus_uconst 0x4]
     746                            .dwattr $C$DW$14, DW_AT_accessibility(DW_ACCESS_public)
     747                            .dwattr $C$DW$14, DW_AT_decl_file("C:\ti\ccs1200\ccs\ccs_base\arm\include\msp432p401r.h")
     748                            .dwattr $C$DW$14, DW_AT_decl_line(0x1da)
     749                            .dwattr $C$DW$14, DW_AT_decl_column(0x11)
     750                    
     751                    $C$DW$15        .dwtag  DW_TAG_member
     752                            .dwattr $C$DW$15, DW_AT_type(*$C$DW$T$23)
     753                            .dwattr $C$DW$15, DW_AT_name("CTL1")
     754                            .dwattr $C$DW$15, DW_AT_TI_symbol_name("CTL1")
     755                            .dwattr $C$DW$15, DW_AT_data_member_location[DW_OP_plus_uconst 0x8]
     756                            .dwattr $C$DW$15, DW_AT_accessibility(DW_ACCESS_public)
     757                            .dwattr $C$DW$15, DW_AT_decl_file("C:\ti\ccs1200\ccs\ccs_base\arm\include\msp432p401r.h")
     758                            .dwattr $C$DW$15, DW_AT_decl_line(0x1db)
     759                            .dwattr $C$DW$15, DW_AT_decl_column(0x11)
     760                    
     761                    $C$DW$16        .dwtag  DW_TAG_member
     762                            .dwattr $C$DW$16, DW_AT_type(*$C$DW$T$23)
     763                            .dwattr $C$DW$16, DW_AT_name("CTL2")
     764                            .dwattr $C$DW$16, DW_AT_TI_symbol_name("CTL2")
     765                            .dwattr $C$DW$16, DW_AT_data_member_location[DW_OP_plus_uconst 0xc]
     766                            .dwattr $C$DW$16, DW_AT_accessibility(DW_ACCESS_public)
     767                            .dwattr $C$DW$16, DW_AT_decl_file("C:\ti\ccs1200\ccs\ccs_base\arm\include\msp432p401r.h")
     768                            .dwattr $C$DW$16, DW_AT_decl_line(0x1dc)
     769                            .dwattr $C$DW$16, DW_AT_decl_column(0x11)
     770                    
TI ARM Assembler PC v20.2.6 Mon Oct 31 23:16:56 2022

Copyright (c) 1996-2018 Texas Instruments Incorporated
system_msp432p401r.asm                                               PAGE   15

     771                    $C$DW$17        .dwtag  DW_TAG_member
     772                            .dwattr $C$DW$17, DW_AT_type(*$C$DW$T$23)
     773                            .dwattr $C$DW$17, DW_AT_name("CTL3")
     774                            .dwattr $C$DW$17, DW_AT_TI_symbol_name("CTL3")
     775                            .dwattr $C$DW$17, DW_AT_data_member_location[DW_OP_plus_uconst 0x10]
     776                            .dwattr $C$DW$17, DW_AT_accessibility(DW_ACCESS_public)
     777                            .dwattr $C$DW$17, DW_AT_decl_file("C:\ti\ccs1200\ccs\ccs_base\arm\include\msp432p401r.h")
     778                            .dwattr $C$DW$17, DW_AT_decl_line(0x1dd)
     779                            .dwattr $C$DW$17, DW_AT_decl_column(0x11)
     780                    
     781                    $C$DW$18        .dwtag  DW_TAG_member
     782                            .dwattr $C$DW$18, DW_AT_type(*$C$DW$T$24)
     783                            .dwattr $C$DW$18, DW_AT_name("RESERVED0")
     784                            .dwattr $C$DW$18, DW_AT_TI_symbol_name("RESERVED0")
     785                            .dwattr $C$DW$18, DW_AT_data_member_location[DW_OP_plus_uconst 0x14]
     786                            .dwattr $C$DW$18, DW_AT_accessibility(DW_ACCESS_public)
     787                            .dwattr $C$DW$18, DW_AT_decl_file("C:\ti\ccs1200\ccs\ccs_base\arm\include\msp432p401r.h")
     788                            .dwattr $C$DW$18, DW_AT_decl_line(0x1de)
     789                            .dwattr $C$DW$18, DW_AT_decl_column(0x11)
     790                    
     791                    $C$DW$19        .dwtag  DW_TAG_member
     792                            .dwattr $C$DW$19, DW_AT_type(*$C$DW$T$23)
     793                            .dwattr $C$DW$19, DW_AT_name("CLKEN")
     794                            .dwattr $C$DW$19, DW_AT_TI_symbol_name("CLKEN")
     795                            .dwattr $C$DW$19, DW_AT_data_member_location[DW_OP_plus_uconst 0x30]
     796                            .dwattr $C$DW$19, DW_AT_accessibility(DW_ACCESS_public)
     797                            .dwattr $C$DW$19, DW_AT_decl_file("C:\ti\ccs1200\ccs\ccs_base\arm\include\msp432p401r.h")
     798                            .dwattr $C$DW$19, DW_AT_decl_line(0x1df)
     799                            .dwattr $C$DW$19, DW_AT_decl_column(0x11)
     800                    
     801                    $C$DW$20        .dwtag  DW_TAG_member
     802                            .dwattr $C$DW$20, DW_AT_type(*$C$DW$T$25)
     803                            .dwattr $C$DW$20, DW_AT_name("STAT")
     804                            .dwattr $C$DW$20, DW_AT_TI_symbol_name("STAT")
     805                            .dwattr $C$DW$20, DW_AT_data_member_location[DW_OP_plus_uconst 0x34]
     806                            .dwattr $C$DW$20, DW_AT_accessibility(DW_ACCESS_public)
     807                            .dwattr $C$DW$20, DW_AT_decl_file("C:\ti\ccs1200\ccs\ccs_base\arm\include\msp432p401r.h")
     808                            .dwattr $C$DW$20, DW_AT_decl_line(0x1e0)
     809                            .dwattr $C$DW$20, DW_AT_decl_column(0x11)
     810                    
     811                    $C$DW$21        .dwtag  DW_TAG_member
     812                            .dwattr $C$DW$21, DW_AT_type(*$C$DW$T$26)
     813                            .dwattr $C$DW$21, DW_AT_name("RESERVED1")
     814                            .dwattr $C$DW$21, DW_AT_TI_symbol_name("RESERVED1")
     815                            .dwattr $C$DW$21, DW_AT_data_member_location[DW_OP_plus_uconst 0x38]
     816                            .dwattr $C$DW$21, DW_AT_accessibility(DW_ACCESS_public)
     817                            .dwattr $C$DW$21, DW_AT_decl_file("C:\ti\ccs1200\ccs\ccs_base\arm\include\msp432p401r.h")
     818                            .dwattr $C$DW$21, DW_AT_decl_line(0x1e1)
     819                            .dwattr $C$DW$21, DW_AT_decl_column(0x11)
     820                    
     821                    $C$DW$22        .dwtag  DW_TAG_member
     822                            .dwattr $C$DW$22, DW_AT_type(*$C$DW$T$23)
     823                            .dwattr $C$DW$22, DW_AT_name("IE")
     824                            .dwattr $C$DW$22, DW_AT_TI_symbol_name("IE")
     825                            .dwattr $C$DW$22, DW_AT_data_member_location[DW_OP_plus_uconst 0x40]
TI ARM Assembler PC v20.2.6 Mon Oct 31 23:16:56 2022

Copyright (c) 1996-2018 Texas Instruments Incorporated
system_msp432p401r.asm                                               PAGE   16

     826                            .dwattr $C$DW$22, DW_AT_accessibility(DW_ACCESS_public)
     827                            .dwattr $C$DW$22, DW_AT_decl_file("C:\ti\ccs1200\ccs\ccs_base\arm\include\msp432p401r.h")
     828                            .dwattr $C$DW$22, DW_AT_decl_line(0x1e2)
     829                            .dwattr $C$DW$22, DW_AT_decl_column(0x11)
     830                    
     831                    $C$DW$23        .dwtag  DW_TAG_member
     832                            .dwattr $C$DW$23, DW_AT_type(*$C$DW$T$22)
     833                            .dwattr $C$DW$23, DW_AT_name("RESERVED2")
     834                            .dwattr $C$DW$23, DW_AT_TI_symbol_name("RESERVED2")
     835                            .dwattr $C$DW$23, DW_AT_data_member_location[DW_OP_plus_uconst 0x44]
     836                            .dwattr $C$DW$23, DW_AT_accessibility(DW_ACCESS_public)
     837                            .dwattr $C$DW$23, DW_AT_decl_file("C:\ti\ccs1200\ccs\ccs_base\arm\include\msp432p401r.h")
     838                            .dwattr $C$DW$23, DW_AT_decl_line(0x1e3)
     839                            .dwattr $C$DW$23, DW_AT_decl_column(0x11)
     840                    
     841                    $C$DW$24        .dwtag  DW_TAG_member
     842                            .dwattr $C$DW$24, DW_AT_type(*$C$DW$T$25)
     843                            .dwattr $C$DW$24, DW_AT_name("IFG")
     844                            .dwattr $C$DW$24, DW_AT_TI_symbol_name("IFG")
     845                            .dwattr $C$DW$24, DW_AT_data_member_location[DW_OP_plus_uconst 0x48]
     846                            .dwattr $C$DW$24, DW_AT_accessibility(DW_ACCESS_public)
     847                            .dwattr $C$DW$24, DW_AT_decl_file("C:\ti\ccs1200\ccs\ccs_base\arm\include\msp432p401r.h")
     848                            .dwattr $C$DW$24, DW_AT_decl_line(0x1e4)
     849                            .dwattr $C$DW$24, DW_AT_decl_column(0x11)
     850                    
     851                    $C$DW$25        .dwtag  DW_TAG_member
     852                            .dwattr $C$DW$25, DW_AT_type(*$C$DW$T$22)
     853                            .dwattr $C$DW$25, DW_AT_name("RESERVED3")
     854                            .dwattr $C$DW$25, DW_AT_TI_symbol_name("RESERVED3")
     855                            .dwattr $C$DW$25, DW_AT_data_member_location[DW_OP_plus_uconst 0x4c]
     856                            .dwattr $C$DW$25, DW_AT_accessibility(DW_ACCESS_public)
     857                            .dwattr $C$DW$25, DW_AT_decl_file("C:\ti\ccs1200\ccs\ccs_base\arm\include\msp432p401r.h")
     858                            .dwattr $C$DW$25, DW_AT_decl_line(0x1e5)
     859                            .dwattr $C$DW$25, DW_AT_decl_column(0x11)
     860                    
     861                    $C$DW$26        .dwtag  DW_TAG_member
     862                            .dwattr $C$DW$26, DW_AT_type(*$C$DW$T$23)
     863                            .dwattr $C$DW$26, DW_AT_name("CLRIFG")
     864                            .dwattr $C$DW$26, DW_AT_TI_symbol_name("CLRIFG")
     865                            .dwattr $C$DW$26, DW_AT_data_member_location[DW_OP_plus_uconst 0x50]
     866                            .dwattr $C$DW$26, DW_AT_accessibility(DW_ACCESS_public)
     867                            .dwattr $C$DW$26, DW_AT_decl_file("C:\ti\ccs1200\ccs\ccs_base\arm\include\msp432p401r.h")
     868                            .dwattr $C$DW$26, DW_AT_decl_line(0x1e6)
     869                            .dwattr $C$DW$26, DW_AT_decl_column(0x11)
     870                    
     871                    $C$DW$27        .dwtag  DW_TAG_member
     872                            .dwattr $C$DW$27, DW_AT_type(*$C$DW$T$22)
     873                            .dwattr $C$DW$27, DW_AT_name("RESERVED4")
     874                            .dwattr $C$DW$27, DW_AT_TI_symbol_name("RESERVED4")
     875                            .dwattr $C$DW$27, DW_AT_data_member_location[DW_OP_plus_uconst 0x54]
     876                            .dwattr $C$DW$27, DW_AT_accessibility(DW_ACCESS_public)
     877                            .dwattr $C$DW$27, DW_AT_decl_file("C:\ti\ccs1200\ccs\ccs_base\arm\include\msp432p401r.h")
     878                            .dwattr $C$DW$27, DW_AT_decl_line(0x1e7)
     879                            .dwattr $C$DW$27, DW_AT_decl_column(0x11)
     880                    
TI ARM Assembler PC v20.2.6 Mon Oct 31 23:16:56 2022

Copyright (c) 1996-2018 Texas Instruments Incorporated
system_msp432p401r.asm                                               PAGE   17

     881                    $C$DW$28        .dwtag  DW_TAG_member
     882                            .dwattr $C$DW$28, DW_AT_type(*$C$DW$T$23)
     883                            .dwattr $C$DW$28, DW_AT_name("SETIFG")
     884                            .dwattr $C$DW$28, DW_AT_TI_symbol_name("SETIFG")
     885                            .dwattr $C$DW$28, DW_AT_data_member_location[DW_OP_plus_uconst 0x58]
     886                            .dwattr $C$DW$28, DW_AT_accessibility(DW_ACCESS_public)
     887                            .dwattr $C$DW$28, DW_AT_decl_file("C:\ti\ccs1200\ccs\ccs_base\arm\include\msp432p401r.h")
     888                            .dwattr $C$DW$28, DW_AT_decl_line(0x1e8)
     889                            .dwattr $C$DW$28, DW_AT_decl_column(0x11)
     890                    
     891                    $C$DW$29        .dwtag  DW_TAG_member
     892                            .dwattr $C$DW$29, DW_AT_type(*$C$DW$T$22)
     893                            .dwattr $C$DW$29, DW_AT_name("RESERVED5")
     894                            .dwattr $C$DW$29, DW_AT_TI_symbol_name("RESERVED5")
     895                            .dwattr $C$DW$29, DW_AT_data_member_location[DW_OP_plus_uconst 0x5c]
     896                            .dwattr $C$DW$29, DW_AT_accessibility(DW_ACCESS_public)
     897                            .dwattr $C$DW$29, DW_AT_decl_file("C:\ti\ccs1200\ccs\ccs_base\arm\include\msp432p401r.h")
     898                            .dwattr $C$DW$29, DW_AT_decl_line(0x1e9)
     899                            .dwattr $C$DW$29, DW_AT_decl_column(0x11)
     900                    
     901                    $C$DW$30        .dwtag  DW_TAG_member
     902                            .dwattr $C$DW$30, DW_AT_type(*$C$DW$T$23)
     903                            .dwattr $C$DW$30, DW_AT_name("DCOERCAL0")
     904                            .dwattr $C$DW$30, DW_AT_TI_symbol_name("DCOERCAL0")
     905                            .dwattr $C$DW$30, DW_AT_data_member_location[DW_OP_plus_uconst 0x60]
     906                            .dwattr $C$DW$30, DW_AT_accessibility(DW_ACCESS_public)
     907                            .dwattr $C$DW$30, DW_AT_decl_file("C:\ti\ccs1200\ccs\ccs_base\arm\include\msp432p401r.h")
     908                            .dwattr $C$DW$30, DW_AT_decl_line(0x1ea)
     909                            .dwattr $C$DW$30, DW_AT_decl_column(0x11)
     910                    
     911                    $C$DW$31        .dwtag  DW_TAG_member
     912                            .dwattr $C$DW$31, DW_AT_type(*$C$DW$T$23)
     913                            .dwattr $C$DW$31, DW_AT_name("DCOERCAL1")
     914                            .dwattr $C$DW$31, DW_AT_TI_symbol_name("DCOERCAL1")
     915                            .dwattr $C$DW$31, DW_AT_data_member_location[DW_OP_plus_uconst 0x64]
     916                            .dwattr $C$DW$31, DW_AT_accessibility(DW_ACCESS_public)
     917                            .dwattr $C$DW$31, DW_AT_decl_file("C:\ti\ccs1200\ccs\ccs_base\arm\include\msp432p401r.h")
     918                            .dwattr $C$DW$31, DW_AT_decl_line(0x1eb)
     919                            .dwattr $C$DW$31, DW_AT_decl_column(0x11)
     920                    
     921                            .dwattr $C$DW$T$27, DW_AT_decl_file("C:\ti\ccs1200\ccs\ccs_base\arm\include\msp432p401r.h")
     922                            .dwattr $C$DW$T$27, DW_AT_decl_line(0x1d8)
     923                            .dwattr $C$DW$T$27, DW_AT_decl_column(0x10)
     924                            .dwendtag $C$DW$T$27
     925                    
     926                    $C$DW$T$179     .dwtag  DW_TAG_typedef
     927                            .dwattr $C$DW$T$179, DW_AT_name("CS_Type")
     928                            .dwattr $C$DW$T$179, DW_AT_type(*$C$DW$T$27)
     929                            .dwattr $C$DW$T$179, DW_AT_language(DW_LANG_C)
     930                            .dwattr $C$DW$T$179, DW_AT_decl_file("C:\ti\ccs1200\ccs\ccs_base\arm\include\msp432p401r.h")
     931                            .dwattr $C$DW$T$179, DW_AT_decl_line(0x1ec)
     932                            .dwattr $C$DW$T$179, DW_AT_decl_column(0x03)
     933                    
     934                    
     935                    $C$DW$T$28      .dwtag  DW_TAG_structure_type
TI ARM Assembler PC v20.2.6 Mon Oct 31 23:16:56 2022

Copyright (c) 1996-2018 Texas Instruments Incorporated
system_msp432p401r.asm                                               PAGE   18

     936                            .dwattr $C$DW$T$28, DW_AT_byte_size(0x14c)
     937                    $C$DW$32        .dwtag  DW_TAG_member
     938                            .dwattr $C$DW$32, DW_AT_type(*$C$DW$T$25)
     939                            .dwattr $C$DW$32, DW_AT_name("TLV_CHECKSUM")
     940                            .dwattr $C$DW$32, DW_AT_TI_symbol_name("TLV_CHECKSUM")
     941                            .dwattr $C$DW$32, DW_AT_data_member_location[DW_OP_plus_uconst 0x0]
     942                            .dwattr $C$DW$32, DW_AT_accessibility(DW_ACCESS_public)
     943                            .dwattr $C$DW$32, DW_AT_decl_file("C:\ti\ccs1200\ccs\ccs_base\arm\include\msp432p401r.h")
     944                            .dwattr $C$DW$32, DW_AT_decl_line(0x4c4)
     945                            .dwattr $C$DW$32, DW_AT_decl_column(0x11)
     946                    
     947                    $C$DW$33        .dwtag  DW_TAG_member
     948                            .dwattr $C$DW$33, DW_AT_type(*$C$DW$T$25)
     949                            .dwattr $C$DW$33, DW_AT_name("DEVICE_INFO_TAG")
     950                            .dwattr $C$DW$33, DW_AT_TI_symbol_name("DEVICE_INFO_TAG")
     951                            .dwattr $C$DW$33, DW_AT_data_member_location[DW_OP_plus_uconst 0x4]
     952                            .dwattr $C$DW$33, DW_AT_accessibility(DW_ACCESS_public)
     953                            .dwattr $C$DW$33, DW_AT_decl_file("C:\ti\ccs1200\ccs\ccs_base\arm\include\msp432p401r.h")
     954                            .dwattr $C$DW$33, DW_AT_decl_line(0x4c5)
     955                            .dwattr $C$DW$33, DW_AT_decl_column(0x11)
     956                    
     957                    $C$DW$34        .dwtag  DW_TAG_member
     958                            .dwattr $C$DW$34, DW_AT_type(*$C$DW$T$25)
     959                            .dwattr $C$DW$34, DW_AT_name("DEVICE_INFO_LEN")
     960                            .dwattr $C$DW$34, DW_AT_TI_symbol_name("DEVICE_INFO_LEN")
     961                            .dwattr $C$DW$34, DW_AT_data_member_location[DW_OP_plus_uconst 0x8]
     962                            .dwattr $C$DW$34, DW_AT_accessibility(DW_ACCESS_public)
     963                            .dwattr $C$DW$34, DW_AT_decl_file("C:\ti\ccs1200\ccs\ccs_base\arm\include\msp432p401r.h")
     964                            .dwattr $C$DW$34, DW_AT_decl_line(0x4c6)
     965                            .dwattr $C$DW$34, DW_AT_decl_column(0x11)
     966                    
     967                    $C$DW$35        .dwtag  DW_TAG_member
     968                            .dwattr $C$DW$35, DW_AT_type(*$C$DW$T$25)
     969                            .dwattr $C$DW$35, DW_AT_name("DEVICE_ID")
     970                            .dwattr $C$DW$35, DW_AT_TI_symbol_name("DEVICE_ID")
     971                            .dwattr $C$DW$35, DW_AT_data_member_location[DW_OP_plus_uconst 0xc]
     972                            .dwattr $C$DW$35, DW_AT_accessibility(DW_ACCESS_public)
     973                            .dwattr $C$DW$35, DW_AT_decl_file("C:\ti\ccs1200\ccs\ccs_base\arm\include\msp432p401r.h")
     974                            .dwattr $C$DW$35, DW_AT_decl_line(0x4c7)
     975                            .dwattr $C$DW$35, DW_AT_decl_column(0x11)
     976                    
     977                    $C$DW$36        .dwtag  DW_TAG_member
     978                            .dwattr $C$DW$36, DW_AT_type(*$C$DW$T$25)
     979                            .dwattr $C$DW$36, DW_AT_name("HWREV")
     980                            .dwattr $C$DW$36, DW_AT_TI_symbol_name("HWREV")
     981                            .dwattr $C$DW$36, DW_AT_data_member_location[DW_OP_plus_uconst 0x10]
     982                            .dwattr $C$DW$36, DW_AT_accessibility(DW_ACCESS_public)
     983                            .dwattr $C$DW$36, DW_AT_decl_file("C:\ti\ccs1200\ccs\ccs_base\arm\include\msp432p401r.h")
     984                            .dwattr $C$DW$36, DW_AT_decl_line(0x4c8)
     985                            .dwattr $C$DW$36, DW_AT_decl_column(0x11)
     986                    
     987                    $C$DW$37        .dwtag  DW_TAG_member
     988                            .dwattr $C$DW$37, DW_AT_type(*$C$DW$T$25)
     989                            .dwattr $C$DW$37, DW_AT_name("BCREV")
     990                            .dwattr $C$DW$37, DW_AT_TI_symbol_name("BCREV")
TI ARM Assembler PC v20.2.6 Mon Oct 31 23:16:56 2022

Copyright (c) 1996-2018 Texas Instruments Incorporated
system_msp432p401r.asm                                               PAGE   19

     991                            .dwattr $C$DW$37, DW_AT_data_member_location[DW_OP_plus_uconst 0x14]
     992                            .dwattr $C$DW$37, DW_AT_accessibility(DW_ACCESS_public)
     993                            .dwattr $C$DW$37, DW_AT_decl_file("C:\ti\ccs1200\ccs\ccs_base\arm\include\msp432p401r.h")
     994                            .dwattr $C$DW$37, DW_AT_decl_line(0x4c9)
     995                            .dwattr $C$DW$37, DW_AT_decl_column(0x11)
     996                    
     997                    $C$DW$38        .dwtag  DW_TAG_member
     998                            .dwattr $C$DW$38, DW_AT_type(*$C$DW$T$25)
     999                            .dwattr $C$DW$38, DW_AT_name("ROM_DRVLIB_REV")
    1000                            .dwattr $C$DW$38, DW_AT_TI_symbol_name("ROM_DRVLIB_REV")
    1001                            .dwattr $C$DW$38, DW_AT_data_member_location[DW_OP_plus_uconst 0x18]
    1002                            .dwattr $C$DW$38, DW_AT_accessibility(DW_ACCESS_public)
    1003                            .dwattr $C$DW$38, DW_AT_decl_file("C:\ti\ccs1200\ccs\ccs_base\arm\include\msp432p401r.h")
    1004                            .dwattr $C$DW$38, DW_AT_decl_line(0x4ca)
    1005                            .dwattr $C$DW$38, DW_AT_decl_column(0x11)
    1006                    
    1007                    $C$DW$39        .dwtag  DW_TAG_member
    1008                            .dwattr $C$DW$39, DW_AT_type(*$C$DW$T$25)
    1009                            .dwattr $C$DW$39, DW_AT_name("DIE_REC_TAG")
    1010                            .dwattr $C$DW$39, DW_AT_TI_symbol_name("DIE_REC_TAG")
    1011                            .dwattr $C$DW$39, DW_AT_data_member_location[DW_OP_plus_uconst 0x1c]
    1012                            .dwattr $C$DW$39, DW_AT_accessibility(DW_ACCESS_public)
    1013                            .dwattr $C$DW$39, DW_AT_decl_file("C:\ti\ccs1200\ccs\ccs_base\arm\include\msp432p401r.h")
    1014                            .dwattr $C$DW$39, DW_AT_decl_line(0x4cb)
    1015                            .dwattr $C$DW$39, DW_AT_decl_column(0x11)
    1016                    
    1017                    $C$DW$40        .dwtag  DW_TAG_member
    1018                            .dwattr $C$DW$40, DW_AT_type(*$C$DW$T$25)
    1019                            .dwattr $C$DW$40, DW_AT_name("DIE_REC_LEN")
    1020                            .dwattr $C$DW$40, DW_AT_TI_symbol_name("DIE_REC_LEN")
    1021                            .dwattr $C$DW$40, DW_AT_data_member_location[DW_OP_plus_uconst 0x20]
    1022                            .dwattr $C$DW$40, DW_AT_accessibility(DW_ACCESS_public)
    1023                            .dwattr $C$DW$40, DW_AT_decl_file("C:\ti\ccs1200\ccs\ccs_base\arm\include\msp432p401r.h")
    1024                            .dwattr $C$DW$40, DW_AT_decl_line(0x4cc)
    1025                            .dwattr $C$DW$40, DW_AT_decl_column(0x11)
    1026                    
    1027                    $C$DW$41        .dwtag  DW_TAG_member
    1028                            .dwattr $C$DW$41, DW_AT_type(*$C$DW$T$25)
    1029                            .dwattr $C$DW$41, DW_AT_name("DIE_XPOS")
    1030                            .dwattr $C$DW$41, DW_AT_TI_symbol_name("DIE_XPOS")
    1031                            .dwattr $C$DW$41, DW_AT_data_member_location[DW_OP_plus_uconst 0x24]
    1032                            .dwattr $C$DW$41, DW_AT_accessibility(DW_ACCESS_public)
    1033                            .dwattr $C$DW$41, DW_AT_decl_file("C:\ti\ccs1200\ccs\ccs_base\arm\include\msp432p401r.h")
    1034                            .dwattr $C$DW$41, DW_AT_decl_line(0x4cd)
    1035                            .dwattr $C$DW$41, DW_AT_decl_column(0x11)
    1036                    
    1037                    $C$DW$42        .dwtag  DW_TAG_member
    1038                            .dwattr $C$DW$42, DW_AT_type(*$C$DW$T$25)
    1039                            .dwattr $C$DW$42, DW_AT_name("DIE_YPOS")
    1040                            .dwattr $C$DW$42, DW_AT_TI_symbol_name("DIE_YPOS")
    1041                            .dwattr $C$DW$42, DW_AT_data_member_location[DW_OP_plus_uconst 0x28]
    1042                            .dwattr $C$DW$42, DW_AT_accessibility(DW_ACCESS_public)
    1043                            .dwattr $C$DW$42, DW_AT_decl_file("C:\ti\ccs1200\ccs\ccs_base\arm\include\msp432p401r.h")
    1044                            .dwattr $C$DW$42, DW_AT_decl_line(0x4ce)
    1045                            .dwattr $C$DW$42, DW_AT_decl_column(0x11)
TI ARM Assembler PC v20.2.6 Mon Oct 31 23:16:56 2022

Copyright (c) 1996-2018 Texas Instruments Incorporated
system_msp432p401r.asm                                               PAGE   20

    1046                    
    1047                    $C$DW$43        .dwtag  DW_TAG_member
    1048                            .dwattr $C$DW$43, DW_AT_type(*$C$DW$T$25)
    1049                            .dwattr $C$DW$43, DW_AT_name("WAFER_ID")
    1050                            .dwattr $C$DW$43, DW_AT_TI_symbol_name("WAFER_ID")
    1051                            .dwattr $C$DW$43, DW_AT_data_member_location[DW_OP_plus_uconst 0x2c]
    1052                            .dwattr $C$DW$43, DW_AT_accessibility(DW_ACCESS_public)
    1053                            .dwattr $C$DW$43, DW_AT_decl_file("C:\ti\ccs1200\ccs\ccs_base\arm\include\msp432p401r.h")
    1054                            .dwattr $C$DW$43, DW_AT_decl_line(0x4cf)
    1055                            .dwattr $C$DW$43, DW_AT_decl_column(0x11)
    1056                    
    1057                    $C$DW$44        .dwtag  DW_TAG_member
    1058                            .dwattr $C$DW$44, DW_AT_type(*$C$DW$T$25)
    1059                            .dwattr $C$DW$44, DW_AT_name("LOT_ID")
    1060                            .dwattr $C$DW$44, DW_AT_TI_symbol_name("LOT_ID")
    1061                            .dwattr $C$DW$44, DW_AT_data_member_location[DW_OP_plus_uconst 0x30]
    1062                            .dwattr $C$DW$44, DW_AT_accessibility(DW_ACCESS_public)
    1063                            .dwattr $C$DW$44, DW_AT_decl_file("C:\ti\ccs1200\ccs\ccs_base\arm\include\msp432p401r.h")
    1064                            .dwattr $C$DW$44, DW_AT_decl_line(0x4d0)
    1065                            .dwattr $C$DW$44, DW_AT_decl_column(0x11)
    1066                    
    1067                    $C$DW$45        .dwtag  DW_TAG_member
    1068                            .dwattr $C$DW$45, DW_AT_type(*$C$DW$T$25)
    1069                            .dwattr $C$DW$45, DW_AT_name("RESERVED0")
    1070                            .dwattr $C$DW$45, DW_AT_TI_symbol_name("RESERVED0")
    1071                            .dwattr $C$DW$45, DW_AT_data_member_location[DW_OP_plus_uconst 0x34]
    1072                            .dwattr $C$DW$45, DW_AT_accessibility(DW_ACCESS_public)
    1073                            .dwattr $C$DW$45, DW_AT_decl_file("C:\ti\ccs1200\ccs\ccs_base\arm\include\msp432p401r.h")
    1074                            .dwattr $C$DW$45, DW_AT_decl_line(0x4d1)
    1075                            .dwattr $C$DW$45, DW_AT_decl_column(0x11)
    1076                    
    1077                    $C$DW$46        .dwtag  DW_TAG_member
    1078                            .dwattr $C$DW$46, DW_AT_type(*$C$DW$T$25)
    1079                            .dwattr $C$DW$46, DW_AT_name("RESERVED1")
    1080                            .dwattr $C$DW$46, DW_AT_TI_symbol_name("RESERVED1")
    1081                            .dwattr $C$DW$46, DW_AT_data_member_location[DW_OP_plus_uconst 0x38]
    1082                            .dwattr $C$DW$46, DW_AT_accessibility(DW_ACCESS_public)
    1083                            .dwattr $C$DW$46, DW_AT_decl_file("C:\ti\ccs1200\ccs\ccs_base\arm\include\msp432p401r.h")
    1084                            .dwattr $C$DW$46, DW_AT_decl_line(0x4d2)
    1085                            .dwattr $C$DW$46, DW_AT_decl_column(0x11)
    1086                    
    1087                    $C$DW$47        .dwtag  DW_TAG_member
    1088                            .dwattr $C$DW$47, DW_AT_type(*$C$DW$T$25)
    1089                            .dwattr $C$DW$47, DW_AT_name("RESERVED2")
    1090                            .dwattr $C$DW$47, DW_AT_TI_symbol_name("RESERVED2")
    1091                            .dwattr $C$DW$47, DW_AT_data_member_location[DW_OP_plus_uconst 0x3c]
    1092                            .dwattr $C$DW$47, DW_AT_accessibility(DW_ACCESS_public)
    1093                            .dwattr $C$DW$47, DW_AT_decl_file("C:\ti\ccs1200\ccs\ccs_base\arm\include\msp432p401r.h")
    1094                            .dwattr $C$DW$47, DW_AT_decl_line(0x4d3)
    1095                            .dwattr $C$DW$47, DW_AT_decl_column(0x11)
    1096                    
    1097                    $C$DW$48        .dwtag  DW_TAG_member
    1098                            .dwattr $C$DW$48, DW_AT_type(*$C$DW$T$25)
    1099                            .dwattr $C$DW$48, DW_AT_name("TEST_RESULTS")
    1100                            .dwattr $C$DW$48, DW_AT_TI_symbol_name("TEST_RESULTS")
TI ARM Assembler PC v20.2.6 Mon Oct 31 23:16:56 2022

Copyright (c) 1996-2018 Texas Instruments Incorporated
system_msp432p401r.asm                                               PAGE   21

    1101                            .dwattr $C$DW$48, DW_AT_data_member_location[DW_OP_plus_uconst 0x40]
    1102                            .dwattr $C$DW$48, DW_AT_accessibility(DW_ACCESS_public)
    1103                            .dwattr $C$DW$48, DW_AT_decl_file("C:\ti\ccs1200\ccs\ccs_base\arm\include\msp432p401r.h")
    1104                            .dwattr $C$DW$48, DW_AT_decl_line(0x4d4)
    1105                            .dwattr $C$DW$48, DW_AT_decl_column(0x11)
    1106                    
    1107                    $C$DW$49        .dwtag  DW_TAG_member
    1108                            .dwattr $C$DW$49, DW_AT_type(*$C$DW$T$25)
    1109                            .dwattr $C$DW$49, DW_AT_name("CS_CAL_TAG")
    1110                            .dwattr $C$DW$49, DW_AT_TI_symbol_name("CS_CAL_TAG")
    1111                            .dwattr $C$DW$49, DW_AT_data_member_location[DW_OP_plus_uconst 0x44]
    1112                            .dwattr $C$DW$49, DW_AT_accessibility(DW_ACCESS_public)
    1113                            .dwattr $C$DW$49, DW_AT_decl_file("C:\ti\ccs1200\ccs\ccs_base\arm\include\msp432p401r.h")
    1114                            .dwattr $C$DW$49, DW_AT_decl_line(0x4d5)
    1115                            .dwattr $C$DW$49, DW_AT_decl_column(0x11)
    1116                    
    1117                    $C$DW$50        .dwtag  DW_TAG_member
    1118                            .dwattr $C$DW$50, DW_AT_type(*$C$DW$T$25)
    1119                            .dwattr $C$DW$50, DW_AT_name("CS_CAL_LEN")
    1120                            .dwattr $C$DW$50, DW_AT_TI_symbol_name("CS_CAL_LEN")
    1121                            .dwattr $C$DW$50, DW_AT_data_member_location[DW_OP_plus_uconst 0x48]
    1122                            .dwattr $C$DW$50, DW_AT_accessibility(DW_ACCESS_public)
    1123                            .dwattr $C$DW$50, DW_AT_decl_file("C:\ti\ccs1200\ccs\ccs_base\arm\include\msp432p401r.h")
    1124                            .dwattr $C$DW$50, DW_AT_decl_line(0x4d6)
    1125                            .dwattr $C$DW$50, DW_AT_decl_column(0x11)
    1126                    
    1127                    $C$DW$51        .dwtag  DW_TAG_member
    1128                            .dwattr $C$DW$51, DW_AT_type(*$C$DW$T$25)
    1129                            .dwattr $C$DW$51, DW_AT_name("DCOIR_FCAL_RSEL04")
    1130                            .dwattr $C$DW$51, DW_AT_TI_symbol_name("DCOIR_FCAL_RSEL04")
    1131                            .dwattr $C$DW$51, DW_AT_data_member_location[DW_OP_plus_uconst 0x4c]
    1132                            .dwattr $C$DW$51, DW_AT_accessibility(DW_ACCESS_public)
    1133                            .dwattr $C$DW$51, DW_AT_decl_file("C:\ti\ccs1200\ccs\ccs_base\arm\include\msp432p401r.h")
    1134                            .dwattr $C$DW$51, DW_AT_decl_line(0x4d7)
    1135                            .dwattr $C$DW$51, DW_AT_decl_column(0x11)
    1136                    
    1137                    $C$DW$52        .dwtag  DW_TAG_member
    1138                            .dwattr $C$DW$52, DW_AT_type(*$C$DW$T$25)
    1139                            .dwattr $C$DW$52, DW_AT_name("DCOIR_FCAL_RSEL5")
    1140                            .dwattr $C$DW$52, DW_AT_TI_symbol_name("DCOIR_FCAL_RSEL5")
    1141                            .dwattr $C$DW$52, DW_AT_data_member_location[DW_OP_plus_uconst 0x50]
    1142                            .dwattr $C$DW$52, DW_AT_accessibility(DW_ACCESS_public)
    1143                            .dwattr $C$DW$52, DW_AT_decl_file("C:\ti\ccs1200\ccs\ccs_base\arm\include\msp432p401r.h")
    1144                            .dwattr $C$DW$52, DW_AT_decl_line(0x4d8)
    1145                            .dwattr $C$DW$52, DW_AT_decl_column(0x11)
    1146                    
    1147                    $C$DW$53        .dwtag  DW_TAG_member
    1148                            .dwattr $C$DW$53, DW_AT_type(*$C$DW$T$25)
    1149                            .dwattr $C$DW$53, DW_AT_name("RESERVED3")
    1150                            .dwattr $C$DW$53, DW_AT_TI_symbol_name("RESERVED3")
    1151                            .dwattr $C$DW$53, DW_AT_data_member_location[DW_OP_plus_uconst 0x54]
    1152                            .dwattr $C$DW$53, DW_AT_accessibility(DW_ACCESS_public)
    1153                            .dwattr $C$DW$53, DW_AT_decl_file("C:\ti\ccs1200\ccs\ccs_base\arm\include\msp432p401r.h")
    1154                            .dwattr $C$DW$53, DW_AT_decl_line(0x4d9)
    1155                            .dwattr $C$DW$53, DW_AT_decl_column(0x11)
TI ARM Assembler PC v20.2.6 Mon Oct 31 23:16:56 2022

Copyright (c) 1996-2018 Texas Instruments Incorporated
system_msp432p401r.asm                                               PAGE   22

    1156                    
    1157                    $C$DW$54        .dwtag  DW_TAG_member
    1158                            .dwattr $C$DW$54, DW_AT_type(*$C$DW$T$25)
    1159                            .dwattr $C$DW$54, DW_AT_name("RESERVED4")
    1160                            .dwattr $C$DW$54, DW_AT_TI_symbol_name("RESERVED4")
    1161                            .dwattr $C$DW$54, DW_AT_data_member_location[DW_OP_plus_uconst 0x58]
    1162                            .dwattr $C$DW$54, DW_AT_accessibility(DW_ACCESS_public)
    1163                            .dwattr $C$DW$54, DW_AT_decl_file("C:\ti\ccs1200\ccs\ccs_base\arm\include\msp432p401r.h")
    1164                            .dwattr $C$DW$54, DW_AT_decl_line(0x4da)
    1165                            .dwattr $C$DW$54, DW_AT_decl_column(0x11)
    1166                    
    1167                    $C$DW$55        .dwtag  DW_TAG_member
    1168                            .dwattr $C$DW$55, DW_AT_type(*$C$DW$T$25)
    1169                            .dwattr $C$DW$55, DW_AT_name("RESERVED5")
    1170                            .dwattr $C$DW$55, DW_AT_TI_symbol_name("RESERVED5")
    1171                            .dwattr $C$DW$55, DW_AT_data_member_location[DW_OP_plus_uconst 0x5c]
    1172                            .dwattr $C$DW$55, DW_AT_accessibility(DW_ACCESS_public)
    1173                            .dwattr $C$DW$55, DW_AT_decl_file("C:\ti\ccs1200\ccs\ccs_base\arm\include\msp432p401r.h")
    1174                            .dwattr $C$DW$55, DW_AT_decl_line(0x4db)
    1175                            .dwattr $C$DW$55, DW_AT_decl_column(0x11)
    1176                    
    1177                    $C$DW$56        .dwtag  DW_TAG_member
    1178                            .dwattr $C$DW$56, DW_AT_type(*$C$DW$T$25)
    1179                            .dwattr $C$DW$56, DW_AT_name("RESERVED6")
    1180                            .dwattr $C$DW$56, DW_AT_TI_symbol_name("RESERVED6")
    1181                            .dwattr $C$DW$56, DW_AT_data_member_location[DW_OP_plus_uconst 0x60]
    1182                            .dwattr $C$DW$56, DW_AT_accessibility(DW_ACCESS_public)
    1183                            .dwattr $C$DW$56, DW_AT_decl_file("C:\ti\ccs1200\ccs\ccs_base\arm\include\msp432p401r.h")
    1184                            .dwattr $C$DW$56, DW_AT_decl_line(0x4dc)
    1185                            .dwattr $C$DW$56, DW_AT_decl_column(0x11)
    1186                    
    1187                    $C$DW$57        .dwtag  DW_TAG_member
    1188                            .dwattr $C$DW$57, DW_AT_type(*$C$DW$T$25)
    1189                            .dwattr $C$DW$57, DW_AT_name("DCOIR_CONSTK_RSEL04")
    1190                            .dwattr $C$DW$57, DW_AT_TI_symbol_name("DCOIR_CONSTK_RSEL04")
    1191                            .dwattr $C$DW$57, DW_AT_data_member_location[DW_OP_plus_uconst 0x64]
    1192                            .dwattr $C$DW$57, DW_AT_accessibility(DW_ACCESS_public)
    1193                            .dwattr $C$DW$57, DW_AT_decl_file("C:\ti\ccs1200\ccs\ccs_base\arm\include\msp432p401r.h")
    1194                            .dwattr $C$DW$57, DW_AT_decl_line(0x4dd)
    1195                            .dwattr $C$DW$57, DW_AT_decl_column(0x11)
    1196                    
    1197                    $C$DW$58        .dwtag  DW_TAG_member
    1198                            .dwattr $C$DW$58, DW_AT_type(*$C$DW$T$25)
    1199                            .dwattr $C$DW$58, DW_AT_name("DCOIR_CONSTK_RSEL5")
    1200                            .dwattr $C$DW$58, DW_AT_TI_symbol_name("DCOIR_CONSTK_RSEL5")
    1201                            .dwattr $C$DW$58, DW_AT_data_member_location[DW_OP_plus_uconst 0x68]
    1202                            .dwattr $C$DW$58, DW_AT_accessibility(DW_ACCESS_public)
    1203                            .dwattr $C$DW$58, DW_AT_decl_file("C:\ti\ccs1200\ccs\ccs_base\arm\include\msp432p401r.h")
    1204                            .dwattr $C$DW$58, DW_AT_decl_line(0x4de)
    1205                            .dwattr $C$DW$58, DW_AT_decl_column(0x11)
    1206                    
    1207                    $C$DW$59        .dwtag  DW_TAG_member
    1208                            .dwattr $C$DW$59, DW_AT_type(*$C$DW$T$25)
    1209                            .dwattr $C$DW$59, DW_AT_name("DCOER_FCAL_RSEL04")
    1210                            .dwattr $C$DW$59, DW_AT_TI_symbol_name("DCOER_FCAL_RSEL04")
TI ARM Assembler PC v20.2.6 Mon Oct 31 23:16:56 2022

Copyright (c) 1996-2018 Texas Instruments Incorporated
system_msp432p401r.asm                                               PAGE   23

    1211                            .dwattr $C$DW$59, DW_AT_data_member_location[DW_OP_plus_uconst 0x6c]
    1212                            .dwattr $C$DW$59, DW_AT_accessibility(DW_ACCESS_public)
    1213                            .dwattr $C$DW$59, DW_AT_decl_file("C:\ti\ccs1200\ccs\ccs_base\arm\include\msp432p401r.h")
    1214                            .dwattr $C$DW$59, DW_AT_decl_line(0x4df)
    1215                            .dwattr $C$DW$59, DW_AT_decl_column(0x11)
    1216                    
    1217                    $C$DW$60        .dwtag  DW_TAG_member
    1218                            .dwattr $C$DW$60, DW_AT_type(*$C$DW$T$25)
    1219                            .dwattr $C$DW$60, DW_AT_name("DCOER_FCAL_RSEL5")
    1220                            .dwattr $C$DW$60, DW_AT_TI_symbol_name("DCOER_FCAL_RSEL5")
    1221                            .dwattr $C$DW$60, DW_AT_data_member_location[DW_OP_plus_uconst 0x70]
    1222                            .dwattr $C$DW$60, DW_AT_accessibility(DW_ACCESS_public)
    1223                            .dwattr $C$DW$60, DW_AT_decl_file("C:\ti\ccs1200\ccs\ccs_base\arm\include\msp432p401r.h")
    1224                            .dwattr $C$DW$60, DW_AT_decl_line(0x4e0)
    1225                            .dwattr $C$DW$60, DW_AT_decl_column(0x11)
    1226                    
    1227                    $C$DW$61        .dwtag  DW_TAG_member
    1228                            .dwattr $C$DW$61, DW_AT_type(*$C$DW$T$25)
    1229                            .dwattr $C$DW$61, DW_AT_name("RESERVED7")
    1230                            .dwattr $C$DW$61, DW_AT_TI_symbol_name("RESERVED7")
    1231                            .dwattr $C$DW$61, DW_AT_data_member_location[DW_OP_plus_uconst 0x74]
    1232                            .dwattr $C$DW$61, DW_AT_accessibility(DW_ACCESS_public)
    1233                            .dwattr $C$DW$61, DW_AT_decl_file("C:\ti\ccs1200\ccs\ccs_base\arm\include\msp432p401r.h")
    1234                            .dwattr $C$DW$61, DW_AT_decl_line(0x4e1)
    1235                            .dwattr $C$DW$61, DW_AT_decl_column(0x11)
    1236                    
    1237                    $C$DW$62        .dwtag  DW_TAG_member
    1238                            .dwattr $C$DW$62, DW_AT_type(*$C$DW$T$25)
    1239                            .dwattr $C$DW$62, DW_AT_name("RESERVED8")
    1240                            .dwattr $C$DW$62, DW_AT_TI_symbol_name("RESERVED8")
    1241                            .dwattr $C$DW$62, DW_AT_data_member_location[DW_OP_plus_uconst 0x78]
    1242                            .dwattr $C$DW$62, DW_AT_accessibility(DW_ACCESS_public)
    1243                            .dwattr $C$DW$62, DW_AT_decl_file("C:\ti\ccs1200\ccs\ccs_base\arm\include\msp432p401r.h")
    1244                            .dwattr $C$DW$62, DW_AT_decl_line(0x4e2)
    1245                            .dwattr $C$DW$62, DW_AT_decl_column(0x11)
    1246                    
    1247                    $C$DW$63        .dwtag  DW_TAG_member
    1248                            .dwattr $C$DW$63, DW_AT_type(*$C$DW$T$25)
    1249                            .dwattr $C$DW$63, DW_AT_name("RESERVED9")
    1250                            .dwattr $C$DW$63, DW_AT_TI_symbol_name("RESERVED9")
    1251                            .dwattr $C$DW$63, DW_AT_data_member_location[DW_OP_plus_uconst 0x7c]
    1252                            .dwattr $C$DW$63, DW_AT_accessibility(DW_ACCESS_public)
    1253                            .dwattr $C$DW$63, DW_AT_decl_file("C:\ti\ccs1200\ccs\ccs_base\arm\include\msp432p401r.h")
    1254                            .dwattr $C$DW$63, DW_AT_decl_line(0x4e3)
    1255                            .dwattr $C$DW$63, DW_AT_decl_column(0x11)
    1256                    
    1257                    $C$DW$64        .dwtag  DW_TAG_member
    1258                            .dwattr $C$DW$64, DW_AT_type(*$C$DW$T$25)
    1259                            .dwattr $C$DW$64, DW_AT_name("RESERVED10")
    1260                            .dwattr $C$DW$64, DW_AT_TI_symbol_name("RESERVED10")
    1261                            .dwattr $C$DW$64, DW_AT_data_member_location[DW_OP_plus_uconst 0x80]
    1262                            .dwattr $C$DW$64, DW_AT_accessibility(DW_ACCESS_public)
    1263                            .dwattr $C$DW$64, DW_AT_decl_file("C:\ti\ccs1200\ccs\ccs_base\arm\include\msp432p401r.h")
    1264                            .dwattr $C$DW$64, DW_AT_decl_line(0x4e4)
    1265                            .dwattr $C$DW$64, DW_AT_decl_column(0x11)
TI ARM Assembler PC v20.2.6 Mon Oct 31 23:16:56 2022

Copyright (c) 1996-2018 Texas Instruments Incorporated
system_msp432p401r.asm                                               PAGE   24

    1266                    
    1267                    $C$DW$65        .dwtag  DW_TAG_member
    1268                            .dwattr $C$DW$65, DW_AT_type(*$C$DW$T$25)
    1269                            .dwattr $C$DW$65, DW_AT_name("DCOER_CONSTK_RSEL04")
    1270                            .dwattr $C$DW$65, DW_AT_TI_symbol_name("DCOER_CONSTK_RSEL04")
    1271                            .dwattr $C$DW$65, DW_AT_data_member_location[DW_OP_plus_uconst 0x84]
    1272                            .dwattr $C$DW$65, DW_AT_accessibility(DW_ACCESS_public)
    1273                            .dwattr $C$DW$65, DW_AT_decl_file("C:\ti\ccs1200\ccs\ccs_base\arm\include\msp432p401r.h")
    1274                            .dwattr $C$DW$65, DW_AT_decl_line(0x4e5)
    1275                            .dwattr $C$DW$65, DW_AT_decl_column(0x11)
    1276                    
    1277                    $C$DW$66        .dwtag  DW_TAG_member
    1278                            .dwattr $C$DW$66, DW_AT_type(*$C$DW$T$25)
    1279                            .dwattr $C$DW$66, DW_AT_name("DCOER_CONSTK_RSEL5")
    1280                            .dwattr $C$DW$66, DW_AT_TI_symbol_name("DCOER_CONSTK_RSEL5")
    1281                            .dwattr $C$DW$66, DW_AT_data_member_location[DW_OP_plus_uconst 0x88]
    1282                            .dwattr $C$DW$66, DW_AT_accessibility(DW_ACCESS_public)
    1283                            .dwattr $C$DW$66, DW_AT_decl_file("C:\ti\ccs1200\ccs\ccs_base\arm\include\msp432p401r.h")
    1284                            .dwattr $C$DW$66, DW_AT_decl_line(0x4e6)
    1285                            .dwattr $C$DW$66, DW_AT_decl_column(0x11)
    1286                    
    1287                    $C$DW$67        .dwtag  DW_TAG_member
    1288                            .dwattr $C$DW$67, DW_AT_type(*$C$DW$T$25)
    1289                            .dwattr $C$DW$67, DW_AT_name("ADC14_CAL_TAG")
    1290                            .dwattr $C$DW$67, DW_AT_TI_symbol_name("ADC14_CAL_TAG")
    1291                            .dwattr $C$DW$67, DW_AT_data_member_location[DW_OP_plus_uconst 0x8c]
    1292                            .dwattr $C$DW$67, DW_AT_accessibility(DW_ACCESS_public)
    1293                            .dwattr $C$DW$67, DW_AT_decl_file("C:\ti\ccs1200\ccs\ccs_base\arm\include\msp432p401r.h")
    1294                            .dwattr $C$DW$67, DW_AT_decl_line(0x4e7)
    1295                            .dwattr $C$DW$67, DW_AT_decl_column(0x11)
    1296                    
    1297                    $C$DW$68        .dwtag  DW_TAG_member
    1298                            .dwattr $C$DW$68, DW_AT_type(*$C$DW$T$25)
    1299                            .dwattr $C$DW$68, DW_AT_name("ADC14_CAL_LEN")
    1300                            .dwattr $C$DW$68, DW_AT_TI_symbol_name("ADC14_CAL_LEN")
    1301                            .dwattr $C$DW$68, DW_AT_data_member_location[DW_OP_plus_uconst 0x90]
    1302                            .dwattr $C$DW$68, DW_AT_accessibility(DW_ACCESS_public)
    1303                            .dwattr $C$DW$68, DW_AT_decl_file("C:\ti\ccs1200\ccs\ccs_base\arm\include\msp432p401r.h")
    1304                            .dwattr $C$DW$68, DW_AT_decl_line(0x4e8)
    1305                            .dwattr $C$DW$68, DW_AT_decl_column(0x11)
    1306                    
    1307                    $C$DW$69        .dwtag  DW_TAG_member
    1308                            .dwattr $C$DW$69, DW_AT_type(*$C$DW$T$25)
    1309                            .dwattr $C$DW$69, DW_AT_name("ADC_GAIN_FACTOR")
    1310                            .dwattr $C$DW$69, DW_AT_TI_symbol_name("ADC_GAIN_FACTOR")
    1311                            .dwattr $C$DW$69, DW_AT_data_member_location[DW_OP_plus_uconst 0x94]
    1312                            .dwattr $C$DW$69, DW_AT_accessibility(DW_ACCESS_public)
    1313                            .dwattr $C$DW$69, DW_AT_decl_file("C:\ti\ccs1200\ccs\ccs_base\arm\include\msp432p401r.h")
    1314                            .dwattr $C$DW$69, DW_AT_decl_line(0x4e9)
    1315                            .dwattr $C$DW$69, DW_AT_decl_column(0x11)
    1316                    
    1317                    $C$DW$70        .dwtag  DW_TAG_member
    1318                            .dwattr $C$DW$70, DW_AT_type(*$C$DW$T$25)
    1319                            .dwattr $C$DW$70, DW_AT_name("ADC_OFFSET")
    1320                            .dwattr $C$DW$70, DW_AT_TI_symbol_name("ADC_OFFSET")
TI ARM Assembler PC v20.2.6 Mon Oct 31 23:16:56 2022

Copyright (c) 1996-2018 Texas Instruments Incorporated
system_msp432p401r.asm                                               PAGE   25

    1321                            .dwattr $C$DW$70, DW_AT_data_member_location[DW_OP_plus_uconst 0x98]
    1322                            .dwattr $C$DW$70, DW_AT_accessibility(DW_ACCESS_public)
    1323                            .dwattr $C$DW$70, DW_AT_decl_file("C:\ti\ccs1200\ccs\ccs_base\arm\include\msp432p401r.h")
    1324                            .dwattr $C$DW$70, DW_AT_decl_line(0x4ea)
    1325                            .dwattr $C$DW$70, DW_AT_decl_column(0x11)
    1326                    
    1327                    $C$DW$71        .dwtag  DW_TAG_member
    1328                            .dwattr $C$DW$71, DW_AT_type(*$C$DW$T$25)
    1329                            .dwattr $C$DW$71, DW_AT_name("RESERVED11")
    1330                            .dwattr $C$DW$71, DW_AT_TI_symbol_name("RESERVED11")
    1331                            .dwattr $C$DW$71, DW_AT_data_member_location[DW_OP_plus_uconst 0x9c]
    1332                            .dwattr $C$DW$71, DW_AT_accessibility(DW_ACCESS_public)
    1333                            .dwattr $C$DW$71, DW_AT_decl_file("C:\ti\ccs1200\ccs\ccs_base\arm\include\msp432p401r.h")
    1334                            .dwattr $C$DW$71, DW_AT_decl_line(0x4eb)
    1335                            .dwattr $C$DW$71, DW_AT_decl_column(0x11)
    1336                    
    1337                    $C$DW$72        .dwtag  DW_TAG_member
    1338                            .dwattr $C$DW$72, DW_AT_type(*$C$DW$T$25)
    1339                            .dwattr $C$DW$72, DW_AT_name("RESERVED12")
    1340                            .dwattr $C$DW$72, DW_AT_TI_symbol_name("RESERVED12")
    1341                            .dwattr $C$DW$72, DW_AT_data_member_location[DW_OP_plus_uconst 0xa0]
    1342                            .dwattr $C$DW$72, DW_AT_accessibility(DW_ACCESS_public)
    1343                            .dwattr $C$DW$72, DW_AT_decl_file("C:\ti\ccs1200\ccs\ccs_base\arm\include\msp432p401r.h")
    1344                            .dwattr $C$DW$72, DW_AT_decl_line(0x4ec)
    1345                            .dwattr $C$DW$72, DW_AT_decl_column(0x11)
    1346                    
    1347                    $C$DW$73        .dwtag  DW_TAG_member
    1348                            .dwattr $C$DW$73, DW_AT_type(*$C$DW$T$25)
    1349                            .dwattr $C$DW$73, DW_AT_name("RESERVED13")
    1350                            .dwattr $C$DW$73, DW_AT_TI_symbol_name("RESERVED13")
    1351                            .dwattr $C$DW$73, DW_AT_data_member_location[DW_OP_plus_uconst 0xa4]
    1352                            .dwattr $C$DW$73, DW_AT_accessibility(DW_ACCESS_public)
    1353                            .dwattr $C$DW$73, DW_AT_decl_file("C:\ti\ccs1200\ccs\ccs_base\arm\include\msp432p401r.h")
    1354                            .dwattr $C$DW$73, DW_AT_decl_line(0x4ed)
    1355                            .dwattr $C$DW$73, DW_AT_decl_column(0x11)
    1356                    
    1357                    $C$DW$74        .dwtag  DW_TAG_member
    1358                            .dwattr $C$DW$74, DW_AT_type(*$C$DW$T$25)
    1359                            .dwattr $C$DW$74, DW_AT_name("RESERVED14")
    1360                            .dwattr $C$DW$74, DW_AT_TI_symbol_name("RESERVED14")
    1361                            .dwattr $C$DW$74, DW_AT_data_member_location[DW_OP_plus_uconst 0xa8]
    1362                            .dwattr $C$DW$74, DW_AT_accessibility(DW_ACCESS_public)
    1363                            .dwattr $C$DW$74, DW_AT_decl_file("C:\ti\ccs1200\ccs\ccs_base\arm\include\msp432p401r.h")
    1364                            .dwattr $C$DW$74, DW_AT_decl_line(0x4ee)
    1365                            .dwattr $C$DW$74, DW_AT_decl_column(0x11)
    1366                    
    1367                    $C$DW$75        .dwtag  DW_TAG_member
    1368                            .dwattr $C$DW$75, DW_AT_type(*$C$DW$T$25)
    1369                            .dwattr $C$DW$75, DW_AT_name("RESERVED15")
    1370                            .dwattr $C$DW$75, DW_AT_TI_symbol_name("RESERVED15")
    1371                            .dwattr $C$DW$75, DW_AT_data_member_location[DW_OP_plus_uconst 0xac]
    1372                            .dwattr $C$DW$75, DW_AT_accessibility(DW_ACCESS_public)
    1373                            .dwattr $C$DW$75, DW_AT_decl_file("C:\ti\ccs1200\ccs\ccs_base\arm\include\msp432p401r.h")
    1374                            .dwattr $C$DW$75, DW_AT_decl_line(0x4ef)
    1375                            .dwattr $C$DW$75, DW_AT_decl_column(0x11)
TI ARM Assembler PC v20.2.6 Mon Oct 31 23:16:56 2022

Copyright (c) 1996-2018 Texas Instruments Incorporated
system_msp432p401r.asm                                               PAGE   26

    1376                    
    1377                    $C$DW$76        .dwtag  DW_TAG_member
    1378                            .dwattr $C$DW$76, DW_AT_type(*$C$DW$T$25)
    1379                            .dwattr $C$DW$76, DW_AT_name("RESERVED16")
    1380                            .dwattr $C$DW$76, DW_AT_TI_symbol_name("RESERVED16")
    1381                            .dwattr $C$DW$76, DW_AT_data_member_location[DW_OP_plus_uconst 0xb0]
    1382                            .dwattr $C$DW$76, DW_AT_accessibility(DW_ACCESS_public)
    1383                            .dwattr $C$DW$76, DW_AT_decl_file("C:\ti\ccs1200\ccs\ccs_base\arm\include\msp432p401r.h")
    1384                            .dwattr $C$DW$76, DW_AT_decl_line(0x4f0)
    1385                            .dwattr $C$DW$76, DW_AT_decl_column(0x11)
    1386                    
    1387                    $C$DW$77        .dwtag  DW_TAG_member
    1388                            .dwattr $C$DW$77, DW_AT_type(*$C$DW$T$25)
    1389                            .dwattr $C$DW$77, DW_AT_name("RESERVED17")
    1390                            .dwattr $C$DW$77, DW_AT_TI_symbol_name("RESERVED17")
    1391                            .dwattr $C$DW$77, DW_AT_data_member_location[DW_OP_plus_uconst 0xb4]
    1392                            .dwattr $C$DW$77, DW_AT_accessibility(DW_ACCESS_public)
    1393                            .dwattr $C$DW$77, DW_AT_decl_file("C:\ti\ccs1200\ccs\ccs_base\arm\include\msp432p401r.h")
    1394                            .dwattr $C$DW$77, DW_AT_decl_line(0x4f1)
    1395                            .dwattr $C$DW$77, DW_AT_decl_column(0x11)
    1396                    
    1397                    $C$DW$78        .dwtag  DW_TAG_member
    1398                            .dwattr $C$DW$78, DW_AT_type(*$C$DW$T$25)
    1399                            .dwattr $C$DW$78, DW_AT_name("RESERVED18")
    1400                            .dwattr $C$DW$78, DW_AT_TI_symbol_name("RESERVED18")
    1401                            .dwattr $C$DW$78, DW_AT_data_member_location[DW_OP_plus_uconst 0xb8]
    1402                            .dwattr $C$DW$78, DW_AT_accessibility(DW_ACCESS_public)
    1403                            .dwattr $C$DW$78, DW_AT_decl_file("C:\ti\ccs1200\ccs\ccs_base\arm\include\msp432p401r.h")
    1404                            .dwattr $C$DW$78, DW_AT_decl_line(0x4f2)
    1405                            .dwattr $C$DW$78, DW_AT_decl_column(0x11)
    1406                    
    1407                    $C$DW$79        .dwtag  DW_TAG_member
    1408                            .dwattr $C$DW$79, DW_AT_type(*$C$DW$T$25)
    1409                            .dwattr $C$DW$79, DW_AT_name("RESERVED19")
    1410                            .dwattr $C$DW$79, DW_AT_TI_symbol_name("RESERVED19")
    1411                            .dwattr $C$DW$79, DW_AT_data_member_location[DW_OP_plus_uconst 0xbc]
    1412                            .dwattr $C$DW$79, DW_AT_accessibility(DW_ACCESS_public)
    1413                            .dwattr $C$DW$79, DW_AT_decl_file("C:\ti\ccs1200\ccs\ccs_base\arm\include\msp432p401r.h")
    1414                            .dwattr $C$DW$79, DW_AT_decl_line(0x4f3)
    1415                            .dwattr $C$DW$79, DW_AT_decl_column(0x11)
    1416                    
    1417                    $C$DW$80        .dwtag  DW_TAG_member
    1418                            .dwattr $C$DW$80, DW_AT_type(*$C$DW$T$25)
    1419                            .dwattr $C$DW$80, DW_AT_name("RESERVED20")
    1420                            .dwattr $C$DW$80, DW_AT_TI_symbol_name("RESERVED20")
    1421                            .dwattr $C$DW$80, DW_AT_data_member_location[DW_OP_plus_uconst 0xc0]
    1422                            .dwattr $C$DW$80, DW_AT_accessibility(DW_ACCESS_public)
    1423                            .dwattr $C$DW$80, DW_AT_decl_file("C:\ti\ccs1200\ccs\ccs_base\arm\include\msp432p401r.h")
    1424                            .dwattr $C$DW$80, DW_AT_decl_line(0x4f4)
    1425                            .dwattr $C$DW$80, DW_AT_decl_column(0x11)
    1426                    
    1427                    $C$DW$81        .dwtag  DW_TAG_member
    1428                            .dwattr $C$DW$81, DW_AT_type(*$C$DW$T$25)
    1429                            .dwattr $C$DW$81, DW_AT_name("RESERVED21")
    1430                            .dwattr $C$DW$81, DW_AT_TI_symbol_name("RESERVED21")
TI ARM Assembler PC v20.2.6 Mon Oct 31 23:16:56 2022

Copyright (c) 1996-2018 Texas Instruments Incorporated
system_msp432p401r.asm                                               PAGE   27

    1431                            .dwattr $C$DW$81, DW_AT_data_member_location[DW_OP_plus_uconst 0xc4]
    1432                            .dwattr $C$DW$81, DW_AT_accessibility(DW_ACCESS_public)
    1433                            .dwattr $C$DW$81, DW_AT_decl_file("C:\ti\ccs1200\ccs\ccs_base\arm\include\msp432p401r.h")
    1434                            .dwattr $C$DW$81, DW_AT_decl_line(0x4f5)
    1435                            .dwattr $C$DW$81, DW_AT_decl_column(0x11)
    1436                    
    1437                    $C$DW$82        .dwtag  DW_TAG_member
    1438                            .dwattr $C$DW$82, DW_AT_type(*$C$DW$T$25)
    1439                            .dwattr $C$DW$82, DW_AT_name("RESERVED22")
    1440                            .dwattr $C$DW$82, DW_AT_TI_symbol_name("RESERVED22")
    1441                            .dwattr $C$DW$82, DW_AT_data_member_location[DW_OP_plus_uconst 0xc8]
    1442                            .dwattr $C$DW$82, DW_AT_accessibility(DW_ACCESS_public)
    1443                            .dwattr $C$DW$82, DW_AT_decl_file("C:\ti\ccs1200\ccs\ccs_base\arm\include\msp432p401r.h")
    1444                            .dwattr $C$DW$82, DW_AT_decl_line(0x4f6)
    1445                            .dwattr $C$DW$82, DW_AT_decl_column(0x11)
    1446                    
    1447                    $C$DW$83        .dwtag  DW_TAG_member
    1448                            .dwattr $C$DW$83, DW_AT_type(*$C$DW$T$25)
    1449                            .dwattr $C$DW$83, DW_AT_name("RESERVED23")
    1450                            .dwattr $C$DW$83, DW_AT_TI_symbol_name("RESERVED23")
    1451                            .dwattr $C$DW$83, DW_AT_data_member_location[DW_OP_plus_uconst 0xcc]
    1452                            .dwattr $C$DW$83, DW_AT_accessibility(DW_ACCESS_public)
    1453                            .dwattr $C$DW$83, DW_AT_decl_file("C:\ti\ccs1200\ccs\ccs_base\arm\include\msp432p401r.h")
    1454                            .dwattr $C$DW$83, DW_AT_decl_line(0x4f7)
    1455                            .dwattr $C$DW$83, DW_AT_decl_column(0x11)
    1456                    
    1457                    $C$DW$84        .dwtag  DW_TAG_member
    1458                            .dwattr $C$DW$84, DW_AT_type(*$C$DW$T$25)
    1459                            .dwattr $C$DW$84, DW_AT_name("RESERVED24")
    1460                            .dwattr $C$DW$84, DW_AT_TI_symbol_name("RESERVED24")
    1461                            .dwattr $C$DW$84, DW_AT_data_member_location[DW_OP_plus_uconst 0xd0]
    1462                            .dwattr $C$DW$84, DW_AT_accessibility(DW_ACCESS_public)
    1463                            .dwattr $C$DW$84, DW_AT_decl_file("C:\ti\ccs1200\ccs\ccs_base\arm\include\msp432p401r.h")
    1464                            .dwattr $C$DW$84, DW_AT_decl_line(0x4f8)
    1465                            .dwattr $C$DW$84, DW_AT_decl_column(0x11)
    1466                    
    1467                    $C$DW$85        .dwtag  DW_TAG_member
    1468                            .dwattr $C$DW$85, DW_AT_type(*$C$DW$T$25)
    1469                            .dwattr $C$DW$85, DW_AT_name("RESERVED25")
    1470                            .dwattr $C$DW$85, DW_AT_TI_symbol_name("RESERVED25")
    1471                            .dwattr $C$DW$85, DW_AT_data_member_location[DW_OP_plus_uconst 0xd4]
    1472                            .dwattr $C$DW$85, DW_AT_accessibility(DW_ACCESS_public)
    1473                            .dwattr $C$DW$85, DW_AT_decl_file("C:\ti\ccs1200\ccs\ccs_base\arm\include\msp432p401r.h")
    1474                            .dwattr $C$DW$85, DW_AT_decl_line(0x4f9)
    1475                            .dwattr $C$DW$85, DW_AT_decl_column(0x11)
    1476                    
    1477                    $C$DW$86        .dwtag  DW_TAG_member
    1478                            .dwattr $C$DW$86, DW_AT_type(*$C$DW$T$25)
    1479                            .dwattr $C$DW$86, DW_AT_name("RESERVED26")
    1480                            .dwattr $C$DW$86, DW_AT_TI_symbol_name("RESERVED26")
    1481                            .dwattr $C$DW$86, DW_AT_data_member_location[DW_OP_plus_uconst 0xd8]
    1482                            .dwattr $C$DW$86, DW_AT_accessibility(DW_ACCESS_public)
    1483                            .dwattr $C$DW$86, DW_AT_decl_file("C:\ti\ccs1200\ccs\ccs_base\arm\include\msp432p401r.h")
    1484                            .dwattr $C$DW$86, DW_AT_decl_line(0x4fa)
    1485                            .dwattr $C$DW$86, DW_AT_decl_column(0x11)
TI ARM Assembler PC v20.2.6 Mon Oct 31 23:16:56 2022

Copyright (c) 1996-2018 Texas Instruments Incorporated
system_msp432p401r.asm                                               PAGE   28

    1486                    
    1487                    $C$DW$87        .dwtag  DW_TAG_member
    1488                            .dwattr $C$DW$87, DW_AT_type(*$C$DW$T$25)
    1489                            .dwattr $C$DW$87, DW_AT_name("ADC14_REF1P2V_TS30C")
    1490                            .dwattr $C$DW$87, DW_AT_TI_symbol_name("ADC14_REF1P2V_TS30C")
    1491                            .dwattr $C$DW$87, DW_AT_data_member_location[DW_OP_plus_uconst 0xdc]
    1492                            .dwattr $C$DW$87, DW_AT_accessibility(DW_ACCESS_public)
    1493                            .dwattr $C$DW$87, DW_AT_decl_file("C:\ti\ccs1200\ccs\ccs_base\arm\include\msp432p401r.h")
    1494                            .dwattr $C$DW$87, DW_AT_decl_line(0x4fb)
    1495                            .dwattr $C$DW$87, DW_AT_decl_column(0x11)
    1496                    
    1497                    $C$DW$88        .dwtag  DW_TAG_member
    1498                            .dwattr $C$DW$88, DW_AT_type(*$C$DW$T$25)
    1499                            .dwattr $C$DW$88, DW_AT_name("ADC14_REF1P2V_TS85C")
    1500                            .dwattr $C$DW$88, DW_AT_TI_symbol_name("ADC14_REF1P2V_TS85C")
    1501                            .dwattr $C$DW$88, DW_AT_data_member_location[DW_OP_plus_uconst 0xe0]
    1502                            .dwattr $C$DW$88, DW_AT_accessibility(DW_ACCESS_public)
    1503                            .dwattr $C$DW$88, DW_AT_decl_file("C:\ti\ccs1200\ccs\ccs_base\arm\include\msp432p401r.h")
    1504                            .dwattr $C$DW$88, DW_AT_decl_line(0x4fc)
    1505                            .dwattr $C$DW$88, DW_AT_decl_column(0x11)
    1506                    
    1507                    $C$DW$89        .dwtag  DW_TAG_member
    1508                            .dwattr $C$DW$89, DW_AT_type(*$C$DW$T$25)
    1509                            .dwattr $C$DW$89, DW_AT_name("ADC14_REF1P45V_TS30C")
    1510                            .dwattr $C$DW$89, DW_AT_TI_symbol_name("ADC14_REF1P45V_TS30C")
    1511                            .dwattr $C$DW$89, DW_AT_data_member_location[DW_OP_plus_uconst 0xe4]
    1512                            .dwattr $C$DW$89, DW_AT_accessibility(DW_ACCESS_public)
    1513                            .dwattr $C$DW$89, DW_AT_decl_file("C:\ti\ccs1200\ccs\ccs_base\arm\include\msp432p401r.h")
    1514                            .dwattr $C$DW$89, DW_AT_decl_line(0x4fd)
    1515                            .dwattr $C$DW$89, DW_AT_decl_column(0x11)
    1516                    
    1517                    $C$DW$90        .dwtag  DW_TAG_member
    1518                            .dwattr $C$DW$90, DW_AT_type(*$C$DW$T$25)
    1519                            .dwattr $C$DW$90, DW_AT_name("ADC14_REF1P45V_TS85C")
    1520                            .dwattr $C$DW$90, DW_AT_TI_symbol_name("ADC14_REF1P45V_TS85C")
    1521                            .dwattr $C$DW$90, DW_AT_data_member_location[DW_OP_plus_uconst 0xe8]
    1522                            .dwattr $C$DW$90, DW_AT_accessibility(DW_ACCESS_public)
    1523                            .dwattr $C$DW$90, DW_AT_decl_file("C:\ti\ccs1200\ccs\ccs_base\arm\include\msp432p401r.h")
    1524                            .dwattr $C$DW$90, DW_AT_decl_line(0x4fe)
    1525                            .dwattr $C$DW$90, DW_AT_decl_column(0x11)
    1526                    
    1527                    $C$DW$91        .dwtag  DW_TAG_member
    1528                            .dwattr $C$DW$91, DW_AT_type(*$C$DW$T$25)
    1529                            .dwattr $C$DW$91, DW_AT_name("ADC14_REF2P5V_TS30C")
    1530                            .dwattr $C$DW$91, DW_AT_TI_symbol_name("ADC14_REF2P5V_TS30C")
    1531                            .dwattr $C$DW$91, DW_AT_data_member_location[DW_OP_plus_uconst 0xec]
    1532                            .dwattr $C$DW$91, DW_AT_accessibility(DW_ACCESS_public)
    1533                            .dwattr $C$DW$91, DW_AT_decl_file("C:\ti\ccs1200\ccs\ccs_base\arm\include\msp432p401r.h")
    1534                            .dwattr $C$DW$91, DW_AT_decl_line(0x4ff)
    1535                            .dwattr $C$DW$91, DW_AT_decl_column(0x11)
    1536                    
    1537                    $C$DW$92        .dwtag  DW_TAG_member
    1538                            .dwattr $C$DW$92, DW_AT_type(*$C$DW$T$25)
    1539                            .dwattr $C$DW$92, DW_AT_name("ADC14_REF2P5V_TS85C")
    1540                            .dwattr $C$DW$92, DW_AT_TI_symbol_name("ADC14_REF2P5V_TS85C")
TI ARM Assembler PC v20.2.6 Mon Oct 31 23:16:56 2022

Copyright (c) 1996-2018 Texas Instruments Incorporated
system_msp432p401r.asm                                               PAGE   29

    1541                            .dwattr $C$DW$92, DW_AT_data_member_location[DW_OP_plus_uconst 0xf0]
    1542                            .dwattr $C$DW$92, DW_AT_accessibility(DW_ACCESS_public)
    1543                            .dwattr $C$DW$92, DW_AT_decl_file("C:\ti\ccs1200\ccs\ccs_base\arm\include\msp432p401r.h")
    1544                            .dwattr $C$DW$92, DW_AT_decl_line(0x500)
    1545                            .dwattr $C$DW$92, DW_AT_decl_column(0x11)
    1546                    
    1547                    $C$DW$93        .dwtag  DW_TAG_member
    1548                            .dwattr $C$DW$93, DW_AT_type(*$C$DW$T$25)
    1549                            .dwattr $C$DW$93, DW_AT_name("REF_CAL_TAG")
    1550                            .dwattr $C$DW$93, DW_AT_TI_symbol_name("REF_CAL_TAG")
    1551                            .dwattr $C$DW$93, DW_AT_data_member_location[DW_OP_plus_uconst 0xf4]
    1552                            .dwattr $C$DW$93, DW_AT_accessibility(DW_ACCESS_public)
    1553                            .dwattr $C$DW$93, DW_AT_decl_file("C:\ti\ccs1200\ccs\ccs_base\arm\include\msp432p401r.h")
    1554                            .dwattr $C$DW$93, DW_AT_decl_line(0x501)
    1555                            .dwattr $C$DW$93, DW_AT_decl_column(0x11)
    1556                    
    1557                    $C$DW$94        .dwtag  DW_TAG_member
    1558                            .dwattr $C$DW$94, DW_AT_type(*$C$DW$T$25)
    1559                            .dwattr $C$DW$94, DW_AT_name("REF_CAL_LEN")
    1560                            .dwattr $C$DW$94, DW_AT_TI_symbol_name("REF_CAL_LEN")
    1561                            .dwattr $C$DW$94, DW_AT_data_member_location[DW_OP_plus_uconst 0xf8]
    1562                            .dwattr $C$DW$94, DW_AT_accessibility(DW_ACCESS_public)
    1563                            .dwattr $C$DW$94, DW_AT_decl_file("C:\ti\ccs1200\ccs\ccs_base\arm\include\msp432p401r.h")
    1564                            .dwattr $C$DW$94, DW_AT_decl_line(0x502)
    1565                            .dwattr $C$DW$94, DW_AT_decl_column(0x11)
    1566                    
    1567                    $C$DW$95        .dwtag  DW_TAG_member
    1568                            .dwattr $C$DW$95, DW_AT_type(*$C$DW$T$25)
    1569                            .dwattr $C$DW$95, DW_AT_name("REF_1P2V")
    1570                            .dwattr $C$DW$95, DW_AT_TI_symbol_name("REF_1P2V")
    1571                            .dwattr $C$DW$95, DW_AT_data_member_location[DW_OP_plus_uconst 0xfc]
    1572                            .dwattr $C$DW$95, DW_AT_accessibility(DW_ACCESS_public)
    1573                            .dwattr $C$DW$95, DW_AT_decl_file("C:\ti\ccs1200\ccs\ccs_base\arm\include\msp432p401r.h")
    1574                            .dwattr $C$DW$95, DW_AT_decl_line(0x503)
    1575                            .dwattr $C$DW$95, DW_AT_decl_column(0x11)
    1576                    
    1577                    $C$DW$96        .dwtag  DW_TAG_member
    1578                            .dwattr $C$DW$96, DW_AT_type(*$C$DW$T$25)
    1579                            .dwattr $C$DW$96, DW_AT_name("REF_1P45V")
    1580                            .dwattr $C$DW$96, DW_AT_TI_symbol_name("REF_1P45V")
    1581                            .dwattr $C$DW$96, DW_AT_data_member_location[DW_OP_plus_uconst 0x100]
    1582                            .dwattr $C$DW$96, DW_AT_accessibility(DW_ACCESS_public)
    1583                            .dwattr $C$DW$96, DW_AT_decl_file("C:\ti\ccs1200\ccs\ccs_base\arm\include\msp432p401r.h")
    1584                            .dwattr $C$DW$96, DW_AT_decl_line(0x504)
    1585                            .dwattr $C$DW$96, DW_AT_decl_column(0x11)
    1586                    
    1587                    $C$DW$97        .dwtag  DW_TAG_member
    1588                            .dwattr $C$DW$97, DW_AT_type(*$C$DW$T$25)
    1589                            .dwattr $C$DW$97, DW_AT_name("REF_2P5V")
    1590                            .dwattr $C$DW$97, DW_AT_TI_symbol_name("REF_2P5V")
    1591                            .dwattr $C$DW$97, DW_AT_data_member_location[DW_OP_plus_uconst 0x104]
    1592                            .dwattr $C$DW$97, DW_AT_accessibility(DW_ACCESS_public)
    1593                            .dwattr $C$DW$97, DW_AT_decl_file("C:\ti\ccs1200\ccs\ccs_base\arm\include\msp432p401r.h")
    1594                            .dwattr $C$DW$97, DW_AT_decl_line(0x505)
    1595                            .dwattr $C$DW$97, DW_AT_decl_column(0x11)
TI ARM Assembler PC v20.2.6 Mon Oct 31 23:16:56 2022

Copyright (c) 1996-2018 Texas Instruments Incorporated
system_msp432p401r.asm                                               PAGE   30

    1596                    
    1597                    $C$DW$98        .dwtag  DW_TAG_member
    1598                            .dwattr $C$DW$98, DW_AT_type(*$C$DW$T$25)
    1599                            .dwattr $C$DW$98, DW_AT_name("FLASH_INFO_TAG")
    1600                            .dwattr $C$DW$98, DW_AT_TI_symbol_name("FLASH_INFO_TAG")
    1601                            .dwattr $C$DW$98, DW_AT_data_member_location[DW_OP_plus_uconst 0x108]
    1602                            .dwattr $C$DW$98, DW_AT_accessibility(DW_ACCESS_public)
    1603                            .dwattr $C$DW$98, DW_AT_decl_file("C:\ti\ccs1200\ccs\ccs_base\arm\include\msp432p401r.h")
    1604                            .dwattr $C$DW$98, DW_AT_decl_line(0x506)
    1605                            .dwattr $C$DW$98, DW_AT_decl_column(0x11)
    1606                    
    1607                    $C$DW$99        .dwtag  DW_TAG_member
    1608                            .dwattr $C$DW$99, DW_AT_type(*$C$DW$T$25)
    1609                            .dwattr $C$DW$99, DW_AT_name("FLASH_INFO_LEN")
    1610                            .dwattr $C$DW$99, DW_AT_TI_symbol_name("FLASH_INFO_LEN")
    1611                            .dwattr $C$DW$99, DW_AT_data_member_location[DW_OP_plus_uconst 0x10c]
    1612                            .dwattr $C$DW$99, DW_AT_accessibility(DW_ACCESS_public)
    1613                            .dwattr $C$DW$99, DW_AT_decl_file("C:\ti\ccs1200\ccs\ccs_base\arm\include\msp432p401r.h")
    1614                            .dwattr $C$DW$99, DW_AT_decl_line(0x507)
    1615                            .dwattr $C$DW$99, DW_AT_decl_column(0x11)
    1616                    
    1617                    $C$DW$100       .dwtag  DW_TAG_member
    1618                            .dwattr $C$DW$100, DW_AT_type(*$C$DW$T$25)
    1619                            .dwattr $C$DW$100, DW_AT_name("FLASH_MAX_PROG_PULSES")
    1620                            .dwattr $C$DW$100, DW_AT_TI_symbol_name("FLASH_MAX_PROG_PULSES")
    1621                            .dwattr $C$DW$100, DW_AT_data_member_location[DW_OP_plus_uconst 0x110]
    1622                            .dwattr $C$DW$100, DW_AT_accessibility(DW_ACCESS_public)
    1623                            .dwattr $C$DW$100, DW_AT_decl_file("C:\ti\ccs1200\ccs\ccs_base\arm\include\msp432p401r.h")
    1624                            .dwattr $C$DW$100, DW_AT_decl_line(0x508)
    1625                            .dwattr $C$DW$100, DW_AT_decl_column(0x11)
    1626                    
    1627                    $C$DW$101       .dwtag  DW_TAG_member
    1628                            .dwattr $C$DW$101, DW_AT_type(*$C$DW$T$25)
    1629                            .dwattr $C$DW$101, DW_AT_name("FLASH_MAX_ERASE_PULSES")
    1630                            .dwattr $C$DW$101, DW_AT_TI_symbol_name("FLASH_MAX_ERASE_PULSES")
    1631                            .dwattr $C$DW$101, DW_AT_data_member_location[DW_OP_plus_uconst 0x114]
    1632                            .dwattr $C$DW$101, DW_AT_accessibility(DW_ACCESS_public)
    1633                            .dwattr $C$DW$101, DW_AT_decl_file("C:\ti\ccs1200\ccs\ccs_base\arm\include\msp432p401r.h")
    1634                            .dwattr $C$DW$101, DW_AT_decl_line(0x509)
    1635                            .dwattr $C$DW$101, DW_AT_decl_column(0x11)
    1636                    
    1637                    $C$DW$102       .dwtag  DW_TAG_member
    1638                            .dwattr $C$DW$102, DW_AT_type(*$C$DW$T$25)
    1639                            .dwattr $C$DW$102, DW_AT_name("RANDOM_NUM_TAG")
    1640                            .dwattr $C$DW$102, DW_AT_TI_symbol_name("RANDOM_NUM_TAG")
    1641                            .dwattr $C$DW$102, DW_AT_data_member_location[DW_OP_plus_uconst 0x118]
    1642                            .dwattr $C$DW$102, DW_AT_accessibility(DW_ACCESS_public)
    1643                            .dwattr $C$DW$102, DW_AT_decl_file("C:\ti\ccs1200\ccs\ccs_base\arm\include\msp432p401r.h")
    1644                            .dwattr $C$DW$102, DW_AT_decl_line(0x50a)
    1645                            .dwattr $C$DW$102, DW_AT_decl_column(0x11)
    1646                    
    1647                    $C$DW$103       .dwtag  DW_TAG_member
    1648                            .dwattr $C$DW$103, DW_AT_type(*$C$DW$T$25)
    1649                            .dwattr $C$DW$103, DW_AT_name("RANDOM_NUM_LEN")
    1650                            .dwattr $C$DW$103, DW_AT_TI_symbol_name("RANDOM_NUM_LEN")
TI ARM Assembler PC v20.2.6 Mon Oct 31 23:16:56 2022

Copyright (c) 1996-2018 Texas Instruments Incorporated
system_msp432p401r.asm                                               PAGE   31

    1651                            .dwattr $C$DW$103, DW_AT_data_member_location[DW_OP_plus_uconst 0x11c]
    1652                            .dwattr $C$DW$103, DW_AT_accessibility(DW_ACCESS_public)
    1653                            .dwattr $C$DW$103, DW_AT_decl_file("C:\ti\ccs1200\ccs\ccs_base\arm\include\msp432p401r.h")
    1654                            .dwattr $C$DW$103, DW_AT_decl_line(0x50b)
    1655                            .dwattr $C$DW$103, DW_AT_decl_column(0x11)
    1656                    
    1657                    $C$DW$104       .dwtag  DW_TAG_member
    1658                            .dwattr $C$DW$104, DW_AT_type(*$C$DW$T$25)
    1659                            .dwattr $C$DW$104, DW_AT_name("RANDOM_NUM_1")
    1660                            .dwattr $C$DW$104, DW_AT_TI_symbol_name("RANDOM_NUM_1")
    1661                            .dwattr $C$DW$104, DW_AT_data_member_location[DW_OP_plus_uconst 0x120]
    1662                            .dwattr $C$DW$104, DW_AT_accessibility(DW_ACCESS_public)
    1663                            .dwattr $C$DW$104, DW_AT_decl_file("C:\ti\ccs1200\ccs\ccs_base\arm\include\msp432p401r.h")
    1664                            .dwattr $C$DW$104, DW_AT_decl_line(0x50c)
    1665                            .dwattr $C$DW$104, DW_AT_decl_column(0x11)
    1666                    
    1667                    $C$DW$105       .dwtag  DW_TAG_member
    1668                            .dwattr $C$DW$105, DW_AT_type(*$C$DW$T$25)
    1669                            .dwattr $C$DW$105, DW_AT_name("RANDOM_NUM_2")
    1670                            .dwattr $C$DW$105, DW_AT_TI_symbol_name("RANDOM_NUM_2")
    1671                            .dwattr $C$DW$105, DW_AT_data_member_location[DW_OP_plus_uconst 0x124]
    1672                            .dwattr $C$DW$105, DW_AT_accessibility(DW_ACCESS_public)
    1673                            .dwattr $C$DW$105, DW_AT_decl_file("C:\ti\ccs1200\ccs\ccs_base\arm\include\msp432p401r.h")
    1674                            .dwattr $C$DW$105, DW_AT_decl_line(0x50d)
    1675                            .dwattr $C$DW$105, DW_AT_decl_column(0x11)
    1676                    
    1677                    $C$DW$106       .dwtag  DW_TAG_member
    1678                            .dwattr $C$DW$106, DW_AT_type(*$C$DW$T$25)
    1679                            .dwattr $C$DW$106, DW_AT_name("RANDOM_NUM_3")
    1680                            .dwattr $C$DW$106, DW_AT_TI_symbol_name("RANDOM_NUM_3")
    1681                            .dwattr $C$DW$106, DW_AT_data_member_location[DW_OP_plus_uconst 0x128]
    1682                            .dwattr $C$DW$106, DW_AT_accessibility(DW_ACCESS_public)
    1683                            .dwattr $C$DW$106, DW_AT_decl_file("C:\ti\ccs1200\ccs\ccs_base\arm\include\msp432p401r.h")
    1684                            .dwattr $C$DW$106, DW_AT_decl_line(0x50e)
    1685                            .dwattr $C$DW$106, DW_AT_decl_column(0x11)
    1686                    
    1687                    $C$DW$107       .dwtag  DW_TAG_member
    1688                            .dwattr $C$DW$107, DW_AT_type(*$C$DW$T$25)
    1689                            .dwattr $C$DW$107, DW_AT_name("RANDOM_NUM_4")
    1690                            .dwattr $C$DW$107, DW_AT_TI_symbol_name("RANDOM_NUM_4")
    1691                            .dwattr $C$DW$107, DW_AT_data_member_location[DW_OP_plus_uconst 0x12c]
    1692                            .dwattr $C$DW$107, DW_AT_accessibility(DW_ACCESS_public)
    1693                            .dwattr $C$DW$107, DW_AT_decl_file("C:\ti\ccs1200\ccs\ccs_base\arm\include\msp432p401r.h")
    1694                            .dwattr $C$DW$107, DW_AT_decl_line(0x50f)
    1695                            .dwattr $C$DW$107, DW_AT_decl_column(0x11)
    1696                    
    1697                    $C$DW$108       .dwtag  DW_TAG_member
    1698                            .dwattr $C$DW$108, DW_AT_type(*$C$DW$T$25)
    1699                            .dwattr $C$DW$108, DW_AT_name("BSL_CFG_TAG")
    1700                            .dwattr $C$DW$108, DW_AT_TI_symbol_name("BSL_CFG_TAG")
    1701                            .dwattr $C$DW$108, DW_AT_data_member_location[DW_OP_plus_uconst 0x130]
    1702                            .dwattr $C$DW$108, DW_AT_accessibility(DW_ACCESS_public)
    1703                            .dwattr $C$DW$108, DW_AT_decl_file("C:\ti\ccs1200\ccs\ccs_base\arm\include\msp432p401r.h")
    1704                            .dwattr $C$DW$108, DW_AT_decl_line(0x510)
    1705                            .dwattr $C$DW$108, DW_AT_decl_column(0x11)
TI ARM Assembler PC v20.2.6 Mon Oct 31 23:16:56 2022

Copyright (c) 1996-2018 Texas Instruments Incorporated
system_msp432p401r.asm                                               PAGE   32

    1706                    
    1707                    $C$DW$109       .dwtag  DW_TAG_member
    1708                            .dwattr $C$DW$109, DW_AT_type(*$C$DW$T$25)
    1709                            .dwattr $C$DW$109, DW_AT_name("BSL_CFG_LEN")
    1710                            .dwattr $C$DW$109, DW_AT_TI_symbol_name("BSL_CFG_LEN")
    1711                            .dwattr $C$DW$109, DW_AT_data_member_location[DW_OP_plus_uconst 0x134]
    1712                            .dwattr $C$DW$109, DW_AT_accessibility(DW_ACCESS_public)
    1713                            .dwattr $C$DW$109, DW_AT_decl_file("C:\ti\ccs1200\ccs\ccs_base\arm\include\msp432p401r.h")
    1714                            .dwattr $C$DW$109, DW_AT_decl_line(0x511)
    1715                            .dwattr $C$DW$109, DW_AT_decl_column(0x11)
    1716                    
    1717                    $C$DW$110       .dwtag  DW_TAG_member
    1718                            .dwattr $C$DW$110, DW_AT_type(*$C$DW$T$25)
    1719                            .dwattr $C$DW$110, DW_AT_name("BSL_PERIPHIF_SEL")
    1720                            .dwattr $C$DW$110, DW_AT_TI_symbol_name("BSL_PERIPHIF_SEL")
    1721                            .dwattr $C$DW$110, DW_AT_data_member_location[DW_OP_plus_uconst 0x138]
    1722                            .dwattr $C$DW$110, DW_AT_accessibility(DW_ACCESS_public)
    1723                            .dwattr $C$DW$110, DW_AT_decl_file("C:\ti\ccs1200\ccs\ccs_base\arm\include\msp432p401r.h")
    1724                            .dwattr $C$DW$110, DW_AT_decl_line(0x512)
    1725                            .dwattr $C$DW$110, DW_AT_decl_column(0x11)
    1726                    
    1727                    $C$DW$111       .dwtag  DW_TAG_member
    1728                            .dwattr $C$DW$111, DW_AT_type(*$C$DW$T$25)
    1729                            .dwattr $C$DW$111, DW_AT_name("BSL_PORTIF_CFG_UART")
    1730                            .dwattr $C$DW$111, DW_AT_TI_symbol_name("BSL_PORTIF_CFG_UART")
    1731                            .dwattr $C$DW$111, DW_AT_data_member_location[DW_OP_plus_uconst 0x13c]
    1732                            .dwattr $C$DW$111, DW_AT_accessibility(DW_ACCESS_public)
    1733                            .dwattr $C$DW$111, DW_AT_decl_file("C:\ti\ccs1200\ccs\ccs_base\arm\include\msp432p401r.h")
    1734                            .dwattr $C$DW$111, DW_AT_decl_line(0x513)
    1735                            .dwattr $C$DW$111, DW_AT_decl_column(0x11)
    1736                    
    1737                    $C$DW$112       .dwtag  DW_TAG_member
    1738                            .dwattr $C$DW$112, DW_AT_type(*$C$DW$T$25)
    1739                            .dwattr $C$DW$112, DW_AT_name("BSL_PORTIF_CFG_SPI")
    1740                            .dwattr $C$DW$112, DW_AT_TI_symbol_name("BSL_PORTIF_CFG_SPI")
    1741                            .dwattr $C$DW$112, DW_AT_data_member_location[DW_OP_plus_uconst 0x140]
    1742                            .dwattr $C$DW$112, DW_AT_accessibility(DW_ACCESS_public)
    1743                            .dwattr $C$DW$112, DW_AT_decl_file("C:\ti\ccs1200\ccs\ccs_base\arm\include\msp432p401r.h")
    1744                            .dwattr $C$DW$112, DW_AT_decl_line(0x514)
    1745                            .dwattr $C$DW$112, DW_AT_decl_column(0x11)
    1746                    
    1747                    $C$DW$113       .dwtag  DW_TAG_member
    1748                            .dwattr $C$DW$113, DW_AT_type(*$C$DW$T$25)
    1749                            .dwattr $C$DW$113, DW_AT_name("BSL_PORTIF_CFG_I2C")
    1750                            .dwattr $C$DW$113, DW_AT_TI_symbol_name("BSL_PORTIF_CFG_I2C")
    1751                            .dwattr $C$DW$113, DW_AT_data_member_location[DW_OP_plus_uconst 0x144]
    1752                            .dwattr $C$DW$113, DW_AT_accessibility(DW_ACCESS_public)
    1753                            .dwattr $C$DW$113, DW_AT_decl_file("C:\ti\ccs1200\ccs\ccs_base\arm\include\msp432p401r.h")
    1754                            .dwattr $C$DW$113, DW_AT_decl_line(0x515)
    1755                            .dwattr $C$DW$113, DW_AT_decl_column(0x11)
    1756                    
    1757                    $C$DW$114       .dwtag  DW_TAG_member
    1758                            .dwattr $C$DW$114, DW_AT_type(*$C$DW$T$25)
    1759                            .dwattr $C$DW$114, DW_AT_name("TLV_END")
    1760                            .dwattr $C$DW$114, DW_AT_TI_symbol_name("TLV_END")
TI ARM Assembler PC v20.2.6 Mon Oct 31 23:16:56 2022

Copyright (c) 1996-2018 Texas Instruments Incorporated
system_msp432p401r.asm                                               PAGE   33

    1761                            .dwattr $C$DW$114, DW_AT_data_member_location[DW_OP_plus_uconst 0x148]
    1762                            .dwattr $C$DW$114, DW_AT_accessibility(DW_ACCESS_public)
    1763                            .dwattr $C$DW$114, DW_AT_decl_file("C:\ti\ccs1200\ccs\ccs_base\arm\include\msp432p401r.h")
    1764                            .dwattr $C$DW$114, DW_AT_decl_line(0x516)
    1765                            .dwattr $C$DW$114, DW_AT_decl_column(0x11)
    1766                    
    1767                            .dwattr $C$DW$T$28, DW_AT_decl_file("C:\ti\ccs1200\ccs\ccs_base\arm\include\msp432p401r.h")
    1768                            .dwattr $C$DW$T$28, DW_AT_decl_line(0x4c3)
    1769                            .dwattr $C$DW$T$28, DW_AT_decl_column(0x10)
    1770                            .dwendtag $C$DW$T$28
    1771                    
    1772                    $C$DW$T$181     .dwtag  DW_TAG_typedef
    1773                            .dwattr $C$DW$T$181, DW_AT_name("TLV_Type")
    1774                            .dwattr $C$DW$T$181, DW_AT_type(*$C$DW$T$28)
    1775                            .dwattr $C$DW$T$181, DW_AT_language(DW_LANG_C)
    1776                            .dwattr $C$DW$T$181, DW_AT_decl_file("C:\ti\ccs1200\ccs\ccs_base\arm\include\msp432p401r.h")
    1777                            .dwattr $C$DW$T$181, DW_AT_decl_line(0x517)
    1778                            .dwattr $C$DW$T$181, DW_AT_decl_column(0x03)
    1779                    
    1780                    
    1781                    $C$DW$T$37      .dwtag  DW_TAG_structure_type
    1782                            .dwattr $C$DW$T$37, DW_AT_byte_size(0x8c)
    1783                    $C$DW$115       .dwtag  DW_TAG_member
    1784                            .dwattr $C$DW$115, DW_AT_type(*$C$DW$T$25)
    1785                            .dwattr $C$DW$115, DW_AT_name("CPUID")
    1786                            .dwattr $C$DW$115, DW_AT_TI_symbol_name("CPUID")
    1787                            .dwattr $C$DW$115, DW_AT_data_member_location[DW_OP_plus_uconst 0x0]
    1788                            .dwattr $C$DW$115, DW_AT_accessibility(DW_ACCESS_public)
    1789                            .dwattr $C$DW$115, DW_AT_decl_file("C:/ti/ccs1200/ccs/ccs_base/arm/include/CMSIS/core_cm4.h")
    1790                            .dwattr $C$DW$115, DW_AT_decl_line(0x1b8)
    1791                            .dwattr $C$DW$115, DW_AT_decl_column(0x12)
    1792                    
    1793                    $C$DW$116       .dwtag  DW_TAG_member
    1794                            .dwattr $C$DW$116, DW_AT_type(*$C$DW$T$23)
    1795                            .dwattr $C$DW$116, DW_AT_name("ICSR")
    1796                            .dwattr $C$DW$116, DW_AT_TI_symbol_name("ICSR")
    1797                            .dwattr $C$DW$116, DW_AT_data_member_location[DW_OP_plus_uconst 0x4]
    1798                            .dwattr $C$DW$116, DW_AT_accessibility(DW_ACCESS_public)
    1799                            .dwattr $C$DW$116, DW_AT_decl_file("C:/ti/ccs1200/ccs/ccs_base/arm/include/CMSIS/core_cm4.h")
    1800                            .dwattr $C$DW$116, DW_AT_decl_line(0x1b9)
    1801                            .dwattr $C$DW$116, DW_AT_decl_column(0x12)
    1802                    
    1803                    $C$DW$117       .dwtag  DW_TAG_member
    1804                            .dwattr $C$DW$117, DW_AT_type(*$C$DW$T$23)
    1805                            .dwattr $C$DW$117, DW_AT_name("VTOR")
    1806                            .dwattr $C$DW$117, DW_AT_TI_symbol_name("VTOR")
    1807                            .dwattr $C$DW$117, DW_AT_data_member_location[DW_OP_plus_uconst 0x8]
    1808                            .dwattr $C$DW$117, DW_AT_accessibility(DW_ACCESS_public)
    1809                            .dwattr $C$DW$117, DW_AT_decl_file("C:/ti/ccs1200/ccs/ccs_base/arm/include/CMSIS/core_cm4.h")
    1810                            .dwattr $C$DW$117, DW_AT_decl_line(0x1ba)
    1811                            .dwattr $C$DW$117, DW_AT_decl_column(0x12)
    1812                    
    1813                    $C$DW$118       .dwtag  DW_TAG_member
    1814                            .dwattr $C$DW$118, DW_AT_type(*$C$DW$T$23)
    1815                            .dwattr $C$DW$118, DW_AT_name("AIRCR")
TI ARM Assembler PC v20.2.6 Mon Oct 31 23:16:56 2022

Copyright (c) 1996-2018 Texas Instruments Incorporated
system_msp432p401r.asm                                               PAGE   34

    1816                            .dwattr $C$DW$118, DW_AT_TI_symbol_name("AIRCR")
    1817                            .dwattr $C$DW$118, DW_AT_data_member_location[DW_OP_plus_uconst 0xc]
    1818                            .dwattr $C$DW$118, DW_AT_accessibility(DW_ACCESS_public)
    1819                            .dwattr $C$DW$118, DW_AT_decl_file("C:/ti/ccs1200/ccs/ccs_base/arm/include/CMSIS/core_cm4.h")
    1820                            .dwattr $C$DW$118, DW_AT_decl_line(0x1bb)
    1821                            .dwattr $C$DW$118, DW_AT_decl_column(0x12)
    1822                    
    1823                    $C$DW$119       .dwtag  DW_TAG_member
    1824                            .dwattr $C$DW$119, DW_AT_type(*$C$DW$T$23)
    1825                            .dwattr $C$DW$119, DW_AT_name("SCR")
    1826                            .dwattr $C$DW$119, DW_AT_TI_symbol_name("SCR")
    1827                            .dwattr $C$DW$119, DW_AT_data_member_location[DW_OP_plus_uconst 0x10]
    1828                            .dwattr $C$DW$119, DW_AT_accessibility(DW_ACCESS_public)
    1829                            .dwattr $C$DW$119, DW_AT_decl_file("C:/ti/ccs1200/ccs/ccs_base/arm/include/CMSIS/core_cm4.h")
    1830                            .dwattr $C$DW$119, DW_AT_decl_line(0x1bc)
    1831                            .dwattr $C$DW$119, DW_AT_decl_column(0x12)
    1832                    
    1833                    $C$DW$120       .dwtag  DW_TAG_member
    1834                            .dwattr $C$DW$120, DW_AT_type(*$C$DW$T$23)
    1835                            .dwattr $C$DW$120, DW_AT_name("CCR")
    1836                            .dwattr $C$DW$120, DW_AT_TI_symbol_name("CCR")
    1837                            .dwattr $C$DW$120, DW_AT_data_member_location[DW_OP_plus_uconst 0x14]
    1838                            .dwattr $C$DW$120, DW_AT_accessibility(DW_ACCESS_public)
    1839                            .dwattr $C$DW$120, DW_AT_decl_file("C:/ti/ccs1200/ccs/ccs_base/arm/include/CMSIS/core_cm4.h")
    1840                            .dwattr $C$DW$120, DW_AT_decl_line(0x1bd)
    1841                            .dwattr $C$DW$120, DW_AT_decl_column(0x12)
    1842                    
    1843                    $C$DW$121       .dwtag  DW_TAG_member
    1844                            .dwattr $C$DW$121, DW_AT_type(*$C$DW$T$32)
    1845                            .dwattr $C$DW$121, DW_AT_name("SHP")
    1846                            .dwattr $C$DW$121, DW_AT_TI_symbol_name("SHP")
    1847                            .dwattr $C$DW$121, DW_AT_data_member_location[DW_OP_plus_uconst 0x18]
    1848                            .dwattr $C$DW$121, DW_AT_accessibility(DW_ACCESS_public)
    1849                            .dwattr $C$DW$121, DW_AT_decl_file("C:/ti/ccs1200/ccs/ccs_base/arm/include/CMSIS/core_cm4.h")
    1850                            .dwattr $C$DW$121, DW_AT_decl_line(0x1be)
    1851                            .dwattr $C$DW$121, DW_AT_decl_column(0x12)
    1852                    
    1853                    $C$DW$122       .dwtag  DW_TAG_member
    1854                            .dwattr $C$DW$122, DW_AT_type(*$C$DW$T$23)
    1855                            .dwattr $C$DW$122, DW_AT_name("SHCSR")
    1856                            .dwattr $C$DW$122, DW_AT_TI_symbol_name("SHCSR")
    1857                            .dwattr $C$DW$122, DW_AT_data_member_location[DW_OP_plus_uconst 0x24]
    1858                            .dwattr $C$DW$122, DW_AT_accessibility(DW_ACCESS_public)
    1859                            .dwattr $C$DW$122, DW_AT_decl_file("C:/ti/ccs1200/ccs/ccs_base/arm/include/CMSIS/core_cm4.h")
    1860                            .dwattr $C$DW$122, DW_AT_decl_line(0x1bf)
    1861                            .dwattr $C$DW$122, DW_AT_decl_column(0x12)
    1862                    
    1863                    $C$DW$123       .dwtag  DW_TAG_member
    1864                            .dwattr $C$DW$123, DW_AT_type(*$C$DW$T$23)
    1865                            .dwattr $C$DW$123, DW_AT_name("CFSR")
    1866                            .dwattr $C$DW$123, DW_AT_TI_symbol_name("CFSR")
    1867                            .dwattr $C$DW$123, DW_AT_data_member_location[DW_OP_plus_uconst 0x28]
    1868                            .dwattr $C$DW$123, DW_AT_accessibility(DW_ACCESS_public)
    1869                            .dwattr $C$DW$123, DW_AT_decl_file("C:/ti/ccs1200/ccs/ccs_base/arm/include/CMSIS/core_cm4.h")
    1870                            .dwattr $C$DW$123, DW_AT_decl_line(0x1c0)
TI ARM Assembler PC v20.2.6 Mon Oct 31 23:16:56 2022

Copyright (c) 1996-2018 Texas Instruments Incorporated
system_msp432p401r.asm                                               PAGE   35

    1871                            .dwattr $C$DW$123, DW_AT_decl_column(0x12)
    1872                    
    1873                    $C$DW$124       .dwtag  DW_TAG_member
    1874                            .dwattr $C$DW$124, DW_AT_type(*$C$DW$T$23)
    1875                            .dwattr $C$DW$124, DW_AT_name("HFSR")
    1876                            .dwattr $C$DW$124, DW_AT_TI_symbol_name("HFSR")
    1877                            .dwattr $C$DW$124, DW_AT_data_member_location[DW_OP_plus_uconst 0x2c]
    1878                            .dwattr $C$DW$124, DW_AT_accessibility(DW_ACCESS_public)
    1879                            .dwattr $C$DW$124, DW_AT_decl_file("C:/ti/ccs1200/ccs/ccs_base/arm/include/CMSIS/core_cm4.h")
    1880                            .dwattr $C$DW$124, DW_AT_decl_line(0x1c1)
    1881                            .dwattr $C$DW$124, DW_AT_decl_column(0x12)
    1882                    
    1883                    $C$DW$125       .dwtag  DW_TAG_member
    1884                            .dwattr $C$DW$125, DW_AT_type(*$C$DW$T$23)
    1885                            .dwattr $C$DW$125, DW_AT_name("DFSR")
    1886                            .dwattr $C$DW$125, DW_AT_TI_symbol_name("DFSR")
    1887                            .dwattr $C$DW$125, DW_AT_data_member_location[DW_OP_plus_uconst 0x30]
    1888                            .dwattr $C$DW$125, DW_AT_accessibility(DW_ACCESS_public)
    1889                            .dwattr $C$DW$125, DW_AT_decl_file("C:/ti/ccs1200/ccs/ccs_base/arm/include/CMSIS/core_cm4.h")
    1890                            .dwattr $C$DW$125, DW_AT_decl_line(0x1c2)
    1891                            .dwattr $C$DW$125, DW_AT_decl_column(0x12)
    1892                    
    1893                    $C$DW$126       .dwtag  DW_TAG_member
    1894                            .dwattr $C$DW$126, DW_AT_type(*$C$DW$T$23)
    1895                            .dwattr $C$DW$126, DW_AT_name("MMFAR")
    1896                            .dwattr $C$DW$126, DW_AT_TI_symbol_name("MMFAR")
    1897                            .dwattr $C$DW$126, DW_AT_data_member_location[DW_OP_plus_uconst 0x34]
    1898                            .dwattr $C$DW$126, DW_AT_accessibility(DW_ACCESS_public)
    1899                            .dwattr $C$DW$126, DW_AT_decl_file("C:/ti/ccs1200/ccs/ccs_base/arm/include/CMSIS/core_cm4.h")
    1900                            .dwattr $C$DW$126, DW_AT_decl_line(0x1c3)
    1901                            .dwattr $C$DW$126, DW_AT_decl_column(0x12)
    1902                    
    1903                    $C$DW$127       .dwtag  DW_TAG_member
    1904                            .dwattr $C$DW$127, DW_AT_type(*$C$DW$T$23)
    1905                            .dwattr $C$DW$127, DW_AT_name("BFAR")
    1906                            .dwattr $C$DW$127, DW_AT_TI_symbol_name("BFAR")
    1907                            .dwattr $C$DW$127, DW_AT_data_member_location[DW_OP_plus_uconst 0x38]
    1908                            .dwattr $C$DW$127, DW_AT_accessibility(DW_ACCESS_public)
    1909                            .dwattr $C$DW$127, DW_AT_decl_file("C:/ti/ccs1200/ccs/ccs_base/arm/include/CMSIS/core_cm4.h")
    1910                            .dwattr $C$DW$127, DW_AT_decl_line(0x1c4)
    1911                            .dwattr $C$DW$127, DW_AT_decl_column(0x12)
    1912                    
    1913                    $C$DW$128       .dwtag  DW_TAG_member
    1914                            .dwattr $C$DW$128, DW_AT_type(*$C$DW$T$23)
    1915                            .dwattr $C$DW$128, DW_AT_name("AFSR")
    1916                            .dwattr $C$DW$128, DW_AT_TI_symbol_name("AFSR")
    1917                            .dwattr $C$DW$128, DW_AT_data_member_location[DW_OP_plus_uconst 0x3c]
    1918                            .dwattr $C$DW$128, DW_AT_accessibility(DW_ACCESS_public)
    1919                            .dwattr $C$DW$128, DW_AT_decl_file("C:/ti/ccs1200/ccs/ccs_base/arm/include/CMSIS/core_cm4.h")
    1920                            .dwattr $C$DW$128, DW_AT_decl_line(0x1c5)
    1921                            .dwattr $C$DW$128, DW_AT_decl_column(0x12)
    1922                    
    1923                    $C$DW$129       .dwtag  DW_TAG_member
    1924                            .dwattr $C$DW$129, DW_AT_type(*$C$DW$T$33)
    1925                            .dwattr $C$DW$129, DW_AT_name("PFR")
TI ARM Assembler PC v20.2.6 Mon Oct 31 23:16:56 2022

Copyright (c) 1996-2018 Texas Instruments Incorporated
system_msp432p401r.asm                                               PAGE   36

    1926                            .dwattr $C$DW$129, DW_AT_TI_symbol_name("PFR")
    1927                            .dwattr $C$DW$129, DW_AT_data_member_location[DW_OP_plus_uconst 0x40]
    1928                            .dwattr $C$DW$129, DW_AT_accessibility(DW_ACCESS_public)
    1929                            .dwattr $C$DW$129, DW_AT_decl_file("C:/ti/ccs1200/ccs/ccs_base/arm/include/CMSIS/core_cm4.h")
    1930                            .dwattr $C$DW$129, DW_AT_decl_line(0x1c6)
    1931                            .dwattr $C$DW$129, DW_AT_decl_column(0x12)
    1932                    
    1933                    $C$DW$130       .dwtag  DW_TAG_member
    1934                            .dwattr $C$DW$130, DW_AT_type(*$C$DW$T$25)
    1935                            .dwattr $C$DW$130, DW_AT_name("DFR")
    1936                            .dwattr $C$DW$130, DW_AT_TI_symbol_name("DFR")
    1937                            .dwattr $C$DW$130, DW_AT_data_member_location[DW_OP_plus_uconst 0x48]
    1938                            .dwattr $C$DW$130, DW_AT_accessibility(DW_ACCESS_public)
    1939                            .dwattr $C$DW$130, DW_AT_decl_file("C:/ti/ccs1200/ccs/ccs_base/arm/include/CMSIS/core_cm4.h")
    1940                            .dwattr $C$DW$130, DW_AT_decl_line(0x1c7)
    1941                            .dwattr $C$DW$130, DW_AT_decl_column(0x12)
    1942                    
    1943                    $C$DW$131       .dwtag  DW_TAG_member
    1944                            .dwattr $C$DW$131, DW_AT_type(*$C$DW$T$25)
    1945                            .dwattr $C$DW$131, DW_AT_name("ADR")
    1946                            .dwattr $C$DW$131, DW_AT_TI_symbol_name("ADR")
    1947                            .dwattr $C$DW$131, DW_AT_data_member_location[DW_OP_plus_uconst 0x4c]
    1948                            .dwattr $C$DW$131, DW_AT_accessibility(DW_ACCESS_public)
    1949                            .dwattr $C$DW$131, DW_AT_decl_file("C:/ti/ccs1200/ccs/ccs_base/arm/include/CMSIS/core_cm4.h")
    1950                            .dwattr $C$DW$131, DW_AT_decl_line(0x1c8)
    1951                            .dwattr $C$DW$131, DW_AT_decl_column(0x12)
    1952                    
    1953                    $C$DW$132       .dwtag  DW_TAG_member
    1954                            .dwattr $C$DW$132, DW_AT_type(*$C$DW$T$34)
    1955                            .dwattr $C$DW$132, DW_AT_name("MMFR")
    1956                            .dwattr $C$DW$132, DW_AT_TI_symbol_name("MMFR")
    1957                            .dwattr $C$DW$132, DW_AT_data_member_location[DW_OP_plus_uconst 0x50]
    1958                            .dwattr $C$DW$132, DW_AT_accessibility(DW_ACCESS_public)
    1959                            .dwattr $C$DW$132, DW_AT_decl_file("C:/ti/ccs1200/ccs/ccs_base/arm/include/CMSIS/core_cm4.h")
    1960                            .dwattr $C$DW$132, DW_AT_decl_line(0x1c9)
    1961                            .dwattr $C$DW$132, DW_AT_decl_column(0x12)
    1962                    
    1963                    $C$DW$133       .dwtag  DW_TAG_member
    1964                            .dwattr $C$DW$133, DW_AT_type(*$C$DW$T$35)
    1965                            .dwattr $C$DW$133, DW_AT_name("ISAR")
    1966                            .dwattr $C$DW$133, DW_AT_TI_symbol_name("ISAR")
    1967                            .dwattr $C$DW$133, DW_AT_data_member_location[DW_OP_plus_uconst 0x60]
    1968                            .dwattr $C$DW$133, DW_AT_accessibility(DW_ACCESS_public)
    1969                            .dwattr $C$DW$133, DW_AT_decl_file("C:/ti/ccs1200/ccs/ccs_base/arm/include/CMSIS/core_cm4.h")
    1970                            .dwattr $C$DW$133, DW_AT_decl_line(0x1ca)
    1971                            .dwattr $C$DW$133, DW_AT_decl_column(0x12)
    1972                    
    1973                    $C$DW$134       .dwtag  DW_TAG_member
    1974                            .dwattr $C$DW$134, DW_AT_type(*$C$DW$T$36)
    1975                            .dwattr $C$DW$134, DW_AT_name("RESERVED0")
    1976                            .dwattr $C$DW$134, DW_AT_TI_symbol_name("RESERVED0")
    1977                            .dwattr $C$DW$134, DW_AT_data_member_location[DW_OP_plus_uconst 0x74]
    1978                            .dwattr $C$DW$134, DW_AT_accessibility(DW_ACCESS_public)
    1979                            .dwattr $C$DW$134, DW_AT_decl_file("C:/ti/ccs1200/ccs/ccs_base/arm/include/CMSIS/core_cm4.h")
    1980                            .dwattr $C$DW$134, DW_AT_decl_line(0x1cb)
TI ARM Assembler PC v20.2.6 Mon Oct 31 23:16:56 2022

Copyright (c) 1996-2018 Texas Instruments Incorporated
system_msp432p401r.asm                                               PAGE   37

    1981                            .dwattr $C$DW$134, DW_AT_decl_column(0x12)
    1982                    
    1983                    $C$DW$135       .dwtag  DW_TAG_member
    1984                            .dwattr $C$DW$135, DW_AT_type(*$C$DW$T$23)
    1985                            .dwattr $C$DW$135, DW_AT_name("CPACR")
    1986                            .dwattr $C$DW$135, DW_AT_TI_symbol_name("CPACR")
    1987                            .dwattr $C$DW$135, DW_AT_data_member_location[DW_OP_plus_uconst 0x88]
    1988                            .dwattr $C$DW$135, DW_AT_accessibility(DW_ACCESS_public)
    1989                            .dwattr $C$DW$135, DW_AT_decl_file("C:/ti/ccs1200/ccs/ccs_base/arm/include/CMSIS/core_cm4.h")
    1990                            .dwattr $C$DW$135, DW_AT_decl_line(0x1cc)
    1991                            .dwattr $C$DW$135, DW_AT_decl_column(0x12)
    1992                    
    1993                            .dwattr $C$DW$T$37, DW_AT_decl_file("C:/ti/ccs1200/ccs/ccs_base/arm/include/CMSIS/core_cm4.h")
    1994                            .dwattr $C$DW$T$37, DW_AT_decl_line(0x1b7)
    1995                            .dwattr $C$DW$T$37, DW_AT_decl_column(0x01)
    1996                            .dwendtag $C$DW$T$37
    1997                    
    1998                    $C$DW$T$183     .dwtag  DW_TAG_typedef
    1999                            .dwattr $C$DW$T$183, DW_AT_name("SCB_Type")
    2000                            .dwattr $C$DW$T$183, DW_AT_type(*$C$DW$T$37)
    2001                            .dwattr $C$DW$T$183, DW_AT_language(DW_LANG_C)
    2002                            .dwattr $C$DW$T$183, DW_AT_decl_file("C:/ti/ccs1200/ccs/ccs_base/arm/include/CMSIS/core_cm4.h"
    2003                            .dwattr $C$DW$T$183, DW_AT_decl_line(0x1cd)
    2004                            .dwattr $C$DW$T$183, DW_AT_decl_column(0x03)
    2005                    
    2006                    
    2007                    $C$DW$T$42      .dwtag  DW_TAG_structure_type
    2008                            .dwattr $C$DW$T$42, DW_AT_byte_size(0x0e)
    2009                    $C$DW$136       .dwtag  DW_TAG_member
    2010                            .dwattr $C$DW$136, DW_AT_type(*$C$DW$T$40)
    2011                            .dwattr $C$DW$136, DW_AT_name("RESERVED0")
    2012                            .dwattr $C$DW$136, DW_AT_TI_symbol_name("RESERVED0")
    2013                            .dwattr $C$DW$136, DW_AT_data_member_location[DW_OP_plus_uconst 0x0]
    2014                            .dwattr $C$DW$136, DW_AT_accessibility(DW_ACCESS_public)
    2015                            .dwattr $C$DW$136, DW_AT_decl_file("C:\ti\ccs1200\ccs\ccs_base\arm\include\msp432p401r.h")
    2016                            .dwattr $C$DW$136, DW_AT_decl_line(0x523)
    2017                            .dwattr $C$DW$136, DW_AT_decl_column(0x11)
    2018                    
    2019                    $C$DW$137       .dwtag  DW_TAG_member
    2020                            .dwattr $C$DW$137, DW_AT_type(*$C$DW$T$41)
    2021                            .dwattr $C$DW$137, DW_AT_name("CTL")
    2022                            .dwattr $C$DW$137, DW_AT_TI_symbol_name("CTL")
    2023                            .dwattr $C$DW$137, DW_AT_data_member_location[DW_OP_plus_uconst 0xc]
    2024                            .dwattr $C$DW$137, DW_AT_accessibility(DW_ACCESS_public)
    2025                            .dwattr $C$DW$137, DW_AT_decl_file("C:\ti\ccs1200\ccs\ccs_base\arm\include\msp432p401r.h")
    2026                            .dwattr $C$DW$137, DW_AT_decl_line(0x524)
    2027                            .dwattr $C$DW$137, DW_AT_decl_column(0x11)
    2028                    
    2029                            .dwattr $C$DW$T$42, DW_AT_decl_file("C:\ti\ccs1200\ccs\ccs_base\arm\include\msp432p401r.h")
    2030                            .dwattr $C$DW$T$42, DW_AT_decl_line(0x522)
    2031                            .dwattr $C$DW$T$42, DW_AT_decl_column(0x10)
    2032                            .dwendtag $C$DW$T$42
    2033                    
    2034                    $C$DW$T$185     .dwtag  DW_TAG_typedef
    2035                            .dwattr $C$DW$T$185, DW_AT_name("WDT_A_Type")
TI ARM Assembler PC v20.2.6 Mon Oct 31 23:16:56 2022

Copyright (c) 1996-2018 Texas Instruments Incorporated
system_msp432p401r.asm                                               PAGE   38

    2036                            .dwattr $C$DW$T$185, DW_AT_type(*$C$DW$T$42)
    2037                            .dwattr $C$DW$T$185, DW_AT_language(DW_LANG_C)
    2038                            .dwattr $C$DW$T$185, DW_AT_decl_file("C:\ti\ccs1200\ccs\ccs_base\arm\include\msp432p401r.h")
    2039                            .dwattr $C$DW$T$185, DW_AT_decl_line(0x525)
    2040                            .dwattr $C$DW$T$185, DW_AT_decl_column(0x03)
    2041                    
    2042                    
    2043                    $C$DW$T$44      .dwtag  DW_TAG_structure_type
    2044                            .dwattr $C$DW$T$44, DW_AT_byte_size(0x44)
    2045                    $C$DW$138       .dwtag  DW_TAG_member
    2046                            .dwattr $C$DW$138, DW_AT_type(*$C$DW$T$23)
    2047                            .dwattr $C$DW$138, DW_AT_name("REBOOT_CTL")
    2048                            .dwattr $C$DW$138, DW_AT_TI_symbol_name("REBOOT_CTL")
    2049                            .dwattr $C$DW$138, DW_AT_data_member_location[DW_OP_plus_uconst 0x0]
    2050                            .dwattr $C$DW$138, DW_AT_accessibility(DW_ACCESS_public)
    2051                            .dwattr $C$DW$138, DW_AT_decl_file("C:\ti\ccs1200\ccs\ccs_base\arm\include\msp432p401r.h")
    2052                            .dwattr $C$DW$138, DW_AT_decl_line(0x479)
    2053                            .dwattr $C$DW$138, DW_AT_decl_column(0x11)
    2054                    
    2055                    $C$DW$139       .dwtag  DW_TAG_member
    2056                            .dwattr $C$DW$139, DW_AT_type(*$C$DW$T$23)
    2057                            .dwattr $C$DW$139, DW_AT_name("NMI_CTLSTAT")
    2058                            .dwattr $C$DW$139, DW_AT_TI_symbol_name("NMI_CTLSTAT")
    2059                            .dwattr $C$DW$139, DW_AT_data_member_location[DW_OP_plus_uconst 0x4]
    2060                            .dwattr $C$DW$139, DW_AT_accessibility(DW_ACCESS_public)
    2061                            .dwattr $C$DW$139, DW_AT_decl_file("C:\ti\ccs1200\ccs\ccs_base\arm\include\msp432p401r.h")
    2062                            .dwattr $C$DW$139, DW_AT_decl_line(0x47a)
    2063                            .dwattr $C$DW$139, DW_AT_decl_column(0x11)
    2064                    
    2065                    $C$DW$140       .dwtag  DW_TAG_member
    2066                            .dwattr $C$DW$140, DW_AT_type(*$C$DW$T$23)
    2067                            .dwattr $C$DW$140, DW_AT_name("WDTRESET_CTL")
    2068                            .dwattr $C$DW$140, DW_AT_TI_symbol_name("WDTRESET_CTL")
    2069                            .dwattr $C$DW$140, DW_AT_data_member_location[DW_OP_plus_uconst 0x8]
    2070                            .dwattr $C$DW$140, DW_AT_accessibility(DW_ACCESS_public)
    2071                            .dwattr $C$DW$140, DW_AT_decl_file("C:\ti\ccs1200\ccs\ccs_base\arm\include\msp432p401r.h")
    2072                            .dwattr $C$DW$140, DW_AT_decl_line(0x47b)
    2073                            .dwattr $C$DW$140, DW_AT_decl_column(0x11)
    2074                    
    2075                    $C$DW$141       .dwtag  DW_TAG_member
    2076                            .dwattr $C$DW$141, DW_AT_type(*$C$DW$T$23)
    2077                            .dwattr $C$DW$141, DW_AT_name("PERIHALT_CTL")
    2078                            .dwattr $C$DW$141, DW_AT_TI_symbol_name("PERIHALT_CTL")
    2079                            .dwattr $C$DW$141, DW_AT_data_member_location[DW_OP_plus_uconst 0xc]
    2080                            .dwattr $C$DW$141, DW_AT_accessibility(DW_ACCESS_public)
    2081                            .dwattr $C$DW$141, DW_AT_decl_file("C:\ti\ccs1200\ccs\ccs_base\arm\include\msp432p401r.h")
    2082                            .dwattr $C$DW$141, DW_AT_decl_line(0x47c)
    2083                            .dwattr $C$DW$141, DW_AT_decl_column(0x11)
    2084                    
    2085                    $C$DW$142       .dwtag  DW_TAG_member
    2086                            .dwattr $C$DW$142, DW_AT_type(*$C$DW$T$25)
    2087                            .dwattr $C$DW$142, DW_AT_name("SRAM_SIZE")
    2088                            .dwattr $C$DW$142, DW_AT_TI_symbol_name("SRAM_SIZE")
    2089                            .dwattr $C$DW$142, DW_AT_data_member_location[DW_OP_plus_uconst 0x10]
    2090                            .dwattr $C$DW$142, DW_AT_accessibility(DW_ACCESS_public)
TI ARM Assembler PC v20.2.6 Mon Oct 31 23:16:56 2022

Copyright (c) 1996-2018 Texas Instruments Incorporated
system_msp432p401r.asm                                               PAGE   39

    2091                            .dwattr $C$DW$142, DW_AT_decl_file("C:\ti\ccs1200\ccs\ccs_base\arm\include\msp432p401r.h")
    2092                            .dwattr $C$DW$142, DW_AT_decl_line(0x47d)
    2093                            .dwattr $C$DW$142, DW_AT_decl_column(0x11)
    2094                    
    2095                    $C$DW$143       .dwtag  DW_TAG_member
    2096                            .dwattr $C$DW$143, DW_AT_type(*$C$DW$T$23)
    2097                            .dwattr $C$DW$143, DW_AT_name("SRAM_BANKEN")
    2098                            .dwattr $C$DW$143, DW_AT_TI_symbol_name("SRAM_BANKEN")
    2099                            .dwattr $C$DW$143, DW_AT_data_member_location[DW_OP_plus_uconst 0x14]
    2100                            .dwattr $C$DW$143, DW_AT_accessibility(DW_ACCESS_public)
    2101                            .dwattr $C$DW$143, DW_AT_decl_file("C:\ti\ccs1200\ccs\ccs_base\arm\include\msp432p401r.h")
    2102                            .dwattr $C$DW$143, DW_AT_decl_line(0x47e)
    2103                            .dwattr $C$DW$143, DW_AT_decl_column(0x11)
    2104                    
    2105                    $C$DW$144       .dwtag  DW_TAG_member
    2106                            .dwattr $C$DW$144, DW_AT_type(*$C$DW$T$23)
    2107                            .dwattr $C$DW$144, DW_AT_name("SRAM_BANKRET")
    2108                            .dwattr $C$DW$144, DW_AT_TI_symbol_name("SRAM_BANKRET")
    2109                            .dwattr $C$DW$144, DW_AT_data_member_location[DW_OP_plus_uconst 0x18]
    2110                            .dwattr $C$DW$144, DW_AT_accessibility(DW_ACCESS_public)
    2111                            .dwattr $C$DW$144, DW_AT_decl_file("C:\ti\ccs1200\ccs\ccs_base\arm\include\msp432p401r.h")
    2112                            .dwattr $C$DW$144, DW_AT_decl_line(0x47f)
    2113                            .dwattr $C$DW$144, DW_AT_decl_column(0x11)
    2114                    
    2115                    $C$DW$145       .dwtag  DW_TAG_member
    2116                            .dwattr $C$DW$145, DW_AT_type(*$C$DW$T$22)
    2117                            .dwattr $C$DW$145, DW_AT_name("RESERVED0")
    2118                            .dwattr $C$DW$145, DW_AT_TI_symbol_name("RESERVED0")
    2119                            .dwattr $C$DW$145, DW_AT_data_member_location[DW_OP_plus_uconst 0x1c]
    2120                            .dwattr $C$DW$145, DW_AT_accessibility(DW_ACCESS_public)
    2121                            .dwattr $C$DW$145, DW_AT_decl_file("C:\ti\ccs1200\ccs\ccs_base\arm\include\msp432p401r.h")
    2122                            .dwattr $C$DW$145, DW_AT_decl_line(0x480)
    2123                            .dwattr $C$DW$145, DW_AT_decl_column(0x11)
    2124                    
    2125                    $C$DW$146       .dwtag  DW_TAG_member
    2126                            .dwattr $C$DW$146, DW_AT_type(*$C$DW$T$25)
    2127                            .dwattr $C$DW$146, DW_AT_name("FLASH_SIZE")
    2128                            .dwattr $C$DW$146, DW_AT_TI_symbol_name("FLASH_SIZE")
    2129                            .dwattr $C$DW$146, DW_AT_data_member_location[DW_OP_plus_uconst 0x20]
    2130                            .dwattr $C$DW$146, DW_AT_accessibility(DW_ACCESS_public)
    2131                            .dwattr $C$DW$146, DW_AT_decl_file("C:\ti\ccs1200\ccs\ccs_base\arm\include\msp432p401r.h")
    2132                            .dwattr $C$DW$146, DW_AT_decl_line(0x481)
    2133                            .dwattr $C$DW$146, DW_AT_decl_column(0x11)
    2134                    
    2135                    $C$DW$147       .dwtag  DW_TAG_member
    2136                            .dwattr $C$DW$147, DW_AT_type(*$C$DW$T$43)
    2137                            .dwattr $C$DW$147, DW_AT_name("RESERVED1")
    2138                            .dwattr $C$DW$147, DW_AT_TI_symbol_name("RESERVED1")
    2139                            .dwattr $C$DW$147, DW_AT_data_member_location[DW_OP_plus_uconst 0x24]
    2140                            .dwattr $C$DW$147, DW_AT_accessibility(DW_ACCESS_public)
    2141                            .dwattr $C$DW$147, DW_AT_decl_file("C:\ti\ccs1200\ccs\ccs_base\arm\include\msp432p401r.h")
    2142                            .dwattr $C$DW$147, DW_AT_decl_line(0x482)
    2143                            .dwattr $C$DW$147, DW_AT_decl_column(0x11)
    2144                    
    2145                    $C$DW$148       .dwtag  DW_TAG_member
TI ARM Assembler PC v20.2.6 Mon Oct 31 23:16:56 2022

Copyright (c) 1996-2018 Texas Instruments Incorporated
system_msp432p401r.asm                                               PAGE   40

    2146                            .dwattr $C$DW$148, DW_AT_type(*$C$DW$T$23)
    2147                            .dwattr $C$DW$148, DW_AT_name("DIO_GLTFLT_CTL")
    2148                            .dwattr $C$DW$148, DW_AT_TI_symbol_name("DIO_GLTFLT_CTL")
    2149                            .dwattr $C$DW$148, DW_AT_data_member_location[DW_OP_plus_uconst 0x30]
    2150                            .dwattr $C$DW$148, DW_AT_accessibility(DW_ACCESS_public)
    2151                            .dwattr $C$DW$148, DW_AT_decl_file("C:\ti\ccs1200\ccs\ccs_base\arm\include\msp432p401r.h")
    2152                            .dwattr $C$DW$148, DW_AT_decl_line(0x483)
    2153                            .dwattr $C$DW$148, DW_AT_decl_column(0x11)
    2154                    
    2155                    $C$DW$149       .dwtag  DW_TAG_member
    2156                            .dwattr $C$DW$149, DW_AT_type(*$C$DW$T$43)
    2157                            .dwattr $C$DW$149, DW_AT_name("RESERVED2")
    2158                            .dwattr $C$DW$149, DW_AT_TI_symbol_name("RESERVED2")
    2159                            .dwattr $C$DW$149, DW_AT_data_member_location[DW_OP_plus_uconst 0x34]
    2160                            .dwattr $C$DW$149, DW_AT_accessibility(DW_ACCESS_public)
    2161                            .dwattr $C$DW$149, DW_AT_decl_file("C:\ti\ccs1200\ccs\ccs_base\arm\include\msp432p401r.h")
    2162                            .dwattr $C$DW$149, DW_AT_decl_line(0x484)
    2163                            .dwattr $C$DW$149, DW_AT_decl_column(0x11)
    2164                    
    2165                    $C$DW$150       .dwtag  DW_TAG_member
    2166                            .dwattr $C$DW$150, DW_AT_type(*$C$DW$T$23)
    2167                            .dwattr $C$DW$150, DW_AT_name("SECDATA_UNLOCK")
    2168                            .dwattr $C$DW$150, DW_AT_TI_symbol_name("SECDATA_UNLOCK")
    2169                            .dwattr $C$DW$150, DW_AT_data_member_location[DW_OP_plus_uconst 0x40]
    2170                            .dwattr $C$DW$150, DW_AT_accessibility(DW_ACCESS_public)
    2171                            .dwattr $C$DW$150, DW_AT_decl_file("C:\ti\ccs1200\ccs\ccs_base\arm\include\msp432p401r.h")
    2172                            .dwattr $C$DW$150, DW_AT_decl_line(0x485)
    2173                            .dwattr $C$DW$150, DW_AT_decl_column(0x11)
    2174                    
    2175                            .dwattr $C$DW$T$44, DW_AT_decl_file("C:\ti\ccs1200\ccs\ccs_base\arm\include\msp432p401r.h")
    2176                            .dwattr $C$DW$T$44, DW_AT_decl_line(0x478)
    2177                            .dwattr $C$DW$T$44, DW_AT_decl_column(0x10)
    2178                            .dwendtag $C$DW$T$44
    2179                    
    2180                    $C$DW$T$187     .dwtag  DW_TAG_typedef
    2181                            .dwattr $C$DW$T$187, DW_AT_name("SYSCTL_Type")
    2182                            .dwattr $C$DW$T$187, DW_AT_type(*$C$DW$T$44)
    2183                            .dwattr $C$DW$T$187, DW_AT_language(DW_LANG_C)
    2184                            .dwattr $C$DW$T$187, DW_AT_decl_file("C:\ti\ccs1200\ccs\ccs_base\arm\include\msp432p401r.h")
    2185                            .dwattr $C$DW$T$187, DW_AT_decl_line(0x486)
    2186                            .dwattr $C$DW$T$187, DW_AT_decl_column(0x03)
    2187                    
    2188                    
    2189                    $C$DW$T$46      .dwtag  DW_TAG_structure_type
    2190                            .dwattr $C$DW$T$46, DW_AT_byte_size(0x124)
    2191                    $C$DW$151       .dwtag  DW_TAG_member
    2192                            .dwattr $C$DW$151, DW_AT_type(*$C$DW$T$25)
    2193                            .dwattr $C$DW$151, DW_AT_name("POWER_STAT")
    2194                            .dwattr $C$DW$151, DW_AT_TI_symbol_name("POWER_STAT")
    2195                            .dwattr $C$DW$151, DW_AT_data_member_location[DW_OP_plus_uconst 0x0]
    2196                            .dwattr $C$DW$151, DW_AT_accessibility(DW_ACCESS_public)
    2197                            .dwattr $C$DW$151, DW_AT_decl_file("C:\ti\ccs1200\ccs\ccs_base\arm\include\msp432p401r.h")
    2198                            .dwattr $C$DW$151, DW_AT_decl_line(0x352)
    2199                            .dwattr $C$DW$151, DW_AT_decl_column(0x11)
    2200                    
TI ARM Assembler PC v20.2.6 Mon Oct 31 23:16:56 2022

Copyright (c) 1996-2018 Texas Instruments Incorporated
system_msp432p401r.asm                                               PAGE   41

    2201                    $C$DW$152       .dwtag  DW_TAG_member
    2202                            .dwattr $C$DW$152, DW_AT_type(*$C$DW$T$43)
    2203                            .dwattr $C$DW$152, DW_AT_name("RESERVED0")
    2204                            .dwattr $C$DW$152, DW_AT_TI_symbol_name("RESERVED0")
    2205                            .dwattr $C$DW$152, DW_AT_data_member_location[DW_OP_plus_uconst 0x4]
    2206                            .dwattr $C$DW$152, DW_AT_accessibility(DW_ACCESS_public)
    2207                            .dwattr $C$DW$152, DW_AT_decl_file("C:\ti\ccs1200\ccs\ccs_base\arm\include\msp432p401r.h")
    2208                            .dwattr $C$DW$152, DW_AT_decl_line(0x353)
    2209                            .dwattr $C$DW$152, DW_AT_decl_column(0x11)
    2210                    
    2211                    $C$DW$153       .dwtag  DW_TAG_member
    2212                            .dwattr $C$DW$153, DW_AT_type(*$C$DW$T$23)
    2213                            .dwattr $C$DW$153, DW_AT_name("BANK0_RDCTL")
    2214                            .dwattr $C$DW$153, DW_AT_TI_symbol_name("BANK0_RDCTL")
    2215                            .dwattr $C$DW$153, DW_AT_data_member_location[DW_OP_plus_uconst 0x10]
    2216                            .dwattr $C$DW$153, DW_AT_accessibility(DW_ACCESS_public)
    2217                            .dwattr $C$DW$153, DW_AT_decl_file("C:\ti\ccs1200\ccs\ccs_base\arm\include\msp432p401r.h")
    2218                            .dwattr $C$DW$153, DW_AT_decl_line(0x354)
    2219                            .dwattr $C$DW$153, DW_AT_decl_column(0x11)
    2220                    
    2221                    $C$DW$154       .dwtag  DW_TAG_member
    2222                            .dwattr $C$DW$154, DW_AT_type(*$C$DW$T$23)
    2223                            .dwattr $C$DW$154, DW_AT_name("BANK1_RDCTL")
    2224                            .dwattr $C$DW$154, DW_AT_TI_symbol_name("BANK1_RDCTL")
    2225                            .dwattr $C$DW$154, DW_AT_data_member_location[DW_OP_plus_uconst 0x14]
    2226                            .dwattr $C$DW$154, DW_AT_accessibility(DW_ACCESS_public)
    2227                            .dwattr $C$DW$154, DW_AT_decl_file("C:\ti\ccs1200\ccs\ccs_base\arm\include\msp432p401r.h")
    2228                            .dwattr $C$DW$154, DW_AT_decl_line(0x355)
    2229                            .dwattr $C$DW$154, DW_AT_decl_column(0x11)
    2230                    
    2231                    $C$DW$155       .dwtag  DW_TAG_member
    2232                            .dwattr $C$DW$155, DW_AT_type(*$C$DW$T$26)
    2233                            .dwattr $C$DW$155, DW_AT_name("RESERVED1")
    2234                            .dwattr $C$DW$155, DW_AT_TI_symbol_name("RESERVED1")
    2235                            .dwattr $C$DW$155, DW_AT_data_member_location[DW_OP_plus_uconst 0x18]
    2236                            .dwattr $C$DW$155, DW_AT_accessibility(DW_ACCESS_public)
    2237                            .dwattr $C$DW$155, DW_AT_decl_file("C:\ti\ccs1200\ccs\ccs_base\arm\include\msp432p401r.h")
    2238                            .dwattr $C$DW$155, DW_AT_decl_line(0x356)
    2239                            .dwattr $C$DW$155, DW_AT_decl_column(0x11)
    2240                    
    2241                    $C$DW$156       .dwtag  DW_TAG_member
    2242                            .dwattr $C$DW$156, DW_AT_type(*$C$DW$T$23)
    2243                            .dwattr $C$DW$156, DW_AT_name("RDBRST_CTLSTAT")
    2244                            .dwattr $C$DW$156, DW_AT_TI_symbol_name("RDBRST_CTLSTAT")
    2245                            .dwattr $C$DW$156, DW_AT_data_member_location[DW_OP_plus_uconst 0x20]
    2246                            .dwattr $C$DW$156, DW_AT_accessibility(DW_ACCESS_public)
    2247                            .dwattr $C$DW$156, DW_AT_decl_file("C:\ti\ccs1200\ccs\ccs_base\arm\include\msp432p401r.h")
    2248                            .dwattr $C$DW$156, DW_AT_decl_line(0x357)
    2249                            .dwattr $C$DW$156, DW_AT_decl_column(0x11)
    2250                    
    2251                    $C$DW$157       .dwtag  DW_TAG_member
    2252                            .dwattr $C$DW$157, DW_AT_type(*$C$DW$T$23)
    2253                            .dwattr $C$DW$157, DW_AT_name("RDBRST_STARTADDR")
    2254                            .dwattr $C$DW$157, DW_AT_TI_symbol_name("RDBRST_STARTADDR")
    2255                            .dwattr $C$DW$157, DW_AT_data_member_location[DW_OP_plus_uconst 0x24]
TI ARM Assembler PC v20.2.6 Mon Oct 31 23:16:56 2022

Copyright (c) 1996-2018 Texas Instruments Incorporated
system_msp432p401r.asm                                               PAGE   42

    2256                            .dwattr $C$DW$157, DW_AT_accessibility(DW_ACCESS_public)
    2257                            .dwattr $C$DW$157, DW_AT_decl_file("C:\ti\ccs1200\ccs\ccs_base\arm\include\msp432p401r.h")
    2258                            .dwattr $C$DW$157, DW_AT_decl_line(0x358)
    2259                            .dwattr $C$DW$157, DW_AT_decl_column(0x11)
    2260                    
    2261                    $C$DW$158       .dwtag  DW_TAG_member
    2262                            .dwattr $C$DW$158, DW_AT_type(*$C$DW$T$23)
    2263                            .dwattr $C$DW$158, DW_AT_name("RDBRST_LEN")
    2264                            .dwattr $C$DW$158, DW_AT_TI_symbol_name("RDBRST_LEN")
    2265                            .dwattr $C$DW$158, DW_AT_data_member_location[DW_OP_plus_uconst 0x28]
    2266                            .dwattr $C$DW$158, DW_AT_accessibility(DW_ACCESS_public)
    2267                            .dwattr $C$DW$158, DW_AT_decl_file("C:\ti\ccs1200\ccs\ccs_base\arm\include\msp432p401r.h")
    2268                            .dwattr $C$DW$158, DW_AT_decl_line(0x359)
    2269                            .dwattr $C$DW$158, DW_AT_decl_column(0x11)
    2270                    
    2271                    $C$DW$159       .dwtag  DW_TAG_member
    2272                            .dwattr $C$DW$159, DW_AT_type(*$C$DW$T$45)
    2273                            .dwattr $C$DW$159, DW_AT_name("RESERVED2")
    2274                            .dwattr $C$DW$159, DW_AT_TI_symbol_name("RESERVED2")
    2275                            .dwattr $C$DW$159, DW_AT_data_member_location[DW_OP_plus_uconst 0x2c]
    2276                            .dwattr $C$DW$159, DW_AT_accessibility(DW_ACCESS_public)
    2277                            .dwattr $C$DW$159, DW_AT_decl_file("C:\ti\ccs1200\ccs\ccs_base\arm\include\msp432p401r.h")
    2278                            .dwattr $C$DW$159, DW_AT_decl_line(0x35a)
    2279                            .dwattr $C$DW$159, DW_AT_decl_column(0x11)
    2280                    
    2281                    $C$DW$160       .dwtag  DW_TAG_member
    2282                            .dwattr $C$DW$160, DW_AT_type(*$C$DW$T$23)
    2283                            .dwattr $C$DW$160, DW_AT_name("RDBRST_FAILADDR")
    2284                            .dwattr $C$DW$160, DW_AT_TI_symbol_name("RDBRST_FAILADDR")
    2285                            .dwattr $C$DW$160, DW_AT_data_member_location[DW_OP_plus_uconst 0x3c]
    2286                            .dwattr $C$DW$160, DW_AT_accessibility(DW_ACCESS_public)
    2287                            .dwattr $C$DW$160, DW_AT_decl_file("C:\ti\ccs1200\ccs\ccs_base\arm\include\msp432p401r.h")
    2288                            .dwattr $C$DW$160, DW_AT_decl_line(0x35b)
    2289                            .dwattr $C$DW$160, DW_AT_decl_column(0x11)
    2290                    
    2291                    $C$DW$161       .dwtag  DW_TAG_member
    2292                            .dwattr $C$DW$161, DW_AT_type(*$C$DW$T$23)
    2293                            .dwattr $C$DW$161, DW_AT_name("RDBRST_FAILCNT")
    2294                            .dwattr $C$DW$161, DW_AT_TI_symbol_name("RDBRST_FAILCNT")
    2295                            .dwattr $C$DW$161, DW_AT_data_member_location[DW_OP_plus_uconst 0x40]
    2296                            .dwattr $C$DW$161, DW_AT_accessibility(DW_ACCESS_public)
    2297                            .dwattr $C$DW$161, DW_AT_decl_file("C:\ti\ccs1200\ccs\ccs_base\arm\include\msp432p401r.h")
    2298                            .dwattr $C$DW$161, DW_AT_decl_line(0x35c)
    2299                            .dwattr $C$DW$161, DW_AT_decl_column(0x11)
    2300                    
    2301                    $C$DW$162       .dwtag  DW_TAG_member
    2302                            .dwattr $C$DW$162, DW_AT_type(*$C$DW$T$43)
    2303                            .dwattr $C$DW$162, DW_AT_name("RESERVED3")
    2304                            .dwattr $C$DW$162, DW_AT_TI_symbol_name("RESERVED3")
    2305                            .dwattr $C$DW$162, DW_AT_data_member_location[DW_OP_plus_uconst 0x44]
    2306                            .dwattr $C$DW$162, DW_AT_accessibility(DW_ACCESS_public)
    2307                            .dwattr $C$DW$162, DW_AT_decl_file("C:\ti\ccs1200\ccs\ccs_base\arm\include\msp432p401r.h")
    2308                            .dwattr $C$DW$162, DW_AT_decl_line(0x35d)
    2309                            .dwattr $C$DW$162, DW_AT_decl_column(0x11)
    2310                    
TI ARM Assembler PC v20.2.6 Mon Oct 31 23:16:56 2022

Copyright (c) 1996-2018 Texas Instruments Incorporated
system_msp432p401r.asm                                               PAGE   43

    2311                    $C$DW$163       .dwtag  DW_TAG_member
    2312                            .dwattr $C$DW$163, DW_AT_type(*$C$DW$T$23)
    2313                            .dwattr $C$DW$163, DW_AT_name("PRG_CTLSTAT")
    2314                            .dwattr $C$DW$163, DW_AT_TI_symbol_name("PRG_CTLSTAT")
    2315                            .dwattr $C$DW$163, DW_AT_data_member_location[DW_OP_plus_uconst 0x50]
    2316                            .dwattr $C$DW$163, DW_AT_accessibility(DW_ACCESS_public)
    2317                            .dwattr $C$DW$163, DW_AT_decl_file("C:\ti\ccs1200\ccs\ccs_base\arm\include\msp432p401r.h")
    2318                            .dwattr $C$DW$163, DW_AT_decl_line(0x35e)
    2319                            .dwattr $C$DW$163, DW_AT_decl_column(0x11)
    2320                    
    2321                    $C$DW$164       .dwtag  DW_TAG_member
    2322                            .dwattr $C$DW$164, DW_AT_type(*$C$DW$T$23)
    2323                            .dwattr $C$DW$164, DW_AT_name("PRGBRST_CTLSTAT")
    2324                            .dwattr $C$DW$164, DW_AT_TI_symbol_name("PRGBRST_CTLSTAT")
    2325                            .dwattr $C$DW$164, DW_AT_data_member_location[DW_OP_plus_uconst 0x54]
    2326                            .dwattr $C$DW$164, DW_AT_accessibility(DW_ACCESS_public)
    2327                            .dwattr $C$DW$164, DW_AT_decl_file("C:\ti\ccs1200\ccs\ccs_base\arm\include\msp432p401r.h")
    2328                            .dwattr $C$DW$164, DW_AT_decl_line(0x35f)
    2329                            .dwattr $C$DW$164, DW_AT_decl_column(0x11)
    2330                    
    2331                    $C$DW$165       .dwtag  DW_TAG_member
    2332                            .dwattr $C$DW$165, DW_AT_type(*$C$DW$T$23)
    2333                            .dwattr $C$DW$165, DW_AT_name("PRGBRST_STARTADDR")
    2334                            .dwattr $C$DW$165, DW_AT_TI_symbol_name("PRGBRST_STARTADDR")
    2335                            .dwattr $C$DW$165, DW_AT_data_member_location[DW_OP_plus_uconst 0x58]
    2336                            .dwattr $C$DW$165, DW_AT_accessibility(DW_ACCESS_public)
    2337                            .dwattr $C$DW$165, DW_AT_decl_file("C:\ti\ccs1200\ccs\ccs_base\arm\include\msp432p401r.h")
    2338                            .dwattr $C$DW$165, DW_AT_decl_line(0x360)
    2339                            .dwattr $C$DW$165, DW_AT_decl_column(0x11)
    2340                    
    2341                    $C$DW$166       .dwtag  DW_TAG_member
    2342                            .dwattr $C$DW$166, DW_AT_type(*$C$DW$T$22)
    2343                            .dwattr $C$DW$166, DW_AT_name("RESERVED4")
    2344                            .dwattr $C$DW$166, DW_AT_TI_symbol_name("RESERVED4")
    2345                            .dwattr $C$DW$166, DW_AT_data_member_location[DW_OP_plus_uconst 0x5c]
    2346                            .dwattr $C$DW$166, DW_AT_accessibility(DW_ACCESS_public)
    2347                            .dwattr $C$DW$166, DW_AT_decl_file("C:\ti\ccs1200\ccs\ccs_base\arm\include\msp432p401r.h")
    2348                            .dwattr $C$DW$166, DW_AT_decl_line(0x361)
    2349                            .dwattr $C$DW$166, DW_AT_decl_column(0x11)
    2350                    
    2351                    $C$DW$167       .dwtag  DW_TAG_member
    2352                            .dwattr $C$DW$167, DW_AT_type(*$C$DW$T$23)
    2353                            .dwattr $C$DW$167, DW_AT_name("PRGBRST_DATA0_0")
    2354                            .dwattr $C$DW$167, DW_AT_TI_symbol_name("PRGBRST_DATA0_0")
    2355                            .dwattr $C$DW$167, DW_AT_data_member_location[DW_OP_plus_uconst 0x60]
    2356                            .dwattr $C$DW$167, DW_AT_accessibility(DW_ACCESS_public)
    2357                            .dwattr $C$DW$167, DW_AT_decl_file("C:\ti\ccs1200\ccs\ccs_base\arm\include\msp432p401r.h")
    2358                            .dwattr $C$DW$167, DW_AT_decl_line(0x362)
    2359                            .dwattr $C$DW$167, DW_AT_decl_column(0x11)
    2360                    
    2361                    $C$DW$168       .dwtag  DW_TAG_member
    2362                            .dwattr $C$DW$168, DW_AT_type(*$C$DW$T$23)
    2363                            .dwattr $C$DW$168, DW_AT_name("PRGBRST_DATA0_1")
    2364                            .dwattr $C$DW$168, DW_AT_TI_symbol_name("PRGBRST_DATA0_1")
    2365                            .dwattr $C$DW$168, DW_AT_data_member_location[DW_OP_plus_uconst 0x64]
TI ARM Assembler PC v20.2.6 Mon Oct 31 23:16:56 2022

Copyright (c) 1996-2018 Texas Instruments Incorporated
system_msp432p401r.asm                                               PAGE   44

    2366                            .dwattr $C$DW$168, DW_AT_accessibility(DW_ACCESS_public)
    2367                            .dwattr $C$DW$168, DW_AT_decl_file("C:\ti\ccs1200\ccs\ccs_base\arm\include\msp432p401r.h")
    2368                            .dwattr $C$DW$168, DW_AT_decl_line(0x363)
    2369                            .dwattr $C$DW$168, DW_AT_decl_column(0x11)
    2370                    
    2371                    $C$DW$169       .dwtag  DW_TAG_member
    2372                            .dwattr $C$DW$169, DW_AT_type(*$C$DW$T$23)
    2373                            .dwattr $C$DW$169, DW_AT_name("PRGBRST_DATA0_2")
    2374                            .dwattr $C$DW$169, DW_AT_TI_symbol_name("PRGBRST_DATA0_2")
    2375                            .dwattr $C$DW$169, DW_AT_data_member_location[DW_OP_plus_uconst 0x68]
    2376                            .dwattr $C$DW$169, DW_AT_accessibility(DW_ACCESS_public)
    2377                            .dwattr $C$DW$169, DW_AT_decl_file("C:\ti\ccs1200\ccs\ccs_base\arm\include\msp432p401r.h")
    2378                            .dwattr $C$DW$169, DW_AT_decl_line(0x364)
    2379                            .dwattr $C$DW$169, DW_AT_decl_column(0x11)
    2380                    
    2381                    $C$DW$170       .dwtag  DW_TAG_member
    2382                            .dwattr $C$DW$170, DW_AT_type(*$C$DW$T$23)
    2383                            .dwattr $C$DW$170, DW_AT_name("PRGBRST_DATA0_3")
    2384                            .dwattr $C$DW$170, DW_AT_TI_symbol_name("PRGBRST_DATA0_3")
    2385                            .dwattr $C$DW$170, DW_AT_data_member_location[DW_OP_plus_uconst 0x6c]
    2386                            .dwattr $C$DW$170, DW_AT_accessibility(DW_ACCESS_public)
    2387                            .dwattr $C$DW$170, DW_AT_decl_file("C:\ti\ccs1200\ccs\ccs_base\arm\include\msp432p401r.h")
    2388                            .dwattr $C$DW$170, DW_AT_decl_line(0x365)
    2389                            .dwattr $C$DW$170, DW_AT_decl_column(0x11)
    2390                    
    2391                    $C$DW$171       .dwtag  DW_TAG_member
    2392                            .dwattr $C$DW$171, DW_AT_type(*$C$DW$T$23)
    2393                            .dwattr $C$DW$171, DW_AT_name("PRGBRST_DATA1_0")
    2394                            .dwattr $C$DW$171, DW_AT_TI_symbol_name("PRGBRST_DATA1_0")
    2395                            .dwattr $C$DW$171, DW_AT_data_member_location[DW_OP_plus_uconst 0x70]
    2396                            .dwattr $C$DW$171, DW_AT_accessibility(DW_ACCESS_public)
    2397                            .dwattr $C$DW$171, DW_AT_decl_file("C:\ti\ccs1200\ccs\ccs_base\arm\include\msp432p401r.h")
    2398                            .dwattr $C$DW$171, DW_AT_decl_line(0x366)
    2399                            .dwattr $C$DW$171, DW_AT_decl_column(0x11)
    2400                    
    2401                    $C$DW$172       .dwtag  DW_TAG_member
    2402                            .dwattr $C$DW$172, DW_AT_type(*$C$DW$T$23)
    2403                            .dwattr $C$DW$172, DW_AT_name("PRGBRST_DATA1_1")
    2404                            .dwattr $C$DW$172, DW_AT_TI_symbol_name("PRGBRST_DATA1_1")
    2405                            .dwattr $C$DW$172, DW_AT_data_member_location[DW_OP_plus_uconst 0x74]
    2406                            .dwattr $C$DW$172, DW_AT_accessibility(DW_ACCESS_public)
    2407                            .dwattr $C$DW$172, DW_AT_decl_file("C:\ti\ccs1200\ccs\ccs_base\arm\include\msp432p401r.h")
    2408                            .dwattr $C$DW$172, DW_AT_decl_line(0x367)
    2409                            .dwattr $C$DW$172, DW_AT_decl_column(0x11)
    2410                    
    2411                    $C$DW$173       .dwtag  DW_TAG_member
    2412                            .dwattr $C$DW$173, DW_AT_type(*$C$DW$T$23)
    2413                            .dwattr $C$DW$173, DW_AT_name("PRGBRST_DATA1_2")
    2414                            .dwattr $C$DW$173, DW_AT_TI_symbol_name("PRGBRST_DATA1_2")
    2415                            .dwattr $C$DW$173, DW_AT_data_member_location[DW_OP_plus_uconst 0x78]
    2416                            .dwattr $C$DW$173, DW_AT_accessibility(DW_ACCESS_public)
    2417                            .dwattr $C$DW$173, DW_AT_decl_file("C:\ti\ccs1200\ccs\ccs_base\arm\include\msp432p401r.h")
    2418                            .dwattr $C$DW$173, DW_AT_decl_line(0x368)
    2419                            .dwattr $C$DW$173, DW_AT_decl_column(0x11)
    2420                    
TI ARM Assembler PC v20.2.6 Mon Oct 31 23:16:56 2022

Copyright (c) 1996-2018 Texas Instruments Incorporated
system_msp432p401r.asm                                               PAGE   45

    2421                    $C$DW$174       .dwtag  DW_TAG_member
    2422                            .dwattr $C$DW$174, DW_AT_type(*$C$DW$T$23)
    2423                            .dwattr $C$DW$174, DW_AT_name("PRGBRST_DATA1_3")
    2424                            .dwattr $C$DW$174, DW_AT_TI_symbol_name("PRGBRST_DATA1_3")
    2425                            .dwattr $C$DW$174, DW_AT_data_member_location[DW_OP_plus_uconst 0x7c]
    2426                            .dwattr $C$DW$174, DW_AT_accessibility(DW_ACCESS_public)
    2427                            .dwattr $C$DW$174, DW_AT_decl_file("C:\ti\ccs1200\ccs\ccs_base\arm\include\msp432p401r.h")
    2428                            .dwattr $C$DW$174, DW_AT_decl_line(0x369)
    2429                            .dwattr $C$DW$174, DW_AT_decl_column(0x11)
    2430                    
    2431                    $C$DW$175       .dwtag  DW_TAG_member
    2432                            .dwattr $C$DW$175, DW_AT_type(*$C$DW$T$23)
    2433                            .dwattr $C$DW$175, DW_AT_name("PRGBRST_DATA2_0")
    2434                            .dwattr $C$DW$175, DW_AT_TI_symbol_name("PRGBRST_DATA2_0")
    2435                            .dwattr $C$DW$175, DW_AT_data_member_location[DW_OP_plus_uconst 0x80]
    2436                            .dwattr $C$DW$175, DW_AT_accessibility(DW_ACCESS_public)
    2437                            .dwattr $C$DW$175, DW_AT_decl_file("C:\ti\ccs1200\ccs\ccs_base\arm\include\msp432p401r.h")
    2438                            .dwattr $C$DW$175, DW_AT_decl_line(0x36a)
    2439                            .dwattr $C$DW$175, DW_AT_decl_column(0x11)
    2440                    
    2441                    $C$DW$176       .dwtag  DW_TAG_member
    2442                            .dwattr $C$DW$176, DW_AT_type(*$C$DW$T$23)
    2443                            .dwattr $C$DW$176, DW_AT_name("PRGBRST_DATA2_1")
    2444                            .dwattr $C$DW$176, DW_AT_TI_symbol_name("PRGBRST_DATA2_1")
    2445                            .dwattr $C$DW$176, DW_AT_data_member_location[DW_OP_plus_uconst 0x84]
    2446                            .dwattr $C$DW$176, DW_AT_accessibility(DW_ACCESS_public)
    2447                            .dwattr $C$DW$176, DW_AT_decl_file("C:\ti\ccs1200\ccs\ccs_base\arm\include\msp432p401r.h")
    2448                            .dwattr $C$DW$176, DW_AT_decl_line(0x36b)
    2449                            .dwattr $C$DW$176, DW_AT_decl_column(0x11)
    2450                    
    2451                    $C$DW$177       .dwtag  DW_TAG_member
    2452                            .dwattr $C$DW$177, DW_AT_type(*$C$DW$T$23)
    2453                            .dwattr $C$DW$177, DW_AT_name("PRGBRST_DATA2_2")
    2454                            .dwattr $C$DW$177, DW_AT_TI_symbol_name("PRGBRST_DATA2_2")
    2455                            .dwattr $C$DW$177, DW_AT_data_member_location[DW_OP_plus_uconst 0x88]
    2456                            .dwattr $C$DW$177, DW_AT_accessibility(DW_ACCESS_public)
    2457                            .dwattr $C$DW$177, DW_AT_decl_file("C:\ti\ccs1200\ccs\ccs_base\arm\include\msp432p401r.h")
    2458                            .dwattr $C$DW$177, DW_AT_decl_line(0x36c)
    2459                            .dwattr $C$DW$177, DW_AT_decl_column(0x11)
    2460                    
    2461                    $C$DW$178       .dwtag  DW_TAG_member
    2462                            .dwattr $C$DW$178, DW_AT_type(*$C$DW$T$23)
    2463                            .dwattr $C$DW$178, DW_AT_name("PRGBRST_DATA2_3")
    2464                            .dwattr $C$DW$178, DW_AT_TI_symbol_name("PRGBRST_DATA2_3")
    2465                            .dwattr $C$DW$178, DW_AT_data_member_location[DW_OP_plus_uconst 0x8c]
    2466                            .dwattr $C$DW$178, DW_AT_accessibility(DW_ACCESS_public)
    2467                            .dwattr $C$DW$178, DW_AT_decl_file("C:\ti\ccs1200\ccs\ccs_base\arm\include\msp432p401r.h")
    2468                            .dwattr $C$DW$178, DW_AT_decl_line(0x36d)
    2469                            .dwattr $C$DW$178, DW_AT_decl_column(0x11)
    2470                    
    2471                    $C$DW$179       .dwtag  DW_TAG_member
    2472                            .dwattr $C$DW$179, DW_AT_type(*$C$DW$T$23)
    2473                            .dwattr $C$DW$179, DW_AT_name("PRGBRST_DATA3_0")
    2474                            .dwattr $C$DW$179, DW_AT_TI_symbol_name("PRGBRST_DATA3_0")
    2475                            .dwattr $C$DW$179, DW_AT_data_member_location[DW_OP_plus_uconst 0x90]
TI ARM Assembler PC v20.2.6 Mon Oct 31 23:16:56 2022

Copyright (c) 1996-2018 Texas Instruments Incorporated
system_msp432p401r.asm                                               PAGE   46

    2476                            .dwattr $C$DW$179, DW_AT_accessibility(DW_ACCESS_public)
    2477                            .dwattr $C$DW$179, DW_AT_decl_file("C:\ti\ccs1200\ccs\ccs_base\arm\include\msp432p401r.h")
    2478                            .dwattr $C$DW$179, DW_AT_decl_line(0x36e)
    2479                            .dwattr $C$DW$179, DW_AT_decl_column(0x11)
    2480                    
    2481                    $C$DW$180       .dwtag  DW_TAG_member
    2482                            .dwattr $C$DW$180, DW_AT_type(*$C$DW$T$23)
    2483                            .dwattr $C$DW$180, DW_AT_name("PRGBRST_DATA3_1")
    2484                            .dwattr $C$DW$180, DW_AT_TI_symbol_name("PRGBRST_DATA3_1")
    2485                            .dwattr $C$DW$180, DW_AT_data_member_location[DW_OP_plus_uconst 0x94]
    2486                            .dwattr $C$DW$180, DW_AT_accessibility(DW_ACCESS_public)
    2487                            .dwattr $C$DW$180, DW_AT_decl_file("C:\ti\ccs1200\ccs\ccs_base\arm\include\msp432p401r.h")
    2488                            .dwattr $C$DW$180, DW_AT_decl_line(0x36f)
    2489                            .dwattr $C$DW$180, DW_AT_decl_column(0x11)
    2490                    
    2491                    $C$DW$181       .dwtag  DW_TAG_member
    2492                            .dwattr $C$DW$181, DW_AT_type(*$C$DW$T$23)
    2493                            .dwattr $C$DW$181, DW_AT_name("PRGBRST_DATA3_2")
    2494                            .dwattr $C$DW$181, DW_AT_TI_symbol_name("PRGBRST_DATA3_2")
    2495                            .dwattr $C$DW$181, DW_AT_data_member_location[DW_OP_plus_uconst 0x98]
    2496                            .dwattr $C$DW$181, DW_AT_accessibility(DW_ACCESS_public)
    2497                            .dwattr $C$DW$181, DW_AT_decl_file("C:\ti\ccs1200\ccs\ccs_base\arm\include\msp432p401r.h")
    2498                            .dwattr $C$DW$181, DW_AT_decl_line(0x370)
    2499                            .dwattr $C$DW$181, DW_AT_decl_column(0x11)
    2500                    
    2501                    $C$DW$182       .dwtag  DW_TAG_member
    2502                            .dwattr $C$DW$182, DW_AT_type(*$C$DW$T$23)
    2503                            .dwattr $C$DW$182, DW_AT_name("PRGBRST_DATA3_3")
    2504                            .dwattr $C$DW$182, DW_AT_TI_symbol_name("PRGBRST_DATA3_3")
    2505                            .dwattr $C$DW$182, DW_AT_data_member_location[DW_OP_plus_uconst 0x9c]
    2506                            .dwattr $C$DW$182, DW_AT_accessibility(DW_ACCESS_public)
    2507                            .dwattr $C$DW$182, DW_AT_decl_file("C:\ti\ccs1200\ccs\ccs_base\arm\include\msp432p401r.h")
    2508                            .dwattr $C$DW$182, DW_AT_decl_line(0x371)
    2509                            .dwattr $C$DW$182, DW_AT_decl_column(0x11)
    2510                    
    2511                    $C$DW$183       .dwtag  DW_TAG_member
    2512                            .dwattr $C$DW$183, DW_AT_type(*$C$DW$T$23)
    2513                            .dwattr $C$DW$183, DW_AT_name("ERASE_CTLSTAT")
    2514                            .dwattr $C$DW$183, DW_AT_TI_symbol_name("ERASE_CTLSTAT")
    2515                            .dwattr $C$DW$183, DW_AT_data_member_location[DW_OP_plus_uconst 0xa0]
    2516                            .dwattr $C$DW$183, DW_AT_accessibility(DW_ACCESS_public)
    2517                            .dwattr $C$DW$183, DW_AT_decl_file("C:\ti\ccs1200\ccs\ccs_base\arm\include\msp432p401r.h")
    2518                            .dwattr $C$DW$183, DW_AT_decl_line(0x372)
    2519                            .dwattr $C$DW$183, DW_AT_decl_column(0x11)
    2520                    
    2521                    $C$DW$184       .dwtag  DW_TAG_member
    2522                            .dwattr $C$DW$184, DW_AT_type(*$C$DW$T$23)
    2523                            .dwattr $C$DW$184, DW_AT_name("ERASE_SECTADDR")
    2524                            .dwattr $C$DW$184, DW_AT_TI_symbol_name("ERASE_SECTADDR")
    2525                            .dwattr $C$DW$184, DW_AT_data_member_location[DW_OP_plus_uconst 0xa4]
    2526                            .dwattr $C$DW$184, DW_AT_accessibility(DW_ACCESS_public)
    2527                            .dwattr $C$DW$184, DW_AT_decl_file("C:\ti\ccs1200\ccs\ccs_base\arm\include\msp432p401r.h")
    2528                            .dwattr $C$DW$184, DW_AT_decl_line(0x373)
    2529                            .dwattr $C$DW$184, DW_AT_decl_column(0x11)
    2530                    
TI ARM Assembler PC v20.2.6 Mon Oct 31 23:16:56 2022

Copyright (c) 1996-2018 Texas Instruments Incorporated
system_msp432p401r.asm                                               PAGE   47

    2531                    $C$DW$185       .dwtag  DW_TAG_member
    2532                            .dwattr $C$DW$185, DW_AT_type(*$C$DW$T$26)
    2533                            .dwattr $C$DW$185, DW_AT_name("RESERVED5")
    2534                            .dwattr $C$DW$185, DW_AT_TI_symbol_name("RESERVED5")
    2535                            .dwattr $C$DW$185, DW_AT_data_member_location[DW_OP_plus_uconst 0xa8]
    2536                            .dwattr $C$DW$185, DW_AT_accessibility(DW_ACCESS_public)
    2537                            .dwattr $C$DW$185, DW_AT_decl_file("C:\ti\ccs1200\ccs\ccs_base\arm\include\msp432p401r.h")
    2538                            .dwattr $C$DW$185, DW_AT_decl_line(0x374)
    2539                            .dwattr $C$DW$185, DW_AT_decl_column(0x11)
    2540                    
    2541                    $C$DW$186       .dwtag  DW_TAG_member
    2542                            .dwattr $C$DW$186, DW_AT_type(*$C$DW$T$23)
    2543                            .dwattr $C$DW$186, DW_AT_name("BANK0_INFO_WEPROT")
    2544                            .dwattr $C$DW$186, DW_AT_TI_symbol_name("BANK0_INFO_WEPROT")
    2545                            .dwattr $C$DW$186, DW_AT_data_member_location[DW_OP_plus_uconst 0xb0]
    2546                            .dwattr $C$DW$186, DW_AT_accessibility(DW_ACCESS_public)
    2547                            .dwattr $C$DW$186, DW_AT_decl_file("C:\ti\ccs1200\ccs\ccs_base\arm\include\msp432p401r.h")
    2548                            .dwattr $C$DW$186, DW_AT_decl_line(0x375)
    2549                            .dwattr $C$DW$186, DW_AT_decl_column(0x11)
    2550                    
    2551                    $C$DW$187       .dwtag  DW_TAG_member
    2552                            .dwattr $C$DW$187, DW_AT_type(*$C$DW$T$23)
    2553                            .dwattr $C$DW$187, DW_AT_name("BANK0_MAIN_WEPROT")
    2554                            .dwattr $C$DW$187, DW_AT_TI_symbol_name("BANK0_MAIN_WEPROT")
    2555                            .dwattr $C$DW$187, DW_AT_data_member_location[DW_OP_plus_uconst 0xb4]
    2556                            .dwattr $C$DW$187, DW_AT_accessibility(DW_ACCESS_public)
    2557                            .dwattr $C$DW$187, DW_AT_decl_file("C:\ti\ccs1200\ccs\ccs_base\arm\include\msp432p401r.h")
    2558                            .dwattr $C$DW$187, DW_AT_decl_line(0x376)
    2559                            .dwattr $C$DW$187, DW_AT_decl_column(0x11)
    2560                    
    2561                    $C$DW$188       .dwtag  DW_TAG_member
    2562                            .dwattr $C$DW$188, DW_AT_type(*$C$DW$T$26)
    2563                            .dwattr $C$DW$188, DW_AT_name("RESERVED6")
    2564                            .dwattr $C$DW$188, DW_AT_TI_symbol_name("RESERVED6")
    2565                            .dwattr $C$DW$188, DW_AT_data_member_location[DW_OP_plus_uconst 0xb8]
    2566                            .dwattr $C$DW$188, DW_AT_accessibility(DW_ACCESS_public)
    2567                            .dwattr $C$DW$188, DW_AT_decl_file("C:\ti\ccs1200\ccs\ccs_base\arm\include\msp432p401r.h")
    2568                            .dwattr $C$DW$188, DW_AT_decl_line(0x377)
    2569                            .dwattr $C$DW$188, DW_AT_decl_column(0x11)
    2570                    
    2571                    $C$DW$189       .dwtag  DW_TAG_member
    2572                            .dwattr $C$DW$189, DW_AT_type(*$C$DW$T$23)
    2573                            .dwattr $C$DW$189, DW_AT_name("BANK1_INFO_WEPROT")
    2574                            .dwattr $C$DW$189, DW_AT_TI_symbol_name("BANK1_INFO_WEPROT")
    2575                            .dwattr $C$DW$189, DW_AT_data_member_location[DW_OP_plus_uconst 0xc0]
    2576                            .dwattr $C$DW$189, DW_AT_accessibility(DW_ACCESS_public)
    2577                            .dwattr $C$DW$189, DW_AT_decl_file("C:\ti\ccs1200\ccs\ccs_base\arm\include\msp432p401r.h")
    2578                            .dwattr $C$DW$189, DW_AT_decl_line(0x378)
    2579                            .dwattr $C$DW$189, DW_AT_decl_column(0x11)
    2580                    
    2581                    $C$DW$190       .dwtag  DW_TAG_member
    2582                            .dwattr $C$DW$190, DW_AT_type(*$C$DW$T$23)
    2583                            .dwattr $C$DW$190, DW_AT_name("BANK1_MAIN_WEPROT")
    2584                            .dwattr $C$DW$190, DW_AT_TI_symbol_name("BANK1_MAIN_WEPROT")
    2585                            .dwattr $C$DW$190, DW_AT_data_member_location[DW_OP_plus_uconst 0xc4]
TI ARM Assembler PC v20.2.6 Mon Oct 31 23:16:56 2022

Copyright (c) 1996-2018 Texas Instruments Incorporated
system_msp432p401r.asm                                               PAGE   48

    2586                            .dwattr $C$DW$190, DW_AT_accessibility(DW_ACCESS_public)
    2587                            .dwattr $C$DW$190, DW_AT_decl_file("C:\ti\ccs1200\ccs\ccs_base\arm\include\msp432p401r.h")
    2588                            .dwattr $C$DW$190, DW_AT_decl_line(0x379)
    2589                            .dwattr $C$DW$190, DW_AT_decl_column(0x11)
    2590                    
    2591                    $C$DW$191       .dwtag  DW_TAG_member
    2592                            .dwattr $C$DW$191, DW_AT_type(*$C$DW$T$26)
    2593                            .dwattr $C$DW$191, DW_AT_name("RESERVED7")
    2594                            .dwattr $C$DW$191, DW_AT_TI_symbol_name("RESERVED7")
    2595                            .dwattr $C$DW$191, DW_AT_data_member_location[DW_OP_plus_uconst 0xc8]
    2596                            .dwattr $C$DW$191, DW_AT_accessibility(DW_ACCESS_public)
    2597                            .dwattr $C$DW$191, DW_AT_decl_file("C:\ti\ccs1200\ccs\ccs_base\arm\include\msp432p401r.h")
    2598                            .dwattr $C$DW$191, DW_AT_decl_line(0x37a)
    2599                            .dwattr $C$DW$191, DW_AT_decl_column(0x11)
    2600                    
    2601                    $C$DW$192       .dwtag  DW_TAG_member
    2602                            .dwattr $C$DW$192, DW_AT_type(*$C$DW$T$23)
    2603                            .dwattr $C$DW$192, DW_AT_name("BMRK_CTLSTAT")
    2604                            .dwattr $C$DW$192, DW_AT_TI_symbol_name("BMRK_CTLSTAT")
    2605                            .dwattr $C$DW$192, DW_AT_data_member_location[DW_OP_plus_uconst 0xd0]
    2606                            .dwattr $C$DW$192, DW_AT_accessibility(DW_ACCESS_public)
    2607                            .dwattr $C$DW$192, DW_AT_decl_file("C:\ti\ccs1200\ccs\ccs_base\arm\include\msp432p401r.h")
    2608                            .dwattr $C$DW$192, DW_AT_decl_line(0x37b)
    2609                            .dwattr $C$DW$192, DW_AT_decl_column(0x11)
    2610                    
    2611                    $C$DW$193       .dwtag  DW_TAG_member
    2612                            .dwattr $C$DW$193, DW_AT_type(*$C$DW$T$23)
    2613                            .dwattr $C$DW$193, DW_AT_name("BMRK_IFETCH")
    2614                            .dwattr $C$DW$193, DW_AT_TI_symbol_name("BMRK_IFETCH")
    2615                            .dwattr $C$DW$193, DW_AT_data_member_location[DW_OP_plus_uconst 0xd4]
    2616                            .dwattr $C$DW$193, DW_AT_accessibility(DW_ACCESS_public)
    2617                            .dwattr $C$DW$193, DW_AT_decl_file("C:\ti\ccs1200\ccs\ccs_base\arm\include\msp432p401r.h")
    2618                            .dwattr $C$DW$193, DW_AT_decl_line(0x37c)
    2619                            .dwattr $C$DW$193, DW_AT_decl_column(0x11)
    2620                    
    2621                    $C$DW$194       .dwtag  DW_TAG_member
    2622                            .dwattr $C$DW$194, DW_AT_type(*$C$DW$T$23)
    2623                            .dwattr $C$DW$194, DW_AT_name("BMRK_DREAD")
    2624                            .dwattr $C$DW$194, DW_AT_TI_symbol_name("BMRK_DREAD")
    2625                            .dwattr $C$DW$194, DW_AT_data_member_location[DW_OP_plus_uconst 0xd8]
    2626                            .dwattr $C$DW$194, DW_AT_accessibility(DW_ACCESS_public)
    2627                            .dwattr $C$DW$194, DW_AT_decl_file("C:\ti\ccs1200\ccs\ccs_base\arm\include\msp432p401r.h")
    2628                            .dwattr $C$DW$194, DW_AT_decl_line(0x37d)
    2629                            .dwattr $C$DW$194, DW_AT_decl_column(0x11)
    2630                    
    2631                    $C$DW$195       .dwtag  DW_TAG_member
    2632                            .dwattr $C$DW$195, DW_AT_type(*$C$DW$T$23)
    2633                            .dwattr $C$DW$195, DW_AT_name("BMRK_CMP")
    2634                            .dwattr $C$DW$195, DW_AT_TI_symbol_name("BMRK_CMP")
    2635                            .dwattr $C$DW$195, DW_AT_data_member_location[DW_OP_plus_uconst 0xdc]
    2636                            .dwattr $C$DW$195, DW_AT_accessibility(DW_ACCESS_public)
    2637                            .dwattr $C$DW$195, DW_AT_decl_file("C:\ti\ccs1200\ccs\ccs_base\arm\include\msp432p401r.h")
    2638                            .dwattr $C$DW$195, DW_AT_decl_line(0x37e)
    2639                            .dwattr $C$DW$195, DW_AT_decl_column(0x11)
    2640                    
TI ARM Assembler PC v20.2.6 Mon Oct 31 23:16:56 2022

Copyright (c) 1996-2018 Texas Instruments Incorporated
system_msp432p401r.asm                                               PAGE   49

    2641                    $C$DW$196       .dwtag  DW_TAG_member
    2642                            .dwattr $C$DW$196, DW_AT_type(*$C$DW$T$45)
    2643                            .dwattr $C$DW$196, DW_AT_name("RESERVED8")
    2644                            .dwattr $C$DW$196, DW_AT_TI_symbol_name("RESERVED8")
    2645                            .dwattr $C$DW$196, DW_AT_data_member_location[DW_OP_plus_uconst 0xe0]
    2646                            .dwattr $C$DW$196, DW_AT_accessibility(DW_ACCESS_public)
    2647                            .dwattr $C$DW$196, DW_AT_decl_file("C:\ti\ccs1200\ccs\ccs_base\arm\include\msp432p401r.h")
    2648                            .dwattr $C$DW$196, DW_AT_decl_line(0x37f)
    2649                            .dwattr $C$DW$196, DW_AT_decl_column(0x11)
    2650                    
    2651                    $C$DW$197       .dwtag  DW_TAG_member
    2652                            .dwattr $C$DW$197, DW_AT_type(*$C$DW$T$23)
    2653                            .dwattr $C$DW$197, DW_AT_name("IFG")
    2654                            .dwattr $C$DW$197, DW_AT_TI_symbol_name("IFG")
    2655                            .dwattr $C$DW$197, DW_AT_data_member_location[DW_OP_plus_uconst 0xf0]
    2656                            .dwattr $C$DW$197, DW_AT_accessibility(DW_ACCESS_public)
    2657                            .dwattr $C$DW$197, DW_AT_decl_file("C:\ti\ccs1200\ccs\ccs_base\arm\include\msp432p401r.h")
    2658                            .dwattr $C$DW$197, DW_AT_decl_line(0x380)
    2659                            .dwattr $C$DW$197, DW_AT_decl_column(0x11)
    2660                    
    2661                    $C$DW$198       .dwtag  DW_TAG_member
    2662                            .dwattr $C$DW$198, DW_AT_type(*$C$DW$T$23)
    2663                            .dwattr $C$DW$198, DW_AT_name("IE")
    2664                            .dwattr $C$DW$198, DW_AT_TI_symbol_name("IE")
    2665                            .dwattr $C$DW$198, DW_AT_data_member_location[DW_OP_plus_uconst 0xf4]
    2666                            .dwattr $C$DW$198, DW_AT_accessibility(DW_ACCESS_public)
    2667                            .dwattr $C$DW$198, DW_AT_decl_file("C:\ti\ccs1200\ccs\ccs_base\arm\include\msp432p401r.h")
    2668                            .dwattr $C$DW$198, DW_AT_decl_line(0x381)
    2669                            .dwattr $C$DW$198, DW_AT_decl_column(0x11)
    2670                    
    2671                    $C$DW$199       .dwtag  DW_TAG_member
    2672                            .dwattr $C$DW$199, DW_AT_type(*$C$DW$T$23)
    2673                            .dwattr $C$DW$199, DW_AT_name("CLRIFG")
    2674                            .dwattr $C$DW$199, DW_AT_TI_symbol_name("CLRIFG")
    2675                            .dwattr $C$DW$199, DW_AT_data_member_location[DW_OP_plus_uconst 0xf8]
    2676                            .dwattr $C$DW$199, DW_AT_accessibility(DW_ACCESS_public)
    2677                            .dwattr $C$DW$199, DW_AT_decl_file("C:\ti\ccs1200\ccs\ccs_base\arm\include\msp432p401r.h")
    2678                            .dwattr $C$DW$199, DW_AT_decl_line(0x382)
    2679                            .dwattr $C$DW$199, DW_AT_decl_column(0x11)
    2680                    
    2681                    $C$DW$200       .dwtag  DW_TAG_member
    2682                            .dwattr $C$DW$200, DW_AT_type(*$C$DW$T$23)
    2683                            .dwattr $C$DW$200, DW_AT_name("SETIFG")
    2684                            .dwattr $C$DW$200, DW_AT_TI_symbol_name("SETIFG")
    2685                            .dwattr $C$DW$200, DW_AT_data_member_location[DW_OP_plus_uconst 0xfc]
    2686                            .dwattr $C$DW$200, DW_AT_accessibility(DW_ACCESS_public)
    2687                            .dwattr $C$DW$200, DW_AT_decl_file("C:\ti\ccs1200\ccs\ccs_base\arm\include\msp432p401r.h")
    2688                            .dwattr $C$DW$200, DW_AT_decl_line(0x383)
    2689                            .dwattr $C$DW$200, DW_AT_decl_column(0x11)
    2690                    
    2691                    $C$DW$201       .dwtag  DW_TAG_member
    2692                            .dwattr $C$DW$201, DW_AT_type(*$C$DW$T$25)
    2693                            .dwattr $C$DW$201, DW_AT_name("READ_TIMCTL")
    2694                            .dwattr $C$DW$201, DW_AT_TI_symbol_name("READ_TIMCTL")
    2695                            .dwattr $C$DW$201, DW_AT_data_member_location[DW_OP_plus_uconst 0x100]
TI ARM Assembler PC v20.2.6 Mon Oct 31 23:16:56 2022

Copyright (c) 1996-2018 Texas Instruments Incorporated
system_msp432p401r.asm                                               PAGE   50

    2696                            .dwattr $C$DW$201, DW_AT_accessibility(DW_ACCESS_public)
    2697                            .dwattr $C$DW$201, DW_AT_decl_file("C:\ti\ccs1200\ccs\ccs_base\arm\include\msp432p401r.h")
    2698                            .dwattr $C$DW$201, DW_AT_decl_line(0x384)
    2699                            .dwattr $C$DW$201, DW_AT_decl_column(0x11)
    2700                    
    2701                    $C$DW$202       .dwtag  DW_TAG_member
    2702                            .dwattr $C$DW$202, DW_AT_type(*$C$DW$T$25)
    2703                            .dwattr $C$DW$202, DW_AT_name("READMARGIN_TIMCTL")
    2704                            .dwattr $C$DW$202, DW_AT_TI_symbol_name("READMARGIN_TIMCTL")
    2705                            .dwattr $C$DW$202, DW_AT_data_member_location[DW_OP_plus_uconst 0x104]
    2706                            .dwattr $C$DW$202, DW_AT_accessibility(DW_ACCESS_public)
    2707                            .dwattr $C$DW$202, DW_AT_decl_file("C:\ti\ccs1200\ccs\ccs_base\arm\include\msp432p401r.h")
    2708                            .dwattr $C$DW$202, DW_AT_decl_line(0x385)
    2709                            .dwattr $C$DW$202, DW_AT_decl_column(0x11)
    2710                    
    2711                    $C$DW$203       .dwtag  DW_TAG_member
    2712                            .dwattr $C$DW$203, DW_AT_type(*$C$DW$T$25)
    2713                            .dwattr $C$DW$203, DW_AT_name("PRGVER_TIMCTL")
    2714                            .dwattr $C$DW$203, DW_AT_TI_symbol_name("PRGVER_TIMCTL")
    2715                            .dwattr $C$DW$203, DW_AT_data_member_location[DW_OP_plus_uconst 0x108]
    2716                            .dwattr $C$DW$203, DW_AT_accessibility(DW_ACCESS_public)
    2717                            .dwattr $C$DW$203, DW_AT_decl_file("C:\ti\ccs1200\ccs\ccs_base\arm\include\msp432p401r.h")
    2718                            .dwattr $C$DW$203, DW_AT_decl_line(0x386)
    2719                            .dwattr $C$DW$203, DW_AT_decl_column(0x11)
    2720                    
    2721                    $C$DW$204       .dwtag  DW_TAG_member
    2722                            .dwattr $C$DW$204, DW_AT_type(*$C$DW$T$25)
    2723                            .dwattr $C$DW$204, DW_AT_name("ERSVER_TIMCTL")
    2724                            .dwattr $C$DW$204, DW_AT_TI_symbol_name("ERSVER_TIMCTL")
    2725                            .dwattr $C$DW$204, DW_AT_data_member_location[DW_OP_plus_uconst 0x10c]
    2726                            .dwattr $C$DW$204, DW_AT_accessibility(DW_ACCESS_public)
    2727                            .dwattr $C$DW$204, DW_AT_decl_file("C:\ti\ccs1200\ccs\ccs_base\arm\include\msp432p401r.h")
    2728                            .dwattr $C$DW$204, DW_AT_decl_line(0x387)
    2729                            .dwattr $C$DW$204, DW_AT_decl_column(0x11)
    2730                    
    2731                    $C$DW$205       .dwtag  DW_TAG_member
    2732                            .dwattr $C$DW$205, DW_AT_type(*$C$DW$T$25)
    2733                            .dwattr $C$DW$205, DW_AT_name("LKGVER_TIMCTL")
    2734                            .dwattr $C$DW$205, DW_AT_TI_symbol_name("LKGVER_TIMCTL")
    2735                            .dwattr $C$DW$205, DW_AT_data_member_location[DW_OP_plus_uconst 0x110]
    2736                            .dwattr $C$DW$205, DW_AT_accessibility(DW_ACCESS_public)
    2737                            .dwattr $C$DW$205, DW_AT_decl_file("C:\ti\ccs1200\ccs\ccs_base\arm\include\msp432p401r.h")
    2738                            .dwattr $C$DW$205, DW_AT_decl_line(0x388)
    2739                            .dwattr $C$DW$205, DW_AT_decl_column(0x11)
    2740                    
    2741                    $C$DW$206       .dwtag  DW_TAG_member
    2742                            .dwattr $C$DW$206, DW_AT_type(*$C$DW$T$25)
    2743                            .dwattr $C$DW$206, DW_AT_name("PROGRAM_TIMCTL")
    2744                            .dwattr $C$DW$206, DW_AT_TI_symbol_name("PROGRAM_TIMCTL")
    2745                            .dwattr $C$DW$206, DW_AT_data_member_location[DW_OP_plus_uconst 0x114]
    2746                            .dwattr $C$DW$206, DW_AT_accessibility(DW_ACCESS_public)
    2747                            .dwattr $C$DW$206, DW_AT_decl_file("C:\ti\ccs1200\ccs\ccs_base\arm\include\msp432p401r.h")
    2748                            .dwattr $C$DW$206, DW_AT_decl_line(0x389)
    2749                            .dwattr $C$DW$206, DW_AT_decl_column(0x11)
    2750                    
TI ARM Assembler PC v20.2.6 Mon Oct 31 23:16:56 2022

Copyright (c) 1996-2018 Texas Instruments Incorporated
system_msp432p401r.asm                                               PAGE   51

    2751                    $C$DW$207       .dwtag  DW_TAG_member
    2752                            .dwattr $C$DW$207, DW_AT_type(*$C$DW$T$25)
    2753                            .dwattr $C$DW$207, DW_AT_name("ERASE_TIMCTL")
    2754                            .dwattr $C$DW$207, DW_AT_TI_symbol_name("ERASE_TIMCTL")
    2755                            .dwattr $C$DW$207, DW_AT_data_member_location[DW_OP_plus_uconst 0x118]
    2756                            .dwattr $C$DW$207, DW_AT_accessibility(DW_ACCESS_public)
    2757                            .dwattr $C$DW$207, DW_AT_decl_file("C:\ti\ccs1200\ccs\ccs_base\arm\include\msp432p401r.h")
    2758                            .dwattr $C$DW$207, DW_AT_decl_line(0x38a)
    2759                            .dwattr $C$DW$207, DW_AT_decl_column(0x11)
    2760                    
    2761                    $C$DW$208       .dwtag  DW_TAG_member
    2762                            .dwattr $C$DW$208, DW_AT_type(*$C$DW$T$25)
    2763                            .dwattr $C$DW$208, DW_AT_name("MASSERASE_TIMCTL")
    2764                            .dwattr $C$DW$208, DW_AT_TI_symbol_name("MASSERASE_TIMCTL")
    2765                            .dwattr $C$DW$208, DW_AT_data_member_location[DW_OP_plus_uconst 0x11c]
    2766                            .dwattr $C$DW$208, DW_AT_accessibility(DW_ACCESS_public)
    2767                            .dwattr $C$DW$208, DW_AT_decl_file("C:\ti\ccs1200\ccs\ccs_base\arm\include\msp432p401r.h")
    2768                            .dwattr $C$DW$208, DW_AT_decl_line(0x38b)
    2769                            .dwattr $C$DW$208, DW_AT_decl_column(0x11)
    2770                    
    2771                    $C$DW$209       .dwtag  DW_TAG_member
    2772                            .dwattr $C$DW$209, DW_AT_type(*$C$DW$T$25)
    2773                            .dwattr $C$DW$209, DW_AT_name("BURSTPRG_TIMCTL")
    2774                            .dwattr $C$DW$209, DW_AT_TI_symbol_name("BURSTPRG_TIMCTL")
    2775                            .dwattr $C$DW$209, DW_AT_data_member_location[DW_OP_plus_uconst 0x120]
    2776                            .dwattr $C$DW$209, DW_AT_accessibility(DW_ACCESS_public)
    2777                            .dwattr $C$DW$209, DW_AT_decl_file("C:\ti\ccs1200\ccs\ccs_base\arm\include\msp432p401r.h")
    2778                            .dwattr $C$DW$209, DW_AT_decl_line(0x38c)
    2779                            .dwattr $C$DW$209, DW_AT_decl_column(0x11)
    2780                    
    2781                            .dwattr $C$DW$T$46, DW_AT_decl_file("C:\ti\ccs1200\ccs\ccs_base\arm\include\msp432p401r.h")
    2782                            .dwattr $C$DW$T$46, DW_AT_decl_line(0x351)
    2783                            .dwattr $C$DW$T$46, DW_AT_decl_column(0x10)
    2784                            .dwendtag $C$DW$T$46
    2785                    
    2786                    $C$DW$T$189     .dwtag  DW_TAG_typedef
    2787                            .dwattr $C$DW$T$189, DW_AT_name("FLCTL_Type")
    2788                            .dwattr $C$DW$T$189, DW_AT_type(*$C$DW$T$46)
    2789                            .dwattr $C$DW$T$189, DW_AT_language(DW_LANG_C)
    2790                            .dwattr $C$DW$T$189, DW_AT_decl_file("C:\ti\ccs1200\ccs\ccs_base\arm\include\msp432p401r.h")
    2791                            .dwattr $C$DW$T$189, DW_AT_decl_line(0x38d)
    2792                            .dwattr $C$DW$T$189, DW_AT_decl_column(0x03)
    2793                    
    2794                    
    2795                    $C$DW$T$47      .dwtag  DW_TAG_structure_type
    2796                            .dwattr $C$DW$T$47, DW_AT_byte_size(0x10)
    2797                    $C$DW$210       .dwtag  DW_TAG_member
    2798                            .dwattr $C$DW$210, DW_AT_type(*$C$DW$T$14)
    2799                            .dwattr $C$DW$210, DW_AT_name("__max_align1")
    2800                            .dwattr $C$DW$210, DW_AT_TI_symbol_name("__max_align1")
    2801                            .dwattr $C$DW$210, DW_AT_data_member_location[DW_OP_plus_uconst 0x0]
    2802                            .dwattr $C$DW$210, DW_AT_accessibility(DW_ACCESS_public)
    2803                            .dwattr $C$DW$210, DW_AT_decl_file("C:/ti/ccs1200/ccs/tools/compiler/ti-cgt-arm_20.2.6.LTS/inc
    2804                            .dwattr $C$DW$210, DW_AT_decl_line(0x7b)
    2805                            .dwattr $C$DW$210, DW_AT_decl_column(0x0c)
TI ARM Assembler PC v20.2.6 Mon Oct 31 23:16:56 2022

Copyright (c) 1996-2018 Texas Instruments Incorporated
system_msp432p401r.asm                                               PAGE   52

    2806                    
    2807                    $C$DW$211       .dwtag  DW_TAG_member
    2808                            .dwattr $C$DW$211, DW_AT_type(*$C$DW$T$18)
    2809                            .dwattr $C$DW$211, DW_AT_name("__max_align2")
    2810                            .dwattr $C$DW$211, DW_AT_TI_symbol_name("__max_align2")
    2811                            .dwattr $C$DW$211, DW_AT_data_member_location[DW_OP_plus_uconst 0x8]
    2812                            .dwattr $C$DW$211, DW_AT_accessibility(DW_ACCESS_public)
    2813                            .dwattr $C$DW$211, DW_AT_decl_file("C:/ti/ccs1200/ccs/tools/compiler/ti-cgt-arm_20.2.6.LTS/inc
    2814                            .dwattr $C$DW$211, DW_AT_decl_line(0x7c)
    2815                            .dwattr $C$DW$211, DW_AT_decl_column(0x0e)
    2816                    
    2817                            .dwattr $C$DW$T$47, DW_AT_decl_file("C:/ti/ccs1200/ccs/tools/compiler/ti-cgt-arm_20.2.6.LTS/in
    2818                            .dwattr $C$DW$T$47, DW_AT_decl_line(0x7a)
    2819                            .dwattr $C$DW$T$47, DW_AT_decl_column(0x10)
    2820                            .dwendtag $C$DW$T$47
    2821                    
    2822                    $C$DW$T$191     .dwtag  DW_TAG_typedef
    2823                            .dwattr $C$DW$T$191, DW_AT_name("__max_align_t")
    2824                            .dwattr $C$DW$T$191, DW_AT_type(*$C$DW$T$47)
    2825                            .dwattr $C$DW$T$191, DW_AT_language(DW_LANG_C)
    2826                            .dwattr $C$DW$T$191, DW_AT_decl_file("C:/ti/ccs1200/ccs/tools/compiler/ti-cgt-arm_20.2.6.LTS/i
    2827                            .dwattr $C$DW$T$191, DW_AT_decl_line(0x7d)
    2828                            .dwattr $C$DW$T$191, DW_AT_decl_column(0x03)
    2829                    
    2830                    
    2831                    $C$DW$T$48      .dwtag  DW_TAG_structure_type
    2832                            .dwattr $C$DW$T$48, DW_AT_byte_size(0x04)
    2833                    $C$DW$212       .dwtag  DW_TAG_member
    2834                            .dwattr $C$DW$212, DW_AT_type(*$C$DW$T$22)
    2835                            .dwattr $C$DW$212, DW_AT_name("_reserved0")
    2836                            .dwattr $C$DW$212, DW_AT_TI_symbol_name("_reserved0")
    2837                            .dwattr $C$DW$212, DW_AT_bit_offset(0x10)
    2838                            .dwattr $C$DW$212, DW_AT_bit_size(0x10)
    2839                            .dwattr $C$DW$212, DW_AT_data_member_location[DW_OP_plus_uconst 0x0]
    2840                            .dwattr $C$DW$212, DW_AT_accessibility(DW_ACCESS_public)
    2841                            .dwattr $C$DW$212, DW_AT_decl_file("C:/ti/ccs1200/ccs/ccs_base/arm/include/CMSIS/core_cm4.h")
    2842                            .dwattr $C$DW$212, DW_AT_decl_line(0x105)
    2843                            .dwattr $C$DW$212, DW_AT_decl_column(0x0e)
    2844                    
    2845                    $C$DW$213       .dwtag  DW_TAG_member
    2846                            .dwattr $C$DW$213, DW_AT_type(*$C$DW$T$22)
    2847                            .dwattr $C$DW$213, DW_AT_name("GE")
    2848                            .dwattr $C$DW$213, DW_AT_TI_symbol_name("GE")
    2849                            .dwattr $C$DW$213, DW_AT_bit_offset(0x0c)
    2850                            .dwattr $C$DW$213, DW_AT_bit_size(0x04)
    2851                            .dwattr $C$DW$213, DW_AT_data_member_location[DW_OP_plus_uconst 0x0]
    2852                            .dwattr $C$DW$213, DW_AT_accessibility(DW_ACCESS_public)
    2853                            .dwattr $C$DW$213, DW_AT_decl_file("C:/ti/ccs1200/ccs/ccs_base/arm/include/CMSIS/core_cm4.h")
    2854                            .dwattr $C$DW$213, DW_AT_decl_line(0x106)
    2855                            .dwattr $C$DW$213, DW_AT_decl_column(0x0e)
    2856                    
    2857                    $C$DW$214       .dwtag  DW_TAG_member
    2858                            .dwattr $C$DW$214, DW_AT_type(*$C$DW$T$22)
    2859                            .dwattr $C$DW$214, DW_AT_name("_reserved1")
    2860                            .dwattr $C$DW$214, DW_AT_TI_symbol_name("_reserved1")
TI ARM Assembler PC v20.2.6 Mon Oct 31 23:16:56 2022

Copyright (c) 1996-2018 Texas Instruments Incorporated
system_msp432p401r.asm                                               PAGE   53

    2861                            .dwattr $C$DW$214, DW_AT_bit_offset(0x05)
    2862                            .dwattr $C$DW$214, DW_AT_bit_size(0x07)
    2863                            .dwattr $C$DW$214, DW_AT_data_member_location[DW_OP_plus_uconst 0x0]
    2864                            .dwattr $C$DW$214, DW_AT_accessibility(DW_ACCESS_public)
    2865                            .dwattr $C$DW$214, DW_AT_decl_file("C:/ti/ccs1200/ccs/ccs_base/arm/include/CMSIS/core_cm4.h")
    2866                            .dwattr $C$DW$214, DW_AT_decl_line(0x107)
    2867                            .dwattr $C$DW$214, DW_AT_decl_column(0x0e)
    2868                    
    2869                    $C$DW$215       .dwtag  DW_TAG_member
    2870                            .dwattr $C$DW$215, DW_AT_type(*$C$DW$T$22)
    2871                            .dwattr $C$DW$215, DW_AT_name("Q")
    2872                            .dwattr $C$DW$215, DW_AT_TI_symbol_name("Q")
    2873                            .dwattr $C$DW$215, DW_AT_bit_offset(0x04)
    2874                            .dwattr $C$DW$215, DW_AT_bit_size(0x01)
    2875                            .dwattr $C$DW$215, DW_AT_data_member_location[DW_OP_plus_uconst 0x0]
    2876                            .dwattr $C$DW$215, DW_AT_accessibility(DW_ACCESS_public)
    2877                            .dwattr $C$DW$215, DW_AT_decl_file("C:/ti/ccs1200/ccs/ccs_base/arm/include/CMSIS/core_cm4.h")
    2878                            .dwattr $C$DW$215, DW_AT_decl_line(0x108)
    2879                            .dwattr $C$DW$215, DW_AT_decl_column(0x0e)
    2880                    
    2881                    $C$DW$216       .dwtag  DW_TAG_member
    2882                            .dwattr $C$DW$216, DW_AT_type(*$C$DW$T$22)
    2883                            .dwattr $C$DW$216, DW_AT_name("V")
    2884                            .dwattr $C$DW$216, DW_AT_TI_symbol_name("V")
    2885                            .dwattr $C$DW$216, DW_AT_bit_offset(0x03)
    2886                            .dwattr $C$DW$216, DW_AT_bit_size(0x01)
    2887                            .dwattr $C$DW$216, DW_AT_data_member_location[DW_OP_plus_uconst 0x0]
    2888                            .dwattr $C$DW$216, DW_AT_accessibility(DW_ACCESS_public)
    2889                            .dwattr $C$DW$216, DW_AT_decl_file("C:/ti/ccs1200/ccs/ccs_base/arm/include/CMSIS/core_cm4.h")
    2890                            .dwattr $C$DW$216, DW_AT_decl_line(0x109)
    2891                            .dwattr $C$DW$216, DW_AT_decl_column(0x0e)
    2892                    
    2893                    $C$DW$217       .dwtag  DW_TAG_member
    2894                            .dwattr $C$DW$217, DW_AT_type(*$C$DW$T$22)
    2895                            .dwattr $C$DW$217, DW_AT_name("C")
    2896                            .dwattr $C$DW$217, DW_AT_TI_symbol_name("C")
    2897                            .dwattr $C$DW$217, DW_AT_bit_offset(0x02)
    2898                            .dwattr $C$DW$217, DW_AT_bit_size(0x01)
    2899                            .dwattr $C$DW$217, DW_AT_data_member_location[DW_OP_plus_uconst 0x0]
    2900                            .dwattr $C$DW$217, DW_AT_accessibility(DW_ACCESS_public)
    2901                            .dwattr $C$DW$217, DW_AT_decl_file("C:/ti/ccs1200/ccs/ccs_base/arm/include/CMSIS/core_cm4.h")
    2902                            .dwattr $C$DW$217, DW_AT_decl_line(0x10a)
    2903                            .dwattr $C$DW$217, DW_AT_decl_column(0x0e)
    2904                    
    2905                    $C$DW$218       .dwtag  DW_TAG_member
    2906                            .dwattr $C$DW$218, DW_AT_type(*$C$DW$T$22)
    2907                            .dwattr $C$DW$218, DW_AT_name("Z")
    2908                            .dwattr $C$DW$218, DW_AT_TI_symbol_name("Z")
    2909                            .dwattr $C$DW$218, DW_AT_bit_offset(0x01)
    2910                            .dwattr $C$DW$218, DW_AT_bit_size(0x01)
    2911                            .dwattr $C$DW$218, DW_AT_data_member_location[DW_OP_plus_uconst 0x0]
    2912                            .dwattr $C$DW$218, DW_AT_accessibility(DW_ACCESS_public)
    2913                            .dwattr $C$DW$218, DW_AT_decl_file("C:/ti/ccs1200/ccs/ccs_base/arm/include/CMSIS/core_cm4.h")
    2914                            .dwattr $C$DW$218, DW_AT_decl_line(0x10b)
    2915                            .dwattr $C$DW$218, DW_AT_decl_column(0x0e)
TI ARM Assembler PC v20.2.6 Mon Oct 31 23:16:56 2022

Copyright (c) 1996-2018 Texas Instruments Incorporated
system_msp432p401r.asm                                               PAGE   54

    2916                    
    2917                    $C$DW$219       .dwtag  DW_TAG_member
    2918                            .dwattr $C$DW$219, DW_AT_type(*$C$DW$T$22)
    2919                            .dwattr $C$DW$219, DW_AT_name("N")
    2920                            .dwattr $C$DW$219, DW_AT_TI_symbol_name("N")
    2921                            .dwattr $C$DW$219, DW_AT_bit_offset(0x00)
    2922                            .dwattr $C$DW$219, DW_AT_bit_size(0x01)
    2923                            .dwattr $C$DW$219, DW_AT_data_member_location[DW_OP_plus_uconst 0x0]
    2924                            .dwattr $C$DW$219, DW_AT_accessibility(DW_ACCESS_public)
    2925                            .dwattr $C$DW$219, DW_AT_decl_file("C:/ti/ccs1200/ccs/ccs_base/arm/include/CMSIS/core_cm4.h")
    2926                            .dwattr $C$DW$219, DW_AT_decl_line(0x10c)
    2927                            .dwattr $C$DW$219, DW_AT_decl_column(0x0e)
    2928                    
    2929                            .dwattr $C$DW$T$48, DW_AT_decl_file("C:/ti/ccs1200/ccs/ccs_base/arm/include/CMSIS/core_cm4.h")
    2930                            .dwattr $C$DW$T$48, DW_AT_decl_line(0x104)
    2931                            .dwattr $C$DW$T$48, DW_AT_decl_column(0x03)
    2932                            .dwendtag $C$DW$T$48
    2933                    
    2934                    
    2935                    $C$DW$T$49      .dwtag  DW_TAG_structure_type
    2936                            .dwattr $C$DW$T$49, DW_AT_byte_size(0x04)
    2937                    $C$DW$220       .dwtag  DW_TAG_member
    2938                            .dwattr $C$DW$220, DW_AT_type(*$C$DW$T$22)
    2939                            .dwattr $C$DW$220, DW_AT_name("ISR")
    2940                            .dwattr $C$DW$220, DW_AT_TI_symbol_name("ISR")
    2941                            .dwattr $C$DW$220, DW_AT_bit_offset(0x17)
    2942                            .dwattr $C$DW$220, DW_AT_bit_size(0x09)
    2943                            .dwattr $C$DW$220, DW_AT_data_member_location[DW_OP_plus_uconst 0x0]
    2944                            .dwattr $C$DW$220, DW_AT_accessibility(DW_ACCESS_public)
    2945                            .dwattr $C$DW$220, DW_AT_decl_file("C:/ti/ccs1200/ccs/ccs_base/arm/include/CMSIS/core_cm4.h")
    2946                            .dwattr $C$DW$220, DW_AT_decl_line(0x12c)
    2947                            .dwattr $C$DW$220, DW_AT_decl_column(0x0e)
    2948                    
    2949                    $C$DW$221       .dwtag  DW_TAG_member
    2950                            .dwattr $C$DW$221, DW_AT_type(*$C$DW$T$22)
    2951                            .dwattr $C$DW$221, DW_AT_name("_reserved0")
    2952                            .dwattr $C$DW$221, DW_AT_TI_symbol_name("_reserved0")
    2953                            .dwattr $C$DW$221, DW_AT_bit_offset(0x00)
    2954                            .dwattr $C$DW$221, DW_AT_bit_size(0x17)
    2955                            .dwattr $C$DW$221, DW_AT_data_member_location[DW_OP_plus_uconst 0x0]
    2956                            .dwattr $C$DW$221, DW_AT_accessibility(DW_ACCESS_public)
    2957                            .dwattr $C$DW$221, DW_AT_decl_file("C:/ti/ccs1200/ccs/ccs_base/arm/include/CMSIS/core_cm4.h")
    2958                            .dwattr $C$DW$221, DW_AT_decl_line(0x12d)
    2959                            .dwattr $C$DW$221, DW_AT_decl_column(0x0e)
    2960                    
    2961                            .dwattr $C$DW$T$49, DW_AT_decl_file("C:/ti/ccs1200/ccs/ccs_base/arm/include/CMSIS/core_cm4.h")
    2962                            .dwattr $C$DW$T$49, DW_AT_decl_line(0x12b)
    2963                            .dwattr $C$DW$T$49, DW_AT_decl_column(0x03)
    2964                            .dwendtag $C$DW$T$49
    2965                    
    2966                    
    2967                    $C$DW$T$50      .dwtag  DW_TAG_structure_type
    2968                            .dwattr $C$DW$T$50, DW_AT_byte_size(0x04)
    2969                    $C$DW$222       .dwtag  DW_TAG_member
    2970                            .dwattr $C$DW$222, DW_AT_type(*$C$DW$T$22)
TI ARM Assembler PC v20.2.6 Mon Oct 31 23:16:56 2022

Copyright (c) 1996-2018 Texas Instruments Incorporated
system_msp432p401r.asm                                               PAGE   55

    2971                            .dwattr $C$DW$222, DW_AT_name("ISR")
    2972                            .dwattr $C$DW$222, DW_AT_TI_symbol_name("ISR")
    2973                            .dwattr $C$DW$222, DW_AT_bit_offset(0x17)
    2974                            .dwattr $C$DW$222, DW_AT_bit_size(0x09)
    2975                            .dwattr $C$DW$222, DW_AT_data_member_location[DW_OP_plus_uconst 0x0]
    2976                            .dwattr $C$DW$222, DW_AT_accessibility(DW_ACCESS_public)
    2977                            .dwattr $C$DW$222, DW_AT_decl_file("C:/ti/ccs1200/ccs/ccs_base/arm/include/CMSIS/core_cm4.h")
    2978                            .dwattr $C$DW$222, DW_AT_decl_line(0x13e)
    2979                            .dwattr $C$DW$222, DW_AT_decl_column(0x0e)
    2980                    
    2981                    $C$DW$223       .dwtag  DW_TAG_member
    2982                            .dwattr $C$DW$223, DW_AT_type(*$C$DW$T$22)
    2983                            .dwattr $C$DW$223, DW_AT_name("_reserved0")
    2984                            .dwattr $C$DW$223, DW_AT_TI_symbol_name("_reserved0")
    2985                            .dwattr $C$DW$223, DW_AT_bit_offset(0x16)
    2986                            .dwattr $C$DW$223, DW_AT_bit_size(0x01)
    2987                            .dwattr $C$DW$223, DW_AT_data_member_location[DW_OP_plus_uconst 0x0]
    2988                            .dwattr $C$DW$223, DW_AT_accessibility(DW_ACCESS_public)
    2989                            .dwattr $C$DW$223, DW_AT_decl_file("C:/ti/ccs1200/ccs/ccs_base/arm/include/CMSIS/core_cm4.h")
    2990                            .dwattr $C$DW$223, DW_AT_decl_line(0x13f)
    2991                            .dwattr $C$DW$223, DW_AT_decl_column(0x0e)
    2992                    
    2993                    $C$DW$224       .dwtag  DW_TAG_member
    2994                            .dwattr $C$DW$224, DW_AT_type(*$C$DW$T$22)
    2995                            .dwattr $C$DW$224, DW_AT_name("ICI_IT_1")
    2996                            .dwattr $C$DW$224, DW_AT_TI_symbol_name("ICI_IT_1")
    2997                            .dwattr $C$DW$224, DW_AT_bit_offset(0x10)
    2998                            .dwattr $C$DW$224, DW_AT_bit_size(0x06)
    2999                            .dwattr $C$DW$224, DW_AT_data_member_location[DW_OP_plus_uconst 0x0]
    3000                            .dwattr $C$DW$224, DW_AT_accessibility(DW_ACCESS_public)
    3001                            .dwattr $C$DW$224, DW_AT_decl_file("C:/ti/ccs1200/ccs/ccs_base/arm/include/CMSIS/core_cm4.h")
    3002                            .dwattr $C$DW$224, DW_AT_decl_line(0x140)
    3003                            .dwattr $C$DW$224, DW_AT_decl_column(0x0e)
    3004                    
    3005                    $C$DW$225       .dwtag  DW_TAG_member
    3006                            .dwattr $C$DW$225, DW_AT_type(*$C$DW$T$22)
    3007                            .dwattr $C$DW$225, DW_AT_name("GE")
    3008                            .dwattr $C$DW$225, DW_AT_TI_symbol_name("GE")
    3009                            .dwattr $C$DW$225, DW_AT_bit_offset(0x0c)
    3010                            .dwattr $C$DW$225, DW_AT_bit_size(0x04)
    3011                            .dwattr $C$DW$225, DW_AT_data_member_location[DW_OP_plus_uconst 0x0]
    3012                            .dwattr $C$DW$225, DW_AT_accessibility(DW_ACCESS_public)
    3013                            .dwattr $C$DW$225, DW_AT_decl_file("C:/ti/ccs1200/ccs/ccs_base/arm/include/CMSIS/core_cm4.h")
    3014                            .dwattr $C$DW$225, DW_AT_decl_line(0x141)
    3015                            .dwattr $C$DW$225, DW_AT_decl_column(0x0e)
    3016                    
    3017                    $C$DW$226       .dwtag  DW_TAG_member
    3018                            .dwattr $C$DW$226, DW_AT_type(*$C$DW$T$22)
    3019                            .dwattr $C$DW$226, DW_AT_name("_reserved1")
    3020                            .dwattr $C$DW$226, DW_AT_TI_symbol_name("_reserved1")
    3021                            .dwattr $C$DW$226, DW_AT_bit_offset(0x08)
    3022                            .dwattr $C$DW$226, DW_AT_bit_size(0x04)
    3023                            .dwattr $C$DW$226, DW_AT_data_member_location[DW_OP_plus_uconst 0x0]
    3024                            .dwattr $C$DW$226, DW_AT_accessibility(DW_ACCESS_public)
    3025                            .dwattr $C$DW$226, DW_AT_decl_file("C:/ti/ccs1200/ccs/ccs_base/arm/include/CMSIS/core_cm4.h")
TI ARM Assembler PC v20.2.6 Mon Oct 31 23:16:56 2022

Copyright (c) 1996-2018 Texas Instruments Incorporated
system_msp432p401r.asm                                               PAGE   56

    3026                            .dwattr $C$DW$226, DW_AT_decl_line(0x142)
    3027                            .dwattr $C$DW$226, DW_AT_decl_column(0x0e)
    3028                    
    3029                    $C$DW$227       .dwtag  DW_TAG_member
    3030                            .dwattr $C$DW$227, DW_AT_type(*$C$DW$T$22)
    3031                            .dwattr $C$DW$227, DW_AT_name("T")
    3032                            .dwattr $C$DW$227, DW_AT_TI_symbol_name("T")
    3033                            .dwattr $C$DW$227, DW_AT_bit_offset(0x07)
    3034                            .dwattr $C$DW$227, DW_AT_bit_size(0x01)
    3035                            .dwattr $C$DW$227, DW_AT_data_member_location[DW_OP_plus_uconst 0x0]
    3036                            .dwattr $C$DW$227, DW_AT_accessibility(DW_ACCESS_public)
    3037                            .dwattr $C$DW$227, DW_AT_decl_file("C:/ti/ccs1200/ccs/ccs_base/arm/include/CMSIS/core_cm4.h")
    3038                            .dwattr $C$DW$227, DW_AT_decl_line(0x143)
    3039                            .dwattr $C$DW$227, DW_AT_decl_column(0x0e)
    3040                    
    3041                    $C$DW$228       .dwtag  DW_TAG_member
    3042                            .dwattr $C$DW$228, DW_AT_type(*$C$DW$T$22)
    3043                            .dwattr $C$DW$228, DW_AT_name("ICI_IT_2")
    3044                            .dwattr $C$DW$228, DW_AT_TI_symbol_name("ICI_IT_2")
    3045                            .dwattr $C$DW$228, DW_AT_bit_offset(0x05)
    3046                            .dwattr $C$DW$228, DW_AT_bit_size(0x02)
    3047                            .dwattr $C$DW$228, DW_AT_data_member_location[DW_OP_plus_uconst 0x0]
    3048                            .dwattr $C$DW$228, DW_AT_accessibility(DW_ACCESS_public)
    3049                            .dwattr $C$DW$228, DW_AT_decl_file("C:/ti/ccs1200/ccs/ccs_base/arm/include/CMSIS/core_cm4.h")
    3050                            .dwattr $C$DW$228, DW_AT_decl_line(0x144)
    3051                            .dwattr $C$DW$228, DW_AT_decl_column(0x0e)
    3052                    
    3053                    $C$DW$229       .dwtag  DW_TAG_member
    3054                            .dwattr $C$DW$229, DW_AT_type(*$C$DW$T$22)
    3055                            .dwattr $C$DW$229, DW_AT_name("Q")
    3056                            .dwattr $C$DW$229, DW_AT_TI_symbol_name("Q")
    3057                            .dwattr $C$DW$229, DW_AT_bit_offset(0x04)
    3058                            .dwattr $C$DW$229, DW_AT_bit_size(0x01)
    3059                            .dwattr $C$DW$229, DW_AT_data_member_location[DW_OP_plus_uconst 0x0]
    3060                            .dwattr $C$DW$229, DW_AT_accessibility(DW_ACCESS_public)
    3061                            .dwattr $C$DW$229, DW_AT_decl_file("C:/ti/ccs1200/ccs/ccs_base/arm/include/CMSIS/core_cm4.h")
    3062                            .dwattr $C$DW$229, DW_AT_decl_line(0x145)
    3063                            .dwattr $C$DW$229, DW_AT_decl_column(0x0e)
    3064                    
    3065                    $C$DW$230       .dwtag  DW_TAG_member
    3066                            .dwattr $C$DW$230, DW_AT_type(*$C$DW$T$22)
    3067                            .dwattr $C$DW$230, DW_AT_name("V")
    3068                            .dwattr $C$DW$230, DW_AT_TI_symbol_name("V")
    3069                            .dwattr $C$DW$230, DW_AT_bit_offset(0x03)
    3070                            .dwattr $C$DW$230, DW_AT_bit_size(0x01)
    3071                            .dwattr $C$DW$230, DW_AT_data_member_location[DW_OP_plus_uconst 0x0]
    3072                            .dwattr $C$DW$230, DW_AT_accessibility(DW_ACCESS_public)
    3073                            .dwattr $C$DW$230, DW_AT_decl_file("C:/ti/ccs1200/ccs/ccs_base/arm/include/CMSIS/core_cm4.h")
    3074                            .dwattr $C$DW$230, DW_AT_decl_line(0x146)
    3075                            .dwattr $C$DW$230, DW_AT_decl_column(0x0e)
    3076                    
    3077                    $C$DW$231       .dwtag  DW_TAG_member
    3078                            .dwattr $C$DW$231, DW_AT_type(*$C$DW$T$22)
    3079                            .dwattr $C$DW$231, DW_AT_name("C")
    3080                            .dwattr $C$DW$231, DW_AT_TI_symbol_name("C")
TI ARM Assembler PC v20.2.6 Mon Oct 31 23:16:56 2022

Copyright (c) 1996-2018 Texas Instruments Incorporated
system_msp432p401r.asm                                               PAGE   57

    3081                            .dwattr $C$DW$231, DW_AT_bit_offset(0x02)
    3082                            .dwattr $C$DW$231, DW_AT_bit_size(0x01)
    3083                            .dwattr $C$DW$231, DW_AT_data_member_location[DW_OP_plus_uconst 0x0]
    3084                            .dwattr $C$DW$231, DW_AT_accessibility(DW_ACCESS_public)
    3085                            .dwattr $C$DW$231, DW_AT_decl_file("C:/ti/ccs1200/ccs/ccs_base/arm/include/CMSIS/core_cm4.h")
    3086                            .dwattr $C$DW$231, DW_AT_decl_line(0x147)
    3087                            .dwattr $C$DW$231, DW_AT_decl_column(0x0e)
    3088                    
    3089                    $C$DW$232       .dwtag  DW_TAG_member
    3090                            .dwattr $C$DW$232, DW_AT_type(*$C$DW$T$22)
    3091                            .dwattr $C$DW$232, DW_AT_name("Z")
    3092                            .dwattr $C$DW$232, DW_AT_TI_symbol_name("Z")
    3093                            .dwattr $C$DW$232, DW_AT_bit_offset(0x01)
    3094                            .dwattr $C$DW$232, DW_AT_bit_size(0x01)
    3095                            .dwattr $C$DW$232, DW_AT_data_member_location[DW_OP_plus_uconst 0x0]
    3096                            .dwattr $C$DW$232, DW_AT_accessibility(DW_ACCESS_public)
    3097                            .dwattr $C$DW$232, DW_AT_decl_file("C:/ti/ccs1200/ccs/ccs_base/arm/include/CMSIS/core_cm4.h")
    3098                            .dwattr $C$DW$232, DW_AT_decl_line(0x148)
    3099                            .dwattr $C$DW$232, DW_AT_decl_column(0x0e)
    3100                    
    3101                    $C$DW$233       .dwtag  DW_TAG_member
    3102                            .dwattr $C$DW$233, DW_AT_type(*$C$DW$T$22)
    3103                            .dwattr $C$DW$233, DW_AT_name("N")
    3104                            .dwattr $C$DW$233, DW_AT_TI_symbol_name("N")
    3105                            .dwattr $C$DW$233, DW_AT_bit_offset(0x00)
    3106                            .dwattr $C$DW$233, DW_AT_bit_size(0x01)
    3107                            .dwattr $C$DW$233, DW_AT_data_member_location[DW_OP_plus_uconst 0x0]
    3108                            .dwattr $C$DW$233, DW_AT_accessibility(DW_ACCESS_public)
    3109                            .dwattr $C$DW$233, DW_AT_decl_file("C:/ti/ccs1200/ccs/ccs_base/arm/include/CMSIS/core_cm4.h")
    3110                            .dwattr $C$DW$233, DW_AT_decl_line(0x149)
    3111                            .dwattr $C$DW$233, DW_AT_decl_column(0x0e)
    3112                    
    3113                            .dwattr $C$DW$T$50, DW_AT_decl_file("C:/ti/ccs1200/ccs/ccs_base/arm/include/CMSIS/core_cm4.h")
    3114                            .dwattr $C$DW$T$50, DW_AT_decl_line(0x13d)
    3115                            .dwattr $C$DW$T$50, DW_AT_decl_column(0x03)
    3116                            .dwendtag $C$DW$T$50
    3117                    
    3118                    
    3119                    $C$DW$T$51      .dwtag  DW_TAG_structure_type
    3120                            .dwattr $C$DW$T$51, DW_AT_byte_size(0x04)
    3121                    $C$DW$234       .dwtag  DW_TAG_member
    3122                            .dwattr $C$DW$234, DW_AT_type(*$C$DW$T$22)
    3123                            .dwattr $C$DW$234, DW_AT_name("nPRIV")
    3124                            .dwattr $C$DW$234, DW_AT_TI_symbol_name("nPRIV")
    3125                            .dwattr $C$DW$234, DW_AT_bit_offset(0x1f)
    3126                            .dwattr $C$DW$234, DW_AT_bit_size(0x01)
    3127                            .dwattr $C$DW$234, DW_AT_data_member_location[DW_OP_plus_uconst 0x0]
    3128                            .dwattr $C$DW$234, DW_AT_accessibility(DW_ACCESS_public)
    3129                            .dwattr $C$DW$234, DW_AT_decl_file("C:/ti/ccs1200/ccs/ccs_base/arm/include/CMSIS/core_cm4.h")
    3130                            .dwattr $C$DW$234, DW_AT_decl_line(0x175)
    3131                            .dwattr $C$DW$234, DW_AT_decl_column(0x0e)
    3132                    
    3133                    $C$DW$235       .dwtag  DW_TAG_member
    3134                            .dwattr $C$DW$235, DW_AT_type(*$C$DW$T$22)
    3135                            .dwattr $C$DW$235, DW_AT_name("SPSEL")
TI ARM Assembler PC v20.2.6 Mon Oct 31 23:16:56 2022

Copyright (c) 1996-2018 Texas Instruments Incorporated
system_msp432p401r.asm                                               PAGE   58

    3136                            .dwattr $C$DW$235, DW_AT_TI_symbol_name("SPSEL")
    3137                            .dwattr $C$DW$235, DW_AT_bit_offset(0x1e)
    3138                            .dwattr $C$DW$235, DW_AT_bit_size(0x01)
    3139                            .dwattr $C$DW$235, DW_AT_data_member_location[DW_OP_plus_uconst 0x0]
    3140                            .dwattr $C$DW$235, DW_AT_accessibility(DW_ACCESS_public)
    3141                            .dwattr $C$DW$235, DW_AT_decl_file("C:/ti/ccs1200/ccs/ccs_base/arm/include/CMSIS/core_cm4.h")
    3142                            .dwattr $C$DW$235, DW_AT_decl_line(0x176)
    3143                            .dwattr $C$DW$235, DW_AT_decl_column(0x0e)
    3144                    
    3145                    $C$DW$236       .dwtag  DW_TAG_member
    3146                            .dwattr $C$DW$236, DW_AT_type(*$C$DW$T$22)
    3147                            .dwattr $C$DW$236, DW_AT_name("FPCA")
    3148                            .dwattr $C$DW$236, DW_AT_TI_symbol_name("FPCA")
    3149                            .dwattr $C$DW$236, DW_AT_bit_offset(0x1d)
    3150                            .dwattr $C$DW$236, DW_AT_bit_size(0x01)
    3151                            .dwattr $C$DW$236, DW_AT_data_member_location[DW_OP_plus_uconst 0x0]
    3152                            .dwattr $C$DW$236, DW_AT_accessibility(DW_ACCESS_public)
    3153                            .dwattr $C$DW$236, DW_AT_decl_file("C:/ti/ccs1200/ccs/ccs_base/arm/include/CMSIS/core_cm4.h")
    3154                            .dwattr $C$DW$236, DW_AT_decl_line(0x177)
    3155                            .dwattr $C$DW$236, DW_AT_decl_column(0x0e)
    3156                    
    3157                    $C$DW$237       .dwtag  DW_TAG_member
    3158                            .dwattr $C$DW$237, DW_AT_type(*$C$DW$T$22)
    3159                            .dwattr $C$DW$237, DW_AT_name("_reserved0")
    3160                            .dwattr $C$DW$237, DW_AT_TI_symbol_name("_reserved0")
    3161                            .dwattr $C$DW$237, DW_AT_bit_offset(0x00)
    3162                            .dwattr $C$DW$237, DW_AT_bit_size(0x1d)
    3163                            .dwattr $C$DW$237, DW_AT_data_member_location[DW_OP_plus_uconst 0x0]
    3164                            .dwattr $C$DW$237, DW_AT_accessibility(DW_ACCESS_public)
    3165                            .dwattr $C$DW$237, DW_AT_decl_file("C:/ti/ccs1200/ccs/ccs_base/arm/include/CMSIS/core_cm4.h")
    3166                            .dwattr $C$DW$237, DW_AT_decl_line(0x178)
    3167                            .dwattr $C$DW$237, DW_AT_decl_column(0x0e)
    3168                    
    3169                            .dwattr $C$DW$T$51, DW_AT_decl_file("C:/ti/ccs1200/ccs/ccs_base/arm/include/CMSIS/core_cm4.h")
    3170                            .dwattr $C$DW$T$51, DW_AT_decl_line(0x174)
    3171                            .dwattr $C$DW$T$51, DW_AT_decl_column(0x03)
    3172                            .dwendtag $C$DW$T$51
    3173                    
    3174                    
    3175                    $C$DW$T$57      .dwtag  DW_TAG_structure_type
    3176                            .dwattr $C$DW$T$57, DW_AT_byte_size(0xe04)
    3177                    $C$DW$238       .dwtag  DW_TAG_member
    3178                            .dwattr $C$DW$238, DW_AT_type(*$C$DW$T$52)
    3179                            .dwattr $C$DW$238, DW_AT_name("ISER")
    3180                            .dwattr $C$DW$238, DW_AT_TI_symbol_name("ISER")
    3181                            .dwattr $C$DW$238, DW_AT_data_member_location[DW_OP_plus_uconst 0x0]
    3182                            .dwattr $C$DW$238, DW_AT_accessibility(DW_ACCESS_public)
    3183                            .dwattr $C$DW$238, DW_AT_decl_file("C:/ti/ccs1200/ccs/ccs_base/arm/include/CMSIS/core_cm4.h")
    3184                            .dwattr $C$DW$238, DW_AT_decl_line(0x196)
    3185                            .dwattr $C$DW$238, DW_AT_decl_column(0x12)
    3186                    
    3187                    $C$DW$239       .dwtag  DW_TAG_member
    3188                            .dwattr $C$DW$239, DW_AT_type(*$C$DW$T$53)
    3189                            .dwattr $C$DW$239, DW_AT_name("RESERVED0")
    3190                            .dwattr $C$DW$239, DW_AT_TI_symbol_name("RESERVED0")
TI ARM Assembler PC v20.2.6 Mon Oct 31 23:16:56 2022

Copyright (c) 1996-2018 Texas Instruments Incorporated
system_msp432p401r.asm                                               PAGE   59

    3191                            .dwattr $C$DW$239, DW_AT_data_member_location[DW_OP_plus_uconst 0x20]
    3192                            .dwattr $C$DW$239, DW_AT_accessibility(DW_ACCESS_public)
    3193                            .dwattr $C$DW$239, DW_AT_decl_file("C:/ti/ccs1200/ccs/ccs_base/arm/include/CMSIS/core_cm4.h")
    3194                            .dwattr $C$DW$239, DW_AT_decl_line(0x197)
    3195                            .dwattr $C$DW$239, DW_AT_decl_column(0x12)
    3196                    
    3197                    $C$DW$240       .dwtag  DW_TAG_member
    3198                            .dwattr $C$DW$240, DW_AT_type(*$C$DW$T$52)
    3199                            .dwattr $C$DW$240, DW_AT_name("ICER")
    3200                            .dwattr $C$DW$240, DW_AT_TI_symbol_name("ICER")
    3201                            .dwattr $C$DW$240, DW_AT_data_member_location[DW_OP_plus_uconst 0x80]
    3202                            .dwattr $C$DW$240, DW_AT_accessibility(DW_ACCESS_public)
    3203                            .dwattr $C$DW$240, DW_AT_decl_file("C:/ti/ccs1200/ccs/ccs_base/arm/include/CMSIS/core_cm4.h")
    3204                            .dwattr $C$DW$240, DW_AT_decl_line(0x198)
    3205                            .dwattr $C$DW$240, DW_AT_decl_column(0x12)
    3206                    
    3207                    $C$DW$241       .dwtag  DW_TAG_member
    3208                            .dwattr $C$DW$241, DW_AT_type(*$C$DW$T$53)
    3209                            .dwattr $C$DW$241, DW_AT_name("RSERVED1")
    3210                            .dwattr $C$DW$241, DW_AT_TI_symbol_name("RSERVED1")
    3211                            .dwattr $C$DW$241, DW_AT_data_member_location[DW_OP_plus_uconst 0xa0]
    3212                            .dwattr $C$DW$241, DW_AT_accessibility(DW_ACCESS_public)
    3213                            .dwattr $C$DW$241, DW_AT_decl_file("C:/ti/ccs1200/ccs/ccs_base/arm/include/CMSIS/core_cm4.h")
    3214                            .dwattr $C$DW$241, DW_AT_decl_line(0x199)
    3215                            .dwattr $C$DW$241, DW_AT_decl_column(0x12)
    3216                    
    3217                    $C$DW$242       .dwtag  DW_TAG_member
    3218                            .dwattr $C$DW$242, DW_AT_type(*$C$DW$T$52)
    3219                            .dwattr $C$DW$242, DW_AT_name("ISPR")
    3220                            .dwattr $C$DW$242, DW_AT_TI_symbol_name("ISPR")
    3221                            .dwattr $C$DW$242, DW_AT_data_member_location[DW_OP_plus_uconst 0x100]
    3222                            .dwattr $C$DW$242, DW_AT_accessibility(DW_ACCESS_public)
    3223                            .dwattr $C$DW$242, DW_AT_decl_file("C:/ti/ccs1200/ccs/ccs_base/arm/include/CMSIS/core_cm4.h")
    3224                            .dwattr $C$DW$242, DW_AT_decl_line(0x19a)
    3225                            .dwattr $C$DW$242, DW_AT_decl_column(0x12)
    3226                    
    3227                    $C$DW$243       .dwtag  DW_TAG_member
    3228                            .dwattr $C$DW$243, DW_AT_type(*$C$DW$T$53)
    3229                            .dwattr $C$DW$243, DW_AT_name("RESERVED2")
    3230                            .dwattr $C$DW$243, DW_AT_TI_symbol_name("RESERVED2")
    3231                            .dwattr $C$DW$243, DW_AT_data_member_location[DW_OP_plus_uconst 0x120]
    3232                            .dwattr $C$DW$243, DW_AT_accessibility(DW_ACCESS_public)
    3233                            .dwattr $C$DW$243, DW_AT_decl_file("C:/ti/ccs1200/ccs/ccs_base/arm/include/CMSIS/core_cm4.h")
    3234                            .dwattr $C$DW$243, DW_AT_decl_line(0x19b)
    3235                            .dwattr $C$DW$243, DW_AT_decl_column(0x12)
    3236                    
    3237                    $C$DW$244       .dwtag  DW_TAG_member
    3238                            .dwattr $C$DW$244, DW_AT_type(*$C$DW$T$52)
    3239                            .dwattr $C$DW$244, DW_AT_name("ICPR")
    3240                            .dwattr $C$DW$244, DW_AT_TI_symbol_name("ICPR")
    3241                            .dwattr $C$DW$244, DW_AT_data_member_location[DW_OP_plus_uconst 0x180]
    3242                            .dwattr $C$DW$244, DW_AT_accessibility(DW_ACCESS_public)
    3243                            .dwattr $C$DW$244, DW_AT_decl_file("C:/ti/ccs1200/ccs/ccs_base/arm/include/CMSIS/core_cm4.h")
    3244                            .dwattr $C$DW$244, DW_AT_decl_line(0x19c)
    3245                            .dwattr $C$DW$244, DW_AT_decl_column(0x12)
TI ARM Assembler PC v20.2.6 Mon Oct 31 23:16:56 2022

Copyright (c) 1996-2018 Texas Instruments Incorporated
system_msp432p401r.asm                                               PAGE   60

    3246                    
    3247                    $C$DW$245       .dwtag  DW_TAG_member
    3248                            .dwattr $C$DW$245, DW_AT_type(*$C$DW$T$53)
    3249                            .dwattr $C$DW$245, DW_AT_name("RESERVED3")
    3250                            .dwattr $C$DW$245, DW_AT_TI_symbol_name("RESERVED3")
    3251                            .dwattr $C$DW$245, DW_AT_data_member_location[DW_OP_plus_uconst 0x1a0]
    3252                            .dwattr $C$DW$245, DW_AT_accessibility(DW_ACCESS_public)
    3253                            .dwattr $C$DW$245, DW_AT_decl_file("C:/ti/ccs1200/ccs/ccs_base/arm/include/CMSIS/core_cm4.h")
    3254                            .dwattr $C$DW$245, DW_AT_decl_line(0x19d)
    3255                            .dwattr $C$DW$245, DW_AT_decl_column(0x12)
    3256                    
    3257                    $C$DW$246       .dwtag  DW_TAG_member
    3258                            .dwattr $C$DW$246, DW_AT_type(*$C$DW$T$52)
    3259                            .dwattr $C$DW$246, DW_AT_name("IABR")
    3260                            .dwattr $C$DW$246, DW_AT_TI_symbol_name("IABR")
    3261                            .dwattr $C$DW$246, DW_AT_data_member_location[DW_OP_plus_uconst 0x200]
    3262                            .dwattr $C$DW$246, DW_AT_accessibility(DW_ACCESS_public)
    3263                            .dwattr $C$DW$246, DW_AT_decl_file("C:/ti/ccs1200/ccs/ccs_base/arm/include/CMSIS/core_cm4.h")
    3264                            .dwattr $C$DW$246, DW_AT_decl_line(0x19e)
    3265                            .dwattr $C$DW$246, DW_AT_decl_column(0x12)
    3266                    
    3267                    $C$DW$247       .dwtag  DW_TAG_member
    3268                            .dwattr $C$DW$247, DW_AT_type(*$C$DW$T$54)
    3269                            .dwattr $C$DW$247, DW_AT_name("RESERVED4")
    3270                            .dwattr $C$DW$247, DW_AT_TI_symbol_name("RESERVED4")
    3271                            .dwattr $C$DW$247, DW_AT_data_member_location[DW_OP_plus_uconst 0x220]
    3272                            .dwattr $C$DW$247, DW_AT_accessibility(DW_ACCESS_public)
    3273                            .dwattr $C$DW$247, DW_AT_decl_file("C:/ti/ccs1200/ccs/ccs_base/arm/include/CMSIS/core_cm4.h")
    3274                            .dwattr $C$DW$247, DW_AT_decl_line(0x19f)
    3275                            .dwattr $C$DW$247, DW_AT_decl_column(0x12)
    3276                    
    3277                    $C$DW$248       .dwtag  DW_TAG_member
    3278                            .dwattr $C$DW$248, DW_AT_type(*$C$DW$T$55)
    3279                            .dwattr $C$DW$248, DW_AT_name("IP")
    3280                            .dwattr $C$DW$248, DW_AT_TI_symbol_name("IP")
    3281                            .dwattr $C$DW$248, DW_AT_data_member_location[DW_OP_plus_uconst 0x300]
    3282                            .dwattr $C$DW$248, DW_AT_accessibility(DW_ACCESS_public)
    3283                            .dwattr $C$DW$248, DW_AT_decl_file("C:/ti/ccs1200/ccs/ccs_base/arm/include/CMSIS/core_cm4.h")
    3284                            .dwattr $C$DW$248, DW_AT_decl_line(0x1a0)
    3285                            .dwattr $C$DW$248, DW_AT_decl_column(0x12)
    3286                    
    3287                    $C$DW$249       .dwtag  DW_TAG_member
    3288                            .dwattr $C$DW$249, DW_AT_type(*$C$DW$T$56)
    3289                            .dwattr $C$DW$249, DW_AT_name("RESERVED5")
    3290                            .dwattr $C$DW$249, DW_AT_TI_symbol_name("RESERVED5")
    3291                            .dwattr $C$DW$249, DW_AT_data_member_location[DW_OP_plus_uconst 0x3f0]
    3292                            .dwattr $C$DW$249, DW_AT_accessibility(DW_ACCESS_public)
    3293                            .dwattr $C$DW$249, DW_AT_decl_file("C:/ti/ccs1200/ccs/ccs_base/arm/include/CMSIS/core_cm4.h")
    3294                            .dwattr $C$DW$249, DW_AT_decl_line(0x1a1)
    3295                            .dwattr $C$DW$249, DW_AT_decl_column(0x12)
    3296                    
    3297                    $C$DW$250       .dwtag  DW_TAG_member
    3298                            .dwattr $C$DW$250, DW_AT_type(*$C$DW$T$23)
    3299                            .dwattr $C$DW$250, DW_AT_name("STIR")
    3300                            .dwattr $C$DW$250, DW_AT_TI_symbol_name("STIR")
TI ARM Assembler PC v20.2.6 Mon Oct 31 23:16:56 2022

Copyright (c) 1996-2018 Texas Instruments Incorporated
system_msp432p401r.asm                                               PAGE   61

    3301                            .dwattr $C$DW$250, DW_AT_data_member_location[DW_OP_plus_uconst 0xe00]
    3302                            .dwattr $C$DW$250, DW_AT_accessibility(DW_ACCESS_public)
    3303                            .dwattr $C$DW$250, DW_AT_decl_file("C:/ti/ccs1200/ccs/ccs_base/arm/include/CMSIS/core_cm4.h")
    3304                            .dwattr $C$DW$250, DW_AT_decl_line(0x1a2)
    3305                            .dwattr $C$DW$250, DW_AT_decl_column(0x12)
    3306                    
    3307                            .dwattr $C$DW$T$57, DW_AT_decl_file("C:/ti/ccs1200/ccs/ccs_base/arm/include/CMSIS/core_cm4.h")
    3308                            .dwattr $C$DW$T$57, DW_AT_decl_line(0x195)
    3309                            .dwattr $C$DW$T$57, DW_AT_decl_column(0x01)
    3310                            .dwendtag $C$DW$T$57
    3311                    
    3312                    $C$DW$T$192     .dwtag  DW_TAG_typedef
    3313                            .dwattr $C$DW$T$192, DW_AT_name("NVIC_Type")
    3314                            .dwattr $C$DW$T$192, DW_AT_type(*$C$DW$T$57)
    3315                            .dwattr $C$DW$T$192, DW_AT_language(DW_LANG_C)
    3316                            .dwattr $C$DW$T$192, DW_AT_decl_file("C:/ti/ccs1200/ccs/ccs_base/arm/include/CMSIS/core_cm4.h"
    3317                            .dwattr $C$DW$T$192, DW_AT_decl_line(0x1a3)
    3318                            .dwattr $C$DW$T$192, DW_AT_decl_column(0x04)
    3319                    
    3320                    
    3321                    $C$DW$T$59      .dwtag  DW_TAG_structure_type
    3322                            .dwattr $C$DW$T$59, DW_AT_byte_size(0x0c)
    3323                    $C$DW$251       .dwtag  DW_TAG_member
    3324                            .dwattr $C$DW$251, DW_AT_type(*$C$DW$T$58)
    3325                            .dwattr $C$DW$251, DW_AT_name("RESERVED0")
    3326                            .dwattr $C$DW$251, DW_AT_TI_symbol_name("RESERVED0")
    3327                            .dwattr $C$DW$251, DW_AT_data_member_location[DW_OP_plus_uconst 0x0]
    3328                            .dwattr $C$DW$251, DW_AT_accessibility(DW_ACCESS_public)
    3329                            .dwattr $C$DW$251, DW_AT_decl_file("C:/ti/ccs1200/ccs/ccs_base/arm/include/CMSIS/core_cm4.h")
    3330                            .dwattr $C$DW$251, DW_AT_decl_line(0x2cf)
    3331                            .dwattr $C$DW$251, DW_AT_decl_column(0x12)
    3332                    
    3333                    $C$DW$252       .dwtag  DW_TAG_member
    3334                            .dwattr $C$DW$252, DW_AT_type(*$C$DW$T$25)
    3335                            .dwattr $C$DW$252, DW_AT_name("ICTR")
    3336                            .dwattr $C$DW$252, DW_AT_TI_symbol_name("ICTR")
    3337                            .dwattr $C$DW$252, DW_AT_data_member_location[DW_OP_plus_uconst 0x4]
    3338                            .dwattr $C$DW$252, DW_AT_accessibility(DW_ACCESS_public)
    3339                            .dwattr $C$DW$252, DW_AT_decl_file("C:/ti/ccs1200/ccs/ccs_base/arm/include/CMSIS/core_cm4.h")
    3340                            .dwattr $C$DW$252, DW_AT_decl_line(0x2d0)
    3341                            .dwattr $C$DW$252, DW_AT_decl_column(0x12)
    3342                    
    3343                    $C$DW$253       .dwtag  DW_TAG_member
    3344                            .dwattr $C$DW$253, DW_AT_type(*$C$DW$T$23)
    3345                            .dwattr $C$DW$253, DW_AT_name("ACTLR")
    3346                            .dwattr $C$DW$253, DW_AT_TI_symbol_name("ACTLR")
    3347                            .dwattr $C$DW$253, DW_AT_data_member_location[DW_OP_plus_uconst 0x8]
    3348                            .dwattr $C$DW$253, DW_AT_accessibility(DW_ACCESS_public)
    3349                            .dwattr $C$DW$253, DW_AT_decl_file("C:/ti/ccs1200/ccs/ccs_base/arm/include/CMSIS/core_cm4.h")
    3350                            .dwattr $C$DW$253, DW_AT_decl_line(0x2d1)
    3351                            .dwattr $C$DW$253, DW_AT_decl_column(0x12)
    3352                    
    3353                            .dwattr $C$DW$T$59, DW_AT_decl_file("C:/ti/ccs1200/ccs/ccs_base/arm/include/CMSIS/core_cm4.h")
    3354                            .dwattr $C$DW$T$59, DW_AT_decl_line(0x2ce)
    3355                            .dwattr $C$DW$T$59, DW_AT_decl_column(0x01)
TI ARM Assembler PC v20.2.6 Mon Oct 31 23:16:56 2022

Copyright (c) 1996-2018 Texas Instruments Incorporated
system_msp432p401r.asm                                               PAGE   62

    3356                            .dwendtag $C$DW$T$59
    3357                    
    3358                    $C$DW$T$193     .dwtag  DW_TAG_typedef
    3359                            .dwattr $C$DW$T$193, DW_AT_name("SCnSCB_Type")
    3360                            .dwattr $C$DW$T$193, DW_AT_type(*$C$DW$T$59)
    3361                            .dwattr $C$DW$T$193, DW_AT_language(DW_LANG_C)
    3362                            .dwattr $C$DW$T$193, DW_AT_decl_file("C:/ti/ccs1200/ccs/ccs_base/arm/include/CMSIS/core_cm4.h"
    3363                            .dwattr $C$DW$T$193, DW_AT_decl_line(0x2d2)
    3364                            .dwattr $C$DW$T$193, DW_AT_decl_column(0x03)
    3365                    
    3366                    
    3367                    $C$DW$T$60      .dwtag  DW_TAG_structure_type
    3368                            .dwattr $C$DW$T$60, DW_AT_byte_size(0x10)
    3369                    $C$DW$254       .dwtag  DW_TAG_member
    3370                            .dwattr $C$DW$254, DW_AT_type(*$C$DW$T$23)
    3371                            .dwattr $C$DW$254, DW_AT_name("CTRL")
    3372                            .dwattr $C$DW$254, DW_AT_TI_symbol_name("CTRL")
    3373                            .dwattr $C$DW$254, DW_AT_data_member_location[DW_OP_plus_uconst 0x0]
    3374                            .dwattr $C$DW$254, DW_AT_accessibility(DW_ACCESS_public)
    3375                            .dwattr $C$DW$254, DW_AT_decl_file("C:/ti/ccs1200/ccs/ccs_base/arm/include/CMSIS/core_cm4.h")
    3376                            .dwattr $C$DW$254, DW_AT_decl_line(0x2f7)
    3377                            .dwattr $C$DW$254, DW_AT_decl_column(0x12)
    3378                    
    3379                    $C$DW$255       .dwtag  DW_TAG_member
    3380                            .dwattr $C$DW$255, DW_AT_type(*$C$DW$T$23)
    3381                            .dwattr $C$DW$255, DW_AT_name("LOAD")
    3382                            .dwattr $C$DW$255, DW_AT_TI_symbol_name("LOAD")
    3383                            .dwattr $C$DW$255, DW_AT_data_member_location[DW_OP_plus_uconst 0x4]
    3384                            .dwattr $C$DW$255, DW_AT_accessibility(DW_ACCESS_public)
    3385                            .dwattr $C$DW$255, DW_AT_decl_file("C:/ti/ccs1200/ccs/ccs_base/arm/include/CMSIS/core_cm4.h")
    3386                            .dwattr $C$DW$255, DW_AT_decl_line(0x2f8)
    3387                            .dwattr $C$DW$255, DW_AT_decl_column(0x12)
    3388                    
    3389                    $C$DW$256       .dwtag  DW_TAG_member
    3390                            .dwattr $C$DW$256, DW_AT_type(*$C$DW$T$23)
    3391                            .dwattr $C$DW$256, DW_AT_name("VAL")
    3392                            .dwattr $C$DW$256, DW_AT_TI_symbol_name("VAL")
    3393                            .dwattr $C$DW$256, DW_AT_data_member_location[DW_OP_plus_uconst 0x8]
    3394                            .dwattr $C$DW$256, DW_AT_accessibility(DW_ACCESS_public)
    3395                            .dwattr $C$DW$256, DW_AT_decl_file("C:/ti/ccs1200/ccs/ccs_base/arm/include/CMSIS/core_cm4.h")
    3396                            .dwattr $C$DW$256, DW_AT_decl_line(0x2f9)
    3397                            .dwattr $C$DW$256, DW_AT_decl_column(0x12)
    3398                    
    3399                    $C$DW$257       .dwtag  DW_TAG_member
    3400                            .dwattr $C$DW$257, DW_AT_type(*$C$DW$T$25)
    3401                            .dwattr $C$DW$257, DW_AT_name("CALIB")
    3402                            .dwattr $C$DW$257, DW_AT_TI_symbol_name("CALIB")
    3403                            .dwattr $C$DW$257, DW_AT_data_member_location[DW_OP_plus_uconst 0xc]
    3404                            .dwattr $C$DW$257, DW_AT_accessibility(DW_ACCESS_public)
    3405                            .dwattr $C$DW$257, DW_AT_decl_file("C:/ti/ccs1200/ccs/ccs_base/arm/include/CMSIS/core_cm4.h")
    3406                            .dwattr $C$DW$257, DW_AT_decl_line(0x2fa)
    3407                            .dwattr $C$DW$257, DW_AT_decl_column(0x12)
    3408                    
    3409                            .dwattr $C$DW$T$60, DW_AT_decl_file("C:/ti/ccs1200/ccs/ccs_base/arm/include/CMSIS/core_cm4.h")
    3410                            .dwattr $C$DW$T$60, DW_AT_decl_line(0x2f6)
TI ARM Assembler PC v20.2.6 Mon Oct 31 23:16:56 2022

Copyright (c) 1996-2018 Texas Instruments Incorporated
system_msp432p401r.asm                                               PAGE   63

    3411                            .dwattr $C$DW$T$60, DW_AT_decl_column(0x01)
    3412                            .dwendtag $C$DW$T$60
    3413                    
    3414                    $C$DW$T$194     .dwtag  DW_TAG_typedef
    3415                            .dwattr $C$DW$T$194, DW_AT_name("SysTick_Type")
    3416                            .dwattr $C$DW$T$194, DW_AT_type(*$C$DW$T$60)
    3417                            .dwattr $C$DW$T$194, DW_AT_language(DW_LANG_C)
    3418                            .dwattr $C$DW$T$194, DW_AT_decl_file("C:/ti/ccs1200/ccs/ccs_base/arm/include/CMSIS/core_cm4.h"
    3419                            .dwattr $C$DW$T$194, DW_AT_decl_line(0x2fb)
    3420                            .dwattr $C$DW$T$194, DW_AT_decl_column(0x03)
    3421                    
    3422                    
    3423                    $C$DW$T$68      .dwtag  DW_TAG_structure_type
    3424                            .dwattr $C$DW$T$68, DW_AT_byte_size(0x1000)
    3425                    $C$DW$258       .dwtag  DW_TAG_member
    3426                            .dwattr $C$DW$258, DW_AT_type(*$C$DW$T$62)
    3427                            .dwattr $C$DW$258, DW_AT_name("PORT")
    3428                            .dwattr $C$DW$258, DW_AT_TI_symbol_name("PORT")
    3429                            .dwattr $C$DW$258, DW_AT_data_member_location[DW_OP_plus_uconst 0x0]
    3430                            .dwattr $C$DW$258, DW_AT_accessibility(DW_ACCESS_public)
    3431                            .dwattr $C$DW$258, DW_AT_decl_file("C:/ti/ccs1200/ccs/ccs_base/arm/include/CMSIS/core_cm4.h")
    3432                            .dwattr $C$DW$258, DW_AT_decl_line(0x330)
    3433                            .dwattr $C$DW$258, DW_AT_decl_column(0x06)
    3434                    
    3435                    $C$DW$259       .dwtag  DW_TAG_member
    3436                            .dwattr $C$DW$259, DW_AT_type(*$C$DW$T$63)
    3437                            .dwattr $C$DW$259, DW_AT_name("RESERVED0")
    3438                            .dwattr $C$DW$259, DW_AT_TI_symbol_name("RESERVED0")
    3439                            .dwattr $C$DW$259, DW_AT_data_member_location[DW_OP_plus_uconst 0x80]
    3440                            .dwattr $C$DW$259, DW_AT_accessibility(DW_ACCESS_public)
    3441                            .dwattr $C$DW$259, DW_AT_decl_file("C:/ti/ccs1200/ccs/ccs_base/arm/include/CMSIS/core_cm4.h")
    3442                            .dwattr $C$DW$259, DW_AT_decl_line(0x331)
    3443                            .dwattr $C$DW$259, DW_AT_decl_column(0x12)
    3444                    
    3445                    $C$DW$260       .dwtag  DW_TAG_member
    3446                            .dwattr $C$DW$260, DW_AT_type(*$C$DW$T$23)
    3447                            .dwattr $C$DW$260, DW_AT_name("TER")
    3448                            .dwattr $C$DW$260, DW_AT_TI_symbol_name("TER")
    3449                            .dwattr $C$DW$260, DW_AT_data_member_location[DW_OP_plus_uconst 0xe00]
    3450                            .dwattr $C$DW$260, DW_AT_accessibility(DW_ACCESS_public)
    3451                            .dwattr $C$DW$260, DW_AT_decl_file("C:/ti/ccs1200/ccs/ccs_base/arm/include/CMSIS/core_cm4.h")
    3452                            .dwattr $C$DW$260, DW_AT_decl_line(0x332)
    3453                            .dwattr $C$DW$260, DW_AT_decl_column(0x12)
    3454                    
    3455                    $C$DW$261       .dwtag  DW_TAG_member
    3456                            .dwattr $C$DW$261, DW_AT_type(*$C$DW$T$64)
    3457                            .dwattr $C$DW$261, DW_AT_name("RESERVED1")
    3458                            .dwattr $C$DW$261, DW_AT_TI_symbol_name("RESERVED1")
    3459                            .dwattr $C$DW$261, DW_AT_data_member_location[DW_OP_plus_uconst 0xe04]
    3460                            .dwattr $C$DW$261, DW_AT_accessibility(DW_ACCESS_public)
    3461                            .dwattr $C$DW$261, DW_AT_decl_file("C:/ti/ccs1200/ccs/ccs_base/arm/include/CMSIS/core_cm4.h")
    3462                            .dwattr $C$DW$261, DW_AT_decl_line(0x333)
    3463                            .dwattr $C$DW$261, DW_AT_decl_column(0x12)
    3464                    
    3465                    $C$DW$262       .dwtag  DW_TAG_member
TI ARM Assembler PC v20.2.6 Mon Oct 31 23:16:56 2022

Copyright (c) 1996-2018 Texas Instruments Incorporated
system_msp432p401r.asm                                               PAGE   64

    3466                            .dwattr $C$DW$262, DW_AT_type(*$C$DW$T$23)
    3467                            .dwattr $C$DW$262, DW_AT_name("TPR")
    3468                            .dwattr $C$DW$262, DW_AT_TI_symbol_name("TPR")
    3469                            .dwattr $C$DW$262, DW_AT_data_member_location[DW_OP_plus_uconst 0xe40]
    3470                            .dwattr $C$DW$262, DW_AT_accessibility(DW_ACCESS_public)
    3471                            .dwattr $C$DW$262, DW_AT_decl_file("C:/ti/ccs1200/ccs/ccs_base/arm/include/CMSIS/core_cm4.h")
    3472                            .dwattr $C$DW$262, DW_AT_decl_line(0x334)
    3473                            .dwattr $C$DW$262, DW_AT_decl_column(0x12)
    3474                    
    3475                    $C$DW$263       .dwtag  DW_TAG_member
    3476                            .dwattr $C$DW$263, DW_AT_type(*$C$DW$T$64)
    3477                            .dwattr $C$DW$263, DW_AT_name("RESERVED2")
    3478                            .dwattr $C$DW$263, DW_AT_TI_symbol_name("RESERVED2")
    3479                            .dwattr $C$DW$263, DW_AT_data_member_location[DW_OP_plus_uconst 0xe44]
    3480                            .dwattr $C$DW$263, DW_AT_accessibility(DW_ACCESS_public)
    3481                            .dwattr $C$DW$263, DW_AT_decl_file("C:/ti/ccs1200/ccs/ccs_base/arm/include/CMSIS/core_cm4.h")
    3482                            .dwattr $C$DW$263, DW_AT_decl_line(0x335)
    3483                            .dwattr $C$DW$263, DW_AT_decl_column(0x12)
    3484                    
    3485                    $C$DW$264       .dwtag  DW_TAG_member
    3486                            .dwattr $C$DW$264, DW_AT_type(*$C$DW$T$23)
    3487                            .dwattr $C$DW$264, DW_AT_name("TCR")
    3488                            .dwattr $C$DW$264, DW_AT_TI_symbol_name("TCR")
    3489                            .dwattr $C$DW$264, DW_AT_data_member_location[DW_OP_plus_uconst 0xe80]
    3490                            .dwattr $C$DW$264, DW_AT_accessibility(DW_ACCESS_public)
    3491                            .dwattr $C$DW$264, DW_AT_decl_file("C:/ti/ccs1200/ccs/ccs_base/arm/include/CMSIS/core_cm4.h")
    3492                            .dwattr $C$DW$264, DW_AT_decl_line(0x336)
    3493                            .dwattr $C$DW$264, DW_AT_decl_column(0x12)
    3494                    
    3495                    $C$DW$265       .dwtag  DW_TAG_member
    3496                            .dwattr $C$DW$265, DW_AT_type(*$C$DW$T$65)
    3497                            .dwattr $C$DW$265, DW_AT_name("RESERVED3")
    3498                            .dwattr $C$DW$265, DW_AT_TI_symbol_name("RESERVED3")
    3499                            .dwattr $C$DW$265, DW_AT_data_member_location[DW_OP_plus_uconst 0xe84]
    3500                            .dwattr $C$DW$265, DW_AT_accessibility(DW_ACCESS_public)
    3501                            .dwattr $C$DW$265, DW_AT_decl_file("C:/ti/ccs1200/ccs/ccs_base/arm/include/CMSIS/core_cm4.h")
    3502                            .dwattr $C$DW$265, DW_AT_decl_line(0x337)
    3503                            .dwattr $C$DW$265, DW_AT_decl_column(0x12)
    3504                    
    3505                    $C$DW$266       .dwtag  DW_TAG_member
    3506                            .dwattr $C$DW$266, DW_AT_type(*$C$DW$T$23)
    3507                            .dwattr $C$DW$266, DW_AT_name("IWR")
    3508                            .dwattr $C$DW$266, DW_AT_TI_symbol_name("IWR")
    3509                            .dwattr $C$DW$266, DW_AT_data_member_location[DW_OP_plus_uconst 0xef8]
    3510                            .dwattr $C$DW$266, DW_AT_accessibility(DW_ACCESS_public)
    3511                            .dwattr $C$DW$266, DW_AT_decl_file("C:/ti/ccs1200/ccs/ccs_base/arm/include/CMSIS/core_cm4.h")
    3512                            .dwattr $C$DW$266, DW_AT_decl_line(0x338)
    3513                            .dwattr $C$DW$266, DW_AT_decl_column(0x12)
    3514                    
    3515                    $C$DW$267       .dwtag  DW_TAG_member
    3516                            .dwattr $C$DW$267, DW_AT_type(*$C$DW$T$25)
    3517                            .dwattr $C$DW$267, DW_AT_name("IRR")
    3518                            .dwattr $C$DW$267, DW_AT_TI_symbol_name("IRR")
    3519                            .dwattr $C$DW$267, DW_AT_data_member_location[DW_OP_plus_uconst 0xefc]
    3520                            .dwattr $C$DW$267, DW_AT_accessibility(DW_ACCESS_public)
TI ARM Assembler PC v20.2.6 Mon Oct 31 23:16:56 2022

Copyright (c) 1996-2018 Texas Instruments Incorporated
system_msp432p401r.asm                                               PAGE   65

    3521                            .dwattr $C$DW$267, DW_AT_decl_file("C:/ti/ccs1200/ccs/ccs_base/arm/include/CMSIS/core_cm4.h")
    3522                            .dwattr $C$DW$267, DW_AT_decl_line(0x339)
    3523                            .dwattr $C$DW$267, DW_AT_decl_column(0x12)
    3524                    
    3525                    $C$DW$268       .dwtag  DW_TAG_member
    3526                            .dwattr $C$DW$268, DW_AT_type(*$C$DW$T$23)
    3527                            .dwattr $C$DW$268, DW_AT_name("IMCR")
    3528                            .dwattr $C$DW$268, DW_AT_TI_symbol_name("IMCR")
    3529                            .dwattr $C$DW$268, DW_AT_data_member_location[DW_OP_plus_uconst 0xf00]
    3530                            .dwattr $C$DW$268, DW_AT_accessibility(DW_ACCESS_public)
    3531                            .dwattr $C$DW$268, DW_AT_decl_file("C:/ti/ccs1200/ccs/ccs_base/arm/include/CMSIS/core_cm4.h")
    3532                            .dwattr $C$DW$268, DW_AT_decl_line(0x33a)
    3533                            .dwattr $C$DW$268, DW_AT_decl_column(0x12)
    3534                    
    3535                    $C$DW$269       .dwtag  DW_TAG_member
    3536                            .dwattr $C$DW$269, DW_AT_type(*$C$DW$T$66)
    3537                            .dwattr $C$DW$269, DW_AT_name("RESERVED4")
    3538                            .dwattr $C$DW$269, DW_AT_TI_symbol_name("RESERVED4")
    3539                            .dwattr $C$DW$269, DW_AT_data_member_location[DW_OP_plus_uconst 0xf04]
    3540                            .dwattr $C$DW$269, DW_AT_accessibility(DW_ACCESS_public)
    3541                            .dwattr $C$DW$269, DW_AT_decl_file("C:/ti/ccs1200/ccs/ccs_base/arm/include/CMSIS/core_cm4.h")
    3542                            .dwattr $C$DW$269, DW_AT_decl_line(0x33b)
    3543                            .dwattr $C$DW$269, DW_AT_decl_column(0x12)
    3544                    
    3545                    $C$DW$270       .dwtag  DW_TAG_member
    3546                            .dwattr $C$DW$270, DW_AT_type(*$C$DW$T$23)
    3547                            .dwattr $C$DW$270, DW_AT_name("LAR")
    3548                            .dwattr $C$DW$270, DW_AT_TI_symbol_name("LAR")
    3549                            .dwattr $C$DW$270, DW_AT_data_member_location[DW_OP_plus_uconst 0xfb0]
    3550                            .dwattr $C$DW$270, DW_AT_accessibility(DW_ACCESS_public)
    3551                            .dwattr $C$DW$270, DW_AT_decl_file("C:/ti/ccs1200/ccs/ccs_base/arm/include/CMSIS/core_cm4.h")
    3552                            .dwattr $C$DW$270, DW_AT_decl_line(0x33c)
    3553                            .dwattr $C$DW$270, DW_AT_decl_column(0x12)
    3554                    
    3555                    $C$DW$271       .dwtag  DW_TAG_member
    3556                            .dwattr $C$DW$271, DW_AT_type(*$C$DW$T$25)
    3557                            .dwattr $C$DW$271, DW_AT_name("LSR")
    3558                            .dwattr $C$DW$271, DW_AT_TI_symbol_name("LSR")
    3559                            .dwattr $C$DW$271, DW_AT_data_member_location[DW_OP_plus_uconst 0xfb4]
    3560                            .dwattr $C$DW$271, DW_AT_accessibility(DW_ACCESS_public)
    3561                            .dwattr $C$DW$271, DW_AT_decl_file("C:/ti/ccs1200/ccs/ccs_base/arm/include/CMSIS/core_cm4.h")
    3562                            .dwattr $C$DW$271, DW_AT_decl_line(0x33d)
    3563                            .dwattr $C$DW$271, DW_AT_decl_column(0x12)
    3564                    
    3565                    $C$DW$272       .dwtag  DW_TAG_member
    3566                            .dwattr $C$DW$272, DW_AT_type(*$C$DW$T$67)
    3567                            .dwattr $C$DW$272, DW_AT_name("RESERVED5")
    3568                            .dwattr $C$DW$272, DW_AT_TI_symbol_name("RESERVED5")
    3569                            .dwattr $C$DW$272, DW_AT_data_member_location[DW_OP_plus_uconst 0xfb8]
    3570                            .dwattr $C$DW$272, DW_AT_accessibility(DW_ACCESS_public)
    3571                            .dwattr $C$DW$272, DW_AT_decl_file("C:/ti/ccs1200/ccs/ccs_base/arm/include/CMSIS/core_cm4.h")
    3572                            .dwattr $C$DW$272, DW_AT_decl_line(0x33e)
    3573                            .dwattr $C$DW$272, DW_AT_decl_column(0x12)
    3574                    
    3575                    $C$DW$273       .dwtag  DW_TAG_member
TI ARM Assembler PC v20.2.6 Mon Oct 31 23:16:56 2022

Copyright (c) 1996-2018 Texas Instruments Incorporated
system_msp432p401r.asm                                               PAGE   66

    3576                            .dwattr $C$DW$273, DW_AT_type(*$C$DW$T$25)
    3577                            .dwattr $C$DW$273, DW_AT_name("PID4")
    3578                            .dwattr $C$DW$273, DW_AT_TI_symbol_name("PID4")
    3579                            .dwattr $C$DW$273, DW_AT_data_member_location[DW_OP_plus_uconst 0xfd0]
    3580                            .dwattr $C$DW$273, DW_AT_accessibility(DW_ACCESS_public)
    3581                            .dwattr $C$DW$273, DW_AT_decl_file("C:/ti/ccs1200/ccs/ccs_base/arm/include/CMSIS/core_cm4.h")
    3582                            .dwattr $C$DW$273, DW_AT_decl_line(0x33f)
    3583                            .dwattr $C$DW$273, DW_AT_decl_column(0x12)
    3584                    
    3585                    $C$DW$274       .dwtag  DW_TAG_member
    3586                            .dwattr $C$DW$274, DW_AT_type(*$C$DW$T$25)
    3587                            .dwattr $C$DW$274, DW_AT_name("PID5")
    3588                            .dwattr $C$DW$274, DW_AT_TI_symbol_name("PID5")
    3589                            .dwattr $C$DW$274, DW_AT_data_member_location[DW_OP_plus_uconst 0xfd4]
    3590                            .dwattr $C$DW$274, DW_AT_accessibility(DW_ACCESS_public)
    3591                            .dwattr $C$DW$274, DW_AT_decl_file("C:/ti/ccs1200/ccs/ccs_base/arm/include/CMSIS/core_cm4.h")
    3592                            .dwattr $C$DW$274, DW_AT_decl_line(0x340)
    3593                            .dwattr $C$DW$274, DW_AT_decl_column(0x12)
    3594                    
    3595                    $C$DW$275       .dwtag  DW_TAG_member
    3596                            .dwattr $C$DW$275, DW_AT_type(*$C$DW$T$25)
    3597                            .dwattr $C$DW$275, DW_AT_name("PID6")
    3598                            .dwattr $C$DW$275, DW_AT_TI_symbol_name("PID6")
    3599                            .dwattr $C$DW$275, DW_AT_data_member_location[DW_OP_plus_uconst 0xfd8]
    3600                            .dwattr $C$DW$275, DW_AT_accessibility(DW_ACCESS_public)
    3601                            .dwattr $C$DW$275, DW_AT_decl_file("C:/ti/ccs1200/ccs/ccs_base/arm/include/CMSIS/core_cm4.h")
    3602                            .dwattr $C$DW$275, DW_AT_decl_line(0x341)
    3603                            .dwattr $C$DW$275, DW_AT_decl_column(0x12)
    3604                    
    3605                    $C$DW$276       .dwtag  DW_TAG_member
    3606                            .dwattr $C$DW$276, DW_AT_type(*$C$DW$T$25)
    3607                            .dwattr $C$DW$276, DW_AT_name("PID7")
    3608                            .dwattr $C$DW$276, DW_AT_TI_symbol_name("PID7")
    3609                            .dwattr $C$DW$276, DW_AT_data_member_location[DW_OP_plus_uconst 0xfdc]
    3610                            .dwattr $C$DW$276, DW_AT_accessibility(DW_ACCESS_public)
    3611                            .dwattr $C$DW$276, DW_AT_decl_file("C:/ti/ccs1200/ccs/ccs_base/arm/include/CMSIS/core_cm4.h")
    3612                            .dwattr $C$DW$276, DW_AT_decl_line(0x342)
    3613                            .dwattr $C$DW$276, DW_AT_decl_column(0x12)
    3614                    
    3615                    $C$DW$277       .dwtag  DW_TAG_member
    3616                            .dwattr $C$DW$277, DW_AT_type(*$C$DW$T$25)
    3617                            .dwattr $C$DW$277, DW_AT_name("PID0")
    3618                            .dwattr $C$DW$277, DW_AT_TI_symbol_name("PID0")
    3619                            .dwattr $C$DW$277, DW_AT_data_member_location[DW_OP_plus_uconst 0xfe0]
    3620                            .dwattr $C$DW$277, DW_AT_accessibility(DW_ACCESS_public)
    3621                            .dwattr $C$DW$277, DW_AT_decl_file("C:/ti/ccs1200/ccs/ccs_base/arm/include/CMSIS/core_cm4.h")
    3622                            .dwattr $C$DW$277, DW_AT_decl_line(0x343)
    3623                            .dwattr $C$DW$277, DW_AT_decl_column(0x12)
    3624                    
    3625                    $C$DW$278       .dwtag  DW_TAG_member
    3626                            .dwattr $C$DW$278, DW_AT_type(*$C$DW$T$25)
    3627                            .dwattr $C$DW$278, DW_AT_name("PID1")
    3628                            .dwattr $C$DW$278, DW_AT_TI_symbol_name("PID1")
    3629                            .dwattr $C$DW$278, DW_AT_data_member_location[DW_OP_plus_uconst 0xfe4]
    3630                            .dwattr $C$DW$278, DW_AT_accessibility(DW_ACCESS_public)
TI ARM Assembler PC v20.2.6 Mon Oct 31 23:16:56 2022

Copyright (c) 1996-2018 Texas Instruments Incorporated
system_msp432p401r.asm                                               PAGE   67

    3631                            .dwattr $C$DW$278, DW_AT_decl_file("C:/ti/ccs1200/ccs/ccs_base/arm/include/CMSIS/core_cm4.h")
    3632                            .dwattr $C$DW$278, DW_AT_decl_line(0x344)
    3633                            .dwattr $C$DW$278, DW_AT_decl_column(0x12)
    3634                    
    3635                    $C$DW$279       .dwtag  DW_TAG_member
    3636                            .dwattr $C$DW$279, DW_AT_type(*$C$DW$T$25)
    3637                            .dwattr $C$DW$279, DW_AT_name("PID2")
    3638                            .dwattr $C$DW$279, DW_AT_TI_symbol_name("PID2")
    3639                            .dwattr $C$DW$279, DW_AT_data_member_location[DW_OP_plus_uconst 0xfe8]
    3640                            .dwattr $C$DW$279, DW_AT_accessibility(DW_ACCESS_public)
    3641                            .dwattr $C$DW$279, DW_AT_decl_file("C:/ti/ccs1200/ccs/ccs_base/arm/include/CMSIS/core_cm4.h")
    3642                            .dwattr $C$DW$279, DW_AT_decl_line(0x345)
    3643                            .dwattr $C$DW$279, DW_AT_decl_column(0x12)
    3644                    
    3645                    $C$DW$280       .dwtag  DW_TAG_member
    3646                            .dwattr $C$DW$280, DW_AT_type(*$C$DW$T$25)
    3647                            .dwattr $C$DW$280, DW_AT_name("PID3")
    3648                            .dwattr $C$DW$280, DW_AT_TI_symbol_name("PID3")
    3649                            .dwattr $C$DW$280, DW_AT_data_member_location[DW_OP_plus_uconst 0xfec]
    3650                            .dwattr $C$DW$280, DW_AT_accessibility(DW_ACCESS_public)
    3651                            .dwattr $C$DW$280, DW_AT_decl_file("C:/ti/ccs1200/ccs/ccs_base/arm/include/CMSIS/core_cm4.h")
    3652                            .dwattr $C$DW$280, DW_AT_decl_line(0x346)
    3653                            .dwattr $C$DW$280, DW_AT_decl_column(0x12)
    3654                    
    3655                    $C$DW$281       .dwtag  DW_TAG_member
    3656                            .dwattr $C$DW$281, DW_AT_type(*$C$DW$T$25)
    3657                            .dwattr $C$DW$281, DW_AT_name("CID0")
    3658                            .dwattr $C$DW$281, DW_AT_TI_symbol_name("CID0")
    3659                            .dwattr $C$DW$281, DW_AT_data_member_location[DW_OP_plus_uconst 0xff0]
    3660                            .dwattr $C$DW$281, DW_AT_accessibility(DW_ACCESS_public)
    3661                            .dwattr $C$DW$281, DW_AT_decl_file("C:/ti/ccs1200/ccs/ccs_base/arm/include/CMSIS/core_cm4.h")
    3662                            .dwattr $C$DW$281, DW_AT_decl_line(0x347)
    3663                            .dwattr $C$DW$281, DW_AT_decl_column(0x12)
    3664                    
    3665                    $C$DW$282       .dwtag  DW_TAG_member
    3666                            .dwattr $C$DW$282, DW_AT_type(*$C$DW$T$25)
    3667                            .dwattr $C$DW$282, DW_AT_name("CID1")
    3668                            .dwattr $C$DW$282, DW_AT_TI_symbol_name("CID1")
    3669                            .dwattr $C$DW$282, DW_AT_data_member_location[DW_OP_plus_uconst 0xff4]
    3670                            .dwattr $C$DW$282, DW_AT_accessibility(DW_ACCESS_public)
    3671                            .dwattr $C$DW$282, DW_AT_decl_file("C:/ti/ccs1200/ccs/ccs_base/arm/include/CMSIS/core_cm4.h")
    3672                            .dwattr $C$DW$282, DW_AT_decl_line(0x348)
    3673                            .dwattr $C$DW$282, DW_AT_decl_column(0x12)
    3674                    
    3675                    $C$DW$283       .dwtag  DW_TAG_member
    3676                            .dwattr $C$DW$283, DW_AT_type(*$C$DW$T$25)
    3677                            .dwattr $C$DW$283, DW_AT_name("CID2")
    3678                            .dwattr $C$DW$283, DW_AT_TI_symbol_name("CID2")
    3679                            .dwattr $C$DW$283, DW_AT_data_member_location[DW_OP_plus_uconst 0xff8]
    3680                            .dwattr $C$DW$283, DW_AT_accessibility(DW_ACCESS_public)
    3681                            .dwattr $C$DW$283, DW_AT_decl_file("C:/ti/ccs1200/ccs/ccs_base/arm/include/CMSIS/core_cm4.h")
    3682                            .dwattr $C$DW$283, DW_AT_decl_line(0x349)
    3683                            .dwattr $C$DW$283, DW_AT_decl_column(0x12)
    3684                    
    3685                    $C$DW$284       .dwtag  DW_TAG_member
TI ARM Assembler PC v20.2.6 Mon Oct 31 23:16:56 2022

Copyright (c) 1996-2018 Texas Instruments Incorporated
system_msp432p401r.asm                                               PAGE   68

    3686                            .dwattr $C$DW$284, DW_AT_type(*$C$DW$T$25)
    3687                            .dwattr $C$DW$284, DW_AT_name("CID3")
    3688                            .dwattr $C$DW$284, DW_AT_TI_symbol_name("CID3")
    3689                            .dwattr $C$DW$284, DW_AT_data_member_location[DW_OP_plus_uconst 0xffc]
    3690                            .dwattr $C$DW$284, DW_AT_accessibility(DW_ACCESS_public)
    3691                            .dwattr $C$DW$284, DW_AT_decl_file("C:/ti/ccs1200/ccs/ccs_base/arm/include/CMSIS/core_cm4.h")
    3692                            .dwattr $C$DW$284, DW_AT_decl_line(0x34a)
    3693                            .dwattr $C$DW$284, DW_AT_decl_column(0x12)
    3694                    
    3695                            .dwattr $C$DW$T$68, DW_AT_decl_file("C:/ti/ccs1200/ccs/ccs_base/arm/include/CMSIS/core_cm4.h")
    3696                            .dwattr $C$DW$T$68, DW_AT_decl_line(0x32a)
    3697                            .dwattr $C$DW$T$68, DW_AT_decl_column(0x01)
    3698                            .dwendtag $C$DW$T$68
    3699                    
    3700                    $C$DW$T$195     .dwtag  DW_TAG_typedef
    3701                            .dwattr $C$DW$T$195, DW_AT_name("ITM_Type")
    3702                            .dwattr $C$DW$T$195, DW_AT_type(*$C$DW$T$68)
    3703                            .dwattr $C$DW$T$195, DW_AT_language(DW_LANG_C)
    3704                            .dwattr $C$DW$T$195, DW_AT_decl_file("C:/ti/ccs1200/ccs/ccs_base/arm/include/CMSIS/core_cm4.h"
    3705                            .dwattr $C$DW$T$195, DW_AT_decl_line(0x34b)
    3706                            .dwattr $C$DW$T$195, DW_AT_decl_column(0x03)
    3707                    
    3708                    
    3709                    $C$DW$T$69      .dwtag  DW_TAG_structure_type
    3710                            .dwattr $C$DW$T$69, DW_AT_byte_size(0x5c)
    3711                    $C$DW$285       .dwtag  DW_TAG_member
    3712                            .dwattr $C$DW$285, DW_AT_type(*$C$DW$T$23)
    3713                            .dwattr $C$DW$285, DW_AT_name("CTRL")
    3714                            .dwattr $C$DW$285, DW_AT_TI_symbol_name("CTRL")
    3715                            .dwattr $C$DW$285, DW_AT_data_member_location[DW_OP_plus_uconst 0x0]
    3716                            .dwattr $C$DW$285, DW_AT_accessibility(DW_ACCESS_public)
    3717                            .dwattr $C$DW$285, DW_AT_decl_file("C:/ti/ccs1200/ccs/ccs_base/arm/include/CMSIS/core_cm4.h")
    3718                            .dwattr $C$DW$285, DW_AT_decl_line(0x392)
    3719                            .dwattr $C$DW$285, DW_AT_decl_column(0x12)
    3720                    
    3721                    $C$DW$286       .dwtag  DW_TAG_member
    3722                            .dwattr $C$DW$286, DW_AT_type(*$C$DW$T$23)
    3723                            .dwattr $C$DW$286, DW_AT_name("CYCCNT")
    3724                            .dwattr $C$DW$286, DW_AT_TI_symbol_name("CYCCNT")
    3725                            .dwattr $C$DW$286, DW_AT_data_member_location[DW_OP_plus_uconst 0x4]
    3726                            .dwattr $C$DW$286, DW_AT_accessibility(DW_ACCESS_public)
    3727                            .dwattr $C$DW$286, DW_AT_decl_file("C:/ti/ccs1200/ccs/ccs_base/arm/include/CMSIS/core_cm4.h")
    3728                            .dwattr $C$DW$286, DW_AT_decl_line(0x393)
    3729                            .dwattr $C$DW$286, DW_AT_decl_column(0x12)
    3730                    
    3731                    $C$DW$287       .dwtag  DW_TAG_member
    3732                            .dwattr $C$DW$287, DW_AT_type(*$C$DW$T$23)
    3733                            .dwattr $C$DW$287, DW_AT_name("CPICNT")
    3734                            .dwattr $C$DW$287, DW_AT_TI_symbol_name("CPICNT")
    3735                            .dwattr $C$DW$287, DW_AT_data_member_location[DW_OP_plus_uconst 0x8]
    3736                            .dwattr $C$DW$287, DW_AT_accessibility(DW_ACCESS_public)
    3737                            .dwattr $C$DW$287, DW_AT_decl_file("C:/ti/ccs1200/ccs/ccs_base/arm/include/CMSIS/core_cm4.h")
    3738                            .dwattr $C$DW$287, DW_AT_decl_line(0x394)
    3739                            .dwattr $C$DW$287, DW_AT_decl_column(0x12)
    3740                    
TI ARM Assembler PC v20.2.6 Mon Oct 31 23:16:56 2022

Copyright (c) 1996-2018 Texas Instruments Incorporated
system_msp432p401r.asm                                               PAGE   69

    3741                    $C$DW$288       .dwtag  DW_TAG_member
    3742                            .dwattr $C$DW$288, DW_AT_type(*$C$DW$T$23)
    3743                            .dwattr $C$DW$288, DW_AT_name("EXCCNT")
    3744                            .dwattr $C$DW$288, DW_AT_TI_symbol_name("EXCCNT")
    3745                            .dwattr $C$DW$288, DW_AT_data_member_location[DW_OP_plus_uconst 0xc]
    3746                            .dwattr $C$DW$288, DW_AT_accessibility(DW_ACCESS_public)
    3747                            .dwattr $C$DW$288, DW_AT_decl_file("C:/ti/ccs1200/ccs/ccs_base/arm/include/CMSIS/core_cm4.h")
    3748                            .dwattr $C$DW$288, DW_AT_decl_line(0x395)
    3749                            .dwattr $C$DW$288, DW_AT_decl_column(0x12)
    3750                    
    3751                    $C$DW$289       .dwtag  DW_TAG_member
    3752                            .dwattr $C$DW$289, DW_AT_type(*$C$DW$T$23)
    3753                            .dwattr $C$DW$289, DW_AT_name("SLEEPCNT")
    3754                            .dwattr $C$DW$289, DW_AT_TI_symbol_name("SLEEPCNT")
    3755                            .dwattr $C$DW$289, DW_AT_data_member_location[DW_OP_plus_uconst 0x10]
    3756                            .dwattr $C$DW$289, DW_AT_accessibility(DW_ACCESS_public)
    3757                            .dwattr $C$DW$289, DW_AT_decl_file("C:/ti/ccs1200/ccs/ccs_base/arm/include/CMSIS/core_cm4.h")
    3758                            .dwattr $C$DW$289, DW_AT_decl_line(0x396)
    3759                            .dwattr $C$DW$289, DW_AT_decl_column(0x12)
    3760                    
    3761                    $C$DW$290       .dwtag  DW_TAG_member
    3762                            .dwattr $C$DW$290, DW_AT_type(*$C$DW$T$23)
    3763                            .dwattr $C$DW$290, DW_AT_name("LSUCNT")
    3764                            .dwattr $C$DW$290, DW_AT_TI_symbol_name("LSUCNT")
    3765                            .dwattr $C$DW$290, DW_AT_data_member_location[DW_OP_plus_uconst 0x14]
    3766                            .dwattr $C$DW$290, DW_AT_accessibility(DW_ACCESS_public)
    3767                            .dwattr $C$DW$290, DW_AT_decl_file("C:/ti/ccs1200/ccs/ccs_base/arm/include/CMSIS/core_cm4.h")
    3768                            .dwattr $C$DW$290, DW_AT_decl_line(0x397)
    3769                            .dwattr $C$DW$290, DW_AT_decl_column(0x12)
    3770                    
    3771                    $C$DW$291       .dwtag  DW_TAG_member
    3772                            .dwattr $C$DW$291, DW_AT_type(*$C$DW$T$23)
    3773                            .dwattr $C$DW$291, DW_AT_name("FOLDCNT")
    3774                            .dwattr $C$DW$291, DW_AT_TI_symbol_name("FOLDCNT")
    3775                            .dwattr $C$DW$291, DW_AT_data_member_location[DW_OP_plus_uconst 0x18]
    3776                            .dwattr $C$DW$291, DW_AT_accessibility(DW_ACCESS_public)
    3777                            .dwattr $C$DW$291, DW_AT_decl_file("C:/ti/ccs1200/ccs/ccs_base/arm/include/CMSIS/core_cm4.h")
    3778                            .dwattr $C$DW$291, DW_AT_decl_line(0x398)
    3779                            .dwattr $C$DW$291, DW_AT_decl_column(0x12)
    3780                    
    3781                    $C$DW$292       .dwtag  DW_TAG_member
    3782                            .dwattr $C$DW$292, DW_AT_type(*$C$DW$T$25)
    3783                            .dwattr $C$DW$292, DW_AT_name("PCSR")
    3784                            .dwattr $C$DW$292, DW_AT_TI_symbol_name("PCSR")
    3785                            .dwattr $C$DW$292, DW_AT_data_member_location[DW_OP_plus_uconst 0x1c]
    3786                            .dwattr $C$DW$292, DW_AT_accessibility(DW_ACCESS_public)
    3787                            .dwattr $C$DW$292, DW_AT_decl_file("C:/ti/ccs1200/ccs/ccs_base/arm/include/CMSIS/core_cm4.h")
    3788                            .dwattr $C$DW$292, DW_AT_decl_line(0x399)
    3789                            .dwattr $C$DW$292, DW_AT_decl_column(0x12)
    3790                    
    3791                    $C$DW$293       .dwtag  DW_TAG_member
    3792                            .dwattr $C$DW$293, DW_AT_type(*$C$DW$T$23)
    3793                            .dwattr $C$DW$293, DW_AT_name("COMP0")
    3794                            .dwattr $C$DW$293, DW_AT_TI_symbol_name("COMP0")
    3795                            .dwattr $C$DW$293, DW_AT_data_member_location[DW_OP_plus_uconst 0x20]
TI ARM Assembler PC v20.2.6 Mon Oct 31 23:16:56 2022

Copyright (c) 1996-2018 Texas Instruments Incorporated
system_msp432p401r.asm                                               PAGE   70

    3796                            .dwattr $C$DW$293, DW_AT_accessibility(DW_ACCESS_public)
    3797                            .dwattr $C$DW$293, DW_AT_decl_file("C:/ti/ccs1200/ccs/ccs_base/arm/include/CMSIS/core_cm4.h")
    3798                            .dwattr $C$DW$293, DW_AT_decl_line(0x39a)
    3799                            .dwattr $C$DW$293, DW_AT_decl_column(0x12)
    3800                    
    3801                    $C$DW$294       .dwtag  DW_TAG_member
    3802                            .dwattr $C$DW$294, DW_AT_type(*$C$DW$T$23)
    3803                            .dwattr $C$DW$294, DW_AT_name("MASK0")
    3804                            .dwattr $C$DW$294, DW_AT_TI_symbol_name("MASK0")
    3805                            .dwattr $C$DW$294, DW_AT_data_member_location[DW_OP_plus_uconst 0x24]
    3806                            .dwattr $C$DW$294, DW_AT_accessibility(DW_ACCESS_public)
    3807                            .dwattr $C$DW$294, DW_AT_decl_file("C:/ti/ccs1200/ccs/ccs_base/arm/include/CMSIS/core_cm4.h")
    3808                            .dwattr $C$DW$294, DW_AT_decl_line(0x39b)
    3809                            .dwattr $C$DW$294, DW_AT_decl_column(0x12)
    3810                    
    3811                    $C$DW$295       .dwtag  DW_TAG_member
    3812                            .dwattr $C$DW$295, DW_AT_type(*$C$DW$T$23)
    3813                            .dwattr $C$DW$295, DW_AT_name("FUNCTION0")
    3814                            .dwattr $C$DW$295, DW_AT_TI_symbol_name("FUNCTION0")
    3815                            .dwattr $C$DW$295, DW_AT_data_member_location[DW_OP_plus_uconst 0x28]
    3816                            .dwattr $C$DW$295, DW_AT_accessibility(DW_ACCESS_public)
    3817                            .dwattr $C$DW$295, DW_AT_decl_file("C:/ti/ccs1200/ccs/ccs_base/arm/include/CMSIS/core_cm4.h")
    3818                            .dwattr $C$DW$295, DW_AT_decl_line(0x39c)
    3819                            .dwattr $C$DW$295, DW_AT_decl_column(0x12)
    3820                    
    3821                    $C$DW$296       .dwtag  DW_TAG_member
    3822                            .dwattr $C$DW$296, DW_AT_type(*$C$DW$T$58)
    3823                            .dwattr $C$DW$296, DW_AT_name("RESERVED0")
    3824                            .dwattr $C$DW$296, DW_AT_TI_symbol_name("RESERVED0")
    3825                            .dwattr $C$DW$296, DW_AT_data_member_location[DW_OP_plus_uconst 0x2c]
    3826                            .dwattr $C$DW$296, DW_AT_accessibility(DW_ACCESS_public)
    3827                            .dwattr $C$DW$296, DW_AT_decl_file("C:/ti/ccs1200/ccs/ccs_base/arm/include/CMSIS/core_cm4.h")
    3828                            .dwattr $C$DW$296, DW_AT_decl_line(0x39d)
    3829                            .dwattr $C$DW$296, DW_AT_decl_column(0x12)
    3830                    
    3831                    $C$DW$297       .dwtag  DW_TAG_member
    3832                            .dwattr $C$DW$297, DW_AT_type(*$C$DW$T$23)
    3833                            .dwattr $C$DW$297, DW_AT_name("COMP1")
    3834                            .dwattr $C$DW$297, DW_AT_TI_symbol_name("COMP1")
    3835                            .dwattr $C$DW$297, DW_AT_data_member_location[DW_OP_plus_uconst 0x30]
    3836                            .dwattr $C$DW$297, DW_AT_accessibility(DW_ACCESS_public)
    3837                            .dwattr $C$DW$297, DW_AT_decl_file("C:/ti/ccs1200/ccs/ccs_base/arm/include/CMSIS/core_cm4.h")
    3838                            .dwattr $C$DW$297, DW_AT_decl_line(0x39e)
    3839                            .dwattr $C$DW$297, DW_AT_decl_column(0x12)
    3840                    
    3841                    $C$DW$298       .dwtag  DW_TAG_member
    3842                            .dwattr $C$DW$298, DW_AT_type(*$C$DW$T$23)
    3843                            .dwattr $C$DW$298, DW_AT_name("MASK1")
    3844                            .dwattr $C$DW$298, DW_AT_TI_symbol_name("MASK1")
    3845                            .dwattr $C$DW$298, DW_AT_data_member_location[DW_OP_plus_uconst 0x34]
    3846                            .dwattr $C$DW$298, DW_AT_accessibility(DW_ACCESS_public)
    3847                            .dwattr $C$DW$298, DW_AT_decl_file("C:/ti/ccs1200/ccs/ccs_base/arm/include/CMSIS/core_cm4.h")
    3848                            .dwattr $C$DW$298, DW_AT_decl_line(0x39f)
    3849                            .dwattr $C$DW$298, DW_AT_decl_column(0x12)
    3850                    
TI ARM Assembler PC v20.2.6 Mon Oct 31 23:16:56 2022

Copyright (c) 1996-2018 Texas Instruments Incorporated
system_msp432p401r.asm                                               PAGE   71

    3851                    $C$DW$299       .dwtag  DW_TAG_member
    3852                            .dwattr $C$DW$299, DW_AT_type(*$C$DW$T$23)
    3853                            .dwattr $C$DW$299, DW_AT_name("FUNCTION1")
    3854                            .dwattr $C$DW$299, DW_AT_TI_symbol_name("FUNCTION1")
    3855                            .dwattr $C$DW$299, DW_AT_data_member_location[DW_OP_plus_uconst 0x38]
    3856                            .dwattr $C$DW$299, DW_AT_accessibility(DW_ACCESS_public)
    3857                            .dwattr $C$DW$299, DW_AT_decl_file("C:/ti/ccs1200/ccs/ccs_base/arm/include/CMSIS/core_cm4.h")
    3858                            .dwattr $C$DW$299, DW_AT_decl_line(0x3a0)
    3859                            .dwattr $C$DW$299, DW_AT_decl_column(0x12)
    3860                    
    3861                    $C$DW$300       .dwtag  DW_TAG_member
    3862                            .dwattr $C$DW$300, DW_AT_type(*$C$DW$T$58)
    3863                            .dwattr $C$DW$300, DW_AT_name("RESERVED1")
    3864                            .dwattr $C$DW$300, DW_AT_TI_symbol_name("RESERVED1")
    3865                            .dwattr $C$DW$300, DW_AT_data_member_location[DW_OP_plus_uconst 0x3c]
    3866                            .dwattr $C$DW$300, DW_AT_accessibility(DW_ACCESS_public)
    3867                            .dwattr $C$DW$300, DW_AT_decl_file("C:/ti/ccs1200/ccs/ccs_base/arm/include/CMSIS/core_cm4.h")
    3868                            .dwattr $C$DW$300, DW_AT_decl_line(0x3a1)
    3869                            .dwattr $C$DW$300, DW_AT_decl_column(0x12)
    3870                    
    3871                    $C$DW$301       .dwtag  DW_TAG_member
    3872                            .dwattr $C$DW$301, DW_AT_type(*$C$DW$T$23)
    3873                            .dwattr $C$DW$301, DW_AT_name("COMP2")
    3874                            .dwattr $C$DW$301, DW_AT_TI_symbol_name("COMP2")
    3875                            .dwattr $C$DW$301, DW_AT_data_member_location[DW_OP_plus_uconst 0x40]
    3876                            .dwattr $C$DW$301, DW_AT_accessibility(DW_ACCESS_public)
    3877                            .dwattr $C$DW$301, DW_AT_decl_file("C:/ti/ccs1200/ccs/ccs_base/arm/include/CMSIS/core_cm4.h")
    3878                            .dwattr $C$DW$301, DW_AT_decl_line(0x3a2)
    3879                            .dwattr $C$DW$301, DW_AT_decl_column(0x12)
    3880                    
    3881                    $C$DW$302       .dwtag  DW_TAG_member
    3882                            .dwattr $C$DW$302, DW_AT_type(*$C$DW$T$23)
    3883                            .dwattr $C$DW$302, DW_AT_name("MASK2")
    3884                            .dwattr $C$DW$302, DW_AT_TI_symbol_name("MASK2")
    3885                            .dwattr $C$DW$302, DW_AT_data_member_location[DW_OP_plus_uconst 0x44]
    3886                            .dwattr $C$DW$302, DW_AT_accessibility(DW_ACCESS_public)
    3887                            .dwattr $C$DW$302, DW_AT_decl_file("C:/ti/ccs1200/ccs/ccs_base/arm/include/CMSIS/core_cm4.h")
    3888                            .dwattr $C$DW$302, DW_AT_decl_line(0x3a3)
    3889                            .dwattr $C$DW$302, DW_AT_decl_column(0x12)
    3890                    
    3891                    $C$DW$303       .dwtag  DW_TAG_member
    3892                            .dwattr $C$DW$303, DW_AT_type(*$C$DW$T$23)
    3893                            .dwattr $C$DW$303, DW_AT_name("FUNCTION2")
    3894                            .dwattr $C$DW$303, DW_AT_TI_symbol_name("FUNCTION2")
    3895                            .dwattr $C$DW$303, DW_AT_data_member_location[DW_OP_plus_uconst 0x48]
    3896                            .dwattr $C$DW$303, DW_AT_accessibility(DW_ACCESS_public)
    3897                            .dwattr $C$DW$303, DW_AT_decl_file("C:/ti/ccs1200/ccs/ccs_base/arm/include/CMSIS/core_cm4.h")
    3898                            .dwattr $C$DW$303, DW_AT_decl_line(0x3a4)
    3899                            .dwattr $C$DW$303, DW_AT_decl_column(0x12)
    3900                    
    3901                    $C$DW$304       .dwtag  DW_TAG_member
    3902                            .dwattr $C$DW$304, DW_AT_type(*$C$DW$T$58)
    3903                            .dwattr $C$DW$304, DW_AT_name("RESERVED2")
    3904                            .dwattr $C$DW$304, DW_AT_TI_symbol_name("RESERVED2")
    3905                            .dwattr $C$DW$304, DW_AT_data_member_location[DW_OP_plus_uconst 0x4c]
TI ARM Assembler PC v20.2.6 Mon Oct 31 23:16:56 2022

Copyright (c) 1996-2018 Texas Instruments Incorporated
system_msp432p401r.asm                                               PAGE   72

    3906                            .dwattr $C$DW$304, DW_AT_accessibility(DW_ACCESS_public)
    3907                            .dwattr $C$DW$304, DW_AT_decl_file("C:/ti/ccs1200/ccs/ccs_base/arm/include/CMSIS/core_cm4.h")
    3908                            .dwattr $C$DW$304, DW_AT_decl_line(0x3a5)
    3909                            .dwattr $C$DW$304, DW_AT_decl_column(0x12)
    3910                    
    3911                    $C$DW$305       .dwtag  DW_TAG_member
    3912                            .dwattr $C$DW$305, DW_AT_type(*$C$DW$T$23)
    3913                            .dwattr $C$DW$305, DW_AT_name("COMP3")
    3914                            .dwattr $C$DW$305, DW_AT_TI_symbol_name("COMP3")
    3915                            .dwattr $C$DW$305, DW_AT_data_member_location[DW_OP_plus_uconst 0x50]
    3916                            .dwattr $C$DW$305, DW_AT_accessibility(DW_ACCESS_public)
    3917                            .dwattr $C$DW$305, DW_AT_decl_file("C:/ti/ccs1200/ccs/ccs_base/arm/include/CMSIS/core_cm4.h")
    3918                            .dwattr $C$DW$305, DW_AT_decl_line(0x3a6)
    3919                            .dwattr $C$DW$305, DW_AT_decl_column(0x12)
    3920                    
    3921                    $C$DW$306       .dwtag  DW_TAG_member
    3922                            .dwattr $C$DW$306, DW_AT_type(*$C$DW$T$23)
    3923                            .dwattr $C$DW$306, DW_AT_name("MASK3")
    3924                            .dwattr $C$DW$306, DW_AT_TI_symbol_name("MASK3")
    3925                            .dwattr $C$DW$306, DW_AT_data_member_location[DW_OP_plus_uconst 0x54]
    3926                            .dwattr $C$DW$306, DW_AT_accessibility(DW_ACCESS_public)
    3927                            .dwattr $C$DW$306, DW_AT_decl_file("C:/ti/ccs1200/ccs/ccs_base/arm/include/CMSIS/core_cm4.h")
    3928                            .dwattr $C$DW$306, DW_AT_decl_line(0x3a7)
    3929                            .dwattr $C$DW$306, DW_AT_decl_column(0x12)
    3930                    
    3931                    $C$DW$307       .dwtag  DW_TAG_member
    3932                            .dwattr $C$DW$307, DW_AT_type(*$C$DW$T$23)
    3933                            .dwattr $C$DW$307, DW_AT_name("FUNCTION3")
    3934                            .dwattr $C$DW$307, DW_AT_TI_symbol_name("FUNCTION3")
    3935                            .dwattr $C$DW$307, DW_AT_data_member_location[DW_OP_plus_uconst 0x58]
    3936                            .dwattr $C$DW$307, DW_AT_accessibility(DW_ACCESS_public)
    3937                            .dwattr $C$DW$307, DW_AT_decl_file("C:/ti/ccs1200/ccs/ccs_base/arm/include/CMSIS/core_cm4.h")
    3938                            .dwattr $C$DW$307, DW_AT_decl_line(0x3a8)
    3939                            .dwattr $C$DW$307, DW_AT_decl_column(0x12)
    3940                    
    3941                            .dwattr $C$DW$T$69, DW_AT_decl_file("C:/ti/ccs1200/ccs/ccs_base/arm/include/CMSIS/core_cm4.h")
    3942                            .dwattr $C$DW$T$69, DW_AT_decl_line(0x391)
    3943                            .dwattr $C$DW$T$69, DW_AT_decl_column(0x01)
    3944                            .dwendtag $C$DW$T$69
    3945                    
    3946                    $C$DW$T$196     .dwtag  DW_TAG_typedef
    3947                            .dwattr $C$DW$T$196, DW_AT_name("DWT_Type")
    3948                            .dwattr $C$DW$T$196, DW_AT_type(*$C$DW$T$69)
    3949                            .dwattr $C$DW$T$196, DW_AT_language(DW_LANG_C)
    3950                            .dwattr $C$DW$T$196, DW_AT_decl_file("C:/ti/ccs1200/ccs/ccs_base/arm/include/CMSIS/core_cm4.h"
    3951                            .dwattr $C$DW$T$196, DW_AT_decl_line(0x3a9)
    3952                            .dwattr $C$DW$T$196, DW_AT_decl_column(0x03)
    3953                    
    3954                    
    3955                    $C$DW$T$75      .dwtag  DW_TAG_structure_type
    3956                            .dwattr $C$DW$T$75, DW_AT_byte_size(0xfd0)
    3957                    $C$DW$308       .dwtag  DW_TAG_member
    3958                            .dwattr $C$DW$308, DW_AT_type(*$C$DW$T$23)
    3959                            .dwattr $C$DW$308, DW_AT_name("SSPSR")
    3960                            .dwattr $C$DW$308, DW_AT_TI_symbol_name("SSPSR")
TI ARM Assembler PC v20.2.6 Mon Oct 31 23:16:56 2022

Copyright (c) 1996-2018 Texas Instruments Incorporated
system_msp432p401r.asm                                               PAGE   73

    3961                            .dwattr $C$DW$308, DW_AT_data_member_location[DW_OP_plus_uconst 0x0]
    3962                            .dwattr $C$DW$308, DW_AT_accessibility(DW_ACCESS_public)
    3963                            .dwattr $C$DW$308, DW_AT_decl_file("C:/ti/ccs1200/ccs/ccs_base/arm/include/CMSIS/core_cm4.h")
    3964                            .dwattr $C$DW$308, DW_AT_decl_line(0x425)
    3965                            .dwattr $C$DW$308, DW_AT_decl_column(0x12)
    3966                    
    3967                    $C$DW$309       .dwtag  DW_TAG_member
    3968                            .dwattr $C$DW$309, DW_AT_type(*$C$DW$T$23)
    3969                            .dwattr $C$DW$309, DW_AT_name("CSPSR")
    3970                            .dwattr $C$DW$309, DW_AT_TI_symbol_name("CSPSR")
    3971                            .dwattr $C$DW$309, DW_AT_data_member_location[DW_OP_plus_uconst 0x4]
    3972                            .dwattr $C$DW$309, DW_AT_accessibility(DW_ACCESS_public)
    3973                            .dwattr $C$DW$309, DW_AT_decl_file("C:/ti/ccs1200/ccs/ccs_base/arm/include/CMSIS/core_cm4.h")
    3974                            .dwattr $C$DW$309, DW_AT_decl_line(0x426)
    3975                            .dwattr $C$DW$309, DW_AT_decl_column(0x12)
    3976                    
    3977                    $C$DW$310       .dwtag  DW_TAG_member
    3978                            .dwattr $C$DW$310, DW_AT_type(*$C$DW$T$26)
    3979                            .dwattr $C$DW$310, DW_AT_name("RESERVED0")
    3980                            .dwattr $C$DW$310, DW_AT_TI_symbol_name("RESERVED0")
    3981                            .dwattr $C$DW$310, DW_AT_data_member_location[DW_OP_plus_uconst 0x8]
    3982                            .dwattr $C$DW$310, DW_AT_accessibility(DW_ACCESS_public)
    3983                            .dwattr $C$DW$310, DW_AT_decl_file("C:/ti/ccs1200/ccs/ccs_base/arm/include/CMSIS/core_cm4.h")
    3984                            .dwattr $C$DW$310, DW_AT_decl_line(0x427)
    3985                            .dwattr $C$DW$310, DW_AT_decl_column(0x12)
    3986                    
    3987                    $C$DW$311       .dwtag  DW_TAG_member
    3988                            .dwattr $C$DW$311, DW_AT_type(*$C$DW$T$23)
    3989                            .dwattr $C$DW$311, DW_AT_name("ACPR")
    3990                            .dwattr $C$DW$311, DW_AT_TI_symbol_name("ACPR")
    3991                            .dwattr $C$DW$311, DW_AT_data_member_location[DW_OP_plus_uconst 0x10]
    3992                            .dwattr $C$DW$311, DW_AT_accessibility(DW_ACCESS_public)
    3993                            .dwattr $C$DW$311, DW_AT_decl_file("C:/ti/ccs1200/ccs/ccs_base/arm/include/CMSIS/core_cm4.h")
    3994                            .dwattr $C$DW$311, DW_AT_decl_line(0x428)
    3995                            .dwattr $C$DW$311, DW_AT_decl_column(0x12)
    3996                    
    3997                    $C$DW$312       .dwtag  DW_TAG_member
    3998                            .dwattr $C$DW$312, DW_AT_type(*$C$DW$T$70)
    3999                            .dwattr $C$DW$312, DW_AT_name("RESERVED1")
    4000                            .dwattr $C$DW$312, DW_AT_TI_symbol_name("RESERVED1")
    4001                            .dwattr $C$DW$312, DW_AT_data_member_location[DW_OP_plus_uconst 0x14]
    4002                            .dwattr $C$DW$312, DW_AT_accessibility(DW_ACCESS_public)
    4003                            .dwattr $C$DW$312, DW_AT_decl_file("C:/ti/ccs1200/ccs/ccs_base/arm/include/CMSIS/core_cm4.h")
    4004                            .dwattr $C$DW$312, DW_AT_decl_line(0x429)
    4005                            .dwattr $C$DW$312, DW_AT_decl_column(0x12)
    4006                    
    4007                    $C$DW$313       .dwtag  DW_TAG_member
    4008                            .dwattr $C$DW$313, DW_AT_type(*$C$DW$T$23)
    4009                            .dwattr $C$DW$313, DW_AT_name("SPPR")
    4010                            .dwattr $C$DW$313, DW_AT_TI_symbol_name("SPPR")
    4011                            .dwattr $C$DW$313, DW_AT_data_member_location[DW_OP_plus_uconst 0xf0]
    4012                            .dwattr $C$DW$313, DW_AT_accessibility(DW_ACCESS_public)
    4013                            .dwattr $C$DW$313, DW_AT_decl_file("C:/ti/ccs1200/ccs/ccs_base/arm/include/CMSIS/core_cm4.h")
    4014                            .dwattr $C$DW$313, DW_AT_decl_line(0x42a)
    4015                            .dwattr $C$DW$313, DW_AT_decl_column(0x12)
TI ARM Assembler PC v20.2.6 Mon Oct 31 23:16:56 2022

Copyright (c) 1996-2018 Texas Instruments Incorporated
system_msp432p401r.asm                                               PAGE   74

    4016                    
    4017                    $C$DW$314       .dwtag  DW_TAG_member
    4018                            .dwattr $C$DW$314, DW_AT_type(*$C$DW$T$71)
    4019                            .dwattr $C$DW$314, DW_AT_name("RESERVED2")
    4020                            .dwattr $C$DW$314, DW_AT_TI_symbol_name("RESERVED2")
    4021                            .dwattr $C$DW$314, DW_AT_data_member_location[DW_OP_plus_uconst 0xf4]
    4022                            .dwattr $C$DW$314, DW_AT_accessibility(DW_ACCESS_public)
    4023                            .dwattr $C$DW$314, DW_AT_decl_file("C:/ti/ccs1200/ccs/ccs_base/arm/include/CMSIS/core_cm4.h")
    4024                            .dwattr $C$DW$314, DW_AT_decl_line(0x42b)
    4025                            .dwattr $C$DW$314, DW_AT_decl_column(0x12)
    4026                    
    4027                    $C$DW$315       .dwtag  DW_TAG_member
    4028                            .dwattr $C$DW$315, DW_AT_type(*$C$DW$T$25)
    4029                            .dwattr $C$DW$315, DW_AT_name("FFSR")
    4030                            .dwattr $C$DW$315, DW_AT_TI_symbol_name("FFSR")
    4031                            .dwattr $C$DW$315, DW_AT_data_member_location[DW_OP_plus_uconst 0x300]
    4032                            .dwattr $C$DW$315, DW_AT_accessibility(DW_ACCESS_public)
    4033                            .dwattr $C$DW$315, DW_AT_decl_file("C:/ti/ccs1200/ccs/ccs_base/arm/include/CMSIS/core_cm4.h")
    4034                            .dwattr $C$DW$315, DW_AT_decl_line(0x42c)
    4035                            .dwattr $C$DW$315, DW_AT_decl_column(0x12)
    4036                    
    4037                    $C$DW$316       .dwtag  DW_TAG_member
    4038                            .dwattr $C$DW$316, DW_AT_type(*$C$DW$T$23)
    4039                            .dwattr $C$DW$316, DW_AT_name("FFCR")
    4040                            .dwattr $C$DW$316, DW_AT_TI_symbol_name("FFCR")
    4041                            .dwattr $C$DW$316, DW_AT_data_member_location[DW_OP_plus_uconst 0x304]
    4042                            .dwattr $C$DW$316, DW_AT_accessibility(DW_ACCESS_public)
    4043                            .dwattr $C$DW$316, DW_AT_decl_file("C:/ti/ccs1200/ccs/ccs_base/arm/include/CMSIS/core_cm4.h")
    4044                            .dwattr $C$DW$316, DW_AT_decl_line(0x42d)
    4045                            .dwattr $C$DW$316, DW_AT_decl_column(0x12)
    4046                    
    4047                    $C$DW$317       .dwtag  DW_TAG_member
    4048                            .dwattr $C$DW$317, DW_AT_type(*$C$DW$T$25)
    4049                            .dwattr $C$DW$317, DW_AT_name("FSCR")
    4050                            .dwattr $C$DW$317, DW_AT_TI_symbol_name("FSCR")
    4051                            .dwattr $C$DW$317, DW_AT_data_member_location[DW_OP_plus_uconst 0x308]
    4052                            .dwattr $C$DW$317, DW_AT_accessibility(DW_ACCESS_public)
    4053                            .dwattr $C$DW$317, DW_AT_decl_file("C:/ti/ccs1200/ccs/ccs_base/arm/include/CMSIS/core_cm4.h")
    4054                            .dwattr $C$DW$317, DW_AT_decl_line(0x42e)
    4055                            .dwattr $C$DW$317, DW_AT_decl_column(0x12)
    4056                    
    4057                    $C$DW$318       .dwtag  DW_TAG_member
    4058                            .dwattr $C$DW$318, DW_AT_type(*$C$DW$T$72)
    4059                            .dwattr $C$DW$318, DW_AT_name("RESERVED3")
    4060                            .dwattr $C$DW$318, DW_AT_TI_symbol_name("RESERVED3")
    4061                            .dwattr $C$DW$318, DW_AT_data_member_location[DW_OP_plus_uconst 0x30c]
    4062                            .dwattr $C$DW$318, DW_AT_accessibility(DW_ACCESS_public)
    4063                            .dwattr $C$DW$318, DW_AT_decl_file("C:/ti/ccs1200/ccs/ccs_base/arm/include/CMSIS/core_cm4.h")
    4064                            .dwattr $C$DW$318, DW_AT_decl_line(0x42f)
    4065                            .dwattr $C$DW$318, DW_AT_decl_column(0x12)
    4066                    
    4067                    $C$DW$319       .dwtag  DW_TAG_member
    4068                            .dwattr $C$DW$319, DW_AT_type(*$C$DW$T$25)
    4069                            .dwattr $C$DW$319, DW_AT_name("TRIGGER")
    4070                            .dwattr $C$DW$319, DW_AT_TI_symbol_name("TRIGGER")
TI ARM Assembler PC v20.2.6 Mon Oct 31 23:16:56 2022

Copyright (c) 1996-2018 Texas Instruments Incorporated
system_msp432p401r.asm                                               PAGE   75

    4071                            .dwattr $C$DW$319, DW_AT_data_member_location[DW_OP_plus_uconst 0xee8]
    4072                            .dwattr $C$DW$319, DW_AT_accessibility(DW_ACCESS_public)
    4073                            .dwattr $C$DW$319, DW_AT_decl_file("C:/ti/ccs1200/ccs/ccs_base/arm/include/CMSIS/core_cm4.h")
    4074                            .dwattr $C$DW$319, DW_AT_decl_line(0x430)
    4075                            .dwattr $C$DW$319, DW_AT_decl_column(0x12)
    4076                    
    4077                    $C$DW$320       .dwtag  DW_TAG_member
    4078                            .dwattr $C$DW$320, DW_AT_type(*$C$DW$T$25)
    4079                            .dwattr $C$DW$320, DW_AT_name("FIFO0")
    4080                            .dwattr $C$DW$320, DW_AT_TI_symbol_name("FIFO0")
    4081                            .dwattr $C$DW$320, DW_AT_data_member_location[DW_OP_plus_uconst 0xeec]
    4082                            .dwattr $C$DW$320, DW_AT_accessibility(DW_ACCESS_public)
    4083                            .dwattr $C$DW$320, DW_AT_decl_file("C:/ti/ccs1200/ccs/ccs_base/arm/include/CMSIS/core_cm4.h")
    4084                            .dwattr $C$DW$320, DW_AT_decl_line(0x431)
    4085                            .dwattr $C$DW$320, DW_AT_decl_column(0x12)
    4086                    
    4087                    $C$DW$321       .dwtag  DW_TAG_member
    4088                            .dwattr $C$DW$321, DW_AT_type(*$C$DW$T$25)
    4089                            .dwattr $C$DW$321, DW_AT_name("ITATBCTR2")
    4090                            .dwattr $C$DW$321, DW_AT_TI_symbol_name("ITATBCTR2")
    4091                            .dwattr $C$DW$321, DW_AT_data_member_location[DW_OP_plus_uconst 0xef0]
    4092                            .dwattr $C$DW$321, DW_AT_accessibility(DW_ACCESS_public)
    4093                            .dwattr $C$DW$321, DW_AT_decl_file("C:/ti/ccs1200/ccs/ccs_base/arm/include/CMSIS/core_cm4.h")
    4094                            .dwattr $C$DW$321, DW_AT_decl_line(0x432)
    4095                            .dwattr $C$DW$321, DW_AT_decl_column(0x12)
    4096                    
    4097                    $C$DW$322       .dwtag  DW_TAG_member
    4098                            .dwattr $C$DW$322, DW_AT_type(*$C$DW$T$58)
    4099                            .dwattr $C$DW$322, DW_AT_name("RESERVED4")
    4100                            .dwattr $C$DW$322, DW_AT_TI_symbol_name("RESERVED4")
    4101                            .dwattr $C$DW$322, DW_AT_data_member_location[DW_OP_plus_uconst 0xef4]
    4102                            .dwattr $C$DW$322, DW_AT_accessibility(DW_ACCESS_public)
    4103                            .dwattr $C$DW$322, DW_AT_decl_file("C:/ti/ccs1200/ccs/ccs_base/arm/include/CMSIS/core_cm4.h")
    4104                            .dwattr $C$DW$322, DW_AT_decl_line(0x433)
    4105                            .dwattr $C$DW$322, DW_AT_decl_column(0x12)
    4106                    
    4107                    $C$DW$323       .dwtag  DW_TAG_member
    4108                            .dwattr $C$DW$323, DW_AT_type(*$C$DW$T$25)
    4109                            .dwattr $C$DW$323, DW_AT_name("ITATBCTR0")
    4110                            .dwattr $C$DW$323, DW_AT_TI_symbol_name("ITATBCTR0")
    4111                            .dwattr $C$DW$323, DW_AT_data_member_location[DW_OP_plus_uconst 0xef8]
    4112                            .dwattr $C$DW$323, DW_AT_accessibility(DW_ACCESS_public)
    4113                            .dwattr $C$DW$323, DW_AT_decl_file("C:/ti/ccs1200/ccs/ccs_base/arm/include/CMSIS/core_cm4.h")
    4114                            .dwattr $C$DW$323, DW_AT_decl_line(0x434)
    4115                            .dwattr $C$DW$323, DW_AT_decl_column(0x12)
    4116                    
    4117                    $C$DW$324       .dwtag  DW_TAG_member
    4118                            .dwattr $C$DW$324, DW_AT_type(*$C$DW$T$25)
    4119                            .dwattr $C$DW$324, DW_AT_name("FIFO1")
    4120                            .dwattr $C$DW$324, DW_AT_TI_symbol_name("FIFO1")
    4121                            .dwattr $C$DW$324, DW_AT_data_member_location[DW_OP_plus_uconst 0xefc]
    4122                            .dwattr $C$DW$324, DW_AT_accessibility(DW_ACCESS_public)
    4123                            .dwattr $C$DW$324, DW_AT_decl_file("C:/ti/ccs1200/ccs/ccs_base/arm/include/CMSIS/core_cm4.h")
    4124                            .dwattr $C$DW$324, DW_AT_decl_line(0x435)
    4125                            .dwattr $C$DW$324, DW_AT_decl_column(0x12)
TI ARM Assembler PC v20.2.6 Mon Oct 31 23:16:56 2022

Copyright (c) 1996-2018 Texas Instruments Incorporated
system_msp432p401r.asm                                               PAGE   76

    4126                    
    4127                    $C$DW$325       .dwtag  DW_TAG_member
    4128                            .dwattr $C$DW$325, DW_AT_type(*$C$DW$T$23)
    4129                            .dwattr $C$DW$325, DW_AT_name("ITCTRL")
    4130                            .dwattr $C$DW$325, DW_AT_TI_symbol_name("ITCTRL")
    4131                            .dwattr $C$DW$325, DW_AT_data_member_location[DW_OP_plus_uconst 0xf00]
    4132                            .dwattr $C$DW$325, DW_AT_accessibility(DW_ACCESS_public)
    4133                            .dwattr $C$DW$325, DW_AT_decl_file("C:/ti/ccs1200/ccs/ccs_base/arm/include/CMSIS/core_cm4.h")
    4134                            .dwattr $C$DW$325, DW_AT_decl_line(0x436)
    4135                            .dwattr $C$DW$325, DW_AT_decl_column(0x12)
    4136                    
    4137                    $C$DW$326       .dwtag  DW_TAG_member
    4138                            .dwattr $C$DW$326, DW_AT_type(*$C$DW$T$73)
    4139                            .dwattr $C$DW$326, DW_AT_name("RESERVED5")
    4140                            .dwattr $C$DW$326, DW_AT_TI_symbol_name("RESERVED5")
    4141                            .dwattr $C$DW$326, DW_AT_data_member_location[DW_OP_plus_uconst 0xf04]
    4142                            .dwattr $C$DW$326, DW_AT_accessibility(DW_ACCESS_public)
    4143                            .dwattr $C$DW$326, DW_AT_decl_file("C:/ti/ccs1200/ccs/ccs_base/arm/include/CMSIS/core_cm4.h")
    4144                            .dwattr $C$DW$326, DW_AT_decl_line(0x437)
    4145                            .dwattr $C$DW$326, DW_AT_decl_column(0x12)
    4146                    
    4147                    $C$DW$327       .dwtag  DW_TAG_member
    4148                            .dwattr $C$DW$327, DW_AT_type(*$C$DW$T$23)
    4149                            .dwattr $C$DW$327, DW_AT_name("CLAIMSET")
    4150                            .dwattr $C$DW$327, DW_AT_TI_symbol_name("CLAIMSET")
    4151                            .dwattr $C$DW$327, DW_AT_data_member_location[DW_OP_plus_uconst 0xfa0]
    4152                            .dwattr $C$DW$327, DW_AT_accessibility(DW_ACCESS_public)
    4153                            .dwattr $C$DW$327, DW_AT_decl_file("C:/ti/ccs1200/ccs/ccs_base/arm/include/CMSIS/core_cm4.h")
    4154                            .dwattr $C$DW$327, DW_AT_decl_line(0x438)
    4155                            .dwattr $C$DW$327, DW_AT_decl_column(0x12)
    4156                    
    4157                    $C$DW$328       .dwtag  DW_TAG_member
    4158                            .dwattr $C$DW$328, DW_AT_type(*$C$DW$T$23)
    4159                            .dwattr $C$DW$328, DW_AT_name("CLAIMCLR")
    4160                            .dwattr $C$DW$328, DW_AT_TI_symbol_name("CLAIMCLR")
    4161                            .dwattr $C$DW$328, DW_AT_data_member_location[DW_OP_plus_uconst 0xfa4]
    4162                            .dwattr $C$DW$328, DW_AT_accessibility(DW_ACCESS_public)
    4163                            .dwattr $C$DW$328, DW_AT_decl_file("C:/ti/ccs1200/ccs/ccs_base/arm/include/CMSIS/core_cm4.h")
    4164                            .dwattr $C$DW$328, DW_AT_decl_line(0x439)
    4165                            .dwattr $C$DW$328, DW_AT_decl_column(0x12)
    4166                    
    4167                    $C$DW$329       .dwtag  DW_TAG_member
    4168                            .dwattr $C$DW$329, DW_AT_type(*$C$DW$T$74)
    4169                            .dwattr $C$DW$329, DW_AT_name("RESERVED7")
    4170                            .dwattr $C$DW$329, DW_AT_TI_symbol_name("RESERVED7")
    4171                            .dwattr $C$DW$329, DW_AT_data_member_location[DW_OP_plus_uconst 0xfa8]
    4172                            .dwattr $C$DW$329, DW_AT_accessibility(DW_ACCESS_public)
    4173                            .dwattr $C$DW$329, DW_AT_decl_file("C:/ti/ccs1200/ccs/ccs_base/arm/include/CMSIS/core_cm4.h")
    4174                            .dwattr $C$DW$329, DW_AT_decl_line(0x43a)
    4175                            .dwattr $C$DW$329, DW_AT_decl_column(0x12)
    4176                    
    4177                    $C$DW$330       .dwtag  DW_TAG_member
    4178                            .dwattr $C$DW$330, DW_AT_type(*$C$DW$T$25)
    4179                            .dwattr $C$DW$330, DW_AT_name("DEVID")
    4180                            .dwattr $C$DW$330, DW_AT_TI_symbol_name("DEVID")
TI ARM Assembler PC v20.2.6 Mon Oct 31 23:16:56 2022

Copyright (c) 1996-2018 Texas Instruments Incorporated
system_msp432p401r.asm                                               PAGE   77

    4181                            .dwattr $C$DW$330, DW_AT_data_member_location[DW_OP_plus_uconst 0xfc8]
    4182                            .dwattr $C$DW$330, DW_AT_accessibility(DW_ACCESS_public)
    4183                            .dwattr $C$DW$330, DW_AT_decl_file("C:/ti/ccs1200/ccs/ccs_base/arm/include/CMSIS/core_cm4.h")
    4184                            .dwattr $C$DW$330, DW_AT_decl_line(0x43b)
    4185                            .dwattr $C$DW$330, DW_AT_decl_column(0x12)
    4186                    
    4187                    $C$DW$331       .dwtag  DW_TAG_member
    4188                            .dwattr $C$DW$331, DW_AT_type(*$C$DW$T$25)
    4189                            .dwattr $C$DW$331, DW_AT_name("DEVTYPE")
    4190                            .dwattr $C$DW$331, DW_AT_TI_symbol_name("DEVTYPE")
    4191                            .dwattr $C$DW$331, DW_AT_data_member_location[DW_OP_plus_uconst 0xfcc]
    4192                            .dwattr $C$DW$331, DW_AT_accessibility(DW_ACCESS_public)
    4193                            .dwattr $C$DW$331, DW_AT_decl_file("C:/ti/ccs1200/ccs/ccs_base/arm/include/CMSIS/core_cm4.h")
    4194                            .dwattr $C$DW$331, DW_AT_decl_line(0x43c)
    4195                            .dwattr $C$DW$331, DW_AT_decl_column(0x12)
    4196                    
    4197                            .dwattr $C$DW$T$75, DW_AT_decl_file("C:/ti/ccs1200/ccs/ccs_base/arm/include/CMSIS/core_cm4.h")
    4198                            .dwattr $C$DW$T$75, DW_AT_decl_line(0x424)
    4199                            .dwattr $C$DW$T$75, DW_AT_decl_column(0x01)
    4200                            .dwendtag $C$DW$T$75
    4201                    
    4202                    $C$DW$T$197     .dwtag  DW_TAG_typedef
    4203                            .dwattr $C$DW$T$197, DW_AT_name("TPI_Type")
    4204                            .dwattr $C$DW$T$197, DW_AT_type(*$C$DW$T$75)
    4205                            .dwattr $C$DW$T$197, DW_AT_language(DW_LANG_C)
    4206                            .dwattr $C$DW$T$197, DW_AT_decl_file("C:/ti/ccs1200/ccs/ccs_base/arm/include/CMSIS/core_cm4.h"
    4207                            .dwattr $C$DW$T$197, DW_AT_decl_line(0x43d)
    4208                            .dwattr $C$DW$T$197, DW_AT_decl_column(0x03)
    4209                    
    4210                    
    4211                    $C$DW$T$76      .dwtag  DW_TAG_structure_type
    4212                            .dwattr $C$DW$T$76, DW_AT_byte_size(0x2c)
    4213                    $C$DW$332       .dwtag  DW_TAG_member
    4214                            .dwattr $C$DW$332, DW_AT_type(*$C$DW$T$25)
    4215                            .dwattr $C$DW$332, DW_AT_name("TYPE")
    4216                            .dwattr $C$DW$332, DW_AT_TI_symbol_name("TYPE")
    4217                            .dwattr $C$DW$332, DW_AT_data_member_location[DW_OP_plus_uconst 0x0]
    4218                            .dwattr $C$DW$332, DW_AT_accessibility(DW_ACCESS_public)
    4219                            .dwattr $C$DW$332, DW_AT_decl_file("C:/ti/ccs1200/ccs/ccs_base/arm/include/CMSIS/core_cm4.h")
    4220                            .dwattr $C$DW$332, DW_AT_decl_line(0x4c1)
    4221                            .dwattr $C$DW$332, DW_AT_decl_column(0x12)
    4222                    
    4223                    $C$DW$333       .dwtag  DW_TAG_member
    4224                            .dwattr $C$DW$333, DW_AT_type(*$C$DW$T$23)
    4225                            .dwattr $C$DW$333, DW_AT_name("CTRL")
    4226                            .dwattr $C$DW$333, DW_AT_TI_symbol_name("CTRL")
    4227                            .dwattr $C$DW$333, DW_AT_data_member_location[DW_OP_plus_uconst 0x4]
    4228                            .dwattr $C$DW$333, DW_AT_accessibility(DW_ACCESS_public)
    4229                            .dwattr $C$DW$333, DW_AT_decl_file("C:/ti/ccs1200/ccs/ccs_base/arm/include/CMSIS/core_cm4.h")
    4230                            .dwattr $C$DW$333, DW_AT_decl_line(0x4c2)
    4231                            .dwattr $C$DW$333, DW_AT_decl_column(0x12)
    4232                    
    4233                    $C$DW$334       .dwtag  DW_TAG_member
    4234                            .dwattr $C$DW$334, DW_AT_type(*$C$DW$T$23)
    4235                            .dwattr $C$DW$334, DW_AT_name("RNR")
TI ARM Assembler PC v20.2.6 Mon Oct 31 23:16:56 2022

Copyright (c) 1996-2018 Texas Instruments Incorporated
system_msp432p401r.asm                                               PAGE   78

    4236                            .dwattr $C$DW$334, DW_AT_TI_symbol_name("RNR")
    4237                            .dwattr $C$DW$334, DW_AT_data_member_location[DW_OP_plus_uconst 0x8]
    4238                            .dwattr $C$DW$334, DW_AT_accessibility(DW_ACCESS_public)
    4239                            .dwattr $C$DW$334, DW_AT_decl_file("C:/ti/ccs1200/ccs/ccs_base/arm/include/CMSIS/core_cm4.h")
    4240                            .dwattr $C$DW$334, DW_AT_decl_line(0x4c3)
    4241                            .dwattr $C$DW$334, DW_AT_decl_column(0x12)
    4242                    
    4243                    $C$DW$335       .dwtag  DW_TAG_member
    4244                            .dwattr $C$DW$335, DW_AT_type(*$C$DW$T$23)
    4245                            .dwattr $C$DW$335, DW_AT_name("RBAR")
    4246                            .dwattr $C$DW$335, DW_AT_TI_symbol_name("RBAR")
    4247                            .dwattr $C$DW$335, DW_AT_data_member_location[DW_OP_plus_uconst 0xc]
    4248                            .dwattr $C$DW$335, DW_AT_accessibility(DW_ACCESS_public)
    4249                            .dwattr $C$DW$335, DW_AT_decl_file("C:/ti/ccs1200/ccs/ccs_base/arm/include/CMSIS/core_cm4.h")
    4250                            .dwattr $C$DW$335, DW_AT_decl_line(0x4c4)
    4251                            .dwattr $C$DW$335, DW_AT_decl_column(0x12)
    4252                    
    4253                    $C$DW$336       .dwtag  DW_TAG_member
    4254                            .dwattr $C$DW$336, DW_AT_type(*$C$DW$T$23)
    4255                            .dwattr $C$DW$336, DW_AT_name("RASR")
    4256                            .dwattr $C$DW$336, DW_AT_TI_symbol_name("RASR")
    4257                            .dwattr $C$DW$336, DW_AT_data_member_location[DW_OP_plus_uconst 0x10]
    4258                            .dwattr $C$DW$336, DW_AT_accessibility(DW_ACCESS_public)
    4259                            .dwattr $C$DW$336, DW_AT_decl_file("C:/ti/ccs1200/ccs/ccs_base/arm/include/CMSIS/core_cm4.h")
    4260                            .dwattr $C$DW$336, DW_AT_decl_line(0x4c5)
    4261                            .dwattr $C$DW$336, DW_AT_decl_column(0x12)
    4262                    
    4263                    $C$DW$337       .dwtag  DW_TAG_member
    4264                            .dwattr $C$DW$337, DW_AT_type(*$C$DW$T$23)
    4265                            .dwattr $C$DW$337, DW_AT_name("RBAR_A1")
    4266                            .dwattr $C$DW$337, DW_AT_TI_symbol_name("RBAR_A1")
    4267                            .dwattr $C$DW$337, DW_AT_data_member_location[DW_OP_plus_uconst 0x14]
    4268                            .dwattr $C$DW$337, DW_AT_accessibility(DW_ACCESS_public)
    4269                            .dwattr $C$DW$337, DW_AT_decl_file("C:/ti/ccs1200/ccs/ccs_base/arm/include/CMSIS/core_cm4.h")
    4270                            .dwattr $C$DW$337, DW_AT_decl_line(0x4c6)
    4271                            .dwattr $C$DW$337, DW_AT_decl_column(0x12)
    4272                    
    4273                    $C$DW$338       .dwtag  DW_TAG_member
    4274                            .dwattr $C$DW$338, DW_AT_type(*$C$DW$T$23)
    4275                            .dwattr $C$DW$338, DW_AT_name("RASR_A1")
    4276                            .dwattr $C$DW$338, DW_AT_TI_symbol_name("RASR_A1")
    4277                            .dwattr $C$DW$338, DW_AT_data_member_location[DW_OP_plus_uconst 0x18]
    4278                            .dwattr $C$DW$338, DW_AT_accessibility(DW_ACCESS_public)
    4279                            .dwattr $C$DW$338, DW_AT_decl_file("C:/ti/ccs1200/ccs/ccs_base/arm/include/CMSIS/core_cm4.h")
    4280                            .dwattr $C$DW$338, DW_AT_decl_line(0x4c7)
    4281                            .dwattr $C$DW$338, DW_AT_decl_column(0x12)
    4282                    
    4283                    $C$DW$339       .dwtag  DW_TAG_member
    4284                            .dwattr $C$DW$339, DW_AT_type(*$C$DW$T$23)
    4285                            .dwattr $C$DW$339, DW_AT_name("RBAR_A2")
    4286                            .dwattr $C$DW$339, DW_AT_TI_symbol_name("RBAR_A2")
    4287                            .dwattr $C$DW$339, DW_AT_data_member_location[DW_OP_plus_uconst 0x1c]
    4288                            .dwattr $C$DW$339, DW_AT_accessibility(DW_ACCESS_public)
    4289                            .dwattr $C$DW$339, DW_AT_decl_file("C:/ti/ccs1200/ccs/ccs_base/arm/include/CMSIS/core_cm4.h")
    4290                            .dwattr $C$DW$339, DW_AT_decl_line(0x4c8)
TI ARM Assembler PC v20.2.6 Mon Oct 31 23:16:56 2022

Copyright (c) 1996-2018 Texas Instruments Incorporated
system_msp432p401r.asm                                               PAGE   79

    4291                            .dwattr $C$DW$339, DW_AT_decl_column(0x12)
    4292                    
    4293                    $C$DW$340       .dwtag  DW_TAG_member
    4294                            .dwattr $C$DW$340, DW_AT_type(*$C$DW$T$23)
    4295                            .dwattr $C$DW$340, DW_AT_name("RASR_A2")
    4296                            .dwattr $C$DW$340, DW_AT_TI_symbol_name("RASR_A2")
    4297                            .dwattr $C$DW$340, DW_AT_data_member_location[DW_OP_plus_uconst 0x20]
    4298                            .dwattr $C$DW$340, DW_AT_accessibility(DW_ACCESS_public)
    4299                            .dwattr $C$DW$340, DW_AT_decl_file("C:/ti/ccs1200/ccs/ccs_base/arm/include/CMSIS/core_cm4.h")
    4300                            .dwattr $C$DW$340, DW_AT_decl_line(0x4c9)
    4301                            .dwattr $C$DW$340, DW_AT_decl_column(0x12)
    4302                    
    4303                    $C$DW$341       .dwtag  DW_TAG_member
    4304                            .dwattr $C$DW$341, DW_AT_type(*$C$DW$T$23)
    4305                            .dwattr $C$DW$341, DW_AT_name("RBAR_A3")
    4306                            .dwattr $C$DW$341, DW_AT_TI_symbol_name("RBAR_A3")
    4307                            .dwattr $C$DW$341, DW_AT_data_member_location[DW_OP_plus_uconst 0x24]
    4308                            .dwattr $C$DW$341, DW_AT_accessibility(DW_ACCESS_public)
    4309                            .dwattr $C$DW$341, DW_AT_decl_file("C:/ti/ccs1200/ccs/ccs_base/arm/include/CMSIS/core_cm4.h")
    4310                            .dwattr $C$DW$341, DW_AT_decl_line(0x4ca)
    4311                            .dwattr $C$DW$341, DW_AT_decl_column(0x12)
    4312                    
    4313                    $C$DW$342       .dwtag  DW_TAG_member
    4314                            .dwattr $C$DW$342, DW_AT_type(*$C$DW$T$23)
    4315                            .dwattr $C$DW$342, DW_AT_name("RASR_A3")
    4316                            .dwattr $C$DW$342, DW_AT_TI_symbol_name("RASR_A3")
    4317                            .dwattr $C$DW$342, DW_AT_data_member_location[DW_OP_plus_uconst 0x28]
    4318                            .dwattr $C$DW$342, DW_AT_accessibility(DW_ACCESS_public)
    4319                            .dwattr $C$DW$342, DW_AT_decl_file("C:/ti/ccs1200/ccs/ccs_base/arm/include/CMSIS/core_cm4.h")
    4320                            .dwattr $C$DW$342, DW_AT_decl_line(0x4cb)
    4321                            .dwattr $C$DW$342, DW_AT_decl_column(0x12)
    4322                    
    4323                            .dwattr $C$DW$T$76, DW_AT_decl_file("C:/ti/ccs1200/ccs/ccs_base/arm/include/CMSIS/core_cm4.h")
    4324                            .dwattr $C$DW$T$76, DW_AT_decl_line(0x4c0)
    4325                            .dwattr $C$DW$T$76, DW_AT_decl_column(0x01)
    4326                            .dwendtag $C$DW$T$76
    4327                    
    4328                    $C$DW$T$198     .dwtag  DW_TAG_typedef
    4329                            .dwattr $C$DW$T$198, DW_AT_name("MPU_Type")
    4330                            .dwattr $C$DW$T$198, DW_AT_type(*$C$DW$T$76)
    4331                            .dwattr $C$DW$T$198, DW_AT_language(DW_LANG_C)
    4332                            .dwattr $C$DW$T$198, DW_AT_decl_file("C:/ti/ccs1200/ccs/ccs_base/arm/include/CMSIS/core_cm4.h"
    4333                            .dwattr $C$DW$T$198, DW_AT_decl_line(0x4cc)
    4334                            .dwattr $C$DW$T$198, DW_AT_decl_column(0x03)
    4335                    
    4336                    
    4337                    $C$DW$T$77      .dwtag  DW_TAG_structure_type
    4338                            .dwattr $C$DW$T$77, DW_AT_byte_size(0x18)
    4339                    $C$DW$343       .dwtag  DW_TAG_member
    4340                            .dwattr $C$DW$343, DW_AT_type(*$C$DW$T$58)
    4341                            .dwattr $C$DW$343, DW_AT_name("RESERVED0")
    4342                            .dwattr $C$DW$343, DW_AT_TI_symbol_name("RESERVED0")
    4343                            .dwattr $C$DW$343, DW_AT_data_member_location[DW_OP_plus_uconst 0x0]
    4344                            .dwattr $C$DW$343, DW_AT_accessibility(DW_ACCESS_public)
    4345                            .dwattr $C$DW$343, DW_AT_decl_file("C:/ti/ccs1200/ccs/ccs_base/arm/include/CMSIS/core_cm4.h")
TI ARM Assembler PC v20.2.6 Mon Oct 31 23:16:56 2022

Copyright (c) 1996-2018 Texas Instruments Incorporated
system_msp432p401r.asm                                               PAGE   80

    4346                            .dwattr $C$DW$343, DW_AT_decl_line(0x51f)
    4347                            .dwattr $C$DW$343, DW_AT_decl_column(0x12)
    4348                    
    4349                    $C$DW$344       .dwtag  DW_TAG_member
    4350                            .dwattr $C$DW$344, DW_AT_type(*$C$DW$T$23)
    4351                            .dwattr $C$DW$344, DW_AT_name("FPCCR")
    4352                            .dwattr $C$DW$344, DW_AT_TI_symbol_name("FPCCR")
    4353                            .dwattr $C$DW$344, DW_AT_data_member_location[DW_OP_plus_uconst 0x4]
    4354                            .dwattr $C$DW$344, DW_AT_accessibility(DW_ACCESS_public)
    4355                            .dwattr $C$DW$344, DW_AT_decl_file("C:/ti/ccs1200/ccs/ccs_base/arm/include/CMSIS/core_cm4.h")
    4356                            .dwattr $C$DW$344, DW_AT_decl_line(0x520)
    4357                            .dwattr $C$DW$344, DW_AT_decl_column(0x12)
    4358                    
    4359                    $C$DW$345       .dwtag  DW_TAG_member
    4360                            .dwattr $C$DW$345, DW_AT_type(*$C$DW$T$23)
    4361                            .dwattr $C$DW$345, DW_AT_name("FPCAR")
    4362                            .dwattr $C$DW$345, DW_AT_TI_symbol_name("FPCAR")
    4363                            .dwattr $C$DW$345, DW_AT_data_member_location[DW_OP_plus_uconst 0x8]
    4364                            .dwattr $C$DW$345, DW_AT_accessibility(DW_ACCESS_public)
    4365                            .dwattr $C$DW$345, DW_AT_decl_file("C:/ti/ccs1200/ccs/ccs_base/arm/include/CMSIS/core_cm4.h")
    4366                            .dwattr $C$DW$345, DW_AT_decl_line(0x521)
    4367                            .dwattr $C$DW$345, DW_AT_decl_column(0x12)
    4368                    
    4369                    $C$DW$346       .dwtag  DW_TAG_member
    4370                            .dwattr $C$DW$346, DW_AT_type(*$C$DW$T$23)
    4371                            .dwattr $C$DW$346, DW_AT_name("FPDSCR")
    4372                            .dwattr $C$DW$346, DW_AT_TI_symbol_name("FPDSCR")
    4373                            .dwattr $C$DW$346, DW_AT_data_member_location[DW_OP_plus_uconst 0xc]
    4374                            .dwattr $C$DW$346, DW_AT_accessibility(DW_ACCESS_public)
    4375                            .dwattr $C$DW$346, DW_AT_decl_file("C:/ti/ccs1200/ccs/ccs_base/arm/include/CMSIS/core_cm4.h")
    4376                            .dwattr $C$DW$346, DW_AT_decl_line(0x522)
    4377                            .dwattr $C$DW$346, DW_AT_decl_column(0x12)
    4378                    
    4379                    $C$DW$347       .dwtag  DW_TAG_member
    4380                            .dwattr $C$DW$347, DW_AT_type(*$C$DW$T$25)
    4381                            .dwattr $C$DW$347, DW_AT_name("MVFR0")
    4382                            .dwattr $C$DW$347, DW_AT_TI_symbol_name("MVFR0")
    4383                            .dwattr $C$DW$347, DW_AT_data_member_location[DW_OP_plus_uconst 0x10]
    4384                            .dwattr $C$DW$347, DW_AT_accessibility(DW_ACCESS_public)
    4385                            .dwattr $C$DW$347, DW_AT_decl_file("C:/ti/ccs1200/ccs/ccs_base/arm/include/CMSIS/core_cm4.h")
    4386                            .dwattr $C$DW$347, DW_AT_decl_line(0x523)
    4387                            .dwattr $C$DW$347, DW_AT_decl_column(0x12)
    4388                    
    4389                    $C$DW$348       .dwtag  DW_TAG_member
    4390                            .dwattr $C$DW$348, DW_AT_type(*$C$DW$T$25)
    4391                            .dwattr $C$DW$348, DW_AT_name("MVFR1")
    4392                            .dwattr $C$DW$348, DW_AT_TI_symbol_name("MVFR1")
    4393                            .dwattr $C$DW$348, DW_AT_data_member_location[DW_OP_plus_uconst 0x14]
    4394                            .dwattr $C$DW$348, DW_AT_accessibility(DW_ACCESS_public)
    4395                            .dwattr $C$DW$348, DW_AT_decl_file("C:/ti/ccs1200/ccs/ccs_base/arm/include/CMSIS/core_cm4.h")
    4396                            .dwattr $C$DW$348, DW_AT_decl_line(0x524)
    4397                            .dwattr $C$DW$348, DW_AT_decl_column(0x12)
    4398                    
    4399                            .dwattr $C$DW$T$77, DW_AT_decl_file("C:/ti/ccs1200/ccs/ccs_base/arm/include/CMSIS/core_cm4.h")
    4400                            .dwattr $C$DW$T$77, DW_AT_decl_line(0x51e)
TI ARM Assembler PC v20.2.6 Mon Oct 31 23:16:56 2022

Copyright (c) 1996-2018 Texas Instruments Incorporated
system_msp432p401r.asm                                               PAGE   81

    4401                            .dwattr $C$DW$T$77, DW_AT_decl_column(0x01)
    4402                            .dwendtag $C$DW$T$77
    4403                    
    4404                    $C$DW$T$199     .dwtag  DW_TAG_typedef
    4405                            .dwattr $C$DW$T$199, DW_AT_name("FPU_Type")
    4406                            .dwattr $C$DW$T$199, DW_AT_type(*$C$DW$T$77)
    4407                            .dwattr $C$DW$T$199, DW_AT_language(DW_LANG_C)
    4408                            .dwattr $C$DW$T$199, DW_AT_decl_file("C:/ti/ccs1200/ccs/ccs_base/arm/include/CMSIS/core_cm4.h"
    4409                            .dwattr $C$DW$T$199, DW_AT_decl_line(0x525)
    4410                            .dwattr $C$DW$T$199, DW_AT_decl_column(0x03)
    4411                    
    4412                    
    4413                    $C$DW$T$78      .dwtag  DW_TAG_structure_type
    4414                            .dwattr $C$DW$T$78, DW_AT_byte_size(0x10)
    4415                    $C$DW$349       .dwtag  DW_TAG_member
    4416                            .dwattr $C$DW$349, DW_AT_type(*$C$DW$T$23)
    4417                            .dwattr $C$DW$349, DW_AT_name("DHCSR")
    4418                            .dwattr $C$DW$349, DW_AT_TI_symbol_name("DHCSR")
    4419                            .dwattr $C$DW$349, DW_AT_data_member_location[DW_OP_plus_uconst 0x0]
    4420                            .dwattr $C$DW$349, DW_AT_accessibility(DW_ACCESS_public)
    4421                            .dwattr $C$DW$349, DW_AT_decl_file("C:/ti/ccs1200/ccs/ccs_base/arm/include/CMSIS/core_cm4.h")
    4422                            .dwattr $C$DW$349, DW_AT_decl_line(0x589)
    4423                            .dwattr $C$DW$349, DW_AT_decl_column(0x12)
    4424                    
    4425                    $C$DW$350       .dwtag  DW_TAG_member
    4426                            .dwattr $C$DW$350, DW_AT_type(*$C$DW$T$23)
    4427                            .dwattr $C$DW$350, DW_AT_name("DCRSR")
    4428                            .dwattr $C$DW$350, DW_AT_TI_symbol_name("DCRSR")
    4429                            .dwattr $C$DW$350, DW_AT_data_member_location[DW_OP_plus_uconst 0x4]
    4430                            .dwattr $C$DW$350, DW_AT_accessibility(DW_ACCESS_public)
    4431                            .dwattr $C$DW$350, DW_AT_decl_file("C:/ti/ccs1200/ccs/ccs_base/arm/include/CMSIS/core_cm4.h")
    4432                            .dwattr $C$DW$350, DW_AT_decl_line(0x58a)
    4433                            .dwattr $C$DW$350, DW_AT_decl_column(0x12)
    4434                    
    4435                    $C$DW$351       .dwtag  DW_TAG_member
    4436                            .dwattr $C$DW$351, DW_AT_type(*$C$DW$T$23)
    4437                            .dwattr $C$DW$351, DW_AT_name("DCRDR")
    4438                            .dwattr $C$DW$351, DW_AT_TI_symbol_name("DCRDR")
    4439                            .dwattr $C$DW$351, DW_AT_data_member_location[DW_OP_plus_uconst 0x8]
    4440                            .dwattr $C$DW$351, DW_AT_accessibility(DW_ACCESS_public)
    4441                            .dwattr $C$DW$351, DW_AT_decl_file("C:/ti/ccs1200/ccs/ccs_base/arm/include/CMSIS/core_cm4.h")
    4442                            .dwattr $C$DW$351, DW_AT_decl_line(0x58b)
    4443                            .dwattr $C$DW$351, DW_AT_decl_column(0x12)
    4444                    
    4445                    $C$DW$352       .dwtag  DW_TAG_member
    4446                            .dwattr $C$DW$352, DW_AT_type(*$C$DW$T$23)
    4447                            .dwattr $C$DW$352, DW_AT_name("DEMCR")
    4448                            .dwattr $C$DW$352, DW_AT_TI_symbol_name("DEMCR")
    4449                            .dwattr $C$DW$352, DW_AT_data_member_location[DW_OP_plus_uconst 0xc]
    4450                            .dwattr $C$DW$352, DW_AT_accessibility(DW_ACCESS_public)
    4451                            .dwattr $C$DW$352, DW_AT_decl_file("C:/ti/ccs1200/ccs/ccs_base/arm/include/CMSIS/core_cm4.h")
    4452                            .dwattr $C$DW$352, DW_AT_decl_line(0x58c)
    4453                            .dwattr $C$DW$352, DW_AT_decl_column(0x12)
    4454                    
    4455                            .dwattr $C$DW$T$78, DW_AT_decl_file("C:/ti/ccs1200/ccs/ccs_base/arm/include/CMSIS/core_cm4.h")
TI ARM Assembler PC v20.2.6 Mon Oct 31 23:16:56 2022

Copyright (c) 1996-2018 Texas Instruments Incorporated
system_msp432p401r.asm                                               PAGE   82

    4456                            .dwattr $C$DW$T$78, DW_AT_decl_line(0x588)
    4457                            .dwattr $C$DW$T$78, DW_AT_decl_column(0x01)
    4458                            .dwendtag $C$DW$T$78
    4459                    
    4460                    $C$DW$T$200     .dwtag  DW_TAG_typedef
    4461                            .dwattr $C$DW$T$200, DW_AT_name("CoreDebug_Type")
    4462                            .dwattr $C$DW$T$200, DW_AT_type(*$C$DW$T$78)
    4463                            .dwattr $C$DW$T$200, DW_AT_language(DW_LANG_C)
    4464                            .dwattr $C$DW$T$200, DW_AT_decl_file("C:/ti/ccs1200/ccs/ccs_base/arm/include/CMSIS/core_cm4.h"
    4465                            .dwattr $C$DW$T$200, DW_AT_decl_line(0x58d)
    4466                            .dwattr $C$DW$T$200, DW_AT_decl_column(0x03)
    4467                    
    4468                    
    4469                    $C$DW$T$81      .dwtag  DW_TAG_structure_type
    4470                            .dwattr $C$DW$T$81, DW_AT_byte_size(0x158)
    4471                    $C$DW$353       .dwtag  DW_TAG_member
    4472                            .dwattr $C$DW$353, DW_AT_type(*$C$DW$T$23)
    4473                            .dwattr $C$DW$353, DW_AT_name("CTL0")
    4474                            .dwattr $C$DW$353, DW_AT_TI_symbol_name("CTL0")
    4475                            .dwattr $C$DW$353, DW_AT_data_member_location[DW_OP_plus_uconst 0x0]
    4476                            .dwattr $C$DW$353, DW_AT_accessibility(DW_ACCESS_public)
    4477                            .dwattr $C$DW$353, DW_AT_decl_file("C:\ti\ccs1200\ccs\ccs_base\arm\include\msp432p401r.h")
    4478                            .dwattr $C$DW$353, DW_AT_decl_line(0x16d)
    4479                            .dwattr $C$DW$353, DW_AT_decl_column(0x11)
    4480                    
    4481                    $C$DW$354       .dwtag  DW_TAG_member
    4482                            .dwattr $C$DW$354, DW_AT_type(*$C$DW$T$23)
    4483                            .dwattr $C$DW$354, DW_AT_name("CTL1")
    4484                            .dwattr $C$DW$354, DW_AT_TI_symbol_name("CTL1")
    4485                            .dwattr $C$DW$354, DW_AT_data_member_location[DW_OP_plus_uconst 0x4]
    4486                            .dwattr $C$DW$354, DW_AT_accessibility(DW_ACCESS_public)
    4487                            .dwattr $C$DW$354, DW_AT_decl_file("C:\ti\ccs1200\ccs\ccs_base\arm\include\msp432p401r.h")
    4488                            .dwattr $C$DW$354, DW_AT_decl_line(0x16e)
    4489                            .dwattr $C$DW$354, DW_AT_decl_column(0x11)
    4490                    
    4491                    $C$DW$355       .dwtag  DW_TAG_member
    4492                            .dwattr $C$DW$355, DW_AT_type(*$C$DW$T$23)
    4493                            .dwattr $C$DW$355, DW_AT_name("LO0")
    4494                            .dwattr $C$DW$355, DW_AT_TI_symbol_name("LO0")
    4495                            .dwattr $C$DW$355, DW_AT_data_member_location[DW_OP_plus_uconst 0x8]
    4496                            .dwattr $C$DW$355, DW_AT_accessibility(DW_ACCESS_public)
    4497                            .dwattr $C$DW$355, DW_AT_decl_file("C:\ti\ccs1200\ccs\ccs_base\arm\include\msp432p401r.h")
    4498                            .dwattr $C$DW$355, DW_AT_decl_line(0x16f)
    4499                            .dwattr $C$DW$355, DW_AT_decl_column(0x11)
    4500                    
    4501                    $C$DW$356       .dwtag  DW_TAG_member
    4502                            .dwattr $C$DW$356, DW_AT_type(*$C$DW$T$23)
    4503                            .dwattr $C$DW$356, DW_AT_name("HI0")
    4504                            .dwattr $C$DW$356, DW_AT_TI_symbol_name("HI0")
    4505                            .dwattr $C$DW$356, DW_AT_data_member_location[DW_OP_plus_uconst 0xc]
    4506                            .dwattr $C$DW$356, DW_AT_accessibility(DW_ACCESS_public)
    4507                            .dwattr $C$DW$356, DW_AT_decl_file("C:\ti\ccs1200\ccs\ccs_base\arm\include\msp432p401r.h")
    4508                            .dwattr $C$DW$356, DW_AT_decl_line(0x170)
    4509                            .dwattr $C$DW$356, DW_AT_decl_column(0x11)
    4510                    
TI ARM Assembler PC v20.2.6 Mon Oct 31 23:16:56 2022

Copyright (c) 1996-2018 Texas Instruments Incorporated
system_msp432p401r.asm                                               PAGE   83

    4511                    $C$DW$357       .dwtag  DW_TAG_member
    4512                            .dwattr $C$DW$357, DW_AT_type(*$C$DW$T$23)
    4513                            .dwattr $C$DW$357, DW_AT_name("LO1")
    4514                            .dwattr $C$DW$357, DW_AT_TI_symbol_name("LO1")
    4515                            .dwattr $C$DW$357, DW_AT_data_member_location[DW_OP_plus_uconst 0x10]
    4516                            .dwattr $C$DW$357, DW_AT_accessibility(DW_ACCESS_public)
    4517                            .dwattr $C$DW$357, DW_AT_decl_file("C:\ti\ccs1200\ccs\ccs_base\arm\include\msp432p401r.h")
    4518                            .dwattr $C$DW$357, DW_AT_decl_line(0x171)
    4519                            .dwattr $C$DW$357, DW_AT_decl_column(0x11)
    4520                    
    4521                    $C$DW$358       .dwtag  DW_TAG_member
    4522                            .dwattr $C$DW$358, DW_AT_type(*$C$DW$T$23)
    4523                            .dwattr $C$DW$358, DW_AT_name("HI1")
    4524                            .dwattr $C$DW$358, DW_AT_TI_symbol_name("HI1")
    4525                            .dwattr $C$DW$358, DW_AT_data_member_location[DW_OP_plus_uconst 0x14]
    4526                            .dwattr $C$DW$358, DW_AT_accessibility(DW_ACCESS_public)
    4527                            .dwattr $C$DW$358, DW_AT_decl_file("C:\ti\ccs1200\ccs\ccs_base\arm\include\msp432p401r.h")
    4528                            .dwattr $C$DW$358, DW_AT_decl_line(0x172)
    4529                            .dwattr $C$DW$358, DW_AT_decl_column(0x11)
    4530                    
    4531                    $C$DW$359       .dwtag  DW_TAG_member
    4532                            .dwattr $C$DW$359, DW_AT_type(*$C$DW$T$79)
    4533                            .dwattr $C$DW$359, DW_AT_name("MCTL")
    4534                            .dwattr $C$DW$359, DW_AT_TI_symbol_name("MCTL")
    4535                            .dwattr $C$DW$359, DW_AT_data_member_location[DW_OP_plus_uconst 0x18]
    4536                            .dwattr $C$DW$359, DW_AT_accessibility(DW_ACCESS_public)
    4537                            .dwattr $C$DW$359, DW_AT_decl_file("C:\ti\ccs1200\ccs\ccs_base\arm\include\msp432p401r.h")
    4538                            .dwattr $C$DW$359, DW_AT_decl_line(0x173)
    4539                            .dwattr $C$DW$359, DW_AT_decl_column(0x11)
    4540                    
    4541                    $C$DW$360       .dwtag  DW_TAG_member
    4542                            .dwattr $C$DW$360, DW_AT_type(*$C$DW$T$79)
    4543                            .dwattr $C$DW$360, DW_AT_name("MEM")
    4544                            .dwattr $C$DW$360, DW_AT_TI_symbol_name("MEM")
    4545                            .dwattr $C$DW$360, DW_AT_data_member_location[DW_OP_plus_uconst 0x98]
    4546                            .dwattr $C$DW$360, DW_AT_accessibility(DW_ACCESS_public)
    4547                            .dwattr $C$DW$360, DW_AT_decl_file("C:\ti\ccs1200\ccs\ccs_base\arm\include\msp432p401r.h")
    4548                            .dwattr $C$DW$360, DW_AT_decl_line(0x174)
    4549                            .dwattr $C$DW$360, DW_AT_decl_column(0x11)
    4550                    
    4551                    $C$DW$361       .dwtag  DW_TAG_member
    4552                            .dwattr $C$DW$361, DW_AT_type(*$C$DW$T$80)
    4553                            .dwattr $C$DW$361, DW_AT_name("RESERVED0")
    4554                            .dwattr $C$DW$361, DW_AT_TI_symbol_name("RESERVED0")
    4555                            .dwattr $C$DW$361, DW_AT_data_member_location[DW_OP_plus_uconst 0x118]
    4556                            .dwattr $C$DW$361, DW_AT_accessibility(DW_ACCESS_public)
    4557                            .dwattr $C$DW$361, DW_AT_decl_file("C:\ti\ccs1200\ccs\ccs_base\arm\include\msp432p401r.h")
    4558                            .dwattr $C$DW$361, DW_AT_decl_line(0x175)
    4559                            .dwattr $C$DW$361, DW_AT_decl_column(0x11)
    4560                    
    4561                    $C$DW$362       .dwtag  DW_TAG_member
    4562                            .dwattr $C$DW$362, DW_AT_type(*$C$DW$T$23)
    4563                            .dwattr $C$DW$362, DW_AT_name("IER0")
    4564                            .dwattr $C$DW$362, DW_AT_TI_symbol_name("IER0")
    4565                            .dwattr $C$DW$362, DW_AT_data_member_location[DW_OP_plus_uconst 0x13c]
TI ARM Assembler PC v20.2.6 Mon Oct 31 23:16:56 2022

Copyright (c) 1996-2018 Texas Instruments Incorporated
system_msp432p401r.asm                                               PAGE   84

    4566                            .dwattr $C$DW$362, DW_AT_accessibility(DW_ACCESS_public)
    4567                            .dwattr $C$DW$362, DW_AT_decl_file("C:\ti\ccs1200\ccs\ccs_base\arm\include\msp432p401r.h")
    4568                            .dwattr $C$DW$362, DW_AT_decl_line(0x176)
    4569                            .dwattr $C$DW$362, DW_AT_decl_column(0x11)
    4570                    
    4571                    $C$DW$363       .dwtag  DW_TAG_member
    4572                            .dwattr $C$DW$363, DW_AT_type(*$C$DW$T$23)
    4573                            .dwattr $C$DW$363, DW_AT_name("IER1")
    4574                            .dwattr $C$DW$363, DW_AT_TI_symbol_name("IER1")
    4575                            .dwattr $C$DW$363, DW_AT_data_member_location[DW_OP_plus_uconst 0x140]
    4576                            .dwattr $C$DW$363, DW_AT_accessibility(DW_ACCESS_public)
    4577                            .dwattr $C$DW$363, DW_AT_decl_file("C:\ti\ccs1200\ccs\ccs_base\arm\include\msp432p401r.h")
    4578                            .dwattr $C$DW$363, DW_AT_decl_line(0x177)
    4579                            .dwattr $C$DW$363, DW_AT_decl_column(0x11)
    4580                    
    4581                    $C$DW$364       .dwtag  DW_TAG_member
    4582                            .dwattr $C$DW$364, DW_AT_type(*$C$DW$T$25)
    4583                            .dwattr $C$DW$364, DW_AT_name("IFGR0")
    4584                            .dwattr $C$DW$364, DW_AT_TI_symbol_name("IFGR0")
    4585                            .dwattr $C$DW$364, DW_AT_data_member_location[DW_OP_plus_uconst 0x144]
    4586                            .dwattr $C$DW$364, DW_AT_accessibility(DW_ACCESS_public)
    4587                            .dwattr $C$DW$364, DW_AT_decl_file("C:\ti\ccs1200\ccs\ccs_base\arm\include\msp432p401r.h")
    4588                            .dwattr $C$DW$364, DW_AT_decl_line(0x178)
    4589                            .dwattr $C$DW$364, DW_AT_decl_column(0x11)
    4590                    
    4591                    $C$DW$365       .dwtag  DW_TAG_member
    4592                            .dwattr $C$DW$365, DW_AT_type(*$C$DW$T$25)
    4593                            .dwattr $C$DW$365, DW_AT_name("IFGR1")
    4594                            .dwattr $C$DW$365, DW_AT_TI_symbol_name("IFGR1")
    4595                            .dwattr $C$DW$365, DW_AT_data_member_location[DW_OP_plus_uconst 0x148]
    4596                            .dwattr $C$DW$365, DW_AT_accessibility(DW_ACCESS_public)
    4597                            .dwattr $C$DW$365, DW_AT_decl_file("C:\ti\ccs1200\ccs\ccs_base\arm\include\msp432p401r.h")
    4598                            .dwattr $C$DW$365, DW_AT_decl_line(0x179)
    4599                            .dwattr $C$DW$365, DW_AT_decl_column(0x11)
    4600                    
    4601                    $C$DW$366       .dwtag  DW_TAG_member
    4602                            .dwattr $C$DW$366, DW_AT_type(*$C$DW$T$23)
    4603                            .dwattr $C$DW$366, DW_AT_name("CLRIFGR0")
    4604                            .dwattr $C$DW$366, DW_AT_TI_symbol_name("CLRIFGR0")
    4605                            .dwattr $C$DW$366, DW_AT_data_member_location[DW_OP_plus_uconst 0x14c]
    4606                            .dwattr $C$DW$366, DW_AT_accessibility(DW_ACCESS_public)
    4607                            .dwattr $C$DW$366, DW_AT_decl_file("C:\ti\ccs1200\ccs\ccs_base\arm\include\msp432p401r.h")
    4608                            .dwattr $C$DW$366, DW_AT_decl_line(0x17a)
    4609                            .dwattr $C$DW$366, DW_AT_decl_column(0x11)
    4610                    
    4611                    $C$DW$367       .dwtag  DW_TAG_member
    4612                            .dwattr $C$DW$367, DW_AT_type(*$C$DW$T$23)
    4613                            .dwattr $C$DW$367, DW_AT_name("CLRIFGR1")
    4614                            .dwattr $C$DW$367, DW_AT_TI_symbol_name("CLRIFGR1")
    4615                            .dwattr $C$DW$367, DW_AT_data_member_location[DW_OP_plus_uconst 0x150]
    4616                            .dwattr $C$DW$367, DW_AT_accessibility(DW_ACCESS_public)
    4617                            .dwattr $C$DW$367, DW_AT_decl_file("C:\ti\ccs1200\ccs\ccs_base\arm\include\msp432p401r.h")
    4618                            .dwattr $C$DW$367, DW_AT_decl_line(0x17b)
    4619                            .dwattr $C$DW$367, DW_AT_decl_column(0x11)
    4620                    
TI ARM Assembler PC v20.2.6 Mon Oct 31 23:16:56 2022

Copyright (c) 1996-2018 Texas Instruments Incorporated
system_msp432p401r.asm                                               PAGE   85

    4621                    $C$DW$368       .dwtag  DW_TAG_member
    4622                            .dwattr $C$DW$368, DW_AT_type(*$C$DW$T$23)
    4623                            .dwattr $C$DW$368, DW_AT_name("IV")
    4624                            .dwattr $C$DW$368, DW_AT_TI_symbol_name("IV")
    4625                            .dwattr $C$DW$368, DW_AT_data_member_location[DW_OP_plus_uconst 0x154]
    4626                            .dwattr $C$DW$368, DW_AT_accessibility(DW_ACCESS_public)
    4627                            .dwattr $C$DW$368, DW_AT_decl_file("C:\ti\ccs1200\ccs\ccs_base\arm\include\msp432p401r.h")
    4628                            .dwattr $C$DW$368, DW_AT_decl_line(0x17c)
    4629                            .dwattr $C$DW$368, DW_AT_decl_column(0x11)
    4630                    
    4631                            .dwattr $C$DW$T$81, DW_AT_decl_file("C:\ti\ccs1200\ccs\ccs_base\arm\include\msp432p401r.h")
    4632                            .dwattr $C$DW$T$81, DW_AT_decl_line(0x16c)
    4633                            .dwattr $C$DW$T$81, DW_AT_decl_column(0x10)
    4634                            .dwendtag $C$DW$T$81
    4635                    
    4636                    $C$DW$T$201     .dwtag  DW_TAG_typedef
    4637                            .dwattr $C$DW$T$201, DW_AT_name("ADC14_Type")
    4638                            .dwattr $C$DW$T$201, DW_AT_type(*$C$DW$T$81)
    4639                            .dwattr $C$DW$T$201, DW_AT_language(DW_LANG_C)
    4640                            .dwattr $C$DW$T$201, DW_AT_decl_file("C:\ti\ccs1200\ccs\ccs_base\arm\include\msp432p401r.h")
    4641                            .dwattr $C$DW$T$201, DW_AT_decl_line(0x17d)
    4642                            .dwattr $C$DW$T$201, DW_AT_decl_column(0x03)
    4643                    
    4644                    
    4645                    $C$DW$T$82      .dwtag  DW_TAG_structure_type
    4646                            .dwattr $C$DW$T$82, DW_AT_byte_size(0x10)
    4647                    $C$DW$369       .dwtag  DW_TAG_member
    4648                            .dwattr $C$DW$369, DW_AT_type(*$C$DW$T$41)
    4649                            .dwattr $C$DW$369, DW_AT_name("CTL0")
    4650                            .dwattr $C$DW$369, DW_AT_TI_symbol_name("CTL0")
    4651                            .dwattr $C$DW$369, DW_AT_data_member_location[DW_OP_plus_uconst 0x0]
    4652                            .dwattr $C$DW$369, DW_AT_accessibility(DW_ACCESS_public)
    4653                            .dwattr $C$DW$369, DW_AT_decl_file("C:\ti\ccs1200\ccs\ccs_base\arm\include\msp432p401r.h")
    4654                            .dwattr $C$DW$369, DW_AT_decl_line(0x189)
    4655                            .dwattr $C$DW$369, DW_AT_decl_column(0x11)
    4656                    
    4657                    $C$DW$370       .dwtag  DW_TAG_member
    4658                            .dwattr $C$DW$370, DW_AT_type(*$C$DW$T$41)
    4659                            .dwattr $C$DW$370, DW_AT_name("CTL1")
    4660                            .dwattr $C$DW$370, DW_AT_TI_symbol_name("CTL1")
    4661                            .dwattr $C$DW$370, DW_AT_data_member_location[DW_OP_plus_uconst 0x2]
    4662                            .dwattr $C$DW$370, DW_AT_accessibility(DW_ACCESS_public)
    4663                            .dwattr $C$DW$370, DW_AT_decl_file("C:\ti\ccs1200\ccs\ccs_base\arm\include\msp432p401r.h")
    4664                            .dwattr $C$DW$370, DW_AT_decl_line(0x18a)
    4665                            .dwattr $C$DW$370, DW_AT_decl_column(0x11)
    4666                    
    4667                    $C$DW$371       .dwtag  DW_TAG_member
    4668                            .dwattr $C$DW$371, DW_AT_type(*$C$DW$T$41)
    4669                            .dwattr $C$DW$371, DW_AT_name("STAT")
    4670                            .dwattr $C$DW$371, DW_AT_TI_symbol_name("STAT")
    4671                            .dwattr $C$DW$371, DW_AT_data_member_location[DW_OP_plus_uconst 0x4]
    4672                            .dwattr $C$DW$371, DW_AT_accessibility(DW_ACCESS_public)
    4673                            .dwattr $C$DW$371, DW_AT_decl_file("C:\ti\ccs1200\ccs\ccs_base\arm\include\msp432p401r.h")
    4674                            .dwattr $C$DW$371, DW_AT_decl_line(0x18b)
    4675                            .dwattr $C$DW$371, DW_AT_decl_column(0x11)
TI ARM Assembler PC v20.2.6 Mon Oct 31 23:16:56 2022

Copyright (c) 1996-2018 Texas Instruments Incorporated
system_msp432p401r.asm                                               PAGE   86

    4676                    
    4677                    $C$DW$372       .dwtag  DW_TAG_member
    4678                            .dwattr $C$DW$372, DW_AT_type(*$C$DW$T$41)
    4679                            .dwattr $C$DW$372, DW_AT_name("KEY")
    4680                            .dwattr $C$DW$372, DW_AT_TI_symbol_name("KEY")
    4681                            .dwattr $C$DW$372, DW_AT_data_member_location[DW_OP_plus_uconst 0x6]
    4682                            .dwattr $C$DW$372, DW_AT_accessibility(DW_ACCESS_public)
    4683                            .dwattr $C$DW$372, DW_AT_decl_file("C:\ti\ccs1200\ccs\ccs_base\arm\include\msp432p401r.h")
    4684                            .dwattr $C$DW$372, DW_AT_decl_line(0x18c)
    4685                            .dwattr $C$DW$372, DW_AT_decl_column(0x11)
    4686                    
    4687                    $C$DW$373       .dwtag  DW_TAG_member
    4688                            .dwattr $C$DW$373, DW_AT_type(*$C$DW$T$41)
    4689                            .dwattr $C$DW$373, DW_AT_name("DIN")
    4690                            .dwattr $C$DW$373, DW_AT_TI_symbol_name("DIN")
    4691                            .dwattr $C$DW$373, DW_AT_data_member_location[DW_OP_plus_uconst 0x8]
    4692                            .dwattr $C$DW$373, DW_AT_accessibility(DW_ACCESS_public)
    4693                            .dwattr $C$DW$373, DW_AT_decl_file("C:\ti\ccs1200\ccs\ccs_base\arm\include\msp432p401r.h")
    4694                            .dwattr $C$DW$373, DW_AT_decl_line(0x18d)
    4695                            .dwattr $C$DW$373, DW_AT_decl_column(0x11)
    4696                    
    4697                    $C$DW$374       .dwtag  DW_TAG_member
    4698                            .dwattr $C$DW$374, DW_AT_type(*$C$DW$T$41)
    4699                            .dwattr $C$DW$374, DW_AT_name("DOUT")
    4700                            .dwattr $C$DW$374, DW_AT_TI_symbol_name("DOUT")
    4701                            .dwattr $C$DW$374, DW_AT_data_member_location[DW_OP_plus_uconst 0xa]
    4702                            .dwattr $C$DW$374, DW_AT_accessibility(DW_ACCESS_public)
    4703                            .dwattr $C$DW$374, DW_AT_decl_file("C:\ti\ccs1200\ccs\ccs_base\arm\include\msp432p401r.h")
    4704                            .dwattr $C$DW$374, DW_AT_decl_line(0x18e)
    4705                            .dwattr $C$DW$374, DW_AT_decl_column(0x11)
    4706                    
    4707                    $C$DW$375       .dwtag  DW_TAG_member
    4708                            .dwattr $C$DW$375, DW_AT_type(*$C$DW$T$41)
    4709                            .dwattr $C$DW$375, DW_AT_name("XDIN")
    4710                            .dwattr $C$DW$375, DW_AT_TI_symbol_name("XDIN")
    4711                            .dwattr $C$DW$375, DW_AT_data_member_location[DW_OP_plus_uconst 0xc]
    4712                            .dwattr $C$DW$375, DW_AT_accessibility(DW_ACCESS_public)
    4713                            .dwattr $C$DW$375, DW_AT_decl_file("C:\ti\ccs1200\ccs\ccs_base\arm\include\msp432p401r.h")
    4714                            .dwattr $C$DW$375, DW_AT_decl_line(0x18f)
    4715                            .dwattr $C$DW$375, DW_AT_decl_column(0x11)
    4716                    
    4717                    $C$DW$376       .dwtag  DW_TAG_member
    4718                            .dwattr $C$DW$376, DW_AT_type(*$C$DW$T$41)
    4719                            .dwattr $C$DW$376, DW_AT_name("XIN")
    4720                            .dwattr $C$DW$376, DW_AT_TI_symbol_name("XIN")
    4721                            .dwattr $C$DW$376, DW_AT_data_member_location[DW_OP_plus_uconst 0xe]
    4722                            .dwattr $C$DW$376, DW_AT_accessibility(DW_ACCESS_public)
    4723                            .dwattr $C$DW$376, DW_AT_decl_file("C:\ti\ccs1200\ccs\ccs_base\arm\include\msp432p401r.h")
    4724                            .dwattr $C$DW$376, DW_AT_decl_line(0x190)
    4725                            .dwattr $C$DW$376, DW_AT_decl_column(0x11)
    4726                    
    4727                            .dwattr $C$DW$T$82, DW_AT_decl_file("C:\ti\ccs1200\ccs\ccs_base\arm\include\msp432p401r.h")
    4728                            .dwattr $C$DW$T$82, DW_AT_decl_line(0x188)
    4729                            .dwattr $C$DW$T$82, DW_AT_decl_column(0x10)
    4730                            .dwendtag $C$DW$T$82
TI ARM Assembler PC v20.2.6 Mon Oct 31 23:16:56 2022

Copyright (c) 1996-2018 Texas Instruments Incorporated
system_msp432p401r.asm                                               PAGE   87

    4731                    
    4732                    $C$DW$T$202     .dwtag  DW_TAG_typedef
    4733                            .dwattr $C$DW$T$202, DW_AT_name("AES256_Type")
    4734                            .dwattr $C$DW$T$202, DW_AT_type(*$C$DW$T$82)
    4735                            .dwattr $C$DW$T$202, DW_AT_language(DW_LANG_C)
    4736                            .dwattr $C$DW$T$202, DW_AT_decl_file("C:\ti\ccs1200\ccs\ccs_base\arm\include\msp432p401r.h")
    4737                            .dwattr $C$DW$T$202, DW_AT_decl_line(0x191)
    4738                            .dwattr $C$DW$T$202, DW_AT_decl_column(0x03)
    4739                    
    4740                    
    4741                    $C$DW$T$84      .dwtag  DW_TAG_structure_type
    4742                            .dwattr $C$DW$T$84, DW_AT_byte_size(0x10)
    4743                    $C$DW$377       .dwtag  DW_TAG_member
    4744                            .dwattr $C$DW$377, DW_AT_type(*$C$DW$T$83)
    4745                            .dwattr $C$DW$377, DW_AT_name("RESERVED0")
    4746                            .dwattr $C$DW$377, DW_AT_TI_symbol_name("RESERVED0")
    4747                            .dwattr $C$DW$377, DW_AT_data_member_location[DW_OP_plus_uconst 0x0]
    4748                            .dwattr $C$DW$377, DW_AT_accessibility(DW_ACCESS_public)
    4749                            .dwattr $C$DW$377, DW_AT_decl_file("C:\ti\ccs1200\ccs\ccs_base\arm\include\msp432p401r.h")
    4750                            .dwattr $C$DW$377, DW_AT_decl_line(0x19d)
    4751                            .dwattr $C$DW$377, DW_AT_decl_column(0x11)
    4752                    
    4753                    $C$DW$378       .dwtag  DW_TAG_member
    4754                            .dwattr $C$DW$378, DW_AT_type(*$C$DW$T$41)
    4755                            .dwattr $C$DW$378, DW_AT_name("CTL")
    4756                            .dwattr $C$DW$378, DW_AT_TI_symbol_name("CTL")
    4757                            .dwattr $C$DW$378, DW_AT_data_member_location[DW_OP_plus_uconst 0xe]
    4758                            .dwattr $C$DW$378, DW_AT_accessibility(DW_ACCESS_public)
    4759                            .dwattr $C$DW$378, DW_AT_decl_file("C:\ti\ccs1200\ccs\ccs_base\arm\include\msp432p401r.h")
    4760                            .dwattr $C$DW$378, DW_AT_decl_line(0x19e)
    4761                            .dwattr $C$DW$378, DW_AT_decl_column(0x11)
    4762                    
    4763                            .dwattr $C$DW$T$84, DW_AT_decl_file("C:\ti\ccs1200\ccs\ccs_base\arm\include\msp432p401r.h")
    4764                            .dwattr $C$DW$T$84, DW_AT_decl_line(0x19c)
    4765                            .dwattr $C$DW$T$84, DW_AT_decl_column(0x10)
    4766                            .dwendtag $C$DW$T$84
    4767                    
    4768                    $C$DW$T$203     .dwtag  DW_TAG_typedef
    4769                            .dwattr $C$DW$T$203, DW_AT_name("CAPTIO_Type")
    4770                            .dwattr $C$DW$T$203, DW_AT_type(*$C$DW$T$84)
    4771                            .dwattr $C$DW$T$203, DW_AT_language(DW_LANG_C)
    4772                            .dwattr $C$DW$T$203, DW_AT_decl_file("C:\ti\ccs1200\ccs\ccs_base\arm\include\msp432p401r.h")
    4773                            .dwattr $C$DW$T$203, DW_AT_decl_line(0x19f)
    4774                            .dwattr $C$DW$T$203, DW_AT_decl_column(0x03)
    4775                    
    4776                    
    4777                    $C$DW$T$87      .dwtag  DW_TAG_structure_type
    4778                            .dwattr $C$DW$T$87, DW_AT_byte_size(0x10)
    4779                    $C$DW$379       .dwtag  DW_TAG_member
    4780                            .dwattr $C$DW$379, DW_AT_type(*$C$DW$T$41)
    4781                            .dwattr $C$DW$379, DW_AT_name("CTL0")
    4782                            .dwattr $C$DW$379, DW_AT_TI_symbol_name("CTL0")
    4783                            .dwattr $C$DW$379, DW_AT_data_member_location[DW_OP_plus_uconst 0x0]
    4784                            .dwattr $C$DW$379, DW_AT_accessibility(DW_ACCESS_public)
    4785                            .dwattr $C$DW$379, DW_AT_decl_file("C:\ti\ccs1200\ccs\ccs_base\arm\include\msp432p401r.h")
TI ARM Assembler PC v20.2.6 Mon Oct 31 23:16:56 2022

Copyright (c) 1996-2018 Texas Instruments Incorporated
system_msp432p401r.asm                                               PAGE   88

    4786                            .dwattr $C$DW$379, DW_AT_decl_line(0x1ab)
    4787                            .dwattr $C$DW$379, DW_AT_decl_column(0x11)
    4788                    
    4789                    $C$DW$380       .dwtag  DW_TAG_member
    4790                            .dwattr $C$DW$380, DW_AT_type(*$C$DW$T$41)
    4791                            .dwattr $C$DW$380, DW_AT_name("CTL1")
    4792                            .dwattr $C$DW$380, DW_AT_TI_symbol_name("CTL1")
    4793                            .dwattr $C$DW$380, DW_AT_data_member_location[DW_OP_plus_uconst 0x2]
    4794                            .dwattr $C$DW$380, DW_AT_accessibility(DW_ACCESS_public)
    4795                            .dwattr $C$DW$380, DW_AT_decl_file("C:\ti\ccs1200\ccs\ccs_base\arm\include\msp432p401r.h")
    4796                            .dwattr $C$DW$380, DW_AT_decl_line(0x1ac)
    4797                            .dwattr $C$DW$380, DW_AT_decl_column(0x11)
    4798                    
    4799                    $C$DW$381       .dwtag  DW_TAG_member
    4800                            .dwattr $C$DW$381, DW_AT_type(*$C$DW$T$41)
    4801                            .dwattr $C$DW$381, DW_AT_name("CTL2")
    4802                            .dwattr $C$DW$381, DW_AT_TI_symbol_name("CTL2")
    4803                            .dwattr $C$DW$381, DW_AT_data_member_location[DW_OP_plus_uconst 0x4]
    4804                            .dwattr $C$DW$381, DW_AT_accessibility(DW_ACCESS_public)
    4805                            .dwattr $C$DW$381, DW_AT_decl_file("C:\ti\ccs1200\ccs\ccs_base\arm\include\msp432p401r.h")
    4806                            .dwattr $C$DW$381, DW_AT_decl_line(0x1ad)
    4807                            .dwattr $C$DW$381, DW_AT_decl_column(0x11)
    4808                    
    4809                    $C$DW$382       .dwtag  DW_TAG_member
    4810                            .dwattr $C$DW$382, DW_AT_type(*$C$DW$T$41)
    4811                            .dwattr $C$DW$382, DW_AT_name("CTL3")
    4812                            .dwattr $C$DW$382, DW_AT_TI_symbol_name("CTL3")
    4813                            .dwattr $C$DW$382, DW_AT_data_member_location[DW_OP_plus_uconst 0x6]
    4814                            .dwattr $C$DW$382, DW_AT_accessibility(DW_ACCESS_public)
    4815                            .dwattr $C$DW$382, DW_AT_decl_file("C:\ti\ccs1200\ccs\ccs_base\arm\include\msp432p401r.h")
    4816                            .dwattr $C$DW$382, DW_AT_decl_line(0x1ae)
    4817                            .dwattr $C$DW$382, DW_AT_decl_column(0x11)
    4818                    
    4819                    $C$DW$383       .dwtag  DW_TAG_member
    4820                            .dwattr $C$DW$383, DW_AT_type(*$C$DW$T$85)
    4821                            .dwattr $C$DW$383, DW_AT_name("RESERVED0")
    4822                            .dwattr $C$DW$383, DW_AT_TI_symbol_name("RESERVED0")
    4823                            .dwattr $C$DW$383, DW_AT_data_member_location[DW_OP_plus_uconst 0x8]
    4824                            .dwattr $C$DW$383, DW_AT_accessibility(DW_ACCESS_public)
    4825                            .dwattr $C$DW$383, DW_AT_decl_file("C:\ti\ccs1200\ccs\ccs_base\arm\include\msp432p401r.h")
    4826                            .dwattr $C$DW$383, DW_AT_decl_line(0x1af)
    4827                            .dwattr $C$DW$383, DW_AT_decl_column(0x11)
    4828                    
    4829                    $C$DW$384       .dwtag  DW_TAG_member
    4830                            .dwattr $C$DW$384, DW_AT_type(*$C$DW$T$41)
    4831                            .dwattr $C$DW$384, DW_AT_name("INT")
    4832                            .dwattr $C$DW$384, DW_AT_TI_symbol_name("INT")
    4833                            .dwattr $C$DW$384, DW_AT_data_member_location[DW_OP_plus_uconst 0xc]
    4834                            .dwattr $C$DW$384, DW_AT_accessibility(DW_ACCESS_public)
    4835                            .dwattr $C$DW$384, DW_AT_decl_file("C:\ti\ccs1200\ccs\ccs_base\arm\include\msp432p401r.h")
    4836                            .dwattr $C$DW$384, DW_AT_decl_line(0x1b0)
    4837                            .dwattr $C$DW$384, DW_AT_decl_column(0x11)
    4838                    
    4839                    $C$DW$385       .dwtag  DW_TAG_member
    4840                            .dwattr $C$DW$385, DW_AT_type(*$C$DW$T$86)
TI ARM Assembler PC v20.2.6 Mon Oct 31 23:16:56 2022

Copyright (c) 1996-2018 Texas Instruments Incorporated
system_msp432p401r.asm                                               PAGE   89

    4841                            .dwattr $C$DW$385, DW_AT_name("IV")
    4842                            .dwattr $C$DW$385, DW_AT_TI_symbol_name("IV")
    4843                            .dwattr $C$DW$385, DW_AT_data_member_location[DW_OP_plus_uconst 0xe]
    4844                            .dwattr $C$DW$385, DW_AT_accessibility(DW_ACCESS_public)
    4845                            .dwattr $C$DW$385, DW_AT_decl_file("C:\ti\ccs1200\ccs\ccs_base\arm\include\msp432p401r.h")
    4846                            .dwattr $C$DW$385, DW_AT_decl_line(0x1b1)
    4847                            .dwattr $C$DW$385, DW_AT_decl_column(0x11)
    4848                    
    4849                            .dwattr $C$DW$T$87, DW_AT_decl_file("C:\ti\ccs1200\ccs\ccs_base\arm\include\msp432p401r.h")
    4850                            .dwattr $C$DW$T$87, DW_AT_decl_line(0x1aa)
    4851                            .dwattr $C$DW$T$87, DW_AT_decl_column(0x10)
    4852                            .dwendtag $C$DW$T$87
    4853                    
    4854                    $C$DW$T$204     .dwtag  DW_TAG_typedef
    4855                            .dwattr $C$DW$T$204, DW_AT_name("COMP_E_Type")
    4856                            .dwattr $C$DW$T$204, DW_AT_type(*$C$DW$T$87)
    4857                            .dwattr $C$DW$T$204, DW_AT_language(DW_LANG_C)
    4858                            .dwattr $C$DW$T$204, DW_AT_decl_file("C:\ti\ccs1200\ccs\ccs_base\arm\include\msp432p401r.h")
    4859                            .dwattr $C$DW$T$204, DW_AT_decl_line(0x1b2)
    4860                            .dwattr $C$DW$T$204, DW_AT_decl_column(0x03)
    4861                    
    4862                    
    4863                    $C$DW$T$88      .dwtag  DW_TAG_structure_type
    4864                            .dwattr $C$DW$T$88, DW_AT_byte_size(0x20)
    4865                    $C$DW$386       .dwtag  DW_TAG_member
    4866                            .dwattr $C$DW$386, DW_AT_type(*$C$DW$T$41)
    4867                            .dwattr $C$DW$386, DW_AT_name("DI32")
    4868                            .dwattr $C$DW$386, DW_AT_TI_symbol_name("DI32")
    4869                            .dwattr $C$DW$386, DW_AT_data_member_location[DW_OP_plus_uconst 0x0]
    4870                            .dwattr $C$DW$386, DW_AT_accessibility(DW_ACCESS_public)
    4871                            .dwattr $C$DW$386, DW_AT_decl_file("C:\ti\ccs1200\ccs\ccs_base\arm\include\msp432p401r.h")
    4872                            .dwattr $C$DW$386, DW_AT_decl_line(0x1be)
    4873                            .dwattr $C$DW$386, DW_AT_decl_column(0x11)
    4874                    
    4875                    $C$DW$387       .dwtag  DW_TAG_member
    4876                            .dwattr $C$DW$387, DW_AT_type(*$C$DW$T$39)
    4877                            .dwattr $C$DW$387, DW_AT_name("RESERVED0")
    4878                            .dwattr $C$DW$387, DW_AT_TI_symbol_name("RESERVED0")
    4879                            .dwattr $C$DW$387, DW_AT_data_member_location[DW_OP_plus_uconst 0x2]
    4880                            .dwattr $C$DW$387, DW_AT_accessibility(DW_ACCESS_public)
    4881                            .dwattr $C$DW$387, DW_AT_decl_file("C:\ti\ccs1200\ccs\ccs_base\arm\include\msp432p401r.h")
    4882                            .dwattr $C$DW$387, DW_AT_decl_line(0x1bf)
    4883                            .dwattr $C$DW$387, DW_AT_decl_column(0x11)
    4884                    
    4885                    $C$DW$388       .dwtag  DW_TAG_member
    4886                            .dwattr $C$DW$388, DW_AT_type(*$C$DW$T$41)
    4887                            .dwattr $C$DW$388, DW_AT_name("DIRB32")
    4888                            .dwattr $C$DW$388, DW_AT_TI_symbol_name("DIRB32")
    4889                            .dwattr $C$DW$388, DW_AT_data_member_location[DW_OP_plus_uconst 0x4]
    4890                            .dwattr $C$DW$388, DW_AT_accessibility(DW_ACCESS_public)
    4891                            .dwattr $C$DW$388, DW_AT_decl_file("C:\ti\ccs1200\ccs\ccs_base\arm\include\msp432p401r.h")
    4892                            .dwattr $C$DW$388, DW_AT_decl_line(0x1c0)
    4893                            .dwattr $C$DW$388, DW_AT_decl_column(0x11)
    4894                    
    4895                    $C$DW$389       .dwtag  DW_TAG_member
TI ARM Assembler PC v20.2.6 Mon Oct 31 23:16:56 2022

Copyright (c) 1996-2018 Texas Instruments Incorporated
system_msp432p401r.asm                                               PAGE   90

    4896                            .dwattr $C$DW$389, DW_AT_type(*$C$DW$T$39)
    4897                            .dwattr $C$DW$389, DW_AT_name("RESERVED1")
    4898                            .dwattr $C$DW$389, DW_AT_TI_symbol_name("RESERVED1")
    4899                            .dwattr $C$DW$389, DW_AT_data_member_location[DW_OP_plus_uconst 0x6]
    4900                            .dwattr $C$DW$389, DW_AT_accessibility(DW_ACCESS_public)
    4901                            .dwattr $C$DW$389, DW_AT_decl_file("C:\ti\ccs1200\ccs\ccs_base\arm\include\msp432p401r.h")
    4902                            .dwattr $C$DW$389, DW_AT_decl_line(0x1c1)
    4903                            .dwattr $C$DW$389, DW_AT_decl_column(0x11)
    4904                    
    4905                    $C$DW$390       .dwtag  DW_TAG_member
    4906                            .dwattr $C$DW$390, DW_AT_type(*$C$DW$T$41)
    4907                            .dwattr $C$DW$390, DW_AT_name("INIRES32_LO")
    4908                            .dwattr $C$DW$390, DW_AT_TI_symbol_name("INIRES32_LO")
    4909                            .dwattr $C$DW$390, DW_AT_data_member_location[DW_OP_plus_uconst 0x8]
    4910                            .dwattr $C$DW$390, DW_AT_accessibility(DW_ACCESS_public)
    4911                            .dwattr $C$DW$390, DW_AT_decl_file("C:\ti\ccs1200\ccs\ccs_base\arm\include\msp432p401r.h")
    4912                            .dwattr $C$DW$390, DW_AT_decl_line(0x1c2)
    4913                            .dwattr $C$DW$390, DW_AT_decl_column(0x11)
    4914                    
    4915                    $C$DW$391       .dwtag  DW_TAG_member
    4916                            .dwattr $C$DW$391, DW_AT_type(*$C$DW$T$41)
    4917                            .dwattr $C$DW$391, DW_AT_name("INIRES32_HI")
    4918                            .dwattr $C$DW$391, DW_AT_TI_symbol_name("INIRES32_HI")
    4919                            .dwattr $C$DW$391, DW_AT_data_member_location[DW_OP_plus_uconst 0xa]
    4920                            .dwattr $C$DW$391, DW_AT_accessibility(DW_ACCESS_public)
    4921                            .dwattr $C$DW$391, DW_AT_decl_file("C:\ti\ccs1200\ccs\ccs_base\arm\include\msp432p401r.h")
    4922                            .dwattr $C$DW$391, DW_AT_decl_line(0x1c3)
    4923                            .dwattr $C$DW$391, DW_AT_decl_column(0x11)
    4924                    
    4925                    $C$DW$392       .dwtag  DW_TAG_member
    4926                            .dwattr $C$DW$392, DW_AT_type(*$C$DW$T$41)
    4927                            .dwattr $C$DW$392, DW_AT_name("RESR32_LO")
    4928                            .dwattr $C$DW$392, DW_AT_TI_symbol_name("RESR32_LO")
    4929                            .dwattr $C$DW$392, DW_AT_data_member_location[DW_OP_plus_uconst 0xc]
    4930                            .dwattr $C$DW$392, DW_AT_accessibility(DW_ACCESS_public)
    4931                            .dwattr $C$DW$392, DW_AT_decl_file("C:\ti\ccs1200\ccs\ccs_base\arm\include\msp432p401r.h")
    4932                            .dwattr $C$DW$392, DW_AT_decl_line(0x1c4)
    4933                            .dwattr $C$DW$392, DW_AT_decl_column(0x11)
    4934                    
    4935                    $C$DW$393       .dwtag  DW_TAG_member
    4936                            .dwattr $C$DW$393, DW_AT_type(*$C$DW$T$41)
    4937                            .dwattr $C$DW$393, DW_AT_name("RESR32_HI")
    4938                            .dwattr $C$DW$393, DW_AT_TI_symbol_name("RESR32_HI")
    4939                            .dwattr $C$DW$393, DW_AT_data_member_location[DW_OP_plus_uconst 0xe]
    4940                            .dwattr $C$DW$393, DW_AT_accessibility(DW_ACCESS_public)
    4941                            .dwattr $C$DW$393, DW_AT_decl_file("C:\ti\ccs1200\ccs\ccs_base\arm\include\msp432p401r.h")
    4942                            .dwattr $C$DW$393, DW_AT_decl_line(0x1c5)
    4943                            .dwattr $C$DW$393, DW_AT_decl_column(0x11)
    4944                    
    4945                    $C$DW$394       .dwtag  DW_TAG_member
    4946                            .dwattr $C$DW$394, DW_AT_type(*$C$DW$T$41)
    4947                            .dwattr $C$DW$394, DW_AT_name("DI16")
    4948                            .dwattr $C$DW$394, DW_AT_TI_symbol_name("DI16")
    4949                            .dwattr $C$DW$394, DW_AT_data_member_location[DW_OP_plus_uconst 0x10]
    4950                            .dwattr $C$DW$394, DW_AT_accessibility(DW_ACCESS_public)
TI ARM Assembler PC v20.2.6 Mon Oct 31 23:16:56 2022

Copyright (c) 1996-2018 Texas Instruments Incorporated
system_msp432p401r.asm                                               PAGE   91

    4951                            .dwattr $C$DW$394, DW_AT_decl_file("C:\ti\ccs1200\ccs\ccs_base\arm\include\msp432p401r.h")
    4952                            .dwattr $C$DW$394, DW_AT_decl_line(0x1c6)
    4953                            .dwattr $C$DW$394, DW_AT_decl_column(0x11)
    4954                    
    4955                    $C$DW$395       .dwtag  DW_TAG_member
    4956                            .dwattr $C$DW$395, DW_AT_type(*$C$DW$T$39)
    4957                            .dwattr $C$DW$395, DW_AT_name("RESERVED2")
    4958                            .dwattr $C$DW$395, DW_AT_TI_symbol_name("RESERVED2")
    4959                            .dwattr $C$DW$395, DW_AT_data_member_location[DW_OP_plus_uconst 0x12]
    4960                            .dwattr $C$DW$395, DW_AT_accessibility(DW_ACCESS_public)
    4961                            .dwattr $C$DW$395, DW_AT_decl_file("C:\ti\ccs1200\ccs\ccs_base\arm\include\msp432p401r.h")
    4962                            .dwattr $C$DW$395, DW_AT_decl_line(0x1c7)
    4963                            .dwattr $C$DW$395, DW_AT_decl_column(0x11)
    4964                    
    4965                    $C$DW$396       .dwtag  DW_TAG_member
    4966                            .dwattr $C$DW$396, DW_AT_type(*$C$DW$T$41)
    4967                            .dwattr $C$DW$396, DW_AT_name("DIRB16")
    4968                            .dwattr $C$DW$396, DW_AT_TI_symbol_name("DIRB16")
    4969                            .dwattr $C$DW$396, DW_AT_data_member_location[DW_OP_plus_uconst 0x14]
    4970                            .dwattr $C$DW$396, DW_AT_accessibility(DW_ACCESS_public)
    4971                            .dwattr $C$DW$396, DW_AT_decl_file("C:\ti\ccs1200\ccs\ccs_base\arm\include\msp432p401r.h")
    4972                            .dwattr $C$DW$396, DW_AT_decl_line(0x1c8)
    4973                            .dwattr $C$DW$396, DW_AT_decl_column(0x11)
    4974                    
    4975                    $C$DW$397       .dwtag  DW_TAG_member
    4976                            .dwattr $C$DW$397, DW_AT_type(*$C$DW$T$39)
    4977                            .dwattr $C$DW$397, DW_AT_name("RESERVED3")
    4978                            .dwattr $C$DW$397, DW_AT_TI_symbol_name("RESERVED3")
    4979                            .dwattr $C$DW$397, DW_AT_data_member_location[DW_OP_plus_uconst 0x16]
    4980                            .dwattr $C$DW$397, DW_AT_accessibility(DW_ACCESS_public)
    4981                            .dwattr $C$DW$397, DW_AT_decl_file("C:\ti\ccs1200\ccs\ccs_base\arm\include\msp432p401r.h")
    4982                            .dwattr $C$DW$397, DW_AT_decl_line(0x1c9)
    4983                            .dwattr $C$DW$397, DW_AT_decl_column(0x11)
    4984                    
    4985                    $C$DW$398       .dwtag  DW_TAG_member
    4986                            .dwattr $C$DW$398, DW_AT_type(*$C$DW$T$41)
    4987                            .dwattr $C$DW$398, DW_AT_name("INIRES16")
    4988                            .dwattr $C$DW$398, DW_AT_TI_symbol_name("INIRES16")
    4989                            .dwattr $C$DW$398, DW_AT_data_member_location[DW_OP_plus_uconst 0x18]
    4990                            .dwattr $C$DW$398, DW_AT_accessibility(DW_ACCESS_public)
    4991                            .dwattr $C$DW$398, DW_AT_decl_file("C:\ti\ccs1200\ccs\ccs_base\arm\include\msp432p401r.h")
    4992                            .dwattr $C$DW$398, DW_AT_decl_line(0x1ca)
    4993                            .dwattr $C$DW$398, DW_AT_decl_column(0x11)
    4994                    
    4995                    $C$DW$399       .dwtag  DW_TAG_member
    4996                            .dwattr $C$DW$399, DW_AT_type(*$C$DW$T$85)
    4997                            .dwattr $C$DW$399, DW_AT_name("RESERVED4")
    4998                            .dwattr $C$DW$399, DW_AT_TI_symbol_name("RESERVED4")
    4999                            .dwattr $C$DW$399, DW_AT_data_member_location[DW_OP_plus_uconst 0x1a]
    5000                            .dwattr $C$DW$399, DW_AT_accessibility(DW_ACCESS_public)
    5001                            .dwattr $C$DW$399, DW_AT_decl_file("C:\ti\ccs1200\ccs\ccs_base\arm\include\msp432p401r.h")
    5002                            .dwattr $C$DW$399, DW_AT_decl_line(0x1cb)
    5003                            .dwattr $C$DW$399, DW_AT_decl_column(0x11)
    5004                    
    5005                    $C$DW$400       .dwtag  DW_TAG_member
TI ARM Assembler PC v20.2.6 Mon Oct 31 23:16:56 2022

Copyright (c) 1996-2018 Texas Instruments Incorporated
system_msp432p401r.asm                                               PAGE   92

    5006                            .dwattr $C$DW$400, DW_AT_type(*$C$DW$T$41)
    5007                            .dwattr $C$DW$400, DW_AT_name("RESR16")
    5008                            .dwattr $C$DW$400, DW_AT_TI_symbol_name("RESR16")
    5009                            .dwattr $C$DW$400, DW_AT_data_member_location[DW_OP_plus_uconst 0x1e]
    5010                            .dwattr $C$DW$400, DW_AT_accessibility(DW_ACCESS_public)
    5011                            .dwattr $C$DW$400, DW_AT_decl_file("C:\ti\ccs1200\ccs\ccs_base\arm\include\msp432p401r.h")
    5012                            .dwattr $C$DW$400, DW_AT_decl_line(0x1cc)
    5013                            .dwattr $C$DW$400, DW_AT_decl_column(0x11)
    5014                    
    5015                            .dwattr $C$DW$T$88, DW_AT_decl_file("C:\ti\ccs1200\ccs\ccs_base\arm\include\msp432p401r.h")
    5016                            .dwattr $C$DW$T$88, DW_AT_decl_line(0x1bd)
    5017                            .dwattr $C$DW$T$88, DW_AT_decl_column(0x10)
    5018                            .dwendtag $C$DW$T$88
    5019                    
    5020                    $C$DW$T$205     .dwtag  DW_TAG_typedef
    5021                            .dwattr $C$DW$T$205, DW_AT_name("CRC32_Type")
    5022                            .dwattr $C$DW$T$205, DW_AT_type(*$C$DW$T$88)
    5023                            .dwattr $C$DW$T$205, DW_AT_language(DW_LANG_C)
    5024                            .dwattr $C$DW$T$205, DW_AT_decl_file("C:\ti\ccs1200\ccs\ccs_base\arm\include\msp432p401r.h")
    5025                            .dwattr $C$DW$T$205, DW_AT_decl_line(0x1cd)
    5026                            .dwattr $C$DW$T$205, DW_AT_decl_column(0x03)
    5027                    
    5028                    
    5029                    $C$DW$T$90      .dwtag  DW_TAG_structure_type
    5030                            .dwattr $C$DW$T$90, DW_AT_byte_size(0x02)
    5031                    $C$DW$401       .dwtag  DW_TAG_member
    5032                            .dwattr $C$DW$401, DW_AT_type(*$C$DW$T$89)
    5033                            .dwattr $C$DW$401, DW_AT_name("IN_L")
    5034                            .dwattr $C$DW$401, DW_AT_TI_symbol_name("IN_L")
    5035                            .dwattr $C$DW$401, DW_AT_data_member_location[DW_OP_plus_uconst 0x0]
    5036                            .dwattr $C$DW$401, DW_AT_accessibility(DW_ACCESS_public)
    5037                            .dwattr $C$DW$401, DW_AT_decl_file("C:\ti\ccs1200\ccs\ccs_base\arm\include\msp432p401r.h")
    5038                            .dwattr $C$DW$401, DW_AT_decl_line(0x1fb)
    5039                            .dwattr $C$DW$401, DW_AT_decl_column(0x13)
    5040                    
    5041                    $C$DW$402       .dwtag  DW_TAG_member
    5042                            .dwattr $C$DW$402, DW_AT_type(*$C$DW$T$89)
    5043                            .dwattr $C$DW$402, DW_AT_name("IN_H")
    5044                            .dwattr $C$DW$402, DW_AT_TI_symbol_name("IN_H")
    5045                            .dwattr $C$DW$402, DW_AT_data_member_location[DW_OP_plus_uconst 0x1]
    5046                            .dwattr $C$DW$402, DW_AT_accessibility(DW_ACCESS_public)
    5047                            .dwattr $C$DW$402, DW_AT_decl_file("C:\ti\ccs1200\ccs\ccs_base\arm\include\msp432p401r.h")
    5048                            .dwattr $C$DW$402, DW_AT_decl_line(0x1fc)
    5049                            .dwattr $C$DW$402, DW_AT_decl_column(0x13)
    5050                    
    5051                            .dwattr $C$DW$T$90, DW_AT_decl_file("C:\ti\ccs1200\ccs\ccs_base\arm\include\msp432p401r.h")
    5052                            .dwattr $C$DW$T$90, DW_AT_decl_line(0x1fa)
    5053                            .dwattr $C$DW$T$90, DW_AT_decl_column(0x0c)
    5054                            .dwendtag $C$DW$T$90
    5055                    
    5056                    
    5057                    $C$DW$T$91      .dwtag  DW_TAG_structure_type
    5058                            .dwattr $C$DW$T$91, DW_AT_byte_size(0x02)
    5059                    $C$DW$403       .dwtag  DW_TAG_member
    5060                            .dwattr $C$DW$403, DW_AT_type(*$C$DW$T$31)
TI ARM Assembler PC v20.2.6 Mon Oct 31 23:16:56 2022

Copyright (c) 1996-2018 Texas Instruments Incorporated
system_msp432p401r.asm                                               PAGE   93

    5061                            .dwattr $C$DW$403, DW_AT_name("OUT_L")
    5062                            .dwattr $C$DW$403, DW_AT_TI_symbol_name("OUT_L")
    5063                            .dwattr $C$DW$403, DW_AT_data_member_location[DW_OP_plus_uconst 0x0]
    5064                            .dwattr $C$DW$403, DW_AT_accessibility(DW_ACCESS_public)
    5065                            .dwattr $C$DW$403, DW_AT_decl_file("C:\ti\ccs1200\ccs\ccs_base\arm\include\msp432p401r.h")
    5066                            .dwattr $C$DW$403, DW_AT_decl_line(0x202)
    5067                            .dwattr $C$DW$403, DW_AT_decl_column(0x14)
    5068                    
    5069                    $C$DW$404       .dwtag  DW_TAG_member
    5070                            .dwattr $C$DW$404, DW_AT_type(*$C$DW$T$31)
    5071                            .dwattr $C$DW$404, DW_AT_name("OUT_H")
    5072                            .dwattr $C$DW$404, DW_AT_TI_symbol_name("OUT_H")
    5073                            .dwattr $C$DW$404, DW_AT_data_member_location[DW_OP_plus_uconst 0x1]
    5074                            .dwattr $C$DW$404, DW_AT_accessibility(DW_ACCESS_public)
    5075                            .dwattr $C$DW$404, DW_AT_decl_file("C:\ti\ccs1200\ccs\ccs_base\arm\include\msp432p401r.h")
    5076                            .dwattr $C$DW$404, DW_AT_decl_line(0x203)
    5077                            .dwattr $C$DW$404, DW_AT_decl_column(0x14)
    5078                    
    5079                            .dwattr $C$DW$T$91, DW_AT_decl_file("C:\ti\ccs1200\ccs\ccs_base\arm\include\msp432p401r.h")
    5080                            .dwattr $C$DW$T$91, DW_AT_decl_line(0x201)
    5081                            .dwattr $C$DW$T$91, DW_AT_decl_column(0x0c)
    5082                            .dwendtag $C$DW$T$91
    5083                    
    5084                    
    5085                    $C$DW$T$92      .dwtag  DW_TAG_structure_type
    5086                            .dwattr $C$DW$T$92, DW_AT_byte_size(0x02)
    5087                    $C$DW$405       .dwtag  DW_TAG_member
    5088                            .dwattr $C$DW$405, DW_AT_type(*$C$DW$T$31)
    5089                            .dwattr $C$DW$405, DW_AT_name("DIR_L")
    5090                            .dwattr $C$DW$405, DW_AT_TI_symbol_name("DIR_L")
    5091                            .dwattr $C$DW$405, DW_AT_data_member_location[DW_OP_plus_uconst 0x0]
    5092                            .dwattr $C$DW$405, DW_AT_accessibility(DW_ACCESS_public)
    5093                            .dwattr $C$DW$405, DW_AT_decl_file("C:\ti\ccs1200\ccs\ccs_base\arm\include\msp432p401r.h")
    5094                            .dwattr $C$DW$405, DW_AT_decl_line(0x209)
    5095                            .dwattr $C$DW$405, DW_AT_decl_column(0x14)
    5096                    
    5097                    $C$DW$406       .dwtag  DW_TAG_member
    5098                            .dwattr $C$DW$406, DW_AT_type(*$C$DW$T$31)
    5099                            .dwattr $C$DW$406, DW_AT_name("DIR_H")
    5100                            .dwattr $C$DW$406, DW_AT_TI_symbol_name("DIR_H")
    5101                            .dwattr $C$DW$406, DW_AT_data_member_location[DW_OP_plus_uconst 0x1]
    5102                            .dwattr $C$DW$406, DW_AT_accessibility(DW_ACCESS_public)
    5103                            .dwattr $C$DW$406, DW_AT_decl_file("C:\ti\ccs1200\ccs\ccs_base\arm\include\msp432p401r.h")
    5104                            .dwattr $C$DW$406, DW_AT_decl_line(0x20a)
    5105                            .dwattr $C$DW$406, DW_AT_decl_column(0x14)
    5106                    
    5107                            .dwattr $C$DW$T$92, DW_AT_decl_file("C:\ti\ccs1200\ccs\ccs_base\arm\include\msp432p401r.h")
    5108                            .dwattr $C$DW$T$92, DW_AT_decl_line(0x208)
    5109                            .dwattr $C$DW$T$92, DW_AT_decl_column(0x0c)
    5110                            .dwendtag $C$DW$T$92
    5111                    
    5112                    
    5113                    $C$DW$T$93      .dwtag  DW_TAG_structure_type
    5114                            .dwattr $C$DW$T$93, DW_AT_byte_size(0x02)
    5115                    $C$DW$407       .dwtag  DW_TAG_member
TI ARM Assembler PC v20.2.6 Mon Oct 31 23:16:56 2022

Copyright (c) 1996-2018 Texas Instruments Incorporated
system_msp432p401r.asm                                               PAGE   94

    5116                            .dwattr $C$DW$407, DW_AT_type(*$C$DW$T$31)
    5117                            .dwattr $C$DW$407, DW_AT_name("REN_L")
    5118                            .dwattr $C$DW$407, DW_AT_TI_symbol_name("REN_L")
    5119                            .dwattr $C$DW$407, DW_AT_data_member_location[DW_OP_plus_uconst 0x0]
    5120                            .dwattr $C$DW$407, DW_AT_accessibility(DW_ACCESS_public)
    5121                            .dwattr $C$DW$407, DW_AT_decl_file("C:\ti\ccs1200\ccs\ccs_base\arm\include\msp432p401r.h")
    5122                            .dwattr $C$DW$407, DW_AT_decl_line(0x210)
    5123                            .dwattr $C$DW$407, DW_AT_decl_column(0x14)
    5124                    
    5125                    $C$DW$408       .dwtag  DW_TAG_member
    5126                            .dwattr $C$DW$408, DW_AT_type(*$C$DW$T$31)
    5127                            .dwattr $C$DW$408, DW_AT_name("REN_H")
    5128                            .dwattr $C$DW$408, DW_AT_TI_symbol_name("REN_H")
    5129                            .dwattr $C$DW$408, DW_AT_data_member_location[DW_OP_plus_uconst 0x1]
    5130                            .dwattr $C$DW$408, DW_AT_accessibility(DW_ACCESS_public)
    5131                            .dwattr $C$DW$408, DW_AT_decl_file("C:\ti\ccs1200\ccs\ccs_base\arm\include\msp432p401r.h")
    5132                            .dwattr $C$DW$408, DW_AT_decl_line(0x211)
    5133                            .dwattr $C$DW$408, DW_AT_decl_column(0x14)
    5134                    
    5135                            .dwattr $C$DW$T$93, DW_AT_decl_file("C:\ti\ccs1200\ccs\ccs_base\arm\include\msp432p401r.h")
    5136                            .dwattr $C$DW$T$93, DW_AT_decl_line(0x20f)
    5137                            .dwattr $C$DW$T$93, DW_AT_decl_column(0x0c)
    5138                            .dwendtag $C$DW$T$93
    5139                    
    5140                    
    5141                    $C$DW$T$94      .dwtag  DW_TAG_structure_type
    5142                            .dwattr $C$DW$T$94, DW_AT_byte_size(0x02)
    5143                    $C$DW$409       .dwtag  DW_TAG_member
    5144                            .dwattr $C$DW$409, DW_AT_type(*$C$DW$T$31)
    5145                            .dwattr $C$DW$409, DW_AT_name("DS_L")
    5146                            .dwattr $C$DW$409, DW_AT_TI_symbol_name("DS_L")
    5147                            .dwattr $C$DW$409, DW_AT_data_member_location[DW_OP_plus_uconst 0x0]
    5148                            .dwattr $C$DW$409, DW_AT_accessibility(DW_ACCESS_public)
    5149                            .dwattr $C$DW$409, DW_AT_decl_file("C:\ti\ccs1200\ccs\ccs_base\arm\include\msp432p401r.h")
    5150                            .dwattr $C$DW$409, DW_AT_decl_line(0x217)
    5151                            .dwattr $C$DW$409, DW_AT_decl_column(0x14)
    5152                    
    5153                    $C$DW$410       .dwtag  DW_TAG_member
    5154                            .dwattr $C$DW$410, DW_AT_type(*$C$DW$T$31)
    5155                            .dwattr $C$DW$410, DW_AT_name("DS_H")
    5156                            .dwattr $C$DW$410, DW_AT_TI_symbol_name("DS_H")
    5157                            .dwattr $C$DW$410, DW_AT_data_member_location[DW_OP_plus_uconst 0x1]
    5158                            .dwattr $C$DW$410, DW_AT_accessibility(DW_ACCESS_public)
    5159                            .dwattr $C$DW$410, DW_AT_decl_file("C:\ti\ccs1200\ccs\ccs_base\arm\include\msp432p401r.h")
    5160                            .dwattr $C$DW$410, DW_AT_decl_line(0x218)
    5161                            .dwattr $C$DW$410, DW_AT_decl_column(0x14)
    5162                    
    5163                            .dwattr $C$DW$T$94, DW_AT_decl_file("C:\ti\ccs1200\ccs\ccs_base\arm\include\msp432p401r.h")
    5164                            .dwattr $C$DW$T$94, DW_AT_decl_line(0x216)
    5165                            .dwattr $C$DW$T$94, DW_AT_decl_column(0x0c)
    5166                            .dwendtag $C$DW$T$94
    5167                    
    5168                    
    5169                    $C$DW$T$95      .dwtag  DW_TAG_structure_type
    5170                            .dwattr $C$DW$T$95, DW_AT_byte_size(0x02)
TI ARM Assembler PC v20.2.6 Mon Oct 31 23:16:56 2022

Copyright (c) 1996-2018 Texas Instruments Incorporated
system_msp432p401r.asm                                               PAGE   95

    5171                    $C$DW$411       .dwtag  DW_TAG_member
    5172                            .dwattr $C$DW$411, DW_AT_type(*$C$DW$T$31)
    5173                            .dwattr $C$DW$411, DW_AT_name("SEL0_L")
    5174                            .dwattr $C$DW$411, DW_AT_TI_symbol_name("SEL0_L")
    5175                            .dwattr $C$DW$411, DW_AT_data_member_location[DW_OP_plus_uconst 0x0]
    5176                            .dwattr $C$DW$411, DW_AT_accessibility(DW_ACCESS_public)
    5177                            .dwattr $C$DW$411, DW_AT_decl_file("C:\ti\ccs1200\ccs\ccs_base\arm\include\msp432p401r.h")
    5178                            .dwattr $C$DW$411, DW_AT_decl_line(0x21e)
    5179                            .dwattr $C$DW$411, DW_AT_decl_column(0x14)
    5180                    
    5181                    $C$DW$412       .dwtag  DW_TAG_member
    5182                            .dwattr $C$DW$412, DW_AT_type(*$C$DW$T$31)
    5183                            .dwattr $C$DW$412, DW_AT_name("SEL0_H")
    5184                            .dwattr $C$DW$412, DW_AT_TI_symbol_name("SEL0_H")
    5185                            .dwattr $C$DW$412, DW_AT_data_member_location[DW_OP_plus_uconst 0x1]
    5186                            .dwattr $C$DW$412, DW_AT_accessibility(DW_ACCESS_public)
    5187                            .dwattr $C$DW$412, DW_AT_decl_file("C:\ti\ccs1200\ccs\ccs_base\arm\include\msp432p401r.h")
    5188                            .dwattr $C$DW$412, DW_AT_decl_line(0x21f)
    5189                            .dwattr $C$DW$412, DW_AT_decl_column(0x14)
    5190                    
    5191                            .dwattr $C$DW$T$95, DW_AT_decl_file("C:\ti\ccs1200\ccs\ccs_base\arm\include\msp432p401r.h")
    5192                            .dwattr $C$DW$T$95, DW_AT_decl_line(0x21d)
    5193                            .dwattr $C$DW$T$95, DW_AT_decl_column(0x0c)
    5194                            .dwendtag $C$DW$T$95
    5195                    
    5196                    
    5197                    $C$DW$T$96      .dwtag  DW_TAG_structure_type
    5198                            .dwattr $C$DW$T$96, DW_AT_byte_size(0x02)
    5199                    $C$DW$413       .dwtag  DW_TAG_member
    5200                            .dwattr $C$DW$413, DW_AT_type(*$C$DW$T$31)
    5201                            .dwattr $C$DW$413, DW_AT_name("SEL1_L")
    5202                            .dwattr $C$DW$413, DW_AT_TI_symbol_name("SEL1_L")
    5203                            .dwattr $C$DW$413, DW_AT_data_member_location[DW_OP_plus_uconst 0x0]
    5204                            .dwattr $C$DW$413, DW_AT_accessibility(DW_ACCESS_public)
    5205                            .dwattr $C$DW$413, DW_AT_decl_file("C:\ti\ccs1200\ccs\ccs_base\arm\include\msp432p401r.h")
    5206                            .dwattr $C$DW$413, DW_AT_decl_line(0x225)
    5207                            .dwattr $C$DW$413, DW_AT_decl_column(0x14)
    5208                    
    5209                    $C$DW$414       .dwtag  DW_TAG_member
    5210                            .dwattr $C$DW$414, DW_AT_type(*$C$DW$T$31)
    5211                            .dwattr $C$DW$414, DW_AT_name("SEL1_H")
    5212                            .dwattr $C$DW$414, DW_AT_TI_symbol_name("SEL1_H")
    5213                            .dwattr $C$DW$414, DW_AT_data_member_location[DW_OP_plus_uconst 0x1]
    5214                            .dwattr $C$DW$414, DW_AT_accessibility(DW_ACCESS_public)
    5215                            .dwattr $C$DW$414, DW_AT_decl_file("C:\ti\ccs1200\ccs\ccs_base\arm\include\msp432p401r.h")
    5216                            .dwattr $C$DW$414, DW_AT_decl_line(0x226)
    5217                            .dwattr $C$DW$414, DW_AT_decl_column(0x14)
    5218                    
    5219                            .dwattr $C$DW$T$96, DW_AT_decl_file("C:\ti\ccs1200\ccs\ccs_base\arm\include\msp432p401r.h")
    5220                            .dwattr $C$DW$T$96, DW_AT_decl_line(0x224)
    5221                            .dwattr $C$DW$T$96, DW_AT_decl_column(0x0c)
    5222                            .dwendtag $C$DW$T$96
    5223                    
    5224                    
    5225                    $C$DW$T$97      .dwtag  DW_TAG_structure_type
TI ARM Assembler PC v20.2.6 Mon Oct 31 23:16:56 2022

Copyright (c) 1996-2018 Texas Instruments Incorporated
system_msp432p401r.asm                                               PAGE   96

    5226                            .dwattr $C$DW$T$97, DW_AT_byte_size(0x02)
    5227                    $C$DW$415       .dwtag  DW_TAG_member
    5228                            .dwattr $C$DW$415, DW_AT_type(*$C$DW$T$31)
    5229                            .dwattr $C$DW$415, DW_AT_name("SELC_L")
    5230                            .dwattr $C$DW$415, DW_AT_TI_symbol_name("SELC_L")
    5231                            .dwattr $C$DW$415, DW_AT_data_member_location[DW_OP_plus_uconst 0x0]
    5232                            .dwattr $C$DW$415, DW_AT_accessibility(DW_ACCESS_public)
    5233                            .dwattr $C$DW$415, DW_AT_decl_file("C:\ti\ccs1200\ccs\ccs_base\arm\include\msp432p401r.h")
    5234                            .dwattr $C$DW$415, DW_AT_decl_line(0x22e)
    5235                            .dwattr $C$DW$415, DW_AT_decl_column(0x14)
    5236                    
    5237                    $C$DW$416       .dwtag  DW_TAG_member
    5238                            .dwattr $C$DW$416, DW_AT_type(*$C$DW$T$31)
    5239                            .dwattr $C$DW$416, DW_AT_name("SELC_H")
    5240                            .dwattr $C$DW$416, DW_AT_TI_symbol_name("SELC_H")
    5241                            .dwattr $C$DW$416, DW_AT_data_member_location[DW_OP_plus_uconst 0x1]
    5242                            .dwattr $C$DW$416, DW_AT_accessibility(DW_ACCESS_public)
    5243                            .dwattr $C$DW$416, DW_AT_decl_file("C:\ti\ccs1200\ccs\ccs_base\arm\include\msp432p401r.h")
    5244                            .dwattr $C$DW$416, DW_AT_decl_line(0x22f)
    5245                            .dwattr $C$DW$416, DW_AT_decl_column(0x14)
    5246                    
    5247                            .dwattr $C$DW$T$97, DW_AT_decl_file("C:\ti\ccs1200\ccs\ccs_base\arm\include\msp432p401r.h")
    5248                            .dwattr $C$DW$T$97, DW_AT_decl_line(0x22d)
    5249                            .dwattr $C$DW$T$97, DW_AT_decl_column(0x0c)
    5250                            .dwendtag $C$DW$T$97
    5251                    
    5252                    
    5253                    $C$DW$T$98      .dwtag  DW_TAG_structure_type
    5254                            .dwattr $C$DW$T$98, DW_AT_byte_size(0x02)
    5255                    $C$DW$417       .dwtag  DW_TAG_member
    5256                            .dwattr $C$DW$417, DW_AT_type(*$C$DW$T$31)
    5257                            .dwattr $C$DW$417, DW_AT_name("IES_L")
    5258                            .dwattr $C$DW$417, DW_AT_TI_symbol_name("IES_L")
    5259                            .dwattr $C$DW$417, DW_AT_data_member_location[DW_OP_plus_uconst 0x0]
    5260                            .dwattr $C$DW$417, DW_AT_accessibility(DW_ACCESS_public)
    5261                            .dwattr $C$DW$417, DW_AT_decl_file("C:\ti\ccs1200\ccs\ccs_base\arm\include\msp432p401r.h")
    5262                            .dwattr $C$DW$417, DW_AT_decl_line(0x235)
    5263                            .dwattr $C$DW$417, DW_AT_decl_column(0x14)
    5264                    
    5265                    $C$DW$418       .dwtag  DW_TAG_member
    5266                            .dwattr $C$DW$418, DW_AT_type(*$C$DW$T$31)
    5267                            .dwattr $C$DW$418, DW_AT_name("IES_H")
    5268                            .dwattr $C$DW$418, DW_AT_TI_symbol_name("IES_H")
    5269                            .dwattr $C$DW$418, DW_AT_data_member_location[DW_OP_plus_uconst 0x1]
    5270                            .dwattr $C$DW$418, DW_AT_accessibility(DW_ACCESS_public)
    5271                            .dwattr $C$DW$418, DW_AT_decl_file("C:\ti\ccs1200\ccs\ccs_base\arm\include\msp432p401r.h")
    5272                            .dwattr $C$DW$418, DW_AT_decl_line(0x236)
    5273                            .dwattr $C$DW$418, DW_AT_decl_column(0x14)
    5274                    
    5275                            .dwattr $C$DW$T$98, DW_AT_decl_file("C:\ti\ccs1200\ccs\ccs_base\arm\include\msp432p401r.h")
    5276                            .dwattr $C$DW$T$98, DW_AT_decl_line(0x234)
    5277                            .dwattr $C$DW$T$98, DW_AT_decl_column(0x0c)
    5278                            .dwendtag $C$DW$T$98
    5279                    
    5280                    
TI ARM Assembler PC v20.2.6 Mon Oct 31 23:16:56 2022

Copyright (c) 1996-2018 Texas Instruments Incorporated
system_msp432p401r.asm                                               PAGE   97

    5281                    $C$DW$T$99      .dwtag  DW_TAG_structure_type
    5282                            .dwattr $C$DW$T$99, DW_AT_byte_size(0x02)
    5283                    $C$DW$419       .dwtag  DW_TAG_member
    5284                            .dwattr $C$DW$419, DW_AT_type(*$C$DW$T$31)
    5285                            .dwattr $C$DW$419, DW_AT_name("IE_L")
    5286                            .dwattr $C$DW$419, DW_AT_TI_symbol_name("IE_L")
    5287                            .dwattr $C$DW$419, DW_AT_data_member_location[DW_OP_plus_uconst 0x0]
    5288                            .dwattr $C$DW$419, DW_AT_accessibility(DW_ACCESS_public)
    5289                            .dwattr $C$DW$419, DW_AT_decl_file("C:\ti\ccs1200\ccs\ccs_base\arm\include\msp432p401r.h")
    5290                            .dwattr $C$DW$419, DW_AT_decl_line(0x23c)
    5291                            .dwattr $C$DW$419, DW_AT_decl_column(0x14)
    5292                    
    5293                    $C$DW$420       .dwtag  DW_TAG_member
    5294                            .dwattr $C$DW$420, DW_AT_type(*$C$DW$T$31)
    5295                            .dwattr $C$DW$420, DW_AT_name("IE_H")
    5296                            .dwattr $C$DW$420, DW_AT_TI_symbol_name("IE_H")
    5297                            .dwattr $C$DW$420, DW_AT_data_member_location[DW_OP_plus_uconst 0x1]
    5298                            .dwattr $C$DW$420, DW_AT_accessibility(DW_ACCESS_public)
    5299                            .dwattr $C$DW$420, DW_AT_decl_file("C:\ti\ccs1200\ccs\ccs_base\arm\include\msp432p401r.h")
    5300                            .dwattr $C$DW$420, DW_AT_decl_line(0x23d)
    5301                            .dwattr $C$DW$420, DW_AT_decl_column(0x14)
    5302                    
    5303                            .dwattr $C$DW$T$99, DW_AT_decl_file("C:\ti\ccs1200\ccs\ccs_base\arm\include\msp432p401r.h")
    5304                            .dwattr $C$DW$T$99, DW_AT_decl_line(0x23b)
    5305                            .dwattr $C$DW$T$99, DW_AT_decl_column(0x0c)
    5306                            .dwendtag $C$DW$T$99
    5307                    
    5308                    
    5309                    $C$DW$T$100     .dwtag  DW_TAG_structure_type
    5310                            .dwattr $C$DW$T$100, DW_AT_byte_size(0x02)
    5311                    $C$DW$421       .dwtag  DW_TAG_member
    5312                            .dwattr $C$DW$421, DW_AT_type(*$C$DW$T$31)
    5313                            .dwattr $C$DW$421, DW_AT_name("IFG_L")
    5314                            .dwattr $C$DW$421, DW_AT_TI_symbol_name("IFG_L")
    5315                            .dwattr $C$DW$421, DW_AT_data_member_location[DW_OP_plus_uconst 0x0]
    5316                            .dwattr $C$DW$421, DW_AT_accessibility(DW_ACCESS_public)
    5317                            .dwattr $C$DW$421, DW_AT_decl_file("C:\ti\ccs1200\ccs\ccs_base\arm\include\msp432p401r.h")
    5318                            .dwattr $C$DW$421, DW_AT_decl_line(0x243)
    5319                            .dwattr $C$DW$421, DW_AT_decl_column(0x14)
    5320                    
    5321                    $C$DW$422       .dwtag  DW_TAG_member
    5322                            .dwattr $C$DW$422, DW_AT_type(*$C$DW$T$31)
    5323                            .dwattr $C$DW$422, DW_AT_name("IFG_H")
    5324                            .dwattr $C$DW$422, DW_AT_TI_symbol_name("IFG_H")
    5325                            .dwattr $C$DW$422, DW_AT_data_member_location[DW_OP_plus_uconst 0x1]
    5326                            .dwattr $C$DW$422, DW_AT_accessibility(DW_ACCESS_public)
    5327                            .dwattr $C$DW$422, DW_AT_decl_file("C:\ti\ccs1200\ccs\ccs_base\arm\include\msp432p401r.h")
    5328                            .dwattr $C$DW$422, DW_AT_decl_line(0x244)
    5329                            .dwattr $C$DW$422, DW_AT_decl_column(0x14)
    5330                    
    5331                            .dwattr $C$DW$T$100, DW_AT_decl_file("C:\ti\ccs1200\ccs\ccs_base\arm\include\msp432p401r.h")
    5332                            .dwattr $C$DW$T$100, DW_AT_decl_line(0x242)
    5333                            .dwattr $C$DW$T$100, DW_AT_decl_column(0x0c)
    5334                            .dwendtag $C$DW$T$100
    5335                    
TI ARM Assembler PC v20.2.6 Mon Oct 31 23:16:56 2022

Copyright (c) 1996-2018 Texas Instruments Incorporated
system_msp432p401r.asm                                               PAGE   98

    5336                    
    5337                    $C$DW$T$102     .dwtag  DW_TAG_structure_type
    5338                            .dwattr $C$DW$T$102, DW_AT_byte_size(0x20)
    5339                    $C$DW$423       .dwtag  DW_TAG_member
    5340                            .dwattr $C$DW$423, DW_AT_type(*$C$DW$T$156)
    5341                            .dwattr $C$DW$423, DW_AT_name("$P$T11")
    5342                            .dwattr $C$DW$423, DW_AT_TI_symbol_name("$P$T11")
    5343                            .dwattr $C$DW$423, DW_AT_data_member_location[DW_OP_plus_uconst 0x0]
    5344                            .dwattr $C$DW$423, DW_AT_accessibility(DW_ACCESS_public)
    5345                            .dwattr $C$DW$423, DW_AT_decl_file("C:\ti\ccs1200\ccs\ccs_base\arm\include\msp432p401r.h")
    5346                            .dwattr $C$DW$423, DW_AT_decl_line(0x1f8)
    5347                            .dwattr $C$DW$423, DW_AT_decl_column(0x03)
    5348                    
    5349                    $C$DW$424       .dwtag  DW_TAG_member
    5350                            .dwattr $C$DW$424, DW_AT_type(*$C$DW$T$157)
    5351                            .dwattr $C$DW$424, DW_AT_name("$P$T12")
    5352                            .dwattr $C$DW$424, DW_AT_TI_symbol_name("$P$T12")
    5353                            .dwattr $C$DW$424, DW_AT_data_member_location[DW_OP_plus_uconst 0x2]
    5354                            .dwattr $C$DW$424, DW_AT_accessibility(DW_ACCESS_public)
    5355                            .dwattr $C$DW$424, DW_AT_decl_file("C:\ti\ccs1200\ccs\ccs_base\arm\include\msp432p401r.h")
    5356                            .dwattr $C$DW$424, DW_AT_decl_line(0x1ff)
    5357                            .dwattr $C$DW$424, DW_AT_decl_column(0x03)
    5358                    
    5359                    $C$DW$425       .dwtag  DW_TAG_member
    5360                            .dwattr $C$DW$425, DW_AT_type(*$C$DW$T$158)
    5361                            .dwattr $C$DW$425, DW_AT_name("$P$T13")
    5362                            .dwattr $C$DW$425, DW_AT_TI_symbol_name("$P$T13")
    5363                            .dwattr $C$DW$425, DW_AT_data_member_location[DW_OP_plus_uconst 0x4]
    5364                            .dwattr $C$DW$425, DW_AT_accessibility(DW_ACCESS_public)
    5365                            .dwattr $C$DW$425, DW_AT_decl_file("C:\ti\ccs1200\ccs\ccs_base\arm\include\msp432p401r.h")
    5366                            .dwattr $C$DW$425, DW_AT_decl_line(0x206)
    5367                            .dwattr $C$DW$425, DW_AT_decl_column(0x03)
    5368                    
    5369                    $C$DW$426       .dwtag  DW_TAG_member
    5370                            .dwattr $C$DW$426, DW_AT_type(*$C$DW$T$159)
    5371                            .dwattr $C$DW$426, DW_AT_name("$P$T14")
    5372                            .dwattr $C$DW$426, DW_AT_TI_symbol_name("$P$T14")
    5373                            .dwattr $C$DW$426, DW_AT_data_member_location[DW_OP_plus_uconst 0x6]
    5374                            .dwattr $C$DW$426, DW_AT_accessibility(DW_ACCESS_public)
    5375                            .dwattr $C$DW$426, DW_AT_decl_file("C:\ti\ccs1200\ccs\ccs_base\arm\include\msp432p401r.h")
    5376                            .dwattr $C$DW$426, DW_AT_decl_line(0x20d)
    5377                            .dwattr $C$DW$426, DW_AT_decl_column(0x03)
    5378                    
    5379                    $C$DW$427       .dwtag  DW_TAG_member
    5380                            .dwattr $C$DW$427, DW_AT_type(*$C$DW$T$160)
    5381                            .dwattr $C$DW$427, DW_AT_name("$P$T15")
    5382                            .dwattr $C$DW$427, DW_AT_TI_symbol_name("$P$T15")
    5383                            .dwattr $C$DW$427, DW_AT_data_member_location[DW_OP_plus_uconst 0x8]
    5384                            .dwattr $C$DW$427, DW_AT_accessibility(DW_ACCESS_public)
    5385                            .dwattr $C$DW$427, DW_AT_decl_file("C:\ti\ccs1200\ccs\ccs_base\arm\include\msp432p401r.h")
    5386                            .dwattr $C$DW$427, DW_AT_decl_line(0x214)
    5387                            .dwattr $C$DW$427, DW_AT_decl_column(0x03)
    5388                    
    5389                    $C$DW$428       .dwtag  DW_TAG_member
    5390                            .dwattr $C$DW$428, DW_AT_type(*$C$DW$T$161)
TI ARM Assembler PC v20.2.6 Mon Oct 31 23:16:56 2022

Copyright (c) 1996-2018 Texas Instruments Incorporated
system_msp432p401r.asm                                               PAGE   99

    5391                            .dwattr $C$DW$428, DW_AT_name("$P$T16")
    5392                            .dwattr $C$DW$428, DW_AT_TI_symbol_name("$P$T16")
    5393                            .dwattr $C$DW$428, DW_AT_data_member_location[DW_OP_plus_uconst 0xa]
    5394                            .dwattr $C$DW$428, DW_AT_accessibility(DW_ACCESS_public)
    5395                            .dwattr $C$DW$428, DW_AT_decl_file("C:\ti\ccs1200\ccs\ccs_base\arm\include\msp432p401r.h")
    5396                            .dwattr $C$DW$428, DW_AT_decl_line(0x21b)
    5397                            .dwattr $C$DW$428, DW_AT_decl_column(0x03)
    5398                    
    5399                    $C$DW$429       .dwtag  DW_TAG_member
    5400                            .dwattr $C$DW$429, DW_AT_type(*$C$DW$T$162)
    5401                            .dwattr $C$DW$429, DW_AT_name("$P$T17")
    5402                            .dwattr $C$DW$429, DW_AT_TI_symbol_name("$P$T17")
    5403                            .dwattr $C$DW$429, DW_AT_data_member_location[DW_OP_plus_uconst 0xc]
    5404                            .dwattr $C$DW$429, DW_AT_accessibility(DW_ACCESS_public)
    5405                            .dwattr $C$DW$429, DW_AT_decl_file("C:\ti\ccs1200\ccs\ccs_base\arm\include\msp432p401r.h")
    5406                            .dwattr $C$DW$429, DW_AT_decl_line(0x222)
    5407                            .dwattr $C$DW$429, DW_AT_decl_column(0x03)
    5408                    
    5409                    $C$DW$430       .dwtag  DW_TAG_member
    5410                            .dwattr $C$DW$430, DW_AT_type(*$C$DW$T$86)
    5411                            .dwattr $C$DW$430, DW_AT_name("IV_L")
    5412                            .dwattr $C$DW$430, DW_AT_TI_symbol_name("IV_L")
    5413                            .dwattr $C$DW$430, DW_AT_data_member_location[DW_OP_plus_uconst 0xe]
    5414                            .dwattr $C$DW$430, DW_AT_accessibility(DW_ACCESS_public)
    5415                            .dwattr $C$DW$430, DW_AT_decl_file("C:\ti\ccs1200\ccs\ccs_base\arm\include\msp432p401r.h")
    5416                            .dwattr $C$DW$430, DW_AT_decl_line(0x229)
    5417                            .dwattr $C$DW$430, DW_AT_decl_column(0x11)
    5418                    
    5419                    $C$DW$431       .dwtag  DW_TAG_member
    5420                            .dwattr $C$DW$431, DW_AT_type(*$C$DW$T$101)
    5421                            .dwattr $C$DW$431, DW_AT_name("RESERVED0")
    5422                            .dwattr $C$DW$431, DW_AT_TI_symbol_name("RESERVED0")
    5423                            .dwattr $C$DW$431, DW_AT_data_member_location[DW_OP_plus_uconst 0x10]
    5424                            .dwattr $C$DW$431, DW_AT_accessibility(DW_ACCESS_public)
    5425                            .dwattr $C$DW$431, DW_AT_decl_file("C:\ti\ccs1200\ccs\ccs_base\arm\include\msp432p401r.h")
    5426                            .dwattr $C$DW$431, DW_AT_decl_line(0x22a)
    5427                            .dwattr $C$DW$431, DW_AT_decl_column(0x0d)
    5428                    
    5429                    $C$DW$432       .dwtag  DW_TAG_member
    5430                            .dwattr $C$DW$432, DW_AT_type(*$C$DW$T$163)
    5431                            .dwattr $C$DW$432, DW_AT_name("$P$T18")
    5432                            .dwattr $C$DW$432, DW_AT_TI_symbol_name("$P$T18")
    5433                            .dwattr $C$DW$432, DW_AT_data_member_location[DW_OP_plus_uconst 0x16]
    5434                            .dwattr $C$DW$432, DW_AT_accessibility(DW_ACCESS_public)
    5435                            .dwattr $C$DW$432, DW_AT_decl_file("C:\ti\ccs1200\ccs\ccs_base\arm\include\msp432p401r.h")
    5436                            .dwattr $C$DW$432, DW_AT_decl_line(0x22b)
    5437                            .dwattr $C$DW$432, DW_AT_decl_column(0x03)
    5438                    
    5439                    $C$DW$433       .dwtag  DW_TAG_member
    5440                            .dwattr $C$DW$433, DW_AT_type(*$C$DW$T$164)
    5441                            .dwattr $C$DW$433, DW_AT_name("$P$T19")
    5442                            .dwattr $C$DW$433, DW_AT_TI_symbol_name("$P$T19")
    5443                            .dwattr $C$DW$433, DW_AT_data_member_location[DW_OP_plus_uconst 0x18]
    5444                            .dwattr $C$DW$433, DW_AT_accessibility(DW_ACCESS_public)
    5445                            .dwattr $C$DW$433, DW_AT_decl_file("C:\ti\ccs1200\ccs\ccs_base\arm\include\msp432p401r.h")
TI ARM Assembler PC v20.2.6 Mon Oct 31 23:16:56 2022

Copyright (c) 1996-2018 Texas Instruments Incorporated
system_msp432p401r.asm                                               PAGE  100

    5446                            .dwattr $C$DW$433, DW_AT_decl_line(0x232)
    5447                            .dwattr $C$DW$433, DW_AT_decl_column(0x03)
    5448                    
    5449                    $C$DW$434       .dwtag  DW_TAG_member
    5450                            .dwattr $C$DW$434, DW_AT_type(*$C$DW$T$165)
    5451                            .dwattr $C$DW$434, DW_AT_name("$P$T20")
    5452                            .dwattr $C$DW$434, DW_AT_TI_symbol_name("$P$T20")
    5453                            .dwattr $C$DW$434, DW_AT_data_member_location[DW_OP_plus_uconst 0x1a]
    5454                            .dwattr $C$DW$434, DW_AT_accessibility(DW_ACCESS_public)
    5455                            .dwattr $C$DW$434, DW_AT_decl_file("C:\ti\ccs1200\ccs\ccs_base\arm\include\msp432p401r.h")
    5456                            .dwattr $C$DW$434, DW_AT_decl_line(0x239)
    5457                            .dwattr $C$DW$434, DW_AT_decl_column(0x03)
    5458                    
    5459                    $C$DW$435       .dwtag  DW_TAG_member
    5460                            .dwattr $C$DW$435, DW_AT_type(*$C$DW$T$166)
    5461                            .dwattr $C$DW$435, DW_AT_name("$P$T21")
    5462                            .dwattr $C$DW$435, DW_AT_TI_symbol_name("$P$T21")
    5463                            .dwattr $C$DW$435, DW_AT_data_member_location[DW_OP_plus_uconst 0x1c]
    5464                            .dwattr $C$DW$435, DW_AT_accessibility(DW_ACCESS_public)
    5465                            .dwattr $C$DW$435, DW_AT_decl_file("C:\ti\ccs1200\ccs\ccs_base\arm\include\msp432p401r.h")
    5466                            .dwattr $C$DW$435, DW_AT_decl_line(0x240)
    5467                            .dwattr $C$DW$435, DW_AT_decl_column(0x03)
    5468                    
    5469                    $C$DW$436       .dwtag  DW_TAG_member
    5470                            .dwattr $C$DW$436, DW_AT_type(*$C$DW$T$86)
    5471                            .dwattr $C$DW$436, DW_AT_name("IV_H")
    5472                            .dwattr $C$DW$436, DW_AT_TI_symbol_name("IV_H")
    5473                            .dwattr $C$DW$436, DW_AT_data_member_location[DW_OP_plus_uconst 0x1e]
    5474                            .dwattr $C$DW$436, DW_AT_accessibility(DW_ACCESS_public)
    5475                            .dwattr $C$DW$436, DW_AT_decl_file("C:\ti\ccs1200\ccs\ccs_base\arm\include\msp432p401r.h")
    5476                            .dwattr $C$DW$436, DW_AT_decl_line(0x247)
    5477                            .dwattr $C$DW$436, DW_AT_decl_column(0x10)
    5478                    
    5479                            .dwattr $C$DW$T$102, DW_AT_decl_file("C:\ti\ccs1200\ccs\ccs_base\arm\include\msp432p401r.h")
    5480                            .dwattr $C$DW$T$102, DW_AT_decl_line(0x1f7)
    5481                            .dwattr $C$DW$T$102, DW_AT_decl_column(0x10)
    5482                            .dwendtag $C$DW$T$102
    5483                    
    5484                    $C$DW$T$206     .dwtag  DW_TAG_typedef
    5485                            .dwattr $C$DW$T$206, DW_AT_name("DIO_PORT_Interruptable_Type")
    5486                            .dwattr $C$DW$T$206, DW_AT_type(*$C$DW$T$102)
    5487                            .dwattr $C$DW$T$206, DW_AT_language(DW_LANG_C)
    5488                            .dwattr $C$DW$T$206, DW_AT_decl_file("C:\ti\ccs1200\ccs\ccs_base\arm\include\msp432p401r.h")
    5489                            .dwattr $C$DW$T$206, DW_AT_decl_line(0x248)
    5490                            .dwattr $C$DW$T$206, DW_AT_decl_column(0x03)
    5491                    
    5492                    
    5493                    $C$DW$T$103     .dwtag  DW_TAG_structure_type
    5494                            .dwattr $C$DW$T$103, DW_AT_byte_size(0x02)
    5495                    $C$DW$437       .dwtag  DW_TAG_member
    5496                            .dwattr $C$DW$437, DW_AT_type(*$C$DW$T$89)
    5497                            .dwattr $C$DW$437, DW_AT_name("IN_L")
    5498                            .dwattr $C$DW$437, DW_AT_TI_symbol_name("IN_L")
    5499                            .dwattr $C$DW$437, DW_AT_data_member_location[DW_OP_plus_uconst 0x0]
    5500                            .dwattr $C$DW$437, DW_AT_accessibility(DW_ACCESS_public)
TI ARM Assembler PC v20.2.6 Mon Oct 31 23:16:56 2022

Copyright (c) 1996-2018 Texas Instruments Incorporated
system_msp432p401r.asm                                               PAGE  101

    5501                            .dwattr $C$DW$437, DW_AT_decl_file("C:\ti\ccs1200\ccs\ccs_base\arm\include\msp432p401r.h")
    5502                            .dwattr $C$DW$437, DW_AT_decl_line(0x24e)
    5503                            .dwattr $C$DW$437, DW_AT_decl_column(0x13)
    5504                    
    5505                    $C$DW$438       .dwtag  DW_TAG_member
    5506                            .dwattr $C$DW$438, DW_AT_type(*$C$DW$T$89)
    5507                            .dwattr $C$DW$438, DW_AT_name("IN_H")
    5508                            .dwattr $C$DW$438, DW_AT_TI_symbol_name("IN_H")
    5509                            .dwattr $C$DW$438, DW_AT_data_member_location[DW_OP_plus_uconst 0x1]
    5510                            .dwattr $C$DW$438, DW_AT_accessibility(DW_ACCESS_public)
    5511                            .dwattr $C$DW$438, DW_AT_decl_file("C:\ti\ccs1200\ccs\ccs_base\arm\include\msp432p401r.h")
    5512                            .dwattr $C$DW$438, DW_AT_decl_line(0x24f)
    5513                            .dwattr $C$DW$438, DW_AT_decl_column(0x13)
    5514                    
    5515                            .dwattr $C$DW$T$103, DW_AT_decl_file("C:\ti\ccs1200\ccs\ccs_base\arm\include\msp432p401r.h")
    5516                            .dwattr $C$DW$T$103, DW_AT_decl_line(0x24d)
    5517                            .dwattr $C$DW$T$103, DW_AT_decl_column(0x0c)
    5518                            .dwendtag $C$DW$T$103
    5519                    
    5520                    
    5521                    $C$DW$T$104     .dwtag  DW_TAG_structure_type
    5522                            .dwattr $C$DW$T$104, DW_AT_byte_size(0x02)
    5523                    $C$DW$439       .dwtag  DW_TAG_member
    5524                            .dwattr $C$DW$439, DW_AT_type(*$C$DW$T$31)
    5525                            .dwattr $C$DW$439, DW_AT_name("OUT_L")
    5526                            .dwattr $C$DW$439, DW_AT_TI_symbol_name("OUT_L")
    5527                            .dwattr $C$DW$439, DW_AT_data_member_location[DW_OP_plus_uconst 0x0]
    5528                            .dwattr $C$DW$439, DW_AT_accessibility(DW_ACCESS_public)
    5529                            .dwattr $C$DW$439, DW_AT_decl_file("C:\ti\ccs1200\ccs\ccs_base\arm\include\msp432p401r.h")
    5530                            .dwattr $C$DW$439, DW_AT_decl_line(0x255)
    5531                            .dwattr $C$DW$439, DW_AT_decl_column(0x14)
    5532                    
    5533                    $C$DW$440       .dwtag  DW_TAG_member
    5534                            .dwattr $C$DW$440, DW_AT_type(*$C$DW$T$31)
    5535                            .dwattr $C$DW$440, DW_AT_name("OUT_H")
    5536                            .dwattr $C$DW$440, DW_AT_TI_symbol_name("OUT_H")
    5537                            .dwattr $C$DW$440, DW_AT_data_member_location[DW_OP_plus_uconst 0x1]
    5538                            .dwattr $C$DW$440, DW_AT_accessibility(DW_ACCESS_public)
    5539                            .dwattr $C$DW$440, DW_AT_decl_file("C:\ti\ccs1200\ccs\ccs_base\arm\include\msp432p401r.h")
    5540                            .dwattr $C$DW$440, DW_AT_decl_line(0x256)
    5541                            .dwattr $C$DW$440, DW_AT_decl_column(0x14)
    5542                    
    5543                            .dwattr $C$DW$T$104, DW_AT_decl_file("C:\ti\ccs1200\ccs\ccs_base\arm\include\msp432p401r.h")
    5544                            .dwattr $C$DW$T$104, DW_AT_decl_line(0x254)
    5545                            .dwattr $C$DW$T$104, DW_AT_decl_column(0x0c)
    5546                            .dwendtag $C$DW$T$104
    5547                    
    5548                    
    5549                    $C$DW$T$105     .dwtag  DW_TAG_structure_type
    5550                            .dwattr $C$DW$T$105, DW_AT_byte_size(0x02)
    5551                    $C$DW$441       .dwtag  DW_TAG_member
    5552                            .dwattr $C$DW$441, DW_AT_type(*$C$DW$T$31)
    5553                            .dwattr $C$DW$441, DW_AT_name("DIR_L")
    5554                            .dwattr $C$DW$441, DW_AT_TI_symbol_name("DIR_L")
    5555                            .dwattr $C$DW$441, DW_AT_data_member_location[DW_OP_plus_uconst 0x0]
TI ARM Assembler PC v20.2.6 Mon Oct 31 23:16:56 2022

Copyright (c) 1996-2018 Texas Instruments Incorporated
system_msp432p401r.asm                                               PAGE  102

    5556                            .dwattr $C$DW$441, DW_AT_accessibility(DW_ACCESS_public)
    5557                            .dwattr $C$DW$441, DW_AT_decl_file("C:\ti\ccs1200\ccs\ccs_base\arm\include\msp432p401r.h")
    5558                            .dwattr $C$DW$441, DW_AT_decl_line(0x25c)
    5559                            .dwattr $C$DW$441, DW_AT_decl_column(0x14)
    5560                    
    5561                    $C$DW$442       .dwtag  DW_TAG_member
    5562                            .dwattr $C$DW$442, DW_AT_type(*$C$DW$T$31)
    5563                            .dwattr $C$DW$442, DW_AT_name("DIR_H")
    5564                            .dwattr $C$DW$442, DW_AT_TI_symbol_name("DIR_H")
    5565                            .dwattr $C$DW$442, DW_AT_data_member_location[DW_OP_plus_uconst 0x1]
    5566                            .dwattr $C$DW$442, DW_AT_accessibility(DW_ACCESS_public)
    5567                            .dwattr $C$DW$442, DW_AT_decl_file("C:\ti\ccs1200\ccs\ccs_base\arm\include\msp432p401r.h")
    5568                            .dwattr $C$DW$442, DW_AT_decl_line(0x25d)
    5569                            .dwattr $C$DW$442, DW_AT_decl_column(0x14)
    5570                    
    5571                            .dwattr $C$DW$T$105, DW_AT_decl_file("C:\ti\ccs1200\ccs\ccs_base\arm\include\msp432p401r.h")
    5572                            .dwattr $C$DW$T$105, DW_AT_decl_line(0x25b)
    5573                            .dwattr $C$DW$T$105, DW_AT_decl_column(0x0c)
    5574                            .dwendtag $C$DW$T$105
    5575                    
    5576                    
    5577                    $C$DW$T$106     .dwtag  DW_TAG_structure_type
    5578                            .dwattr $C$DW$T$106, DW_AT_byte_size(0x02)
    5579                    $C$DW$443       .dwtag  DW_TAG_member
    5580                            .dwattr $C$DW$443, DW_AT_type(*$C$DW$T$31)
    5581                            .dwattr $C$DW$443, DW_AT_name("REN_L")
    5582                            .dwattr $C$DW$443, DW_AT_TI_symbol_name("REN_L")
    5583                            .dwattr $C$DW$443, DW_AT_data_member_location[DW_OP_plus_uconst 0x0]
    5584                            .dwattr $C$DW$443, DW_AT_accessibility(DW_ACCESS_public)
    5585                            .dwattr $C$DW$443, DW_AT_decl_file("C:\ti\ccs1200\ccs\ccs_base\arm\include\msp432p401r.h")
    5586                            .dwattr $C$DW$443, DW_AT_decl_line(0x263)
    5587                            .dwattr $C$DW$443, DW_AT_decl_column(0x14)
    5588                    
    5589                    $C$DW$444       .dwtag  DW_TAG_member
    5590                            .dwattr $C$DW$444, DW_AT_type(*$C$DW$T$31)
    5591                            .dwattr $C$DW$444, DW_AT_name("REN_H")
    5592                            .dwattr $C$DW$444, DW_AT_TI_symbol_name("REN_H")
    5593                            .dwattr $C$DW$444, DW_AT_data_member_location[DW_OP_plus_uconst 0x1]
    5594                            .dwattr $C$DW$444, DW_AT_accessibility(DW_ACCESS_public)
    5595                            .dwattr $C$DW$444, DW_AT_decl_file("C:\ti\ccs1200\ccs\ccs_base\arm\include\msp432p401r.h")
    5596                            .dwattr $C$DW$444, DW_AT_decl_line(0x264)
    5597                            .dwattr $C$DW$444, DW_AT_decl_column(0x14)
    5598                    
    5599                            .dwattr $C$DW$T$106, DW_AT_decl_file("C:\ti\ccs1200\ccs\ccs_base\arm\include\msp432p401r.h")
    5600                            .dwattr $C$DW$T$106, DW_AT_decl_line(0x262)
    5601                            .dwattr $C$DW$T$106, DW_AT_decl_column(0x0c)
    5602                            .dwendtag $C$DW$T$106
    5603                    
    5604                    
    5605                    $C$DW$T$107     .dwtag  DW_TAG_structure_type
    5606                            .dwattr $C$DW$T$107, DW_AT_byte_size(0x02)
    5607                    $C$DW$445       .dwtag  DW_TAG_member
    5608                            .dwattr $C$DW$445, DW_AT_type(*$C$DW$T$31)
    5609                            .dwattr $C$DW$445, DW_AT_name("DS_L")
    5610                            .dwattr $C$DW$445, DW_AT_TI_symbol_name("DS_L")
TI ARM Assembler PC v20.2.6 Mon Oct 31 23:16:56 2022

Copyright (c) 1996-2018 Texas Instruments Incorporated
system_msp432p401r.asm                                               PAGE  103

    5611                            .dwattr $C$DW$445, DW_AT_data_member_location[DW_OP_plus_uconst 0x0]
    5612                            .dwattr $C$DW$445, DW_AT_accessibility(DW_ACCESS_public)
    5613                            .dwattr $C$DW$445, DW_AT_decl_file("C:\ti\ccs1200\ccs\ccs_base\arm\include\msp432p401r.h")
    5614                            .dwattr $C$DW$445, DW_AT_decl_line(0x26a)
    5615                            .dwattr $C$DW$445, DW_AT_decl_column(0x14)
    5616                    
    5617                    $C$DW$446       .dwtag  DW_TAG_member
    5618                            .dwattr $C$DW$446, DW_AT_type(*$C$DW$T$31)
    5619                            .dwattr $C$DW$446, DW_AT_name("DS_H")
    5620                            .dwattr $C$DW$446, DW_AT_TI_symbol_name("DS_H")
    5621                            .dwattr $C$DW$446, DW_AT_data_member_location[DW_OP_plus_uconst 0x1]
    5622                            .dwattr $C$DW$446, DW_AT_accessibility(DW_ACCESS_public)
    5623                            .dwattr $C$DW$446, DW_AT_decl_file("C:\ti\ccs1200\ccs\ccs_base\arm\include\msp432p401r.h")
    5624                            .dwattr $C$DW$446, DW_AT_decl_line(0x26b)
    5625                            .dwattr $C$DW$446, DW_AT_decl_column(0x14)
    5626                    
    5627                            .dwattr $C$DW$T$107, DW_AT_decl_file("C:\ti\ccs1200\ccs\ccs_base\arm\include\msp432p401r.h")
    5628                            .dwattr $C$DW$T$107, DW_AT_decl_line(0x269)
    5629                            .dwattr $C$DW$T$107, DW_AT_decl_column(0x0c)
    5630                            .dwendtag $C$DW$T$107
    5631                    
    5632                    
    5633                    $C$DW$T$108     .dwtag  DW_TAG_structure_type
    5634                            .dwattr $C$DW$T$108, DW_AT_byte_size(0x02)
    5635                    $C$DW$447       .dwtag  DW_TAG_member
    5636                            .dwattr $C$DW$447, DW_AT_type(*$C$DW$T$31)
    5637                            .dwattr $C$DW$447, DW_AT_name("SEL0_L")
    5638                            .dwattr $C$DW$447, DW_AT_TI_symbol_name("SEL0_L")
    5639                            .dwattr $C$DW$447, DW_AT_data_member_location[DW_OP_plus_uconst 0x0]
    5640                            .dwattr $C$DW$447, DW_AT_accessibility(DW_ACCESS_public)
    5641                            .dwattr $C$DW$447, DW_AT_decl_file("C:\ti\ccs1200\ccs\ccs_base\arm\include\msp432p401r.h")
    5642                            .dwattr $C$DW$447, DW_AT_decl_line(0x271)
    5643                            .dwattr $C$DW$447, DW_AT_decl_column(0x14)
    5644                    
    5645                    $C$DW$448       .dwtag  DW_TAG_member
    5646                            .dwattr $C$DW$448, DW_AT_type(*$C$DW$T$31)
    5647                            .dwattr $C$DW$448, DW_AT_name("SEL0_H")
    5648                            .dwattr $C$DW$448, DW_AT_TI_symbol_name("SEL0_H")
    5649                            .dwattr $C$DW$448, DW_AT_data_member_location[DW_OP_plus_uconst 0x1]
    5650                            .dwattr $C$DW$448, DW_AT_accessibility(DW_ACCESS_public)
    5651                            .dwattr $C$DW$448, DW_AT_decl_file("C:\ti\ccs1200\ccs\ccs_base\arm\include\msp432p401r.h")
    5652                            .dwattr $C$DW$448, DW_AT_decl_line(0x272)
    5653                            .dwattr $C$DW$448, DW_AT_decl_column(0x14)
    5654                    
    5655                            .dwattr $C$DW$T$108, DW_AT_decl_file("C:\ti\ccs1200\ccs\ccs_base\arm\include\msp432p401r.h")
    5656                            .dwattr $C$DW$T$108, DW_AT_decl_line(0x270)
    5657                            .dwattr $C$DW$T$108, DW_AT_decl_column(0x0c)
    5658                            .dwendtag $C$DW$T$108
    5659                    
    5660                    
    5661                    $C$DW$T$109     .dwtag  DW_TAG_structure_type
    5662                            .dwattr $C$DW$T$109, DW_AT_byte_size(0x02)
    5663                    $C$DW$449       .dwtag  DW_TAG_member
    5664                            .dwattr $C$DW$449, DW_AT_type(*$C$DW$T$31)
    5665                            .dwattr $C$DW$449, DW_AT_name("SEL1_L")
TI ARM Assembler PC v20.2.6 Mon Oct 31 23:16:56 2022

Copyright (c) 1996-2018 Texas Instruments Incorporated
system_msp432p401r.asm                                               PAGE  104

    5666                            .dwattr $C$DW$449, DW_AT_TI_symbol_name("SEL1_L")
    5667                            .dwattr $C$DW$449, DW_AT_data_member_location[DW_OP_plus_uconst 0x0]
    5668                            .dwattr $C$DW$449, DW_AT_accessibility(DW_ACCESS_public)
    5669                            .dwattr $C$DW$449, DW_AT_decl_file("C:\ti\ccs1200\ccs\ccs_base\arm\include\msp432p401r.h")
    5670                            .dwattr $C$DW$449, DW_AT_decl_line(0x278)
    5671                            .dwattr $C$DW$449, DW_AT_decl_column(0x14)
    5672                    
    5673                    $C$DW$450       .dwtag  DW_TAG_member
    5674                            .dwattr $C$DW$450, DW_AT_type(*$C$DW$T$31)
    5675                            .dwattr $C$DW$450, DW_AT_name("SEL1_H")
    5676                            .dwattr $C$DW$450, DW_AT_TI_symbol_name("SEL1_H")
    5677                            .dwattr $C$DW$450, DW_AT_data_member_location[DW_OP_plus_uconst 0x1]
    5678                            .dwattr $C$DW$450, DW_AT_accessibility(DW_ACCESS_public)
    5679                            .dwattr $C$DW$450, DW_AT_decl_file("C:\ti\ccs1200\ccs\ccs_base\arm\include\msp432p401r.h")
    5680                            .dwattr $C$DW$450, DW_AT_decl_line(0x279)
    5681                            .dwattr $C$DW$450, DW_AT_decl_column(0x14)
    5682                    
    5683                            .dwattr $C$DW$T$109, DW_AT_decl_file("C:\ti\ccs1200\ccs\ccs_base\arm\include\msp432p401r.h")
    5684                            .dwattr $C$DW$T$109, DW_AT_decl_line(0x277)
    5685                            .dwattr $C$DW$T$109, DW_AT_decl_column(0x0c)
    5686                            .dwendtag $C$DW$T$109
    5687                    
    5688                    
    5689                    $C$DW$T$110     .dwtag  DW_TAG_structure_type
    5690                            .dwattr $C$DW$T$110, DW_AT_byte_size(0x02)
    5691                    $C$DW$451       .dwtag  DW_TAG_member
    5692                            .dwattr $C$DW$451, DW_AT_type(*$C$DW$T$31)
    5693                            .dwattr $C$DW$451, DW_AT_name("SELC_L")
    5694                            .dwattr $C$DW$451, DW_AT_TI_symbol_name("SELC_L")
    5695                            .dwattr $C$DW$451, DW_AT_data_member_location[DW_OP_plus_uconst 0x0]
    5696                            .dwattr $C$DW$451, DW_AT_accessibility(DW_ACCESS_public)
    5697                            .dwattr $C$DW$451, DW_AT_decl_file("C:\ti\ccs1200\ccs\ccs_base\arm\include\msp432p401r.h")
    5698                            .dwattr $C$DW$451, DW_AT_decl_line(0x280)
    5699                            .dwattr $C$DW$451, DW_AT_decl_column(0x14)
    5700                    
    5701                    $C$DW$452       .dwtag  DW_TAG_member
    5702                            .dwattr $C$DW$452, DW_AT_type(*$C$DW$T$31)
    5703                            .dwattr $C$DW$452, DW_AT_name("SELC_H")
    5704                            .dwattr $C$DW$452, DW_AT_TI_symbol_name("SELC_H")
    5705                            .dwattr $C$DW$452, DW_AT_data_member_location[DW_OP_plus_uconst 0x1]
    5706                            .dwattr $C$DW$452, DW_AT_accessibility(DW_ACCESS_public)
    5707                            .dwattr $C$DW$452, DW_AT_decl_file("C:\ti\ccs1200\ccs\ccs_base\arm\include\msp432p401r.h")
    5708                            .dwattr $C$DW$452, DW_AT_decl_line(0x281)
    5709                            .dwattr $C$DW$452, DW_AT_decl_column(0x14)
    5710                    
    5711                            .dwattr $C$DW$T$110, DW_AT_decl_file("C:\ti\ccs1200\ccs\ccs_base\arm\include\msp432p401r.h")
    5712                            .dwattr $C$DW$T$110, DW_AT_decl_line(0x27f)
    5713                            .dwattr $C$DW$T$110, DW_AT_decl_column(0x0c)
    5714                            .dwendtag $C$DW$T$110
    5715                    
    5716                    
    5717                    $C$DW$T$112     .dwtag  DW_TAG_structure_type
    5718                            .dwattr $C$DW$T$112, DW_AT_byte_size(0x18)
    5719                    $C$DW$453       .dwtag  DW_TAG_member
    5720                            .dwattr $C$DW$453, DW_AT_type(*$C$DW$T$167)
TI ARM Assembler PC v20.2.6 Mon Oct 31 23:16:56 2022

Copyright (c) 1996-2018 Texas Instruments Incorporated
system_msp432p401r.asm                                               PAGE  105

    5721                            .dwattr $C$DW$453, DW_AT_name("$P$T30")
    5722                            .dwattr $C$DW$453, DW_AT_TI_symbol_name("$P$T30")
    5723                            .dwattr $C$DW$453, DW_AT_data_member_location[DW_OP_plus_uconst 0x0]
    5724                            .dwattr $C$DW$453, DW_AT_accessibility(DW_ACCESS_public)
    5725                            .dwattr $C$DW$453, DW_AT_decl_file("C:\ti\ccs1200\ccs\ccs_base\arm\include\msp432p401r.h")
    5726                            .dwattr $C$DW$453, DW_AT_decl_line(0x24b)
    5727                            .dwattr $C$DW$453, DW_AT_decl_column(0x03)
    5728                    
    5729                    $C$DW$454       .dwtag  DW_TAG_member
    5730                            .dwattr $C$DW$454, DW_AT_type(*$C$DW$T$168)
    5731                            .dwattr $C$DW$454, DW_AT_name("$P$T31")
    5732                            .dwattr $C$DW$454, DW_AT_TI_symbol_name("$P$T31")
    5733                            .dwattr $C$DW$454, DW_AT_data_member_location[DW_OP_plus_uconst 0x2]
    5734                            .dwattr $C$DW$454, DW_AT_accessibility(DW_ACCESS_public)
    5735                            .dwattr $C$DW$454, DW_AT_decl_file("C:\ti\ccs1200\ccs\ccs_base\arm\include\msp432p401r.h")
    5736                            .dwattr $C$DW$454, DW_AT_decl_line(0x252)
    5737                            .dwattr $C$DW$454, DW_AT_decl_column(0x03)
    5738                    
    5739                    $C$DW$455       .dwtag  DW_TAG_member
    5740                            .dwattr $C$DW$455, DW_AT_type(*$C$DW$T$169)
    5741                            .dwattr $C$DW$455, DW_AT_name("$P$T32")
    5742                            .dwattr $C$DW$455, DW_AT_TI_symbol_name("$P$T32")
    5743                            .dwattr $C$DW$455, DW_AT_data_member_location[DW_OP_plus_uconst 0x4]
    5744                            .dwattr $C$DW$455, DW_AT_accessibility(DW_ACCESS_public)
    5745                            .dwattr $C$DW$455, DW_AT_decl_file("C:\ti\ccs1200\ccs\ccs_base\arm\include\msp432p401r.h")
    5746                            .dwattr $C$DW$455, DW_AT_decl_line(0x259)
    5747                            .dwattr $C$DW$455, DW_AT_decl_column(0x03)
    5748                    
    5749                    $C$DW$456       .dwtag  DW_TAG_member
    5750                            .dwattr $C$DW$456, DW_AT_type(*$C$DW$T$170)
    5751                            .dwattr $C$DW$456, DW_AT_name("$P$T33")
    5752                            .dwattr $C$DW$456, DW_AT_TI_symbol_name("$P$T33")
    5753                            .dwattr $C$DW$456, DW_AT_data_member_location[DW_OP_plus_uconst 0x6]
    5754                            .dwattr $C$DW$456, DW_AT_accessibility(DW_ACCESS_public)
    5755                            .dwattr $C$DW$456, DW_AT_decl_file("C:\ti\ccs1200\ccs\ccs_base\arm\include\msp432p401r.h")
    5756                            .dwattr $C$DW$456, DW_AT_decl_line(0x260)
    5757                            .dwattr $C$DW$456, DW_AT_decl_column(0x03)
    5758                    
    5759                    $C$DW$457       .dwtag  DW_TAG_member
    5760                            .dwattr $C$DW$457, DW_AT_type(*$C$DW$T$171)
    5761                            .dwattr $C$DW$457, DW_AT_name("$P$T34")
    5762                            .dwattr $C$DW$457, DW_AT_TI_symbol_name("$P$T34")
    5763                            .dwattr $C$DW$457, DW_AT_data_member_location[DW_OP_plus_uconst 0x8]
    5764                            .dwattr $C$DW$457, DW_AT_accessibility(DW_ACCESS_public)
    5765                            .dwattr $C$DW$457, DW_AT_decl_file("C:\ti\ccs1200\ccs\ccs_base\arm\include\msp432p401r.h")
    5766                            .dwattr $C$DW$457, DW_AT_decl_line(0x267)
    5767                            .dwattr $C$DW$457, DW_AT_decl_column(0x03)
    5768                    
    5769                    $C$DW$458       .dwtag  DW_TAG_member
    5770                            .dwattr $C$DW$458, DW_AT_type(*$C$DW$T$172)
    5771                            .dwattr $C$DW$458, DW_AT_name("$P$T35")
    5772                            .dwattr $C$DW$458, DW_AT_TI_symbol_name("$P$T35")
    5773                            .dwattr $C$DW$458, DW_AT_data_member_location[DW_OP_plus_uconst 0xa]
    5774                            .dwattr $C$DW$458, DW_AT_accessibility(DW_ACCESS_public)
    5775                            .dwattr $C$DW$458, DW_AT_decl_file("C:\ti\ccs1200\ccs\ccs_base\arm\include\msp432p401r.h")
TI ARM Assembler PC v20.2.6 Mon Oct 31 23:16:56 2022

Copyright (c) 1996-2018 Texas Instruments Incorporated
system_msp432p401r.asm                                               PAGE  106

    5776                            .dwattr $C$DW$458, DW_AT_decl_line(0x26e)
    5777                            .dwattr $C$DW$458, DW_AT_decl_column(0x03)
    5778                    
    5779                    $C$DW$459       .dwtag  DW_TAG_member
    5780                            .dwattr $C$DW$459, DW_AT_type(*$C$DW$T$173)
    5781                            .dwattr $C$DW$459, DW_AT_name("$P$T36")
    5782                            .dwattr $C$DW$459, DW_AT_TI_symbol_name("$P$T36")
    5783                            .dwattr $C$DW$459, DW_AT_data_member_location[DW_OP_plus_uconst 0xc]
    5784                            .dwattr $C$DW$459, DW_AT_accessibility(DW_ACCESS_public)
    5785                            .dwattr $C$DW$459, DW_AT_decl_file("C:\ti\ccs1200\ccs\ccs_base\arm\include\msp432p401r.h")
    5786                            .dwattr $C$DW$459, DW_AT_decl_line(0x275)
    5787                            .dwattr $C$DW$459, DW_AT_decl_column(0x03)
    5788                    
    5789                    $C$DW$460       .dwtag  DW_TAG_member
    5790                            .dwattr $C$DW$460, DW_AT_type(*$C$DW$T$111)
    5791                            .dwattr $C$DW$460, DW_AT_name("RESERVED0")
    5792                            .dwattr $C$DW$460, DW_AT_TI_symbol_name("RESERVED0")
    5793                            .dwattr $C$DW$460, DW_AT_data_member_location[DW_OP_plus_uconst 0xe]
    5794                            .dwattr $C$DW$460, DW_AT_accessibility(DW_ACCESS_public)
    5795                            .dwattr $C$DW$460, DW_AT_decl_file("C:\ti\ccs1200\ccs\ccs_base\arm\include\msp432p401r.h")
    5796                            .dwattr $C$DW$460, DW_AT_decl_line(0x27c)
    5797                            .dwattr $C$DW$460, DW_AT_decl_column(0x0d)
    5798                    
    5799                    $C$DW$461       .dwtag  DW_TAG_member
    5800                            .dwattr $C$DW$461, DW_AT_type(*$C$DW$T$174)
    5801                            .dwattr $C$DW$461, DW_AT_name("$P$T37")
    5802                            .dwattr $C$DW$461, DW_AT_TI_symbol_name("$P$T37")
    5803                            .dwattr $C$DW$461, DW_AT_data_member_location[DW_OP_plus_uconst 0x16]
    5804                            .dwattr $C$DW$461, DW_AT_accessibility(DW_ACCESS_public)
    5805                            .dwattr $C$DW$461, DW_AT_decl_file("C:\ti\ccs1200\ccs\ccs_base\arm\include\msp432p401r.h")
    5806                            .dwattr $C$DW$461, DW_AT_decl_line(0x27d)
    5807                            .dwattr $C$DW$461, DW_AT_decl_column(0x03)
    5808                    
    5809                            .dwattr $C$DW$T$112, DW_AT_decl_file("C:\ti\ccs1200\ccs\ccs_base\arm\include\msp432p401r.h")
    5810                            .dwattr $C$DW$T$112, DW_AT_decl_line(0x24a)
    5811                            .dwattr $C$DW$T$112, DW_AT_decl_column(0x10)
    5812                            .dwendtag $C$DW$T$112
    5813                    
    5814                    $C$DW$T$207     .dwtag  DW_TAG_typedef
    5815                            .dwattr $C$DW$T$207, DW_AT_name("DIO_PORT_Not_Interruptable_Type")
    5816                            .dwattr $C$DW$T$207, DW_AT_type(*$C$DW$T$112)
    5817                            .dwattr $C$DW$T$207, DW_AT_language(DW_LANG_C)
    5818                            .dwattr $C$DW$T$207, DW_AT_decl_file("C:\ti\ccs1200\ccs\ccs_base\arm\include\msp432p401r.h")
    5819                            .dwattr $C$DW$T$207, DW_AT_decl_line(0x284)
    5820                            .dwattr $C$DW$T$207, DW_AT_decl_column(0x03)
    5821                    
    5822                    
    5823                    $C$DW$T$114     .dwtag  DW_TAG_structure_type
    5824                            .dwattr $C$DW$T$114, DW_AT_byte_size(0x1e)
    5825                    $C$DW$462       .dwtag  DW_TAG_member
    5826                            .dwattr $C$DW$462, DW_AT_type(*$C$DW$T$89)
    5827                            .dwattr $C$DW$462, DW_AT_name("IN")
    5828                            .dwattr $C$DW$462, DW_AT_TI_symbol_name("IN")
    5829                            .dwattr $C$DW$462, DW_AT_data_member_location[DW_OP_plus_uconst 0x0]
    5830                            .dwattr $C$DW$462, DW_AT_accessibility(DW_ACCESS_public)
TI ARM Assembler PC v20.2.6 Mon Oct 31 23:16:56 2022

Copyright (c) 1996-2018 Texas Instruments Incorporated
system_msp432p401r.asm                                               PAGE  107

    5831                            .dwattr $C$DW$462, DW_AT_decl_file("C:\ti\ccs1200\ccs\ccs_base\arm\include\msp432p401r.h")
    5832                            .dwattr $C$DW$462, DW_AT_decl_line(0x288)
    5833                            .dwattr $C$DW$462, DW_AT_decl_column(0x0f)
    5834                    
    5835                    $C$DW$463       .dwtag  DW_TAG_member
    5836                            .dwattr $C$DW$463, DW_AT_type(*$C$DW$T$30)
    5837                            .dwattr $C$DW$463, DW_AT_name("RESERVED0")
    5838                            .dwattr $C$DW$463, DW_AT_TI_symbol_name("RESERVED0")
    5839                            .dwattr $C$DW$463, DW_AT_data_member_location[DW_OP_plus_uconst 0x1]
    5840                            .dwattr $C$DW$463, DW_AT_accessibility(DW_ACCESS_public)
    5841                            .dwattr $C$DW$463, DW_AT_decl_file("C:\ti\ccs1200\ccs\ccs_base\arm\include\msp432p401r.h")
    5842                            .dwattr $C$DW$463, DW_AT_decl_line(0x289)
    5843                            .dwattr $C$DW$463, DW_AT_decl_column(0x0b)
    5844                    
    5845                    $C$DW$464       .dwtag  DW_TAG_member
    5846                            .dwattr $C$DW$464, DW_AT_type(*$C$DW$T$31)
    5847                            .dwattr $C$DW$464, DW_AT_name("OUT")
    5848                            .dwattr $C$DW$464, DW_AT_TI_symbol_name("OUT")
    5849                            .dwattr $C$DW$464, DW_AT_data_member_location[DW_OP_plus_uconst 0x2]
    5850                            .dwattr $C$DW$464, DW_AT_accessibility(DW_ACCESS_public)
    5851                            .dwattr $C$DW$464, DW_AT_decl_file("C:\ti\ccs1200\ccs\ccs_base\arm\include\msp432p401r.h")
    5852                            .dwattr $C$DW$464, DW_AT_decl_line(0x28a)
    5853                            .dwattr $C$DW$464, DW_AT_decl_column(0x10)
    5854                    
    5855                    $C$DW$465       .dwtag  DW_TAG_member
    5856                            .dwattr $C$DW$465, DW_AT_type(*$C$DW$T$30)
    5857                            .dwattr $C$DW$465, DW_AT_name("RESERVED1")
    5858                            .dwattr $C$DW$465, DW_AT_TI_symbol_name("RESERVED1")
    5859                            .dwattr $C$DW$465, DW_AT_data_member_location[DW_OP_plus_uconst 0x3]
    5860                            .dwattr $C$DW$465, DW_AT_accessibility(DW_ACCESS_public)
    5861                            .dwattr $C$DW$465, DW_AT_decl_file("C:\ti\ccs1200\ccs\ccs_base\arm\include\msp432p401r.h")
    5862                            .dwattr $C$DW$465, DW_AT_decl_line(0x28b)
    5863                            .dwattr $C$DW$465, DW_AT_decl_column(0x0b)
    5864                    
    5865                    $C$DW$466       .dwtag  DW_TAG_member
    5866                            .dwattr $C$DW$466, DW_AT_type(*$C$DW$T$31)
    5867                            .dwattr $C$DW$466, DW_AT_name("DIR")
    5868                            .dwattr $C$DW$466, DW_AT_TI_symbol_name("DIR")
    5869                            .dwattr $C$DW$466, DW_AT_data_member_location[DW_OP_plus_uconst 0x4]
    5870                            .dwattr $C$DW$466, DW_AT_accessibility(DW_ACCESS_public)
    5871                            .dwattr $C$DW$466, DW_AT_decl_file("C:\ti\ccs1200\ccs\ccs_base\arm\include\msp432p401r.h")
    5872                            .dwattr $C$DW$466, DW_AT_decl_line(0x28c)
    5873                            .dwattr $C$DW$466, DW_AT_decl_column(0x10)
    5874                    
    5875                    $C$DW$467       .dwtag  DW_TAG_member
    5876                            .dwattr $C$DW$467, DW_AT_type(*$C$DW$T$30)
    5877                            .dwattr $C$DW$467, DW_AT_name("RESERVED2")
    5878                            .dwattr $C$DW$467, DW_AT_TI_symbol_name("RESERVED2")
    5879                            .dwattr $C$DW$467, DW_AT_data_member_location[DW_OP_plus_uconst 0x5]
    5880                            .dwattr $C$DW$467, DW_AT_accessibility(DW_ACCESS_public)
    5881                            .dwattr $C$DW$467, DW_AT_decl_file("C:\ti\ccs1200\ccs\ccs_base\arm\include\msp432p401r.h")
    5882                            .dwattr $C$DW$467, DW_AT_decl_line(0x28d)
    5883                            .dwattr $C$DW$467, DW_AT_decl_column(0x0b)
    5884                    
    5885                    $C$DW$468       .dwtag  DW_TAG_member
TI ARM Assembler PC v20.2.6 Mon Oct 31 23:16:56 2022

Copyright (c) 1996-2018 Texas Instruments Incorporated
system_msp432p401r.asm                                               PAGE  108

    5886                            .dwattr $C$DW$468, DW_AT_type(*$C$DW$T$31)
    5887                            .dwattr $C$DW$468, DW_AT_name("REN")
    5888                            .dwattr $C$DW$468, DW_AT_TI_symbol_name("REN")
    5889                            .dwattr $C$DW$468, DW_AT_data_member_location[DW_OP_plus_uconst 0x6]
    5890                            .dwattr $C$DW$468, DW_AT_accessibility(DW_ACCESS_public)
    5891                            .dwattr $C$DW$468, DW_AT_decl_file("C:\ti\ccs1200\ccs\ccs_base\arm\include\msp432p401r.h")
    5892                            .dwattr $C$DW$468, DW_AT_decl_line(0x28e)
    5893                            .dwattr $C$DW$468, DW_AT_decl_column(0x10)
    5894                    
    5895                    $C$DW$469       .dwtag  DW_TAG_member
    5896                            .dwattr $C$DW$469, DW_AT_type(*$C$DW$T$30)
    5897                            .dwattr $C$DW$469, DW_AT_name("RESERVED3")
    5898                            .dwattr $C$DW$469, DW_AT_TI_symbol_name("RESERVED3")
    5899                            .dwattr $C$DW$469, DW_AT_data_member_location[DW_OP_plus_uconst 0x7]
    5900                            .dwattr $C$DW$469, DW_AT_accessibility(DW_ACCESS_public)
    5901                            .dwattr $C$DW$469, DW_AT_decl_file("C:\ti\ccs1200\ccs\ccs_base\arm\include\msp432p401r.h")
    5902                            .dwattr $C$DW$469, DW_AT_decl_line(0x28f)
    5903                            .dwattr $C$DW$469, DW_AT_decl_column(0x0b)
    5904                    
    5905                    $C$DW$470       .dwtag  DW_TAG_member
    5906                            .dwattr $C$DW$470, DW_AT_type(*$C$DW$T$31)
    5907                            .dwattr $C$DW$470, DW_AT_name("DS")
    5908                            .dwattr $C$DW$470, DW_AT_TI_symbol_name("DS")
    5909                            .dwattr $C$DW$470, DW_AT_data_member_location[DW_OP_plus_uconst 0x8]
    5910                            .dwattr $C$DW$470, DW_AT_accessibility(DW_ACCESS_public)
    5911                            .dwattr $C$DW$470, DW_AT_decl_file("C:\ti\ccs1200\ccs\ccs_base\arm\include\msp432p401r.h")
    5912                            .dwattr $C$DW$470, DW_AT_decl_line(0x290)
    5913                            .dwattr $C$DW$470, DW_AT_decl_column(0x10)
    5914                    
    5915                    $C$DW$471       .dwtag  DW_TAG_member
    5916                            .dwattr $C$DW$471, DW_AT_type(*$C$DW$T$30)
    5917                            .dwattr $C$DW$471, DW_AT_name("RESERVED4")
    5918                            .dwattr $C$DW$471, DW_AT_TI_symbol_name("RESERVED4")
    5919                            .dwattr $C$DW$471, DW_AT_data_member_location[DW_OP_plus_uconst 0x9]
    5920                            .dwattr $C$DW$471, DW_AT_accessibility(DW_ACCESS_public)
    5921                            .dwattr $C$DW$471, DW_AT_decl_file("C:\ti\ccs1200\ccs\ccs_base\arm\include\msp432p401r.h")
    5922                            .dwattr $C$DW$471, DW_AT_decl_line(0x291)
    5923                            .dwattr $C$DW$471, DW_AT_decl_column(0x0b)
    5924                    
    5925                    $C$DW$472       .dwtag  DW_TAG_member
    5926                            .dwattr $C$DW$472, DW_AT_type(*$C$DW$T$31)
    5927                            .dwattr $C$DW$472, DW_AT_name("SEL0")
    5928                            .dwattr $C$DW$472, DW_AT_TI_symbol_name("SEL0")
    5929                            .dwattr $C$DW$472, DW_AT_data_member_location[DW_OP_plus_uconst 0xa]
    5930                            .dwattr $C$DW$472, DW_AT_accessibility(DW_ACCESS_public)
    5931                            .dwattr $C$DW$472, DW_AT_decl_file("C:\ti\ccs1200\ccs\ccs_base\arm\include\msp432p401r.h")
    5932                            .dwattr $C$DW$472, DW_AT_decl_line(0x292)
    5933                            .dwattr $C$DW$472, DW_AT_decl_column(0x10)
    5934                    
    5935                    $C$DW$473       .dwtag  DW_TAG_member
    5936                            .dwattr $C$DW$473, DW_AT_type(*$C$DW$T$30)
    5937                            .dwattr $C$DW$473, DW_AT_name("RESERVED5")
    5938                            .dwattr $C$DW$473, DW_AT_TI_symbol_name("RESERVED5")
    5939                            .dwattr $C$DW$473, DW_AT_data_member_location[DW_OP_plus_uconst 0xb]
    5940                            .dwattr $C$DW$473, DW_AT_accessibility(DW_ACCESS_public)
TI ARM Assembler PC v20.2.6 Mon Oct 31 23:16:56 2022

Copyright (c) 1996-2018 Texas Instruments Incorporated
system_msp432p401r.asm                                               PAGE  109

    5941                            .dwattr $C$DW$473, DW_AT_decl_file("C:\ti\ccs1200\ccs\ccs_base\arm\include\msp432p401r.h")
    5942                            .dwattr $C$DW$473, DW_AT_decl_line(0x293)
    5943                            .dwattr $C$DW$473, DW_AT_decl_column(0x0b)
    5944                    
    5945                    $C$DW$474       .dwtag  DW_TAG_member
    5946                            .dwattr $C$DW$474, DW_AT_type(*$C$DW$T$31)
    5947                            .dwattr $C$DW$474, DW_AT_name("SEL1")
    5948                            .dwattr $C$DW$474, DW_AT_TI_symbol_name("SEL1")
    5949                            .dwattr $C$DW$474, DW_AT_data_member_location[DW_OP_plus_uconst 0xc]
    5950                            .dwattr $C$DW$474, DW_AT_accessibility(DW_ACCESS_public)
    5951                            .dwattr $C$DW$474, DW_AT_decl_file("C:\ti\ccs1200\ccs\ccs_base\arm\include\msp432p401r.h")
    5952                            .dwattr $C$DW$474, DW_AT_decl_line(0x294)
    5953                            .dwattr $C$DW$474, DW_AT_decl_column(0x10)
    5954                    
    5955                    $C$DW$475       .dwtag  DW_TAG_member
    5956                            .dwattr $C$DW$475, DW_AT_type(*$C$DW$T$30)
    5957                            .dwattr $C$DW$475, DW_AT_name("RESERVED6")
    5958                            .dwattr $C$DW$475, DW_AT_TI_symbol_name("RESERVED6")
    5959                            .dwattr $C$DW$475, DW_AT_data_member_location[DW_OP_plus_uconst 0xd]
    5960                            .dwattr $C$DW$475, DW_AT_accessibility(DW_ACCESS_public)
    5961                            .dwattr $C$DW$475, DW_AT_decl_file("C:\ti\ccs1200\ccs\ccs_base\arm\include\msp432p401r.h")
    5962                            .dwattr $C$DW$475, DW_AT_decl_line(0x295)
    5963                            .dwattr $C$DW$475, DW_AT_decl_column(0x0b)
    5964                    
    5965                    $C$DW$476       .dwtag  DW_TAG_member
    5966                            .dwattr $C$DW$476, DW_AT_type(*$C$DW$T$86)
    5967                            .dwattr $C$DW$476, DW_AT_name("IV")
    5968                            .dwattr $C$DW$476, DW_AT_TI_symbol_name("IV")
    5969                            .dwattr $C$DW$476, DW_AT_data_member_location[DW_OP_plus_uconst 0xe]
    5970                            .dwattr $C$DW$476, DW_AT_accessibility(DW_ACCESS_public)
    5971                            .dwattr $C$DW$476, DW_AT_decl_file("C:\ti\ccs1200\ccs\ccs_base\arm\include\msp432p401r.h")
    5972                            .dwattr $C$DW$476, DW_AT_decl_line(0x296)
    5973                            .dwattr $C$DW$476, DW_AT_decl_column(0x11)
    5974                    
    5975                    $C$DW$477       .dwtag  DW_TAG_member
    5976                            .dwattr $C$DW$477, DW_AT_type(*$C$DW$T$113)
    5977                            .dwattr $C$DW$477, DW_AT_name("RESERVED7")
    5978                            .dwattr $C$DW$477, DW_AT_TI_symbol_name("RESERVED7")
    5979                            .dwattr $C$DW$477, DW_AT_data_member_location[DW_OP_plus_uconst 0x10]
    5980                            .dwattr $C$DW$477, DW_AT_accessibility(DW_ACCESS_public)
    5981                            .dwattr $C$DW$477, DW_AT_decl_file("C:\ti\ccs1200\ccs\ccs_base\arm\include\msp432p401r.h")
    5982                            .dwattr $C$DW$477, DW_AT_decl_line(0x297)
    5983                            .dwattr $C$DW$477, DW_AT_decl_column(0x0b)
    5984                    
    5985                    $C$DW$478       .dwtag  DW_TAG_member
    5986                            .dwattr $C$DW$478, DW_AT_type(*$C$DW$T$31)
    5987                            .dwattr $C$DW$478, DW_AT_name("SELC")
    5988                            .dwattr $C$DW$478, DW_AT_TI_symbol_name("SELC")
    5989                            .dwattr $C$DW$478, DW_AT_data_member_location[DW_OP_plus_uconst 0x16]
    5990                            .dwattr $C$DW$478, DW_AT_accessibility(DW_ACCESS_public)
    5991                            .dwattr $C$DW$478, DW_AT_decl_file("C:\ti\ccs1200\ccs\ccs_base\arm\include\msp432p401r.h")
    5992                            .dwattr $C$DW$478, DW_AT_decl_line(0x298)
    5993                            .dwattr $C$DW$478, DW_AT_decl_column(0x10)
    5994                    
    5995                    $C$DW$479       .dwtag  DW_TAG_member
TI ARM Assembler PC v20.2.6 Mon Oct 31 23:16:56 2022

Copyright (c) 1996-2018 Texas Instruments Incorporated
system_msp432p401r.asm                                               PAGE  110

    5996                            .dwattr $C$DW$479, DW_AT_type(*$C$DW$T$30)
    5997                            .dwattr $C$DW$479, DW_AT_name("RESERVED8")
    5998                            .dwattr $C$DW$479, DW_AT_TI_symbol_name("RESERVED8")
    5999                            .dwattr $C$DW$479, DW_AT_data_member_location[DW_OP_plus_uconst 0x17]
    6000                            .dwattr $C$DW$479, DW_AT_accessibility(DW_ACCESS_public)
    6001                            .dwattr $C$DW$479, DW_AT_decl_file("C:\ti\ccs1200\ccs\ccs_base\arm\include\msp432p401r.h")
    6002                            .dwattr $C$DW$479, DW_AT_decl_line(0x299)
    6003                            .dwattr $C$DW$479, DW_AT_decl_column(0x0b)
    6004                    
    6005                    $C$DW$480       .dwtag  DW_TAG_member
    6006                            .dwattr $C$DW$480, DW_AT_type(*$C$DW$T$31)
    6007                            .dwattr $C$DW$480, DW_AT_name("IES")
    6008                            .dwattr $C$DW$480, DW_AT_TI_symbol_name("IES")
    6009                            .dwattr $C$DW$480, DW_AT_data_member_location[DW_OP_plus_uconst 0x18]
    6010                            .dwattr $C$DW$480, DW_AT_accessibility(DW_ACCESS_public)
    6011                            .dwattr $C$DW$480, DW_AT_decl_file("C:\ti\ccs1200\ccs\ccs_base\arm\include\msp432p401r.h")
    6012                            .dwattr $C$DW$480, DW_AT_decl_line(0x29a)
    6013                            .dwattr $C$DW$480, DW_AT_decl_column(0x10)
    6014                    
    6015                    $C$DW$481       .dwtag  DW_TAG_member
    6016                            .dwattr $C$DW$481, DW_AT_type(*$C$DW$T$30)
    6017                            .dwattr $C$DW$481, DW_AT_name("RESERVED9")
    6018                            .dwattr $C$DW$481, DW_AT_TI_symbol_name("RESERVED9")
    6019                            .dwattr $C$DW$481, DW_AT_data_member_location[DW_OP_plus_uconst 0x19]
    6020                            .dwattr $C$DW$481, DW_AT_accessibility(DW_ACCESS_public)
    6021                            .dwattr $C$DW$481, DW_AT_decl_file("C:\ti\ccs1200\ccs\ccs_base\arm\include\msp432p401r.h")
    6022                            .dwattr $C$DW$481, DW_AT_decl_line(0x29b)
    6023                            .dwattr $C$DW$481, DW_AT_decl_column(0x0b)
    6024                    
    6025                    $C$DW$482       .dwtag  DW_TAG_member
    6026                            .dwattr $C$DW$482, DW_AT_type(*$C$DW$T$31)
    6027                            .dwattr $C$DW$482, DW_AT_name("IE")
    6028                            .dwattr $C$DW$482, DW_AT_TI_symbol_name("IE")
    6029                            .dwattr $C$DW$482, DW_AT_data_member_location[DW_OP_plus_uconst 0x1a]
    6030                            .dwattr $C$DW$482, DW_AT_accessibility(DW_ACCESS_public)
    6031                            .dwattr $C$DW$482, DW_AT_decl_file("C:\ti\ccs1200\ccs\ccs_base\arm\include\msp432p401r.h")
    6032                            .dwattr $C$DW$482, DW_AT_decl_line(0x29c)
    6033                            .dwattr $C$DW$482, DW_AT_decl_column(0x10)
    6034                    
    6035                    $C$DW$483       .dwtag  DW_TAG_member
    6036                            .dwattr $C$DW$483, DW_AT_type(*$C$DW$T$30)
    6037                            .dwattr $C$DW$483, DW_AT_name("RESERVED10")
    6038                            .dwattr $C$DW$483, DW_AT_TI_symbol_name("RESERVED10")
    6039                            .dwattr $C$DW$483, DW_AT_data_member_location[DW_OP_plus_uconst 0x1b]
    6040                            .dwattr $C$DW$483, DW_AT_accessibility(DW_ACCESS_public)
    6041                            .dwattr $C$DW$483, DW_AT_decl_file("C:\ti\ccs1200\ccs\ccs_base\arm\include\msp432p401r.h")
    6042                            .dwattr $C$DW$483, DW_AT_decl_line(0x29d)
    6043                            .dwattr $C$DW$483, DW_AT_decl_column(0x0b)
    6044                    
    6045                    $C$DW$484       .dwtag  DW_TAG_member
    6046                            .dwattr $C$DW$484, DW_AT_type(*$C$DW$T$31)
    6047                            .dwattr $C$DW$484, DW_AT_name("IFG")
    6048                            .dwattr $C$DW$484, DW_AT_TI_symbol_name("IFG")
    6049                            .dwattr $C$DW$484, DW_AT_data_member_location[DW_OP_plus_uconst 0x1c]
    6050                            .dwattr $C$DW$484, DW_AT_accessibility(DW_ACCESS_public)
TI ARM Assembler PC v20.2.6 Mon Oct 31 23:16:56 2022

Copyright (c) 1996-2018 Texas Instruments Incorporated
system_msp432p401r.asm                                               PAGE  111

    6051                            .dwattr $C$DW$484, DW_AT_decl_file("C:\ti\ccs1200\ccs\ccs_base\arm\include\msp432p401r.h")
    6052                            .dwattr $C$DW$484, DW_AT_decl_line(0x29e)
    6053                            .dwattr $C$DW$484, DW_AT_decl_column(0x10)
    6054                    
    6055                    $C$DW$485       .dwtag  DW_TAG_member
    6056                            .dwattr $C$DW$485, DW_AT_type(*$C$DW$T$30)
    6057                            .dwattr $C$DW$485, DW_AT_name("RESERVED11")
    6058                            .dwattr $C$DW$485, DW_AT_TI_symbol_name("RESERVED11")
    6059                            .dwattr $C$DW$485, DW_AT_data_member_location[DW_OP_plus_uconst 0x1d]
    6060                            .dwattr $C$DW$485, DW_AT_accessibility(DW_ACCESS_public)
    6061                            .dwattr $C$DW$485, DW_AT_decl_file("C:\ti\ccs1200\ccs\ccs_base\arm\include\msp432p401r.h")
    6062                            .dwattr $C$DW$485, DW_AT_decl_line(0x29f)
    6063                            .dwattr $C$DW$485, DW_AT_decl_column(0x0b)
    6064                    
    6065                            .dwattr $C$DW$T$114, DW_AT_decl_file("C:\ti\ccs1200\ccs\ccs_base\arm\include\msp432p401r.h")
    6066                            .dwattr $C$DW$T$114, DW_AT_decl_line(0x287)
    6067                            .dwattr $C$DW$T$114, DW_AT_decl_column(0x10)
    6068                            .dwendtag $C$DW$T$114
    6069                    
    6070                    $C$DW$T$208     .dwtag  DW_TAG_typedef
    6071                            .dwattr $C$DW$T$208, DW_AT_name("DIO_PORT_Odd_Interruptable_Type")
    6072                            .dwattr $C$DW$T$208, DW_AT_type(*$C$DW$T$114)
    6073                            .dwattr $C$DW$T$208, DW_AT_language(DW_LANG_C)
    6074                            .dwattr $C$DW$T$208, DW_AT_decl_file("C:\ti\ccs1200\ccs\ccs_base\arm\include\msp432p401r.h")
    6075                            .dwattr $C$DW$T$208, DW_AT_decl_line(0x2a0)
    6076                            .dwattr $C$DW$T$208, DW_AT_decl_column(0x03)
    6077                    
    6078                    
    6079                    $C$DW$T$116     .dwtag  DW_TAG_structure_type
    6080                            .dwattr $C$DW$T$116, DW_AT_byte_size(0x20)
    6081                    $C$DW$486       .dwtag  DW_TAG_member
    6082                            .dwattr $C$DW$486, DW_AT_type(*$C$DW$T$30)
    6083                            .dwattr $C$DW$486, DW_AT_name("RESERVED0")
    6084                            .dwattr $C$DW$486, DW_AT_TI_symbol_name("RESERVED0")
    6085                            .dwattr $C$DW$486, DW_AT_data_member_location[DW_OP_plus_uconst 0x0]
    6086                            .dwattr $C$DW$486, DW_AT_accessibility(DW_ACCESS_public)
    6087                            .dwattr $C$DW$486, DW_AT_decl_file("C:\ti\ccs1200\ccs\ccs_base\arm\include\msp432p401r.h")
    6088                            .dwattr $C$DW$486, DW_AT_decl_line(0x2a3)
    6089                            .dwattr $C$DW$486, DW_AT_decl_column(0x0b)
    6090                    
    6091                    $C$DW$487       .dwtag  DW_TAG_member
    6092                            .dwattr $C$DW$487, DW_AT_type(*$C$DW$T$89)
    6093                            .dwattr $C$DW$487, DW_AT_name("IN")
    6094                            .dwattr $C$DW$487, DW_AT_TI_symbol_name("IN")
    6095                            .dwattr $C$DW$487, DW_AT_data_member_location[DW_OP_plus_uconst 0x1]
    6096                            .dwattr $C$DW$487, DW_AT_accessibility(DW_ACCESS_public)
    6097                            .dwattr $C$DW$487, DW_AT_decl_file("C:\ti\ccs1200\ccs\ccs_base\arm\include\msp432p401r.h")
    6098                            .dwattr $C$DW$487, DW_AT_decl_line(0x2a4)
    6099                            .dwattr $C$DW$487, DW_AT_decl_column(0x0f)
    6100                    
    6101                    $C$DW$488       .dwtag  DW_TAG_member
    6102                            .dwattr $C$DW$488, DW_AT_type(*$C$DW$T$30)
    6103                            .dwattr $C$DW$488, DW_AT_name("RESERVED1")
    6104                            .dwattr $C$DW$488, DW_AT_TI_symbol_name("RESERVED1")
    6105                            .dwattr $C$DW$488, DW_AT_data_member_location[DW_OP_plus_uconst 0x2]
TI ARM Assembler PC v20.2.6 Mon Oct 31 23:16:56 2022

Copyright (c) 1996-2018 Texas Instruments Incorporated
system_msp432p401r.asm                                               PAGE  112

    6106                            .dwattr $C$DW$488, DW_AT_accessibility(DW_ACCESS_public)
    6107                            .dwattr $C$DW$488, DW_AT_decl_file("C:\ti\ccs1200\ccs\ccs_base\arm\include\msp432p401r.h")
    6108                            .dwattr $C$DW$488, DW_AT_decl_line(0x2a5)
    6109                            .dwattr $C$DW$488, DW_AT_decl_column(0x0b)
    6110                    
    6111                    $C$DW$489       .dwtag  DW_TAG_member
    6112                            .dwattr $C$DW$489, DW_AT_type(*$C$DW$T$31)
    6113                            .dwattr $C$DW$489, DW_AT_name("OUT")
    6114                            .dwattr $C$DW$489, DW_AT_TI_symbol_name("OUT")
    6115                            .dwattr $C$DW$489, DW_AT_data_member_location[DW_OP_plus_uconst 0x3]
    6116                            .dwattr $C$DW$489, DW_AT_accessibility(DW_ACCESS_public)
    6117                            .dwattr $C$DW$489, DW_AT_decl_file("C:\ti\ccs1200\ccs\ccs_base\arm\include\msp432p401r.h")
    6118                            .dwattr $C$DW$489, DW_AT_decl_line(0x2a6)
    6119                            .dwattr $C$DW$489, DW_AT_decl_column(0x10)
    6120                    
    6121                    $C$DW$490       .dwtag  DW_TAG_member
    6122                            .dwattr $C$DW$490, DW_AT_type(*$C$DW$T$30)
    6123                            .dwattr $C$DW$490, DW_AT_name("RESERVED2")
    6124                            .dwattr $C$DW$490, DW_AT_TI_symbol_name("RESERVED2")
    6125                            .dwattr $C$DW$490, DW_AT_data_member_location[DW_OP_plus_uconst 0x4]
    6126                            .dwattr $C$DW$490, DW_AT_accessibility(DW_ACCESS_public)
    6127                            .dwattr $C$DW$490, DW_AT_decl_file("C:\ti\ccs1200\ccs\ccs_base\arm\include\msp432p401r.h")
    6128                            .dwattr $C$DW$490, DW_AT_decl_line(0x2a7)
    6129                            .dwattr $C$DW$490, DW_AT_decl_column(0x0b)
    6130                    
    6131                    $C$DW$491       .dwtag  DW_TAG_member
    6132                            .dwattr $C$DW$491, DW_AT_type(*$C$DW$T$31)
    6133                            .dwattr $C$DW$491, DW_AT_name("DIR")
    6134                            .dwattr $C$DW$491, DW_AT_TI_symbol_name("DIR")
    6135                            .dwattr $C$DW$491, DW_AT_data_member_location[DW_OP_plus_uconst 0x5]
    6136                            .dwattr $C$DW$491, DW_AT_accessibility(DW_ACCESS_public)
    6137                            .dwattr $C$DW$491, DW_AT_decl_file("C:\ti\ccs1200\ccs\ccs_base\arm\include\msp432p401r.h")
    6138                            .dwattr $C$DW$491, DW_AT_decl_line(0x2a8)
    6139                            .dwattr $C$DW$491, DW_AT_decl_column(0x10)
    6140                    
    6141                    $C$DW$492       .dwtag  DW_TAG_member
    6142                            .dwattr $C$DW$492, DW_AT_type(*$C$DW$T$30)
    6143                            .dwattr $C$DW$492, DW_AT_name("RESERVED3")
    6144                            .dwattr $C$DW$492, DW_AT_TI_symbol_name("RESERVED3")
    6145                            .dwattr $C$DW$492, DW_AT_data_member_location[DW_OP_plus_uconst 0x6]
    6146                            .dwattr $C$DW$492, DW_AT_accessibility(DW_ACCESS_public)
    6147                            .dwattr $C$DW$492, DW_AT_decl_file("C:\ti\ccs1200\ccs\ccs_base\arm\include\msp432p401r.h")
    6148                            .dwattr $C$DW$492, DW_AT_decl_line(0x2a9)
    6149                            .dwattr $C$DW$492, DW_AT_decl_column(0x0b)
    6150                    
    6151                    $C$DW$493       .dwtag  DW_TAG_member
    6152                            .dwattr $C$DW$493, DW_AT_type(*$C$DW$T$31)
    6153                            .dwattr $C$DW$493, DW_AT_name("REN")
    6154                            .dwattr $C$DW$493, DW_AT_TI_symbol_name("REN")
    6155                            .dwattr $C$DW$493, DW_AT_data_member_location[DW_OP_plus_uconst 0x7]
    6156                            .dwattr $C$DW$493, DW_AT_accessibility(DW_ACCESS_public)
    6157                            .dwattr $C$DW$493, DW_AT_decl_file("C:\ti\ccs1200\ccs\ccs_base\arm\include\msp432p401r.h")
    6158                            .dwattr $C$DW$493, DW_AT_decl_line(0x2aa)
    6159                            .dwattr $C$DW$493, DW_AT_decl_column(0x10)
    6160                    
TI ARM Assembler PC v20.2.6 Mon Oct 31 23:16:56 2022

Copyright (c) 1996-2018 Texas Instruments Incorporated
system_msp432p401r.asm                                               PAGE  113

    6161                    $C$DW$494       .dwtag  DW_TAG_member
    6162                            .dwattr $C$DW$494, DW_AT_type(*$C$DW$T$30)
    6163                            .dwattr $C$DW$494, DW_AT_name("RESERVED4")
    6164                            .dwattr $C$DW$494, DW_AT_TI_symbol_name("RESERVED4")
    6165                            .dwattr $C$DW$494, DW_AT_data_member_location[DW_OP_plus_uconst 0x8]
    6166                            .dwattr $C$DW$494, DW_AT_accessibility(DW_ACCESS_public)
    6167                            .dwattr $C$DW$494, DW_AT_decl_file("C:\ti\ccs1200\ccs\ccs_base\arm\include\msp432p401r.h")
    6168                            .dwattr $C$DW$494, DW_AT_decl_line(0x2ab)
    6169                            .dwattr $C$DW$494, DW_AT_decl_column(0x0b)
    6170                    
    6171                    $C$DW$495       .dwtag  DW_TAG_member
    6172                            .dwattr $C$DW$495, DW_AT_type(*$C$DW$T$31)
    6173                            .dwattr $C$DW$495, DW_AT_name("DS")
    6174                            .dwattr $C$DW$495, DW_AT_TI_symbol_name("DS")
    6175                            .dwattr $C$DW$495, DW_AT_data_member_location[DW_OP_plus_uconst 0x9]
    6176                            .dwattr $C$DW$495, DW_AT_accessibility(DW_ACCESS_public)
    6177                            .dwattr $C$DW$495, DW_AT_decl_file("C:\ti\ccs1200\ccs\ccs_base\arm\include\msp432p401r.h")
    6178                            .dwattr $C$DW$495, DW_AT_decl_line(0x2ac)
    6179                            .dwattr $C$DW$495, DW_AT_decl_column(0x10)
    6180                    
    6181                    $C$DW$496       .dwtag  DW_TAG_member
    6182                            .dwattr $C$DW$496, DW_AT_type(*$C$DW$T$30)
    6183                            .dwattr $C$DW$496, DW_AT_name("RESERVED5")
    6184                            .dwattr $C$DW$496, DW_AT_TI_symbol_name("RESERVED5")
    6185                            .dwattr $C$DW$496, DW_AT_data_member_location[DW_OP_plus_uconst 0xa]
    6186                            .dwattr $C$DW$496, DW_AT_accessibility(DW_ACCESS_public)
    6187                            .dwattr $C$DW$496, DW_AT_decl_file("C:\ti\ccs1200\ccs\ccs_base\arm\include\msp432p401r.h")
    6188                            .dwattr $C$DW$496, DW_AT_decl_line(0x2ad)
    6189                            .dwattr $C$DW$496, DW_AT_decl_column(0x0b)
    6190                    
    6191                    $C$DW$497       .dwtag  DW_TAG_member
    6192                            .dwattr $C$DW$497, DW_AT_type(*$C$DW$T$31)
    6193                            .dwattr $C$DW$497, DW_AT_name("SEL0")
    6194                            .dwattr $C$DW$497, DW_AT_TI_symbol_name("SEL0")
    6195                            .dwattr $C$DW$497, DW_AT_data_member_location[DW_OP_plus_uconst 0xb]
    6196                            .dwattr $C$DW$497, DW_AT_accessibility(DW_ACCESS_public)
    6197                            .dwattr $C$DW$497, DW_AT_decl_file("C:\ti\ccs1200\ccs\ccs_base\arm\include\msp432p401r.h")
    6198                            .dwattr $C$DW$497, DW_AT_decl_line(0x2ae)
    6199                            .dwattr $C$DW$497, DW_AT_decl_column(0x10)
    6200                    
    6201                    $C$DW$498       .dwtag  DW_TAG_member
    6202                            .dwattr $C$DW$498, DW_AT_type(*$C$DW$T$30)
    6203                            .dwattr $C$DW$498, DW_AT_name("RESERVED6")
    6204                            .dwattr $C$DW$498, DW_AT_TI_symbol_name("RESERVED6")
    6205                            .dwattr $C$DW$498, DW_AT_data_member_location[DW_OP_plus_uconst 0xc]
    6206                            .dwattr $C$DW$498, DW_AT_accessibility(DW_ACCESS_public)
    6207                            .dwattr $C$DW$498, DW_AT_decl_file("C:\ti\ccs1200\ccs\ccs_base\arm\include\msp432p401r.h")
    6208                            .dwattr $C$DW$498, DW_AT_decl_line(0x2af)
    6209                            .dwattr $C$DW$498, DW_AT_decl_column(0x0b)
    6210                    
    6211                    $C$DW$499       .dwtag  DW_TAG_member
    6212                            .dwattr $C$DW$499, DW_AT_type(*$C$DW$T$31)
    6213                            .dwattr $C$DW$499, DW_AT_name("SEL1")
    6214                            .dwattr $C$DW$499, DW_AT_TI_symbol_name("SEL1")
    6215                            .dwattr $C$DW$499, DW_AT_data_member_location[DW_OP_plus_uconst 0xd]
TI ARM Assembler PC v20.2.6 Mon Oct 31 23:16:56 2022

Copyright (c) 1996-2018 Texas Instruments Incorporated
system_msp432p401r.asm                                               PAGE  114

    6216                            .dwattr $C$DW$499, DW_AT_accessibility(DW_ACCESS_public)
    6217                            .dwattr $C$DW$499, DW_AT_decl_file("C:\ti\ccs1200\ccs\ccs_base\arm\include\msp432p401r.h")
    6218                            .dwattr $C$DW$499, DW_AT_decl_line(0x2b0)
    6219                            .dwattr $C$DW$499, DW_AT_decl_column(0x10)
    6220                    
    6221                    $C$DW$500       .dwtag  DW_TAG_member
    6222                            .dwattr $C$DW$500, DW_AT_type(*$C$DW$T$115)
    6223                            .dwattr $C$DW$500, DW_AT_name("RESERVED7")
    6224                            .dwattr $C$DW$500, DW_AT_TI_symbol_name("RESERVED7")
    6225                            .dwattr $C$DW$500, DW_AT_data_member_location[DW_OP_plus_uconst 0xe]
    6226                            .dwattr $C$DW$500, DW_AT_accessibility(DW_ACCESS_public)
    6227                            .dwattr $C$DW$500, DW_AT_decl_file("C:\ti\ccs1200\ccs\ccs_base\arm\include\msp432p401r.h")
    6228                            .dwattr $C$DW$500, DW_AT_decl_line(0x2b1)
    6229                            .dwattr $C$DW$500, DW_AT_decl_column(0x0b)
    6230                    
    6231                    $C$DW$501       .dwtag  DW_TAG_member
    6232                            .dwattr $C$DW$501, DW_AT_type(*$C$DW$T$31)
    6233                            .dwattr $C$DW$501, DW_AT_name("SELC")
    6234                            .dwattr $C$DW$501, DW_AT_TI_symbol_name("SELC")
    6235                            .dwattr $C$DW$501, DW_AT_data_member_location[DW_OP_plus_uconst 0x17]
    6236                            .dwattr $C$DW$501, DW_AT_accessibility(DW_ACCESS_public)
    6237                            .dwattr $C$DW$501, DW_AT_decl_file("C:\ti\ccs1200\ccs\ccs_base\arm\include\msp432p401r.h")
    6238                            .dwattr $C$DW$501, DW_AT_decl_line(0x2b2)
    6239                            .dwattr $C$DW$501, DW_AT_decl_column(0x10)
    6240                    
    6241                    $C$DW$502       .dwtag  DW_TAG_member
    6242                            .dwattr $C$DW$502, DW_AT_type(*$C$DW$T$30)
    6243                            .dwattr $C$DW$502, DW_AT_name("RESERVED8")
    6244                            .dwattr $C$DW$502, DW_AT_TI_symbol_name("RESERVED8")
    6245                            .dwattr $C$DW$502, DW_AT_data_member_location[DW_OP_plus_uconst 0x18]
    6246                            .dwattr $C$DW$502, DW_AT_accessibility(DW_ACCESS_public)
    6247                            .dwattr $C$DW$502, DW_AT_decl_file("C:\ti\ccs1200\ccs\ccs_base\arm\include\msp432p401r.h")
    6248                            .dwattr $C$DW$502, DW_AT_decl_line(0x2b3)
    6249                            .dwattr $C$DW$502, DW_AT_decl_column(0x0b)
    6250                    
    6251                    $C$DW$503       .dwtag  DW_TAG_member
    6252                            .dwattr $C$DW$503, DW_AT_type(*$C$DW$T$31)
    6253                            .dwattr $C$DW$503, DW_AT_name("IES")
    6254                            .dwattr $C$DW$503, DW_AT_TI_symbol_name("IES")
    6255                            .dwattr $C$DW$503, DW_AT_data_member_location[DW_OP_plus_uconst 0x19]
    6256                            .dwattr $C$DW$503, DW_AT_accessibility(DW_ACCESS_public)
    6257                            .dwattr $C$DW$503, DW_AT_decl_file("C:\ti\ccs1200\ccs\ccs_base\arm\include\msp432p401r.h")
    6258                            .dwattr $C$DW$503, DW_AT_decl_line(0x2b4)
    6259                            .dwattr $C$DW$503, DW_AT_decl_column(0x10)
    6260                    
    6261                    $C$DW$504       .dwtag  DW_TAG_member
    6262                            .dwattr $C$DW$504, DW_AT_type(*$C$DW$T$30)
    6263                            .dwattr $C$DW$504, DW_AT_name("RESERVED9")
    6264                            .dwattr $C$DW$504, DW_AT_TI_symbol_name("RESERVED9")
    6265                            .dwattr $C$DW$504, DW_AT_data_member_location[DW_OP_plus_uconst 0x1a]
    6266                            .dwattr $C$DW$504, DW_AT_accessibility(DW_ACCESS_public)
    6267                            .dwattr $C$DW$504, DW_AT_decl_file("C:\ti\ccs1200\ccs\ccs_base\arm\include\msp432p401r.h")
    6268                            .dwattr $C$DW$504, DW_AT_decl_line(0x2b5)
    6269                            .dwattr $C$DW$504, DW_AT_decl_column(0x0b)
    6270                    
TI ARM Assembler PC v20.2.6 Mon Oct 31 23:16:56 2022

Copyright (c) 1996-2018 Texas Instruments Incorporated
system_msp432p401r.asm                                               PAGE  115

    6271                    $C$DW$505       .dwtag  DW_TAG_member
    6272                            .dwattr $C$DW$505, DW_AT_type(*$C$DW$T$31)
    6273                            .dwattr $C$DW$505, DW_AT_name("IE")
    6274                            .dwattr $C$DW$505, DW_AT_TI_symbol_name("IE")
    6275                            .dwattr $C$DW$505, DW_AT_data_member_location[DW_OP_plus_uconst 0x1b]
    6276                            .dwattr $C$DW$505, DW_AT_accessibility(DW_ACCESS_public)
    6277                            .dwattr $C$DW$505, DW_AT_decl_file("C:\ti\ccs1200\ccs\ccs_base\arm\include\msp432p401r.h")
    6278                            .dwattr $C$DW$505, DW_AT_decl_line(0x2b6)
    6279                            .dwattr $C$DW$505, DW_AT_decl_column(0x10)
    6280                    
    6281                    $C$DW$506       .dwtag  DW_TAG_member
    6282                            .dwattr $C$DW$506, DW_AT_type(*$C$DW$T$30)
    6283                            .dwattr $C$DW$506, DW_AT_name("RESERVED10")
    6284                            .dwattr $C$DW$506, DW_AT_TI_symbol_name("RESERVED10")
    6285                            .dwattr $C$DW$506, DW_AT_data_member_location[DW_OP_plus_uconst 0x1c]
    6286                            .dwattr $C$DW$506, DW_AT_accessibility(DW_ACCESS_public)
    6287                            .dwattr $C$DW$506, DW_AT_decl_file("C:\ti\ccs1200\ccs\ccs_base\arm\include\msp432p401r.h")
    6288                            .dwattr $C$DW$506, DW_AT_decl_line(0x2b7)
    6289                            .dwattr $C$DW$506, DW_AT_decl_column(0x0b)
    6290                    
    6291                    $C$DW$507       .dwtag  DW_TAG_member
    6292                            .dwattr $C$DW$507, DW_AT_type(*$C$DW$T$31)
    6293                            .dwattr $C$DW$507, DW_AT_name("IFG")
    6294                            .dwattr $C$DW$507, DW_AT_TI_symbol_name("IFG")
    6295                            .dwattr $C$DW$507, DW_AT_data_member_location[DW_OP_plus_uconst 0x1d]
    6296                            .dwattr $C$DW$507, DW_AT_accessibility(DW_ACCESS_public)
    6297                            .dwattr $C$DW$507, DW_AT_decl_file("C:\ti\ccs1200\ccs\ccs_base\arm\include\msp432p401r.h")
    6298                            .dwattr $C$DW$507, DW_AT_decl_line(0x2b8)
    6299                            .dwattr $C$DW$507, DW_AT_decl_column(0x10)
    6300                    
    6301                    $C$DW$508       .dwtag  DW_TAG_member
    6302                            .dwattr $C$DW$508, DW_AT_type(*$C$DW$T$86)
    6303                            .dwattr $C$DW$508, DW_AT_name("IV")
    6304                            .dwattr $C$DW$508, DW_AT_TI_symbol_name("IV")
    6305                            .dwattr $C$DW$508, DW_AT_data_member_location[DW_OP_plus_uconst 0x1e]
    6306                            .dwattr $C$DW$508, DW_AT_accessibility(DW_ACCESS_public)
    6307                            .dwattr $C$DW$508, DW_AT_decl_file("C:\ti\ccs1200\ccs\ccs_base\arm\include\msp432p401r.h")
    6308                            .dwattr $C$DW$508, DW_AT_decl_line(0x2b9)
    6309                            .dwattr $C$DW$508, DW_AT_decl_column(0x10)
    6310                    
    6311                            .dwattr $C$DW$T$116, DW_AT_decl_file("C:\ti\ccs1200\ccs\ccs_base\arm\include\msp432p401r.h")
    6312                            .dwattr $C$DW$T$116, DW_AT_decl_line(0x2a2)
    6313                            .dwattr $C$DW$T$116, DW_AT_decl_column(0x10)
    6314                            .dwendtag $C$DW$T$116
    6315                    
    6316                    $C$DW$T$209     .dwtag  DW_TAG_typedef
    6317                            .dwattr $C$DW$T$209, DW_AT_name("DIO_PORT_Even_Interruptable_Type")
    6318                            .dwattr $C$DW$T$209, DW_AT_type(*$C$DW$T$116)
    6319                            .dwattr $C$DW$T$209, DW_AT_language(DW_LANG_C)
    6320                            .dwattr $C$DW$T$209, DW_AT_decl_file("C:\ti\ccs1200\ccs\ccs_base\arm\include\msp432p401r.h")
    6321                            .dwattr $C$DW$T$209, DW_AT_decl_line(0x2ba)
    6322                            .dwattr $C$DW$T$209, DW_AT_decl_column(0x03)
    6323                    
    6324                    
    6325                    $C$DW$T$118     .dwtag  DW_TAG_structure_type
TI ARM Assembler PC v20.2.6 Mon Oct 31 23:16:56 2022

Copyright (c) 1996-2018 Texas Instruments Incorporated
system_msp432p401r.asm                                               PAGE  116

    6326                            .dwattr $C$DW$T$118, DW_AT_byte_size(0x118)
    6327                    $C$DW$509       .dwtag  DW_TAG_member
    6328                            .dwattr $C$DW$509, DW_AT_type(*$C$DW$T$25)
    6329                            .dwattr $C$DW$509, DW_AT_name("DEVICE_CFG")
    6330                            .dwattr $C$DW$509, DW_AT_TI_symbol_name("DEVICE_CFG")
    6331                            .dwattr $C$DW$509, DW_AT_data_member_location[DW_OP_plus_uconst 0x0]
    6332                            .dwattr $C$DW$509, DW_AT_accessibility(DW_ACCESS_public)
    6333                            .dwattr $C$DW$509, DW_AT_decl_file("C:\ti\ccs1200\ccs\ccs_base\arm\include\msp432p401r.h")
    6334                            .dwattr $C$DW$509, DW_AT_decl_line(0x2c6)
    6335                            .dwattr $C$DW$509, DW_AT_decl_column(0x11)
    6336                    
    6337                    $C$DW$510       .dwtag  DW_TAG_member
    6338                            .dwattr $C$DW$510, DW_AT_type(*$C$DW$T$23)
    6339                            .dwattr $C$DW$510, DW_AT_name("SW_CHTRIG")
    6340                            .dwattr $C$DW$510, DW_AT_TI_symbol_name("SW_CHTRIG")
    6341                            .dwattr $C$DW$510, DW_AT_data_member_location[DW_OP_plus_uconst 0x4]
    6342                            .dwattr $C$DW$510, DW_AT_accessibility(DW_ACCESS_public)
    6343                            .dwattr $C$DW$510, DW_AT_decl_file("C:\ti\ccs1200\ccs\ccs_base\arm\include\msp432p401r.h")
    6344                            .dwattr $C$DW$510, DW_AT_decl_line(0x2c7)
    6345                            .dwattr $C$DW$510, DW_AT_decl_column(0x11)
    6346                    
    6347                    $C$DW$511       .dwtag  DW_TAG_member
    6348                            .dwattr $C$DW$511, DW_AT_type(*$C$DW$T$26)
    6349                            .dwattr $C$DW$511, DW_AT_name("RESERVED0")
    6350                            .dwattr $C$DW$511, DW_AT_TI_symbol_name("RESERVED0")
    6351                            .dwattr $C$DW$511, DW_AT_data_member_location[DW_OP_plus_uconst 0x8]
    6352                            .dwattr $C$DW$511, DW_AT_accessibility(DW_ACCESS_public)
    6353                            .dwattr $C$DW$511, DW_AT_decl_file("C:\ti\ccs1200\ccs\ccs_base\arm\include\msp432p401r.h")
    6354                            .dwattr $C$DW$511, DW_AT_decl_line(0x2c8)
    6355                            .dwattr $C$DW$511, DW_AT_decl_column(0x11)
    6356                    
    6357                    $C$DW$512       .dwtag  DW_TAG_member
    6358                            .dwattr $C$DW$512, DW_AT_type(*$C$DW$T$79)
    6359                            .dwattr $C$DW$512, DW_AT_name("CH_SRCCFG")
    6360                            .dwattr $C$DW$512, DW_AT_TI_symbol_name("CH_SRCCFG")
    6361                            .dwattr $C$DW$512, DW_AT_data_member_location[DW_OP_plus_uconst 0x10]
    6362                            .dwattr $C$DW$512, DW_AT_accessibility(DW_ACCESS_public)
    6363                            .dwattr $C$DW$512, DW_AT_decl_file("C:\ti\ccs1200\ccs\ccs_base\arm\include\msp432p401r.h")
    6364                            .dwattr $C$DW$512, DW_AT_decl_line(0x2c9)
    6365                            .dwattr $C$DW$512, DW_AT_decl_column(0x11)
    6366                    
    6367                    $C$DW$513       .dwtag  DW_TAG_member
    6368                            .dwattr $C$DW$513, DW_AT_type(*$C$DW$T$117)
    6369                            .dwattr $C$DW$513, DW_AT_name("RESERVED1")
    6370                            .dwattr $C$DW$513, DW_AT_TI_symbol_name("RESERVED1")
    6371                            .dwattr $C$DW$513, DW_AT_data_member_location[DW_OP_plus_uconst 0x90]
    6372                            .dwattr $C$DW$513, DW_AT_accessibility(DW_ACCESS_public)
    6373                            .dwattr $C$DW$513, DW_AT_decl_file("C:\ti\ccs1200\ccs\ccs_base\arm\include\msp432p401r.h")
    6374                            .dwattr $C$DW$513, DW_AT_decl_line(0x2ca)
    6375                            .dwattr $C$DW$513, DW_AT_decl_column(0x11)
    6376                    
    6377                    $C$DW$514       .dwtag  DW_TAG_member
    6378                            .dwattr $C$DW$514, DW_AT_type(*$C$DW$T$23)
    6379                            .dwattr $C$DW$514, DW_AT_name("INT1_SRCCFG")
    6380                            .dwattr $C$DW$514, DW_AT_TI_symbol_name("INT1_SRCCFG")
TI ARM Assembler PC v20.2.6 Mon Oct 31 23:16:56 2022

Copyright (c) 1996-2018 Texas Instruments Incorporated
system_msp432p401r.asm                                               PAGE  117

    6381                            .dwattr $C$DW$514, DW_AT_data_member_location[DW_OP_plus_uconst 0x100]
    6382                            .dwattr $C$DW$514, DW_AT_accessibility(DW_ACCESS_public)
    6383                            .dwattr $C$DW$514, DW_AT_decl_file("C:\ti\ccs1200\ccs\ccs_base\arm\include\msp432p401r.h")
    6384                            .dwattr $C$DW$514, DW_AT_decl_line(0x2cb)
    6385                            .dwattr $C$DW$514, DW_AT_decl_column(0x11)
    6386                    
    6387                    $C$DW$515       .dwtag  DW_TAG_member
    6388                            .dwattr $C$DW$515, DW_AT_type(*$C$DW$T$23)
    6389                            .dwattr $C$DW$515, DW_AT_name("INT2_SRCCFG")
    6390                            .dwattr $C$DW$515, DW_AT_TI_symbol_name("INT2_SRCCFG")
    6391                            .dwattr $C$DW$515, DW_AT_data_member_location[DW_OP_plus_uconst 0x104]
    6392                            .dwattr $C$DW$515, DW_AT_accessibility(DW_ACCESS_public)
    6393                            .dwattr $C$DW$515, DW_AT_decl_file("C:\ti\ccs1200\ccs\ccs_base\arm\include\msp432p401r.h")
    6394                            .dwattr $C$DW$515, DW_AT_decl_line(0x2cc)
    6395                            .dwattr $C$DW$515, DW_AT_decl_column(0x11)
    6396                    
    6397                    $C$DW$516       .dwtag  DW_TAG_member
    6398                            .dwattr $C$DW$516, DW_AT_type(*$C$DW$T$23)
    6399                            .dwattr $C$DW$516, DW_AT_name("INT3_SRCCFG")
    6400                            .dwattr $C$DW$516, DW_AT_TI_symbol_name("INT3_SRCCFG")
    6401                            .dwattr $C$DW$516, DW_AT_data_member_location[DW_OP_plus_uconst 0x108]
    6402                            .dwattr $C$DW$516, DW_AT_accessibility(DW_ACCESS_public)
    6403                            .dwattr $C$DW$516, DW_AT_decl_file("C:\ti\ccs1200\ccs\ccs_base\arm\include\msp432p401r.h")
    6404                            .dwattr $C$DW$516, DW_AT_decl_line(0x2cd)
    6405                            .dwattr $C$DW$516, DW_AT_decl_column(0x11)
    6406                    
    6407                    $C$DW$517       .dwtag  DW_TAG_member
    6408                            .dwattr $C$DW$517, DW_AT_type(*$C$DW$T$22)
    6409                            .dwattr $C$DW$517, DW_AT_name("RESERVED2")
    6410                            .dwattr $C$DW$517, DW_AT_TI_symbol_name("RESERVED2")
    6411                            .dwattr $C$DW$517, DW_AT_data_member_location[DW_OP_plus_uconst 0x10c]
    6412                            .dwattr $C$DW$517, DW_AT_accessibility(DW_ACCESS_public)
    6413                            .dwattr $C$DW$517, DW_AT_decl_file("C:\ti\ccs1200\ccs\ccs_base\arm\include\msp432p401r.h")
    6414                            .dwattr $C$DW$517, DW_AT_decl_line(0x2ce)
    6415                            .dwattr $C$DW$517, DW_AT_decl_column(0x11)
    6416                    
    6417                    $C$DW$518       .dwtag  DW_TAG_member
    6418                            .dwattr $C$DW$518, DW_AT_type(*$C$DW$T$25)
    6419                            .dwattr $C$DW$518, DW_AT_name("INT0_SRCFLG")
    6420                            .dwattr $C$DW$518, DW_AT_TI_symbol_name("INT0_SRCFLG")
    6421                            .dwattr $C$DW$518, DW_AT_data_member_location[DW_OP_plus_uconst 0x110]
    6422                            .dwattr $C$DW$518, DW_AT_accessibility(DW_ACCESS_public)
    6423                            .dwattr $C$DW$518, DW_AT_decl_file("C:\ti\ccs1200\ccs\ccs_base\arm\include\msp432p401r.h")
    6424                            .dwattr $C$DW$518, DW_AT_decl_line(0x2cf)
    6425                            .dwattr $C$DW$518, DW_AT_decl_column(0x11)
    6426                    
    6427                    $C$DW$519       .dwtag  DW_TAG_member
    6428                            .dwattr $C$DW$519, DW_AT_type(*$C$DW$T$23)
    6429                            .dwattr $C$DW$519, DW_AT_name("INT0_CLRFLG")
    6430                            .dwattr $C$DW$519, DW_AT_TI_symbol_name("INT0_CLRFLG")
    6431                            .dwattr $C$DW$519, DW_AT_data_member_location[DW_OP_plus_uconst 0x114]
    6432                            .dwattr $C$DW$519, DW_AT_accessibility(DW_ACCESS_public)
    6433                            .dwattr $C$DW$519, DW_AT_decl_file("C:\ti\ccs1200\ccs\ccs_base\arm\include\msp432p401r.h")
    6434                            .dwattr $C$DW$519, DW_AT_decl_line(0x2d0)
    6435                            .dwattr $C$DW$519, DW_AT_decl_column(0x11)
TI ARM Assembler PC v20.2.6 Mon Oct 31 23:16:56 2022

Copyright (c) 1996-2018 Texas Instruments Incorporated
system_msp432p401r.asm                                               PAGE  118

    6436                    
    6437                            .dwattr $C$DW$T$118, DW_AT_decl_file("C:\ti\ccs1200\ccs\ccs_base\arm\include\msp432p401r.h")
    6438                            .dwattr $C$DW$T$118, DW_AT_decl_line(0x2c5)
    6439                            .dwattr $C$DW$T$118, DW_AT_decl_column(0x10)
    6440                            .dwendtag $C$DW$T$118
    6441                    
    6442                    $C$DW$T$210     .dwtag  DW_TAG_typedef
    6443                            .dwattr $C$DW$T$210, DW_AT_name("DMA_Channel_Type")
    6444                            .dwattr $C$DW$T$210, DW_AT_type(*$C$DW$T$118)
    6445                            .dwattr $C$DW$T$210, DW_AT_language(DW_LANG_C)
    6446                            .dwattr $C$DW$T$210, DW_AT_decl_file("C:\ti\ccs1200\ccs\ccs_base\arm\include\msp432p401r.h")
    6447                            .dwattr $C$DW$T$210, DW_AT_decl_line(0x2d1)
    6448                            .dwattr $C$DW$T$210, DW_AT_decl_column(0x03)
    6449                    
    6450                    
    6451                    $C$DW$T$119     .dwtag  DW_TAG_structure_type
    6452                            .dwattr $C$DW$T$119, DW_AT_byte_size(0x50)
    6453                    $C$DW$520       .dwtag  DW_TAG_member
    6454                            .dwattr $C$DW$520, DW_AT_type(*$C$DW$T$25)
    6455                            .dwattr $C$DW$520, DW_AT_name("STAT")
    6456                            .dwattr $C$DW$520, DW_AT_TI_symbol_name("STAT")
    6457                            .dwattr $C$DW$520, DW_AT_data_member_location[DW_OP_plus_uconst 0x0]
    6458                            .dwattr $C$DW$520, DW_AT_accessibility(DW_ACCESS_public)
    6459                            .dwattr $C$DW$520, DW_AT_decl_file("C:\ti\ccs1200\ccs\ccs_base\arm\include\msp432p401r.h")
    6460                            .dwattr $C$DW$520, DW_AT_decl_line(0x2d4)
    6461                            .dwattr $C$DW$520, DW_AT_decl_column(0x11)
    6462                    
    6463                    $C$DW$521       .dwtag  DW_TAG_member
    6464                            .dwattr $C$DW$521, DW_AT_type(*$C$DW$T$23)
    6465                            .dwattr $C$DW$521, DW_AT_name("CFG")
    6466                            .dwattr $C$DW$521, DW_AT_TI_symbol_name("CFG")
    6467                            .dwattr $C$DW$521, DW_AT_data_member_location[DW_OP_plus_uconst 0x4]
    6468                            .dwattr $C$DW$521, DW_AT_accessibility(DW_ACCESS_public)
    6469                            .dwattr $C$DW$521, DW_AT_decl_file("C:\ti\ccs1200\ccs\ccs_base\arm\include\msp432p401r.h")
    6470                            .dwattr $C$DW$521, DW_AT_decl_line(0x2d5)
    6471                            .dwattr $C$DW$521, DW_AT_decl_column(0x11)
    6472                    
    6473                    $C$DW$522       .dwtag  DW_TAG_member
    6474                            .dwattr $C$DW$522, DW_AT_type(*$C$DW$T$23)
    6475                            .dwattr $C$DW$522, DW_AT_name("CTLBASE")
    6476                            .dwattr $C$DW$522, DW_AT_TI_symbol_name("CTLBASE")
    6477                            .dwattr $C$DW$522, DW_AT_data_member_location[DW_OP_plus_uconst 0x8]
    6478                            .dwattr $C$DW$522, DW_AT_accessibility(DW_ACCESS_public)
    6479                            .dwattr $C$DW$522, DW_AT_decl_file("C:\ti\ccs1200\ccs\ccs_base\arm\include\msp432p401r.h")
    6480                            .dwattr $C$DW$522, DW_AT_decl_line(0x2d6)
    6481                            .dwattr $C$DW$522, DW_AT_decl_column(0x11)
    6482                    
    6483                    $C$DW$523       .dwtag  DW_TAG_member
    6484                            .dwattr $C$DW$523, DW_AT_type(*$C$DW$T$25)
    6485                            .dwattr $C$DW$523, DW_AT_name("ALTBASE")
    6486                            .dwattr $C$DW$523, DW_AT_TI_symbol_name("ALTBASE")
    6487                            .dwattr $C$DW$523, DW_AT_data_member_location[DW_OP_plus_uconst 0xc]
    6488                            .dwattr $C$DW$523, DW_AT_accessibility(DW_ACCESS_public)
    6489                            .dwattr $C$DW$523, DW_AT_decl_file("C:\ti\ccs1200\ccs\ccs_base\arm\include\msp432p401r.h")
    6490                            .dwattr $C$DW$523, DW_AT_decl_line(0x2d7)
TI ARM Assembler PC v20.2.6 Mon Oct 31 23:16:56 2022

Copyright (c) 1996-2018 Texas Instruments Incorporated
system_msp432p401r.asm                                               PAGE  119

    6491                            .dwattr $C$DW$523, DW_AT_decl_column(0x11)
    6492                    
    6493                    $C$DW$524       .dwtag  DW_TAG_member
    6494                            .dwattr $C$DW$524, DW_AT_type(*$C$DW$T$25)
    6495                            .dwattr $C$DW$524, DW_AT_name("WAITSTAT")
    6496                            .dwattr $C$DW$524, DW_AT_TI_symbol_name("WAITSTAT")
    6497                            .dwattr $C$DW$524, DW_AT_data_member_location[DW_OP_plus_uconst 0x10]
    6498                            .dwattr $C$DW$524, DW_AT_accessibility(DW_ACCESS_public)
    6499                            .dwattr $C$DW$524, DW_AT_decl_file("C:\ti\ccs1200\ccs\ccs_base\arm\include\msp432p401r.h")
    6500                            .dwattr $C$DW$524, DW_AT_decl_line(0x2d8)
    6501                            .dwattr $C$DW$524, DW_AT_decl_column(0x11)
    6502                    
    6503                    $C$DW$525       .dwtag  DW_TAG_member
    6504                            .dwattr $C$DW$525, DW_AT_type(*$C$DW$T$23)
    6505                            .dwattr $C$DW$525, DW_AT_name("SWREQ")
    6506                            .dwattr $C$DW$525, DW_AT_TI_symbol_name("SWREQ")
    6507                            .dwattr $C$DW$525, DW_AT_data_member_location[DW_OP_plus_uconst 0x14]
    6508                            .dwattr $C$DW$525, DW_AT_accessibility(DW_ACCESS_public)
    6509                            .dwattr $C$DW$525, DW_AT_decl_file("C:\ti\ccs1200\ccs\ccs_base\arm\include\msp432p401r.h")
    6510                            .dwattr $C$DW$525, DW_AT_decl_line(0x2d9)
    6511                            .dwattr $C$DW$525, DW_AT_decl_column(0x11)
    6512                    
    6513                    $C$DW$526       .dwtag  DW_TAG_member
    6514                            .dwattr $C$DW$526, DW_AT_type(*$C$DW$T$23)
    6515                            .dwattr $C$DW$526, DW_AT_name("USEBURSTSET")
    6516                            .dwattr $C$DW$526, DW_AT_TI_symbol_name("USEBURSTSET")
    6517                            .dwattr $C$DW$526, DW_AT_data_member_location[DW_OP_plus_uconst 0x18]
    6518                            .dwattr $C$DW$526, DW_AT_accessibility(DW_ACCESS_public)
    6519                            .dwattr $C$DW$526, DW_AT_decl_file("C:\ti\ccs1200\ccs\ccs_base\arm\include\msp432p401r.h")
    6520                            .dwattr $C$DW$526, DW_AT_decl_line(0x2da)
    6521                            .dwattr $C$DW$526, DW_AT_decl_column(0x11)
    6522                    
    6523                    $C$DW$527       .dwtag  DW_TAG_member
    6524                            .dwattr $C$DW$527, DW_AT_type(*$C$DW$T$23)
    6525                            .dwattr $C$DW$527, DW_AT_name("USEBURSTCLR")
    6526                            .dwattr $C$DW$527, DW_AT_TI_symbol_name("USEBURSTCLR")
    6527                            .dwattr $C$DW$527, DW_AT_data_member_location[DW_OP_plus_uconst 0x1c]
    6528                            .dwattr $C$DW$527, DW_AT_accessibility(DW_ACCESS_public)
    6529                            .dwattr $C$DW$527, DW_AT_decl_file("C:\ti\ccs1200\ccs\ccs_base\arm\include\msp432p401r.h")
    6530                            .dwattr $C$DW$527, DW_AT_decl_line(0x2db)
    6531                            .dwattr $C$DW$527, DW_AT_decl_column(0x11)
    6532                    
    6533                    $C$DW$528       .dwtag  DW_TAG_member
    6534                            .dwattr $C$DW$528, DW_AT_type(*$C$DW$T$23)
    6535                            .dwattr $C$DW$528, DW_AT_name("REQMASKSET")
    6536                            .dwattr $C$DW$528, DW_AT_TI_symbol_name("REQMASKSET")
    6537                            .dwattr $C$DW$528, DW_AT_data_member_location[DW_OP_plus_uconst 0x20]
    6538                            .dwattr $C$DW$528, DW_AT_accessibility(DW_ACCESS_public)
    6539                            .dwattr $C$DW$528, DW_AT_decl_file("C:\ti\ccs1200\ccs\ccs_base\arm\include\msp432p401r.h")
    6540                            .dwattr $C$DW$528, DW_AT_decl_line(0x2dc)
    6541                            .dwattr $C$DW$528, DW_AT_decl_column(0x11)
    6542                    
    6543                    $C$DW$529       .dwtag  DW_TAG_member
    6544                            .dwattr $C$DW$529, DW_AT_type(*$C$DW$T$23)
    6545                            .dwattr $C$DW$529, DW_AT_name("REQMASKCLR")
TI ARM Assembler PC v20.2.6 Mon Oct 31 23:16:56 2022

Copyright (c) 1996-2018 Texas Instruments Incorporated
system_msp432p401r.asm                                               PAGE  120

    6546                            .dwattr $C$DW$529, DW_AT_TI_symbol_name("REQMASKCLR")
    6547                            .dwattr $C$DW$529, DW_AT_data_member_location[DW_OP_plus_uconst 0x24]
    6548                            .dwattr $C$DW$529, DW_AT_accessibility(DW_ACCESS_public)
    6549                            .dwattr $C$DW$529, DW_AT_decl_file("C:\ti\ccs1200\ccs\ccs_base\arm\include\msp432p401r.h")
    6550                            .dwattr $C$DW$529, DW_AT_decl_line(0x2dd)
    6551                            .dwattr $C$DW$529, DW_AT_decl_column(0x11)
    6552                    
    6553                    $C$DW$530       .dwtag  DW_TAG_member
    6554                            .dwattr $C$DW$530, DW_AT_type(*$C$DW$T$23)
    6555                            .dwattr $C$DW$530, DW_AT_name("ENASET")
    6556                            .dwattr $C$DW$530, DW_AT_TI_symbol_name("ENASET")
    6557                            .dwattr $C$DW$530, DW_AT_data_member_location[DW_OP_plus_uconst 0x28]
    6558                            .dwattr $C$DW$530, DW_AT_accessibility(DW_ACCESS_public)
    6559                            .dwattr $C$DW$530, DW_AT_decl_file("C:\ti\ccs1200\ccs\ccs_base\arm\include\msp432p401r.h")
    6560                            .dwattr $C$DW$530, DW_AT_decl_line(0x2de)
    6561                            .dwattr $C$DW$530, DW_AT_decl_column(0x11)
    6562                    
    6563                    $C$DW$531       .dwtag  DW_TAG_member
    6564                            .dwattr $C$DW$531, DW_AT_type(*$C$DW$T$23)
    6565                            .dwattr $C$DW$531, DW_AT_name("ENACLR")
    6566                            .dwattr $C$DW$531, DW_AT_TI_symbol_name("ENACLR")
    6567                            .dwattr $C$DW$531, DW_AT_data_member_location[DW_OP_plus_uconst 0x2c]
    6568                            .dwattr $C$DW$531, DW_AT_accessibility(DW_ACCESS_public)
    6569                            .dwattr $C$DW$531, DW_AT_decl_file("C:\ti\ccs1200\ccs\ccs_base\arm\include\msp432p401r.h")
    6570                            .dwattr $C$DW$531, DW_AT_decl_line(0x2df)
    6571                            .dwattr $C$DW$531, DW_AT_decl_column(0x11)
    6572                    
    6573                    $C$DW$532       .dwtag  DW_TAG_member
    6574                            .dwattr $C$DW$532, DW_AT_type(*$C$DW$T$23)
    6575                            .dwattr $C$DW$532, DW_AT_name("ALTSET")
    6576                            .dwattr $C$DW$532, DW_AT_TI_symbol_name("ALTSET")
    6577                            .dwattr $C$DW$532, DW_AT_data_member_location[DW_OP_plus_uconst 0x30]
    6578                            .dwattr $C$DW$532, DW_AT_accessibility(DW_ACCESS_public)
    6579                            .dwattr $C$DW$532, DW_AT_decl_file("C:\ti\ccs1200\ccs\ccs_base\arm\include\msp432p401r.h")
    6580                            .dwattr $C$DW$532, DW_AT_decl_line(0x2e0)
    6581                            .dwattr $C$DW$532, DW_AT_decl_column(0x11)
    6582                    
    6583                    $C$DW$533       .dwtag  DW_TAG_member
    6584                            .dwattr $C$DW$533, DW_AT_type(*$C$DW$T$23)
    6585                            .dwattr $C$DW$533, DW_AT_name("ALTCLR")
    6586                            .dwattr $C$DW$533, DW_AT_TI_symbol_name("ALTCLR")
    6587                            .dwattr $C$DW$533, DW_AT_data_member_location[DW_OP_plus_uconst 0x34]
    6588                            .dwattr $C$DW$533, DW_AT_accessibility(DW_ACCESS_public)
    6589                            .dwattr $C$DW$533, DW_AT_decl_file("C:\ti\ccs1200\ccs\ccs_base\arm\include\msp432p401r.h")
    6590                            .dwattr $C$DW$533, DW_AT_decl_line(0x2e1)
    6591                            .dwattr $C$DW$533, DW_AT_decl_column(0x11)
    6592                    
    6593                    $C$DW$534       .dwtag  DW_TAG_member
    6594                            .dwattr $C$DW$534, DW_AT_type(*$C$DW$T$23)
    6595                            .dwattr $C$DW$534, DW_AT_name("PRIOSET")
    6596                            .dwattr $C$DW$534, DW_AT_TI_symbol_name("PRIOSET")
    6597                            .dwattr $C$DW$534, DW_AT_data_member_location[DW_OP_plus_uconst 0x38]
    6598                            .dwattr $C$DW$534, DW_AT_accessibility(DW_ACCESS_public)
    6599                            .dwattr $C$DW$534, DW_AT_decl_file("C:\ti\ccs1200\ccs\ccs_base\arm\include\msp432p401r.h")
    6600                            .dwattr $C$DW$534, DW_AT_decl_line(0x2e2)
TI ARM Assembler PC v20.2.6 Mon Oct 31 23:16:56 2022

Copyright (c) 1996-2018 Texas Instruments Incorporated
system_msp432p401r.asm                                               PAGE  121

    6601                            .dwattr $C$DW$534, DW_AT_decl_column(0x11)
    6602                    
    6603                    $C$DW$535       .dwtag  DW_TAG_member
    6604                            .dwattr $C$DW$535, DW_AT_type(*$C$DW$T$23)
    6605                            .dwattr $C$DW$535, DW_AT_name("PRIOCLR")
    6606                            .dwattr $C$DW$535, DW_AT_TI_symbol_name("PRIOCLR")
    6607                            .dwattr $C$DW$535, DW_AT_data_member_location[DW_OP_plus_uconst 0x3c]
    6608                            .dwattr $C$DW$535, DW_AT_accessibility(DW_ACCESS_public)
    6609                            .dwattr $C$DW$535, DW_AT_decl_file("C:\ti\ccs1200\ccs\ccs_base\arm\include\msp432p401r.h")
    6610                            .dwattr $C$DW$535, DW_AT_decl_line(0x2e3)
    6611                            .dwattr $C$DW$535, DW_AT_decl_column(0x11)
    6612                    
    6613                    $C$DW$536       .dwtag  DW_TAG_member
    6614                            .dwattr $C$DW$536, DW_AT_type(*$C$DW$T$43)
    6615                            .dwattr $C$DW$536, DW_AT_name("RESERVED4")
    6616                            .dwattr $C$DW$536, DW_AT_TI_symbol_name("RESERVED4")
    6617                            .dwattr $C$DW$536, DW_AT_data_member_location[DW_OP_plus_uconst 0x40]
    6618                            .dwattr $C$DW$536, DW_AT_accessibility(DW_ACCESS_public)
    6619                            .dwattr $C$DW$536, DW_AT_decl_file("C:\ti\ccs1200\ccs\ccs_base\arm\include\msp432p401r.h")
    6620                            .dwattr $C$DW$536, DW_AT_decl_line(0x2e4)
    6621                            .dwattr $C$DW$536, DW_AT_decl_column(0x11)
    6622                    
    6623                    $C$DW$537       .dwtag  DW_TAG_member
    6624                            .dwattr $C$DW$537, DW_AT_type(*$C$DW$T$23)
    6625                            .dwattr $C$DW$537, DW_AT_name("ERRCLR")
    6626                            .dwattr $C$DW$537, DW_AT_TI_symbol_name("ERRCLR")
    6627                            .dwattr $C$DW$537, DW_AT_data_member_location[DW_OP_plus_uconst 0x4c]
    6628                            .dwattr $C$DW$537, DW_AT_accessibility(DW_ACCESS_public)
    6629                            .dwattr $C$DW$537, DW_AT_decl_file("C:\ti\ccs1200\ccs\ccs_base\arm\include\msp432p401r.h")
    6630                            .dwattr $C$DW$537, DW_AT_decl_line(0x2e5)
    6631                            .dwattr $C$DW$537, DW_AT_decl_column(0x11)
    6632                    
    6633                            .dwattr $C$DW$T$119, DW_AT_decl_file("C:\ti\ccs1200\ccs\ccs_base\arm\include\msp432p401r.h")
    6634                            .dwattr $C$DW$T$119, DW_AT_decl_line(0x2d3)
    6635                            .dwattr $C$DW$T$119, DW_AT_decl_column(0x10)
    6636                            .dwendtag $C$DW$T$119
    6637                    
    6638                    $C$DW$T$211     .dwtag  DW_TAG_typedef
    6639                            .dwattr $C$DW$T$211, DW_AT_name("DMA_Control_Type")
    6640                            .dwattr $C$DW$T$211, DW_AT_type(*$C$DW$T$119)
    6641                            .dwattr $C$DW$T$211, DW_AT_language(DW_LANG_C)
    6642                            .dwattr $C$DW$T$211, DW_AT_decl_file("C:\ti\ccs1200\ccs\ccs_base\arm\include\msp432p401r.h")
    6643                            .dwattr $C$DW$T$211, DW_AT_decl_line(0x2e6)
    6644                            .dwattr $C$DW$T$211, DW_AT_decl_column(0x03)
    6645                    
    6646                    
    6647                    $C$DW$T$120     .dwtag  DW_TAG_structure_type
    6648                            .dwattr $C$DW$T$120, DW_AT_byte_size(0x20)
    6649                    $C$DW$538       .dwtag  DW_TAG_member
    6650                            .dwattr $C$DW$538, DW_AT_type(*$C$DW$T$41)
    6651                            .dwattr $C$DW$538, DW_AT_name("CTLW0")
    6652                            .dwattr $C$DW$538, DW_AT_TI_symbol_name("CTLW0")
    6653                            .dwattr $C$DW$538, DW_AT_data_member_location[DW_OP_plus_uconst 0x0]
    6654                            .dwattr $C$DW$538, DW_AT_accessibility(DW_ACCESS_public)
    6655                            .dwattr $C$DW$538, DW_AT_decl_file("C:\ti\ccs1200\ccs\ccs_base\arm\include\msp432p401r.h")
TI ARM Assembler PC v20.2.6 Mon Oct 31 23:16:56 2022

Copyright (c) 1996-2018 Texas Instruments Incorporated
system_msp432p401r.asm                                               PAGE  122

    6656                            .dwattr $C$DW$538, DW_AT_decl_line(0x2f2)
    6657                            .dwattr $C$DW$538, DW_AT_decl_column(0x11)
    6658                    
    6659                    $C$DW$539       .dwtag  DW_TAG_member
    6660                            .dwattr $C$DW$539, DW_AT_type(*$C$DW$T$41)
    6661                            .dwattr $C$DW$539, DW_AT_name("CTLW1")
    6662                            .dwattr $C$DW$539, DW_AT_TI_symbol_name("CTLW1")
    6663                            .dwattr $C$DW$539, DW_AT_data_member_location[DW_OP_plus_uconst 0x2]
    6664                            .dwattr $C$DW$539, DW_AT_accessibility(DW_ACCESS_public)
    6665                            .dwattr $C$DW$539, DW_AT_decl_file("C:\ti\ccs1200\ccs\ccs_base\arm\include\msp432p401r.h")
    6666                            .dwattr $C$DW$539, DW_AT_decl_line(0x2f3)
    6667                            .dwattr $C$DW$539, DW_AT_decl_column(0x11)
    6668                    
    6669                    $C$DW$540       .dwtag  DW_TAG_member
    6670                            .dwattr $C$DW$540, DW_AT_type(*$C$DW$T$39)
    6671                            .dwattr $C$DW$540, DW_AT_name("RESERVED0")
    6672                            .dwattr $C$DW$540, DW_AT_TI_symbol_name("RESERVED0")
    6673                            .dwattr $C$DW$540, DW_AT_data_member_location[DW_OP_plus_uconst 0x4]
    6674                            .dwattr $C$DW$540, DW_AT_accessibility(DW_ACCESS_public)
    6675                            .dwattr $C$DW$540, DW_AT_decl_file("C:\ti\ccs1200\ccs\ccs_base\arm\include\msp432p401r.h")
    6676                            .dwattr $C$DW$540, DW_AT_decl_line(0x2f4)
    6677                            .dwattr $C$DW$540, DW_AT_decl_column(0x11)
    6678                    
    6679                    $C$DW$541       .dwtag  DW_TAG_member
    6680                            .dwattr $C$DW$541, DW_AT_type(*$C$DW$T$41)
    6681                            .dwattr $C$DW$541, DW_AT_name("BRW")
    6682                            .dwattr $C$DW$541, DW_AT_TI_symbol_name("BRW")
    6683                            .dwattr $C$DW$541, DW_AT_data_member_location[DW_OP_plus_uconst 0x6]
    6684                            .dwattr $C$DW$541, DW_AT_accessibility(DW_ACCESS_public)
    6685                            .dwattr $C$DW$541, DW_AT_decl_file("C:\ti\ccs1200\ccs\ccs_base\arm\include\msp432p401r.h")
    6686                            .dwattr $C$DW$541, DW_AT_decl_line(0x2f5)
    6687                            .dwattr $C$DW$541, DW_AT_decl_column(0x11)
    6688                    
    6689                    $C$DW$542       .dwtag  DW_TAG_member
    6690                            .dwattr $C$DW$542, DW_AT_type(*$C$DW$T$41)
    6691                            .dwattr $C$DW$542, DW_AT_name("MCTLW")
    6692                            .dwattr $C$DW$542, DW_AT_TI_symbol_name("MCTLW")
    6693                            .dwattr $C$DW$542, DW_AT_data_member_location[DW_OP_plus_uconst 0x8]
    6694                            .dwattr $C$DW$542, DW_AT_accessibility(DW_ACCESS_public)
    6695                            .dwattr $C$DW$542, DW_AT_decl_file("C:\ti\ccs1200\ccs\ccs_base\arm\include\msp432p401r.h")
    6696                            .dwattr $C$DW$542, DW_AT_decl_line(0x2f6)
    6697                            .dwattr $C$DW$542, DW_AT_decl_column(0x11)
    6698                    
    6699                    $C$DW$543       .dwtag  DW_TAG_member
    6700                            .dwattr $C$DW$543, DW_AT_type(*$C$DW$T$41)
    6701                            .dwattr $C$DW$543, DW_AT_name("STATW")
    6702                            .dwattr $C$DW$543, DW_AT_TI_symbol_name("STATW")
    6703                            .dwattr $C$DW$543, DW_AT_data_member_location[DW_OP_plus_uconst 0xa]
    6704                            .dwattr $C$DW$543, DW_AT_accessibility(DW_ACCESS_public)
    6705                            .dwattr $C$DW$543, DW_AT_decl_file("C:\ti\ccs1200\ccs\ccs_base\arm\include\msp432p401r.h")
    6706                            .dwattr $C$DW$543, DW_AT_decl_line(0x2f7)
    6707                            .dwattr $C$DW$543, DW_AT_decl_column(0x11)
    6708                    
    6709                    $C$DW$544       .dwtag  DW_TAG_member
    6710                            .dwattr $C$DW$544, DW_AT_type(*$C$DW$T$86)
TI ARM Assembler PC v20.2.6 Mon Oct 31 23:16:56 2022

Copyright (c) 1996-2018 Texas Instruments Incorporated
system_msp432p401r.asm                                               PAGE  123

    6711                            .dwattr $C$DW$544, DW_AT_name("RXBUF")
    6712                            .dwattr $C$DW$544, DW_AT_TI_symbol_name("RXBUF")
    6713                            .dwattr $C$DW$544, DW_AT_data_member_location[DW_OP_plus_uconst 0xc]
    6714                            .dwattr $C$DW$544, DW_AT_accessibility(DW_ACCESS_public)
    6715                            .dwattr $C$DW$544, DW_AT_decl_file("C:\ti\ccs1200\ccs\ccs_base\arm\include\msp432p401r.h")
    6716                            .dwattr $C$DW$544, DW_AT_decl_line(0x2f8)
    6717                            .dwattr $C$DW$544, DW_AT_decl_column(0x11)
    6718                    
    6719                    $C$DW$545       .dwtag  DW_TAG_member
    6720                            .dwattr $C$DW$545, DW_AT_type(*$C$DW$T$41)
    6721                            .dwattr $C$DW$545, DW_AT_name("TXBUF")
    6722                            .dwattr $C$DW$545, DW_AT_TI_symbol_name("TXBUF")
    6723                            .dwattr $C$DW$545, DW_AT_data_member_location[DW_OP_plus_uconst 0xe]
    6724                            .dwattr $C$DW$545, DW_AT_accessibility(DW_ACCESS_public)
    6725                            .dwattr $C$DW$545, DW_AT_decl_file("C:\ti\ccs1200\ccs\ccs_base\arm\include\msp432p401r.h")
    6726                            .dwattr $C$DW$545, DW_AT_decl_line(0x2f9)
    6727                            .dwattr $C$DW$545, DW_AT_decl_column(0x11)
    6728                    
    6729                    $C$DW$546       .dwtag  DW_TAG_member
    6730                            .dwattr $C$DW$546, DW_AT_type(*$C$DW$T$41)
    6731                            .dwattr $C$DW$546, DW_AT_name("ABCTL")
    6732                            .dwattr $C$DW$546, DW_AT_TI_symbol_name("ABCTL")
    6733                            .dwattr $C$DW$546, DW_AT_data_member_location[DW_OP_plus_uconst 0x10]
    6734                            .dwattr $C$DW$546, DW_AT_accessibility(DW_ACCESS_public)
    6735                            .dwattr $C$DW$546, DW_AT_decl_file("C:\ti\ccs1200\ccs\ccs_base\arm\include\msp432p401r.h")
    6736                            .dwattr $C$DW$546, DW_AT_decl_line(0x2fa)
    6737                            .dwattr $C$DW$546, DW_AT_decl_column(0x11)
    6738                    
    6739                    $C$DW$547       .dwtag  DW_TAG_member
    6740                            .dwattr $C$DW$547, DW_AT_type(*$C$DW$T$41)
    6741                            .dwattr $C$DW$547, DW_AT_name("IRCTL")
    6742                            .dwattr $C$DW$547, DW_AT_TI_symbol_name("IRCTL")
    6743                            .dwattr $C$DW$547, DW_AT_data_member_location[DW_OP_plus_uconst 0x12]
    6744                            .dwattr $C$DW$547, DW_AT_accessibility(DW_ACCESS_public)
    6745                            .dwattr $C$DW$547, DW_AT_decl_file("C:\ti\ccs1200\ccs\ccs_base\arm\include\msp432p401r.h")
    6746                            .dwattr $C$DW$547, DW_AT_decl_line(0x2fb)
    6747                            .dwattr $C$DW$547, DW_AT_decl_column(0x11)
    6748                    
    6749                    $C$DW$548       .dwtag  DW_TAG_member
    6750                            .dwattr $C$DW$548, DW_AT_type(*$C$DW$T$101)
    6751                            .dwattr $C$DW$548, DW_AT_name("RESERVED1")
    6752                            .dwattr $C$DW$548, DW_AT_TI_symbol_name("RESERVED1")
    6753                            .dwattr $C$DW$548, DW_AT_data_member_location[DW_OP_plus_uconst 0x14]
    6754                            .dwattr $C$DW$548, DW_AT_accessibility(DW_ACCESS_public)
    6755                            .dwattr $C$DW$548, DW_AT_decl_file("C:\ti\ccs1200\ccs\ccs_base\arm\include\msp432p401r.h")
    6756                            .dwattr $C$DW$548, DW_AT_decl_line(0x2fc)
    6757                            .dwattr $C$DW$548, DW_AT_decl_column(0x11)
    6758                    
    6759                    $C$DW$549       .dwtag  DW_TAG_member
    6760                            .dwattr $C$DW$549, DW_AT_type(*$C$DW$T$41)
    6761                            .dwattr $C$DW$549, DW_AT_name("IE")
    6762                            .dwattr $C$DW$549, DW_AT_TI_symbol_name("IE")
    6763                            .dwattr $C$DW$549, DW_AT_data_member_location[DW_OP_plus_uconst 0x1a]
    6764                            .dwattr $C$DW$549, DW_AT_accessibility(DW_ACCESS_public)
    6765                            .dwattr $C$DW$549, DW_AT_decl_file("C:\ti\ccs1200\ccs\ccs_base\arm\include\msp432p401r.h")
TI ARM Assembler PC v20.2.6 Mon Oct 31 23:16:56 2022

Copyright (c) 1996-2018 Texas Instruments Incorporated
system_msp432p401r.asm                                               PAGE  124

    6766                            .dwattr $C$DW$549, DW_AT_decl_line(0x2fd)
    6767                            .dwattr $C$DW$549, DW_AT_decl_column(0x11)
    6768                    
    6769                    $C$DW$550       .dwtag  DW_TAG_member
    6770                            .dwattr $C$DW$550, DW_AT_type(*$C$DW$T$41)
    6771                            .dwattr $C$DW$550, DW_AT_name("IFG")
    6772                            .dwattr $C$DW$550, DW_AT_TI_symbol_name("IFG")
    6773                            .dwattr $C$DW$550, DW_AT_data_member_location[DW_OP_plus_uconst 0x1c]
    6774                            .dwattr $C$DW$550, DW_AT_accessibility(DW_ACCESS_public)
    6775                            .dwattr $C$DW$550, DW_AT_decl_file("C:\ti\ccs1200\ccs\ccs_base\arm\include\msp432p401r.h")
    6776                            .dwattr $C$DW$550, DW_AT_decl_line(0x2fe)
    6777                            .dwattr $C$DW$550, DW_AT_decl_column(0x11)
    6778                    
    6779                    $C$DW$551       .dwtag  DW_TAG_member
    6780                            .dwattr $C$DW$551, DW_AT_type(*$C$DW$T$86)
    6781                            .dwattr $C$DW$551, DW_AT_name("IV")
    6782                            .dwattr $C$DW$551, DW_AT_TI_symbol_name("IV")
    6783                            .dwattr $C$DW$551, DW_AT_data_member_location[DW_OP_plus_uconst 0x1e]
    6784                            .dwattr $C$DW$551, DW_AT_accessibility(DW_ACCESS_public)
    6785                            .dwattr $C$DW$551, DW_AT_decl_file("C:\ti\ccs1200\ccs\ccs_base\arm\include\msp432p401r.h")
    6786                            .dwattr $C$DW$551, DW_AT_decl_line(0x2ff)
    6787                            .dwattr $C$DW$551, DW_AT_decl_column(0x11)
    6788                    
    6789                            .dwattr $C$DW$T$120, DW_AT_decl_file("C:\ti\ccs1200\ccs\ccs_base\arm\include\msp432p401r.h")
    6790                            .dwattr $C$DW$T$120, DW_AT_decl_line(0x2f1)
    6791                            .dwattr $C$DW$T$120, DW_AT_decl_column(0x10)
    6792                            .dwendtag $C$DW$T$120
    6793                    
    6794                    $C$DW$T$212     .dwtag  DW_TAG_typedef
    6795                            .dwattr $C$DW$T$212, DW_AT_name("EUSCI_A_Type")
    6796                            .dwattr $C$DW$T$212, DW_AT_type(*$C$DW$T$120)
    6797                            .dwattr $C$DW$T$212, DW_AT_language(DW_LANG_C)
    6798                            .dwattr $C$DW$T$212, DW_AT_decl_file("C:\ti\ccs1200\ccs\ccs_base\arm\include\msp432p401r.h")
    6799                            .dwattr $C$DW$T$212, DW_AT_decl_line(0x300)
    6800                            .dwattr $C$DW$T$212, DW_AT_decl_column(0x03)
    6801                    
    6802                    
    6803                    $C$DW$T$122     .dwtag  DW_TAG_structure_type
    6804                            .dwattr $C$DW$T$122, DW_AT_byte_size(0x20)
    6805                    $C$DW$552       .dwtag  DW_TAG_member
    6806                            .dwattr $C$DW$552, DW_AT_type(*$C$DW$T$41)
    6807                            .dwattr $C$DW$552, DW_AT_name("CTLW0")
    6808                            .dwattr $C$DW$552, DW_AT_TI_symbol_name("CTLW0")
    6809                            .dwattr $C$DW$552, DW_AT_data_member_location[DW_OP_plus_uconst 0x0]
    6810                            .dwattr $C$DW$552, DW_AT_accessibility(DW_ACCESS_public)
    6811                            .dwattr $C$DW$552, DW_AT_decl_file("C:\ti\ccs1200\ccs\ccs_base\arm\include\msp432p401r.h")
    6812                            .dwattr $C$DW$552, DW_AT_decl_line(0x308)
    6813                            .dwattr $C$DW$552, DW_AT_decl_column(0x11)
    6814                    
    6815                    $C$DW$553       .dwtag  DW_TAG_member
    6816                            .dwattr $C$DW$553, DW_AT_type(*$C$DW$T$85)
    6817                            .dwattr $C$DW$553, DW_AT_name("RESERVED0")
    6818                            .dwattr $C$DW$553, DW_AT_TI_symbol_name("RESERVED0")
    6819                            .dwattr $C$DW$553, DW_AT_data_member_location[DW_OP_plus_uconst 0x2]
    6820                            .dwattr $C$DW$553, DW_AT_accessibility(DW_ACCESS_public)
TI ARM Assembler PC v20.2.6 Mon Oct 31 23:16:56 2022

Copyright (c) 1996-2018 Texas Instruments Incorporated
system_msp432p401r.asm                                               PAGE  125

    6821                            .dwattr $C$DW$553, DW_AT_decl_file("C:\ti\ccs1200\ccs\ccs_base\arm\include\msp432p401r.h")
    6822                            .dwattr $C$DW$553, DW_AT_decl_line(0x309)
    6823                            .dwattr $C$DW$553, DW_AT_decl_column(0x11)
    6824                    
    6825                    $C$DW$554       .dwtag  DW_TAG_member
    6826                            .dwattr $C$DW$554, DW_AT_type(*$C$DW$T$41)
    6827                            .dwattr $C$DW$554, DW_AT_name("BRW")
    6828                            .dwattr $C$DW$554, DW_AT_TI_symbol_name("BRW")
    6829                            .dwattr $C$DW$554, DW_AT_data_member_location[DW_OP_plus_uconst 0x6]
    6830                            .dwattr $C$DW$554, DW_AT_accessibility(DW_ACCESS_public)
    6831                            .dwattr $C$DW$554, DW_AT_decl_file("C:\ti\ccs1200\ccs\ccs_base\arm\include\msp432p401r.h")
    6832                            .dwattr $C$DW$554, DW_AT_decl_line(0x30a)
    6833                            .dwattr $C$DW$554, DW_AT_decl_column(0x11)
    6834                    
    6835                    $C$DW$555       .dwtag  DW_TAG_member
    6836                            .dwattr $C$DW$555, DW_AT_type(*$C$DW$T$39)
    6837                            .dwattr $C$DW$555, DW_AT_name("RESERVED1")
    6838                            .dwattr $C$DW$555, DW_AT_TI_symbol_name("RESERVED1")
    6839                            .dwattr $C$DW$555, DW_AT_data_member_location[DW_OP_plus_uconst 0x8]
    6840                            .dwattr $C$DW$555, DW_AT_accessibility(DW_ACCESS_public)
    6841                            .dwattr $C$DW$555, DW_AT_decl_file("C:\ti\ccs1200\ccs\ccs_base\arm\include\msp432p401r.h")
    6842                            .dwattr $C$DW$555, DW_AT_decl_line(0x30b)
    6843                            .dwattr $C$DW$555, DW_AT_decl_column(0x11)
    6844                    
    6845                    $C$DW$556       .dwtag  DW_TAG_member
    6846                            .dwattr $C$DW$556, DW_AT_type(*$C$DW$T$41)
    6847                            .dwattr $C$DW$556, DW_AT_name("STATW")
    6848                            .dwattr $C$DW$556, DW_AT_TI_symbol_name("STATW")
    6849                            .dwattr $C$DW$556, DW_AT_data_member_location[DW_OP_plus_uconst 0xa]
    6850                            .dwattr $C$DW$556, DW_AT_accessibility(DW_ACCESS_public)
    6851                            .dwattr $C$DW$556, DW_AT_decl_file("C:\ti\ccs1200\ccs\ccs_base\arm\include\msp432p401r.h")
    6852                            .dwattr $C$DW$556, DW_AT_decl_line(0x30c)
    6853                            .dwattr $C$DW$556, DW_AT_decl_column(0x11)
    6854                    
    6855                    $C$DW$557       .dwtag  DW_TAG_member
    6856                            .dwattr $C$DW$557, DW_AT_type(*$C$DW$T$86)
    6857                            .dwattr $C$DW$557, DW_AT_name("RXBUF")
    6858                            .dwattr $C$DW$557, DW_AT_TI_symbol_name("RXBUF")
    6859                            .dwattr $C$DW$557, DW_AT_data_member_location[DW_OP_plus_uconst 0xc]
    6860                            .dwattr $C$DW$557, DW_AT_accessibility(DW_ACCESS_public)
    6861                            .dwattr $C$DW$557, DW_AT_decl_file("C:\ti\ccs1200\ccs\ccs_base\arm\include\msp432p401r.h")
    6862                            .dwattr $C$DW$557, DW_AT_decl_line(0x30d)
    6863                            .dwattr $C$DW$557, DW_AT_decl_column(0x11)
    6864                    
    6865                    $C$DW$558       .dwtag  DW_TAG_member
    6866                            .dwattr $C$DW$558, DW_AT_type(*$C$DW$T$41)
    6867                            .dwattr $C$DW$558, DW_AT_name("TXBUF")
    6868                            .dwattr $C$DW$558, DW_AT_TI_symbol_name("TXBUF")
    6869                            .dwattr $C$DW$558, DW_AT_data_member_location[DW_OP_plus_uconst 0xe]
    6870                            .dwattr $C$DW$558, DW_AT_accessibility(DW_ACCESS_public)
    6871                            .dwattr $C$DW$558, DW_AT_decl_file("C:\ti\ccs1200\ccs\ccs_base\arm\include\msp432p401r.h")
    6872                            .dwattr $C$DW$558, DW_AT_decl_line(0x30e)
    6873                            .dwattr $C$DW$558, DW_AT_decl_column(0x11)
    6874                    
    6875                    $C$DW$559       .dwtag  DW_TAG_member
TI ARM Assembler PC v20.2.6 Mon Oct 31 23:16:56 2022

Copyright (c) 1996-2018 Texas Instruments Incorporated
system_msp432p401r.asm                                               PAGE  126

    6876                            .dwattr $C$DW$559, DW_AT_type(*$C$DW$T$121)
    6877                            .dwattr $C$DW$559, DW_AT_name("RESERVED2")
    6878                            .dwattr $C$DW$559, DW_AT_TI_symbol_name("RESERVED2")
    6879                            .dwattr $C$DW$559, DW_AT_data_member_location[DW_OP_plus_uconst 0x10]
    6880                            .dwattr $C$DW$559, DW_AT_accessibility(DW_ACCESS_public)
    6881                            .dwattr $C$DW$559, DW_AT_decl_file("C:\ti\ccs1200\ccs\ccs_base\arm\include\msp432p401r.h")
    6882                            .dwattr $C$DW$559, DW_AT_decl_line(0x30f)
    6883                            .dwattr $C$DW$559, DW_AT_decl_column(0x11)
    6884                    
    6885                    $C$DW$560       .dwtag  DW_TAG_member
    6886                            .dwattr $C$DW$560, DW_AT_type(*$C$DW$T$41)
    6887                            .dwattr $C$DW$560, DW_AT_name("IE")
    6888                            .dwattr $C$DW$560, DW_AT_TI_symbol_name("IE")
    6889                            .dwattr $C$DW$560, DW_AT_data_member_location[DW_OP_plus_uconst 0x1a]
    6890                            .dwattr $C$DW$560, DW_AT_accessibility(DW_ACCESS_public)
    6891                            .dwattr $C$DW$560, DW_AT_decl_file("C:\ti\ccs1200\ccs\ccs_base\arm\include\msp432p401r.h")
    6892                            .dwattr $C$DW$560, DW_AT_decl_line(0x310)
    6893                            .dwattr $C$DW$560, DW_AT_decl_column(0x11)
    6894                    
    6895                    $C$DW$561       .dwtag  DW_TAG_member
    6896                            .dwattr $C$DW$561, DW_AT_type(*$C$DW$T$41)
    6897                            .dwattr $C$DW$561, DW_AT_name("IFG")
    6898                            .dwattr $C$DW$561, DW_AT_TI_symbol_name("IFG")
    6899                            .dwattr $C$DW$561, DW_AT_data_member_location[DW_OP_plus_uconst 0x1c]
    6900                            .dwattr $C$DW$561, DW_AT_accessibility(DW_ACCESS_public)
    6901                            .dwattr $C$DW$561, DW_AT_decl_file("C:\ti\ccs1200\ccs\ccs_base\arm\include\msp432p401r.h")
    6902                            .dwattr $C$DW$561, DW_AT_decl_line(0x311)
    6903                            .dwattr $C$DW$561, DW_AT_decl_column(0x11)
    6904                    
    6905                    $C$DW$562       .dwtag  DW_TAG_member
    6906                            .dwattr $C$DW$562, DW_AT_type(*$C$DW$T$86)
    6907                            .dwattr $C$DW$562, DW_AT_name("IV")
    6908                            .dwattr $C$DW$562, DW_AT_TI_symbol_name("IV")
    6909                            .dwattr $C$DW$562, DW_AT_data_member_location[DW_OP_plus_uconst 0x1e]
    6910                            .dwattr $C$DW$562, DW_AT_accessibility(DW_ACCESS_public)
    6911                            .dwattr $C$DW$562, DW_AT_decl_file("C:\ti\ccs1200\ccs\ccs_base\arm\include\msp432p401r.h")
    6912                            .dwattr $C$DW$562, DW_AT_decl_line(0x312)
    6913                            .dwattr $C$DW$562, DW_AT_decl_column(0x11)
    6914                    
    6915                            .dwattr $C$DW$T$122, DW_AT_decl_file("C:\ti\ccs1200\ccs\ccs_base\arm\include\msp432p401r.h")
    6916                            .dwattr $C$DW$T$122, DW_AT_decl_line(0x307)
    6917                            .dwattr $C$DW$T$122, DW_AT_decl_column(0x10)
    6918                            .dwendtag $C$DW$T$122
    6919                    
    6920                    $C$DW$T$213     .dwtag  DW_TAG_typedef
    6921                            .dwattr $C$DW$T$213, DW_AT_name("EUSCI_A_SPI_Type")
    6922                            .dwattr $C$DW$T$213, DW_AT_type(*$C$DW$T$122)
    6923                            .dwattr $C$DW$T$213, DW_AT_language(DW_LANG_C)
    6924                            .dwattr $C$DW$T$213, DW_AT_decl_file("C:\ti\ccs1200\ccs\ccs_base\arm\include\msp432p401r.h")
    6925                            .dwattr $C$DW$T$213, DW_AT_decl_line(0x313)
    6926                            .dwattr $C$DW$T$213, DW_AT_decl_column(0x03)
    6927                    
    6928                    
    6929                    $C$DW$T$123     .dwtag  DW_TAG_structure_type
    6930                            .dwattr $C$DW$T$123, DW_AT_byte_size(0x30)
TI ARM Assembler PC v20.2.6 Mon Oct 31 23:16:56 2022

Copyright (c) 1996-2018 Texas Instruments Incorporated
system_msp432p401r.asm                                               PAGE  127

    6931                    $C$DW$563       .dwtag  DW_TAG_member
    6932                            .dwattr $C$DW$563, DW_AT_type(*$C$DW$T$41)
    6933                            .dwattr $C$DW$563, DW_AT_name("CTLW0")
    6934                            .dwattr $C$DW$563, DW_AT_TI_symbol_name("CTLW0")
    6935                            .dwattr $C$DW$563, DW_AT_data_member_location[DW_OP_plus_uconst 0x0]
    6936                            .dwattr $C$DW$563, DW_AT_accessibility(DW_ACCESS_public)
    6937                            .dwattr $C$DW$563, DW_AT_decl_file("C:\ti\ccs1200\ccs\ccs_base\arm\include\msp432p401r.h")
    6938                            .dwattr $C$DW$563, DW_AT_decl_line(0x31f)
    6939                            .dwattr $C$DW$563, DW_AT_decl_column(0x11)
    6940                    
    6941                    $C$DW$564       .dwtag  DW_TAG_member
    6942                            .dwattr $C$DW$564, DW_AT_type(*$C$DW$T$41)
    6943                            .dwattr $C$DW$564, DW_AT_name("CTLW1")
    6944                            .dwattr $C$DW$564, DW_AT_TI_symbol_name("CTLW1")
    6945                            .dwattr $C$DW$564, DW_AT_data_member_location[DW_OP_plus_uconst 0x2]
    6946                            .dwattr $C$DW$564, DW_AT_accessibility(DW_ACCESS_public)
    6947                            .dwattr $C$DW$564, DW_AT_decl_file("C:\ti\ccs1200\ccs\ccs_base\arm\include\msp432p401r.h")
    6948                            .dwattr $C$DW$564, DW_AT_decl_line(0x320)
    6949                            .dwattr $C$DW$564, DW_AT_decl_column(0x11)
    6950                    
    6951                    $C$DW$565       .dwtag  DW_TAG_member
    6952                            .dwattr $C$DW$565, DW_AT_type(*$C$DW$T$39)
    6953                            .dwattr $C$DW$565, DW_AT_name("RESERVED0")
    6954                            .dwattr $C$DW$565, DW_AT_TI_symbol_name("RESERVED0")
    6955                            .dwattr $C$DW$565, DW_AT_data_member_location[DW_OP_plus_uconst 0x4]
    6956                            .dwattr $C$DW$565, DW_AT_accessibility(DW_ACCESS_public)
    6957                            .dwattr $C$DW$565, DW_AT_decl_file("C:\ti\ccs1200\ccs\ccs_base\arm\include\msp432p401r.h")
    6958                            .dwattr $C$DW$565, DW_AT_decl_line(0x321)
    6959                            .dwattr $C$DW$565, DW_AT_decl_column(0x11)
    6960                    
    6961                    $C$DW$566       .dwtag  DW_TAG_member
    6962                            .dwattr $C$DW$566, DW_AT_type(*$C$DW$T$41)
    6963                            .dwattr $C$DW$566, DW_AT_name("BRW")
    6964                            .dwattr $C$DW$566, DW_AT_TI_symbol_name("BRW")
    6965                            .dwattr $C$DW$566, DW_AT_data_member_location[DW_OP_plus_uconst 0x6]
    6966                            .dwattr $C$DW$566, DW_AT_accessibility(DW_ACCESS_public)
    6967                            .dwattr $C$DW$566, DW_AT_decl_file("C:\ti\ccs1200\ccs\ccs_base\arm\include\msp432p401r.h")
    6968                            .dwattr $C$DW$566, DW_AT_decl_line(0x322)
    6969                            .dwattr $C$DW$566, DW_AT_decl_column(0x11)
    6970                    
    6971                    $C$DW$567       .dwtag  DW_TAG_member
    6972                            .dwattr $C$DW$567, DW_AT_type(*$C$DW$T$41)
    6973                            .dwattr $C$DW$567, DW_AT_name("STATW")
    6974                            .dwattr $C$DW$567, DW_AT_TI_symbol_name("STATW")
    6975                            .dwattr $C$DW$567, DW_AT_data_member_location[DW_OP_plus_uconst 0x8]
    6976                            .dwattr $C$DW$567, DW_AT_accessibility(DW_ACCESS_public)
    6977                            .dwattr $C$DW$567, DW_AT_decl_file("C:\ti\ccs1200\ccs\ccs_base\arm\include\msp432p401r.h")
    6978                            .dwattr $C$DW$567, DW_AT_decl_line(0x323)
    6979                            .dwattr $C$DW$567, DW_AT_decl_column(0x11)
    6980                    
    6981                    $C$DW$568       .dwtag  DW_TAG_member
    6982                            .dwattr $C$DW$568, DW_AT_type(*$C$DW$T$41)
    6983                            .dwattr $C$DW$568, DW_AT_name("TBCNT")
    6984                            .dwattr $C$DW$568, DW_AT_TI_symbol_name("TBCNT")
    6985                            .dwattr $C$DW$568, DW_AT_data_member_location[DW_OP_plus_uconst 0xa]
TI ARM Assembler PC v20.2.6 Mon Oct 31 23:16:56 2022

Copyright (c) 1996-2018 Texas Instruments Incorporated
system_msp432p401r.asm                                               PAGE  128

    6986                            .dwattr $C$DW$568, DW_AT_accessibility(DW_ACCESS_public)
    6987                            .dwattr $C$DW$568, DW_AT_decl_file("C:\ti\ccs1200\ccs\ccs_base\arm\include\msp432p401r.h")
    6988                            .dwattr $C$DW$568, DW_AT_decl_line(0x324)
    6989                            .dwattr $C$DW$568, DW_AT_decl_column(0x11)
    6990                    
    6991                    $C$DW$569       .dwtag  DW_TAG_member
    6992                            .dwattr $C$DW$569, DW_AT_type(*$C$DW$T$86)
    6993                            .dwattr $C$DW$569, DW_AT_name("RXBUF")
    6994                            .dwattr $C$DW$569, DW_AT_TI_symbol_name("RXBUF")
    6995                            .dwattr $C$DW$569, DW_AT_data_member_location[DW_OP_plus_uconst 0xc]
    6996                            .dwattr $C$DW$569, DW_AT_accessibility(DW_ACCESS_public)
    6997                            .dwattr $C$DW$569, DW_AT_decl_file("C:\ti\ccs1200\ccs\ccs_base\arm\include\msp432p401r.h")
    6998                            .dwattr $C$DW$569, DW_AT_decl_line(0x325)
    6999                            .dwattr $C$DW$569, DW_AT_decl_column(0x11)
    7000                    
    7001                    $C$DW$570       .dwtag  DW_TAG_member
    7002                            .dwattr $C$DW$570, DW_AT_type(*$C$DW$T$41)
    7003                            .dwattr $C$DW$570, DW_AT_name("TXBUF")
    7004                            .dwattr $C$DW$570, DW_AT_TI_symbol_name("TXBUF")
    7005                            .dwattr $C$DW$570, DW_AT_data_member_location[DW_OP_plus_uconst 0xe]
    7006                            .dwattr $C$DW$570, DW_AT_accessibility(DW_ACCESS_public)
    7007                            .dwattr $C$DW$570, DW_AT_decl_file("C:\ti\ccs1200\ccs\ccs_base\arm\include\msp432p401r.h")
    7008                            .dwattr $C$DW$570, DW_AT_decl_line(0x326)
    7009                            .dwattr $C$DW$570, DW_AT_decl_column(0x11)
    7010                    
    7011                    $C$DW$571       .dwtag  DW_TAG_member
    7012                            .dwattr $C$DW$571, DW_AT_type(*$C$DW$T$85)
    7013                            .dwattr $C$DW$571, DW_AT_name("RESERVED1")
    7014                            .dwattr $C$DW$571, DW_AT_TI_symbol_name("RESERVED1")
    7015                            .dwattr $C$DW$571, DW_AT_data_member_location[DW_OP_plus_uconst 0x10]
    7016                            .dwattr $C$DW$571, DW_AT_accessibility(DW_ACCESS_public)
    7017                            .dwattr $C$DW$571, DW_AT_decl_file("C:\ti\ccs1200\ccs\ccs_base\arm\include\msp432p401r.h")
    7018                            .dwattr $C$DW$571, DW_AT_decl_line(0x327)
    7019                            .dwattr $C$DW$571, DW_AT_decl_column(0x11)
    7020                    
    7021                    $C$DW$572       .dwtag  DW_TAG_member
    7022                            .dwattr $C$DW$572, DW_AT_type(*$C$DW$T$41)
    7023                            .dwattr $C$DW$572, DW_AT_name("I2COA0")
    7024                            .dwattr $C$DW$572, DW_AT_TI_symbol_name("I2COA0")
    7025                            .dwattr $C$DW$572, DW_AT_data_member_location[DW_OP_plus_uconst 0x14]
    7026                            .dwattr $C$DW$572, DW_AT_accessibility(DW_ACCESS_public)
    7027                            .dwattr $C$DW$572, DW_AT_decl_file("C:\ti\ccs1200\ccs\ccs_base\arm\include\msp432p401r.h")
    7028                            .dwattr $C$DW$572, DW_AT_decl_line(0x328)
    7029                            .dwattr $C$DW$572, DW_AT_decl_column(0x11)
    7030                    
    7031                    $C$DW$573       .dwtag  DW_TAG_member
    7032                            .dwattr $C$DW$573, DW_AT_type(*$C$DW$T$41)
    7033                            .dwattr $C$DW$573, DW_AT_name("I2COA1")
    7034                            .dwattr $C$DW$573, DW_AT_TI_symbol_name("I2COA1")
    7035                            .dwattr $C$DW$573, DW_AT_data_member_location[DW_OP_plus_uconst 0x16]
    7036                            .dwattr $C$DW$573, DW_AT_accessibility(DW_ACCESS_public)
    7037                            .dwattr $C$DW$573, DW_AT_decl_file("C:\ti\ccs1200\ccs\ccs_base\arm\include\msp432p401r.h")
    7038                            .dwattr $C$DW$573, DW_AT_decl_line(0x329)
    7039                            .dwattr $C$DW$573, DW_AT_decl_column(0x11)
    7040                    
TI ARM Assembler PC v20.2.6 Mon Oct 31 23:16:56 2022

Copyright (c) 1996-2018 Texas Instruments Incorporated
system_msp432p401r.asm                                               PAGE  129

    7041                    $C$DW$574       .dwtag  DW_TAG_member
    7042                            .dwattr $C$DW$574, DW_AT_type(*$C$DW$T$41)
    7043                            .dwattr $C$DW$574, DW_AT_name("I2COA2")
    7044                            .dwattr $C$DW$574, DW_AT_TI_symbol_name("I2COA2")
    7045                            .dwattr $C$DW$574, DW_AT_data_member_location[DW_OP_plus_uconst 0x18]
    7046                            .dwattr $C$DW$574, DW_AT_accessibility(DW_ACCESS_public)
    7047                            .dwattr $C$DW$574, DW_AT_decl_file("C:\ti\ccs1200\ccs\ccs_base\arm\include\msp432p401r.h")
    7048                            .dwattr $C$DW$574, DW_AT_decl_line(0x32a)
    7049                            .dwattr $C$DW$574, DW_AT_decl_column(0x11)
    7050                    
    7051                    $C$DW$575       .dwtag  DW_TAG_member
    7052                            .dwattr $C$DW$575, DW_AT_type(*$C$DW$T$41)
    7053                            .dwattr $C$DW$575, DW_AT_name("I2COA3")
    7054                            .dwattr $C$DW$575, DW_AT_TI_symbol_name("I2COA3")
    7055                            .dwattr $C$DW$575, DW_AT_data_member_location[DW_OP_plus_uconst 0x1a]
    7056                            .dwattr $C$DW$575, DW_AT_accessibility(DW_ACCESS_public)
    7057                            .dwattr $C$DW$575, DW_AT_decl_file("C:\ti\ccs1200\ccs\ccs_base\arm\include\msp432p401r.h")
    7058                            .dwattr $C$DW$575, DW_AT_decl_line(0x32b)
    7059                            .dwattr $C$DW$575, DW_AT_decl_column(0x11)
    7060                    
    7061                    $C$DW$576       .dwtag  DW_TAG_member
    7062                            .dwattr $C$DW$576, DW_AT_type(*$C$DW$T$86)
    7063                            .dwattr $C$DW$576, DW_AT_name("ADDRX")
    7064                            .dwattr $C$DW$576, DW_AT_TI_symbol_name("ADDRX")
    7065                            .dwattr $C$DW$576, DW_AT_data_member_location[DW_OP_plus_uconst 0x1c]
    7066                            .dwattr $C$DW$576, DW_AT_accessibility(DW_ACCESS_public)
    7067                            .dwattr $C$DW$576, DW_AT_decl_file("C:\ti\ccs1200\ccs\ccs_base\arm\include\msp432p401r.h")
    7068                            .dwattr $C$DW$576, DW_AT_decl_line(0x32c)
    7069                            .dwattr $C$DW$576, DW_AT_decl_column(0x11)
    7070                    
    7071                    $C$DW$577       .dwtag  DW_TAG_member
    7072                            .dwattr $C$DW$577, DW_AT_type(*$C$DW$T$41)
    7073                            .dwattr $C$DW$577, DW_AT_name("ADDMASK")
    7074                            .dwattr $C$DW$577, DW_AT_TI_symbol_name("ADDMASK")
    7075                            .dwattr $C$DW$577, DW_AT_data_member_location[DW_OP_plus_uconst 0x1e]
    7076                            .dwattr $C$DW$577, DW_AT_accessibility(DW_ACCESS_public)
    7077                            .dwattr $C$DW$577, DW_AT_decl_file("C:\ti\ccs1200\ccs\ccs_base\arm\include\msp432p401r.h")
    7078                            .dwattr $C$DW$577, DW_AT_decl_line(0x32d)
    7079                            .dwattr $C$DW$577, DW_AT_decl_column(0x11)
    7080                    
    7081                    $C$DW$578       .dwtag  DW_TAG_member
    7082                            .dwattr $C$DW$578, DW_AT_type(*$C$DW$T$41)
    7083                            .dwattr $C$DW$578, DW_AT_name("I2CSA")
    7084                            .dwattr $C$DW$578, DW_AT_TI_symbol_name("I2CSA")
    7085                            .dwattr $C$DW$578, DW_AT_data_member_location[DW_OP_plus_uconst 0x20]
    7086                            .dwattr $C$DW$578, DW_AT_accessibility(DW_ACCESS_public)
    7087                            .dwattr $C$DW$578, DW_AT_decl_file("C:\ti\ccs1200\ccs\ccs_base\arm\include\msp432p401r.h")
    7088                            .dwattr $C$DW$578, DW_AT_decl_line(0x32e)
    7089                            .dwattr $C$DW$578, DW_AT_decl_column(0x11)
    7090                    
    7091                    $C$DW$579       .dwtag  DW_TAG_member
    7092                            .dwattr $C$DW$579, DW_AT_type(*$C$DW$T$111)
    7093                            .dwattr $C$DW$579, DW_AT_name("RESERVED2")
    7094                            .dwattr $C$DW$579, DW_AT_TI_symbol_name("RESERVED2")
    7095                            .dwattr $C$DW$579, DW_AT_data_member_location[DW_OP_plus_uconst 0x22]
TI ARM Assembler PC v20.2.6 Mon Oct 31 23:16:56 2022

Copyright (c) 1996-2018 Texas Instruments Incorporated
system_msp432p401r.asm                                               PAGE  130

    7096                            .dwattr $C$DW$579, DW_AT_accessibility(DW_ACCESS_public)
    7097                            .dwattr $C$DW$579, DW_AT_decl_file("C:\ti\ccs1200\ccs\ccs_base\arm\include\msp432p401r.h")
    7098                            .dwattr $C$DW$579, DW_AT_decl_line(0x32f)
    7099                            .dwattr $C$DW$579, DW_AT_decl_column(0x11)
    7100                    
    7101                    $C$DW$580       .dwtag  DW_TAG_member
    7102                            .dwattr $C$DW$580, DW_AT_type(*$C$DW$T$41)
    7103                            .dwattr $C$DW$580, DW_AT_name("IE")
    7104                            .dwattr $C$DW$580, DW_AT_TI_symbol_name("IE")
    7105                            .dwattr $C$DW$580, DW_AT_data_member_location[DW_OP_plus_uconst 0x2a]
    7106                            .dwattr $C$DW$580, DW_AT_accessibility(DW_ACCESS_public)
    7107                            .dwattr $C$DW$580, DW_AT_decl_file("C:\ti\ccs1200\ccs\ccs_base\arm\include\msp432p401r.h")
    7108                            .dwattr $C$DW$580, DW_AT_decl_line(0x330)
    7109                            .dwattr $C$DW$580, DW_AT_decl_column(0x11)
    7110                    
    7111                    $C$DW$581       .dwtag  DW_TAG_member
    7112                            .dwattr $C$DW$581, DW_AT_type(*$C$DW$T$41)
    7113                            .dwattr $C$DW$581, DW_AT_name("IFG")
    7114                            .dwattr $C$DW$581, DW_AT_TI_symbol_name("IFG")
    7115                            .dwattr $C$DW$581, DW_AT_data_member_location[DW_OP_plus_uconst 0x2c]
    7116                            .dwattr $C$DW$581, DW_AT_accessibility(DW_ACCESS_public)
    7117                            .dwattr $C$DW$581, DW_AT_decl_file("C:\ti\ccs1200\ccs\ccs_base\arm\include\msp432p401r.h")
    7118                            .dwattr $C$DW$581, DW_AT_decl_line(0x331)
    7119                            .dwattr $C$DW$581, DW_AT_decl_column(0x11)
    7120                    
    7121                    $C$DW$582       .dwtag  DW_TAG_member
    7122                            .dwattr $C$DW$582, DW_AT_type(*$C$DW$T$86)
    7123                            .dwattr $C$DW$582, DW_AT_name("IV")
    7124                            .dwattr $C$DW$582, DW_AT_TI_symbol_name("IV")
    7125                            .dwattr $C$DW$582, DW_AT_data_member_location[DW_OP_plus_uconst 0x2e]
    7126                            .dwattr $C$DW$582, DW_AT_accessibility(DW_ACCESS_public)
    7127                            .dwattr $C$DW$582, DW_AT_decl_file("C:\ti\ccs1200\ccs\ccs_base\arm\include\msp432p401r.h")
    7128                            .dwattr $C$DW$582, DW_AT_decl_line(0x332)
    7129                            .dwattr $C$DW$582, DW_AT_decl_column(0x11)
    7130                    
    7131                            .dwattr $C$DW$T$123, DW_AT_decl_file("C:\ti\ccs1200\ccs\ccs_base\arm\include\msp432p401r.h")
    7132                            .dwattr $C$DW$T$123, DW_AT_decl_line(0x31e)
    7133                            .dwattr $C$DW$T$123, DW_AT_decl_column(0x10)
    7134                            .dwendtag $C$DW$T$123
    7135                    
    7136                    $C$DW$T$214     .dwtag  DW_TAG_typedef
    7137                            .dwattr $C$DW$T$214, DW_AT_name("EUSCI_B_Type")
    7138                            .dwattr $C$DW$T$214, DW_AT_type(*$C$DW$T$123)
    7139                            .dwattr $C$DW$T$214, DW_AT_language(DW_LANG_C)
    7140                            .dwattr $C$DW$T$214, DW_AT_decl_file("C:\ti\ccs1200\ccs\ccs_base\arm\include\msp432p401r.h")
    7141                            .dwattr $C$DW$T$214, DW_AT_decl_line(0x333)
    7142                            .dwattr $C$DW$T$214, DW_AT_decl_column(0x03)
    7143                    
    7144                    
    7145                    $C$DW$T$125     .dwtag  DW_TAG_structure_type
    7146                            .dwattr $C$DW$T$125, DW_AT_byte_size(0x30)
    7147                    $C$DW$583       .dwtag  DW_TAG_member
    7148                            .dwattr $C$DW$583, DW_AT_type(*$C$DW$T$41)
    7149                            .dwattr $C$DW$583, DW_AT_name("CTLW0")
    7150                            .dwattr $C$DW$583, DW_AT_TI_symbol_name("CTLW0")
TI ARM Assembler PC v20.2.6 Mon Oct 31 23:16:56 2022

Copyright (c) 1996-2018 Texas Instruments Incorporated
system_msp432p401r.asm                                               PAGE  131

    7151                            .dwattr $C$DW$583, DW_AT_data_member_location[DW_OP_plus_uconst 0x0]
    7152                            .dwattr $C$DW$583, DW_AT_accessibility(DW_ACCESS_public)
    7153                            .dwattr $C$DW$583, DW_AT_decl_file("C:\ti\ccs1200\ccs\ccs_base\arm\include\msp432p401r.h")
    7154                            .dwattr $C$DW$583, DW_AT_decl_line(0x33b)
    7155                            .dwattr $C$DW$583, DW_AT_decl_column(0x11)
    7156                    
    7157                    $C$DW$584       .dwtag  DW_TAG_member
    7158                            .dwattr $C$DW$584, DW_AT_type(*$C$DW$T$85)
    7159                            .dwattr $C$DW$584, DW_AT_name("RESERVED0")
    7160                            .dwattr $C$DW$584, DW_AT_TI_symbol_name("RESERVED0")
    7161                            .dwattr $C$DW$584, DW_AT_data_member_location[DW_OP_plus_uconst 0x2]
    7162                            .dwattr $C$DW$584, DW_AT_accessibility(DW_ACCESS_public)
    7163                            .dwattr $C$DW$584, DW_AT_decl_file("C:\ti\ccs1200\ccs\ccs_base\arm\include\msp432p401r.h")
    7164                            .dwattr $C$DW$584, DW_AT_decl_line(0x33c)
    7165                            .dwattr $C$DW$584, DW_AT_decl_column(0x11)
    7166                    
    7167                    $C$DW$585       .dwtag  DW_TAG_member
    7168                            .dwattr $C$DW$585, DW_AT_type(*$C$DW$T$41)
    7169                            .dwattr $C$DW$585, DW_AT_name("BRW")
    7170                            .dwattr $C$DW$585, DW_AT_TI_symbol_name("BRW")
    7171                            .dwattr $C$DW$585, DW_AT_data_member_location[DW_OP_plus_uconst 0x6]
    7172                            .dwattr $C$DW$585, DW_AT_accessibility(DW_ACCESS_public)
    7173                            .dwattr $C$DW$585, DW_AT_decl_file("C:\ti\ccs1200\ccs\ccs_base\arm\include\msp432p401r.h")
    7174                            .dwattr $C$DW$585, DW_AT_decl_line(0x33d)
    7175                            .dwattr $C$DW$585, DW_AT_decl_column(0x11)
    7176                    
    7177                    $C$DW$586       .dwtag  DW_TAG_member
    7178                            .dwattr $C$DW$586, DW_AT_type(*$C$DW$T$41)
    7179                            .dwattr $C$DW$586, DW_AT_name("STATW")
    7180                            .dwattr $C$DW$586, DW_AT_TI_symbol_name("STATW")
    7181                            .dwattr $C$DW$586, DW_AT_data_member_location[DW_OP_plus_uconst 0x8]
    7182                            .dwattr $C$DW$586, DW_AT_accessibility(DW_ACCESS_public)
    7183                            .dwattr $C$DW$586, DW_AT_decl_file("C:\ti\ccs1200\ccs\ccs_base\arm\include\msp432p401r.h")
    7184                            .dwattr $C$DW$586, DW_AT_decl_line(0x33e)
    7185                            .dwattr $C$DW$586, DW_AT_decl_column(0x11)
    7186                    
    7187                    $C$DW$587       .dwtag  DW_TAG_member
    7188                            .dwattr $C$DW$587, DW_AT_type(*$C$DW$T$39)
    7189                            .dwattr $C$DW$587, DW_AT_name("RESERVED1")
    7190                            .dwattr $C$DW$587, DW_AT_TI_symbol_name("RESERVED1")
    7191                            .dwattr $C$DW$587, DW_AT_data_member_location[DW_OP_plus_uconst 0xa]
    7192                            .dwattr $C$DW$587, DW_AT_accessibility(DW_ACCESS_public)
    7193                            .dwattr $C$DW$587, DW_AT_decl_file("C:\ti\ccs1200\ccs\ccs_base\arm\include\msp432p401r.h")
    7194                            .dwattr $C$DW$587, DW_AT_decl_line(0x33f)
    7195                            .dwattr $C$DW$587, DW_AT_decl_column(0x11)
    7196                    
    7197                    $C$DW$588       .dwtag  DW_TAG_member
    7198                            .dwattr $C$DW$588, DW_AT_type(*$C$DW$T$86)
    7199                            .dwattr $C$DW$588, DW_AT_name("RXBUF")
    7200                            .dwattr $C$DW$588, DW_AT_TI_symbol_name("RXBUF")
    7201                            .dwattr $C$DW$588, DW_AT_data_member_location[DW_OP_plus_uconst 0xc]
    7202                            .dwattr $C$DW$588, DW_AT_accessibility(DW_ACCESS_public)
    7203                            .dwattr $C$DW$588, DW_AT_decl_file("C:\ti\ccs1200\ccs\ccs_base\arm\include\msp432p401r.h")
    7204                            .dwattr $C$DW$588, DW_AT_decl_line(0x340)
    7205                            .dwattr $C$DW$588, DW_AT_decl_column(0x11)
TI ARM Assembler PC v20.2.6 Mon Oct 31 23:16:56 2022

Copyright (c) 1996-2018 Texas Instruments Incorporated
system_msp432p401r.asm                                               PAGE  132

    7206                    
    7207                    $C$DW$589       .dwtag  DW_TAG_member
    7208                            .dwattr $C$DW$589, DW_AT_type(*$C$DW$T$41)
    7209                            .dwattr $C$DW$589, DW_AT_name("TXBUF")
    7210                            .dwattr $C$DW$589, DW_AT_TI_symbol_name("TXBUF")
    7211                            .dwattr $C$DW$589, DW_AT_data_member_location[DW_OP_plus_uconst 0xe]
    7212                            .dwattr $C$DW$589, DW_AT_accessibility(DW_ACCESS_public)
    7213                            .dwattr $C$DW$589, DW_AT_decl_file("C:\ti\ccs1200\ccs\ccs_base\arm\include\msp432p401r.h")
    7214                            .dwattr $C$DW$589, DW_AT_decl_line(0x341)
    7215                            .dwattr $C$DW$589, DW_AT_decl_column(0x11)
    7216                    
    7217                    $C$DW$590       .dwtag  DW_TAG_member
    7218                            .dwattr $C$DW$590, DW_AT_type(*$C$DW$T$124)
    7219                            .dwattr $C$DW$590, DW_AT_name("RESERVED2")
    7220                            .dwattr $C$DW$590, DW_AT_TI_symbol_name("RESERVED2")
    7221                            .dwattr $C$DW$590, DW_AT_data_member_location[DW_OP_plus_uconst 0x10]
    7222                            .dwattr $C$DW$590, DW_AT_accessibility(DW_ACCESS_public)
    7223                            .dwattr $C$DW$590, DW_AT_decl_file("C:\ti\ccs1200\ccs\ccs_base\arm\include\msp432p401r.h")
    7224                            .dwattr $C$DW$590, DW_AT_decl_line(0x342)
    7225                            .dwattr $C$DW$590, DW_AT_decl_column(0x11)
    7226                    
    7227                    $C$DW$591       .dwtag  DW_TAG_member
    7228                            .dwattr $C$DW$591, DW_AT_type(*$C$DW$T$41)
    7229                            .dwattr $C$DW$591, DW_AT_name("IE")
    7230                            .dwattr $C$DW$591, DW_AT_TI_symbol_name("IE")
    7231                            .dwattr $C$DW$591, DW_AT_data_member_location[DW_OP_plus_uconst 0x2a]
    7232                            .dwattr $C$DW$591, DW_AT_accessibility(DW_ACCESS_public)
    7233                            .dwattr $C$DW$591, DW_AT_decl_file("C:\ti\ccs1200\ccs\ccs_base\arm\include\msp432p401r.h")
    7234                            .dwattr $C$DW$591, DW_AT_decl_line(0x343)
    7235                            .dwattr $C$DW$591, DW_AT_decl_column(0x11)
    7236                    
    7237                    $C$DW$592       .dwtag  DW_TAG_member
    7238                            .dwattr $C$DW$592, DW_AT_type(*$C$DW$T$41)
    7239                            .dwattr $C$DW$592, DW_AT_name("IFG")
    7240                            .dwattr $C$DW$592, DW_AT_TI_symbol_name("IFG")
    7241                            .dwattr $C$DW$592, DW_AT_data_member_location[DW_OP_plus_uconst 0x2c]
    7242                            .dwattr $C$DW$592, DW_AT_accessibility(DW_ACCESS_public)
    7243                            .dwattr $C$DW$592, DW_AT_decl_file("C:\ti\ccs1200\ccs\ccs_base\arm\include\msp432p401r.h")
    7244                            .dwattr $C$DW$592, DW_AT_decl_line(0x344)
    7245                            .dwattr $C$DW$592, DW_AT_decl_column(0x11)
    7246                    
    7247                    $C$DW$593       .dwtag  DW_TAG_member
    7248                            .dwattr $C$DW$593, DW_AT_type(*$C$DW$T$86)
    7249                            .dwattr $C$DW$593, DW_AT_name("IV")
    7250                            .dwattr $C$DW$593, DW_AT_TI_symbol_name("IV")
    7251                            .dwattr $C$DW$593, DW_AT_data_member_location[DW_OP_plus_uconst 0x2e]
    7252                            .dwattr $C$DW$593, DW_AT_accessibility(DW_ACCESS_public)
    7253                            .dwattr $C$DW$593, DW_AT_decl_file("C:\ti\ccs1200\ccs\ccs_base\arm\include\msp432p401r.h")
    7254                            .dwattr $C$DW$593, DW_AT_decl_line(0x345)
    7255                            .dwattr $C$DW$593, DW_AT_decl_column(0x11)
    7256                    
    7257                            .dwattr $C$DW$T$125, DW_AT_decl_file("C:\ti\ccs1200\ccs\ccs_base\arm\include\msp432p401r.h")
    7258                            .dwattr $C$DW$T$125, DW_AT_decl_line(0x33a)
    7259                            .dwattr $C$DW$T$125, DW_AT_decl_column(0x10)
    7260                            .dwendtag $C$DW$T$125
TI ARM Assembler PC v20.2.6 Mon Oct 31 23:16:56 2022

Copyright (c) 1996-2018 Texas Instruments Incorporated
system_msp432p401r.asm                                               PAGE  133

    7261                    
    7262                    $C$DW$T$215     .dwtag  DW_TAG_typedef
    7263                            .dwattr $C$DW$T$215, DW_AT_name("EUSCI_B_SPI_Type")
    7264                            .dwattr $C$DW$T$215, DW_AT_type(*$C$DW$T$125)
    7265                            .dwattr $C$DW$T$215, DW_AT_language(DW_LANG_C)
    7266                            .dwattr $C$DW$T$215, DW_AT_decl_file("C:\ti\ccs1200\ccs\ccs_base\arm\include\msp432p401r.h")
    7267                            .dwattr $C$DW$T$215, DW_AT_decl_line(0x346)
    7268                            .dwattr $C$DW$T$215, DW_AT_decl_column(0x03)
    7269                    
    7270                    
    7271                    $C$DW$T$127     .dwtag  DW_TAG_structure_type
    7272                            .dwattr $C$DW$T$127, DW_AT_byte_size(0x60)
    7273                    $C$DW$594       .dwtag  DW_TAG_member
    7274                            .dwattr $C$DW$594, DW_AT_type(*$C$DW$T$23)
    7275                            .dwattr $C$DW$594, DW_AT_name("SEC_ZONE_SECEN")
    7276                            .dwattr $C$DW$594, DW_AT_TI_symbol_name("SEC_ZONE_SECEN")
    7277                            .dwattr $C$DW$594, DW_AT_data_member_location[DW_OP_plus_uconst 0x0]
    7278                            .dwattr $C$DW$594, DW_AT_accessibility(DW_ACCESS_public)
    7279                            .dwattr $C$DW$594, DW_AT_decl_file("C:\ti\ccs1200\ccs\ccs_base\arm\include\msp432p401r.h")
    7280                            .dwattr $C$DW$594, DW_AT_decl_line(0x399)
    7281                            .dwattr $C$DW$594, DW_AT_decl_column(0x11)
    7282                    
    7283                    $C$DW$595       .dwtag  DW_TAG_member
    7284                            .dwattr $C$DW$595, DW_AT_type(*$C$DW$T$23)
    7285                            .dwattr $C$DW$595, DW_AT_name("SEC_ZONE_START_ADDR")
    7286                            .dwattr $C$DW$595, DW_AT_TI_symbol_name("SEC_ZONE_START_ADDR")
    7287                            .dwattr $C$DW$595, DW_AT_data_member_location[DW_OP_plus_uconst 0x4]
    7288                            .dwattr $C$DW$595, DW_AT_accessibility(DW_ACCESS_public)
    7289                            .dwattr $C$DW$595, DW_AT_decl_file("C:\ti\ccs1200\ccs\ccs_base\arm\include\msp432p401r.h")
    7290                            .dwattr $C$DW$595, DW_AT_decl_line(0x39a)
    7291                            .dwattr $C$DW$595, DW_AT_decl_column(0x11)
    7292                    
    7293                    $C$DW$596       .dwtag  DW_TAG_member
    7294                            .dwattr $C$DW$596, DW_AT_type(*$C$DW$T$23)
    7295                            .dwattr $C$DW$596, DW_AT_name("SEC_ZONE_LENGTH")
    7296                            .dwattr $C$DW$596, DW_AT_TI_symbol_name("SEC_ZONE_LENGTH")
    7297                            .dwattr $C$DW$596, DW_AT_data_member_location[DW_OP_plus_uconst 0x8]
    7298                            .dwattr $C$DW$596, DW_AT_accessibility(DW_ACCESS_public)
    7299                            .dwattr $C$DW$596, DW_AT_decl_file("C:\ti\ccs1200\ccs\ccs_base\arm\include\msp432p401r.h")
    7300                            .dwattr $C$DW$596, DW_AT_decl_line(0x39b)
    7301                            .dwattr $C$DW$596, DW_AT_decl_column(0x11)
    7302                    
    7303                    $C$DW$597       .dwtag  DW_TAG_member
    7304                            .dwattr $C$DW$597, DW_AT_type(*$C$DW$T$126)
    7305                            .dwattr $C$DW$597, DW_AT_name("SEC_ZONE_AESINIT_VECT")
    7306                            .dwattr $C$DW$597, DW_AT_TI_symbol_name("SEC_ZONE_AESINIT_VECT")
    7307                            .dwattr $C$DW$597, DW_AT_data_member_location[DW_OP_plus_uconst 0xc]
    7308                            .dwattr $C$DW$597, DW_AT_accessibility(DW_ACCESS_public)
    7309                            .dwattr $C$DW$597, DW_AT_decl_file("C:\ti\ccs1200\ccs\ccs_base\arm\include\msp432p401r.h")
    7310                            .dwattr $C$DW$597, DW_AT_decl_line(0x39c)
    7311                            .dwattr $C$DW$597, DW_AT_decl_column(0x11)
    7312                    
    7313                    $C$DW$598       .dwtag  DW_TAG_member
    7314                            .dwattr $C$DW$598, DW_AT_type(*$C$DW$T$52)
    7315                            .dwattr $C$DW$598, DW_AT_name("SEC_ZONE_SECKEYS")
TI ARM Assembler PC v20.2.6 Mon Oct 31 23:16:56 2022

Copyright (c) 1996-2018 Texas Instruments Incorporated
system_msp432p401r.asm                                               PAGE  134

    7316                            .dwattr $C$DW$598, DW_AT_TI_symbol_name("SEC_ZONE_SECKEYS")
    7317                            .dwattr $C$DW$598, DW_AT_data_member_location[DW_OP_plus_uconst 0x1c]
    7318                            .dwattr $C$DW$598, DW_AT_accessibility(DW_ACCESS_public)
    7319                            .dwattr $C$DW$598, DW_AT_decl_file("C:\ti\ccs1200\ccs\ccs_base\arm\include\msp432p401r.h")
    7320                            .dwattr $C$DW$598, DW_AT_decl_line(0x39d)
    7321                            .dwattr $C$DW$598, DW_AT_decl_column(0x11)
    7322                    
    7323                    $C$DW$599       .dwtag  DW_TAG_member
    7324                            .dwattr $C$DW$599, DW_AT_type(*$C$DW$T$126)
    7325                            .dwattr $C$DW$599, DW_AT_name("SEC_ZONE_UNENC_PWD")
    7326                            .dwattr $C$DW$599, DW_AT_TI_symbol_name("SEC_ZONE_UNENC_PWD")
    7327                            .dwattr $C$DW$599, DW_AT_data_member_location[DW_OP_plus_uconst 0x3c]
    7328                            .dwattr $C$DW$599, DW_AT_accessibility(DW_ACCESS_public)
    7329                            .dwattr $C$DW$599, DW_AT_decl_file("C:\ti\ccs1200\ccs\ccs_base\arm\include\msp432p401r.h")
    7330                            .dwattr $C$DW$599, DW_AT_decl_line(0x39e)
    7331                            .dwattr $C$DW$599, DW_AT_decl_column(0x11)
    7332                    
    7333                    $C$DW$600       .dwtag  DW_TAG_member
    7334                            .dwattr $C$DW$600, DW_AT_type(*$C$DW$T$23)
    7335                            .dwattr $C$DW$600, DW_AT_name("SEC_ZONE_ENCUPDATE_EN")
    7336                            .dwattr $C$DW$600, DW_AT_TI_symbol_name("SEC_ZONE_ENCUPDATE_EN")
    7337                            .dwattr $C$DW$600, DW_AT_data_member_location[DW_OP_plus_uconst 0x4c]
    7338                            .dwattr $C$DW$600, DW_AT_accessibility(DW_ACCESS_public)
    7339                            .dwattr $C$DW$600, DW_AT_decl_file("C:\ti\ccs1200\ccs\ccs_base\arm\include\msp432p401r.h")
    7340                            .dwattr $C$DW$600, DW_AT_decl_line(0x39f)
    7341                            .dwattr $C$DW$600, DW_AT_decl_column(0x11)
    7342                    
    7343                    $C$DW$601       .dwtag  DW_TAG_member
    7344                            .dwattr $C$DW$601, DW_AT_type(*$C$DW$T$23)
    7345                            .dwattr $C$DW$601, DW_AT_name("SEC_ZONE_DATA_EN")
    7346                            .dwattr $C$DW$601, DW_AT_TI_symbol_name("SEC_ZONE_DATA_EN")
    7347                            .dwattr $C$DW$601, DW_AT_data_member_location[DW_OP_plus_uconst 0x50]
    7348                            .dwattr $C$DW$601, DW_AT_accessibility(DW_ACCESS_public)
    7349                            .dwattr $C$DW$601, DW_AT_decl_file("C:\ti\ccs1200\ccs\ccs_base\arm\include\msp432p401r.h")
    7350                            .dwattr $C$DW$601, DW_AT_decl_line(0x3a0)
    7351                            .dwattr $C$DW$601, DW_AT_decl_column(0x11)
    7352                    
    7353                    $C$DW$602       .dwtag  DW_TAG_member
    7354                            .dwattr $C$DW$602, DW_AT_type(*$C$DW$T$23)
    7355                            .dwattr $C$DW$602, DW_AT_name("SEC_ZONE_ACK")
    7356                            .dwattr $C$DW$602, DW_AT_TI_symbol_name("SEC_ZONE_ACK")
    7357                            .dwattr $C$DW$602, DW_AT_data_member_location[DW_OP_plus_uconst 0x54]
    7358                            .dwattr $C$DW$602, DW_AT_accessibility(DW_ACCESS_public)
    7359                            .dwattr $C$DW$602, DW_AT_decl_file("C:\ti\ccs1200\ccs\ccs_base\arm\include\msp432p401r.h")
    7360                            .dwattr $C$DW$602, DW_AT_decl_line(0x3a1)
    7361                            .dwattr $C$DW$602, DW_AT_decl_column(0x11)
    7362                    
    7363                    $C$DW$603       .dwtag  DW_TAG_member
    7364                            .dwattr $C$DW$603, DW_AT_type(*$C$DW$T$26)
    7365                            .dwattr $C$DW$603, DW_AT_name("RESERVED0")
    7366                            .dwattr $C$DW$603, DW_AT_TI_symbol_name("RESERVED0")
    7367                            .dwattr $C$DW$603, DW_AT_data_member_location[DW_OP_plus_uconst 0x58]
    7368                            .dwattr $C$DW$603, DW_AT_accessibility(DW_ACCESS_public)
    7369                            .dwattr $C$DW$603, DW_AT_decl_file("C:\ti\ccs1200\ccs\ccs_base\arm\include\msp432p401r.h")
    7370                            .dwattr $C$DW$603, DW_AT_decl_line(0x3a2)
TI ARM Assembler PC v20.2.6 Mon Oct 31 23:16:56 2022

Copyright (c) 1996-2018 Texas Instruments Incorporated
system_msp432p401r.asm                                               PAGE  135

    7371                            .dwattr $C$DW$603, DW_AT_decl_column(0x11)
    7372                    
    7373                            .dwattr $C$DW$T$127, DW_AT_decl_file("C:\ti\ccs1200\ccs\ccs_base\arm\include\msp432p401r.h")
    7374                            .dwattr $C$DW$T$127, DW_AT_decl_line(0x398)
    7375                            .dwattr $C$DW$T$127, DW_AT_decl_column(0x10)
    7376                            .dwendtag $C$DW$T$127
    7377                    
    7378                    $C$DW$T$129     .dwtag  DW_TAG_typedef
    7379                            .dwattr $C$DW$T$129, DW_AT_name("SEC_ZONE_PARAMS_Type")
    7380                            .dwattr $C$DW$T$129, DW_AT_type(*$C$DW$T$127)
    7381                            .dwattr $C$DW$T$129, DW_AT_language(DW_LANG_C)
    7382                            .dwattr $C$DW$T$129, DW_AT_decl_file("C:\ti\ccs1200\ccs\ccs_base\arm\include\msp432p401r.h")
    7383                            .dwattr $C$DW$T$129, DW_AT_decl_line(0x3a3)
    7384                            .dwattr $C$DW$T$129, DW_AT_decl_column(0x03)
    7385                    
    7386                    
    7387                    $C$DW$T$130     .dwtag  DW_TAG_array_type
    7388                            .dwattr $C$DW$T$130, DW_AT_type(*$C$DW$T$129)
    7389                            .dwattr $C$DW$T$130, DW_AT_language(DW_LANG_C)
    7390                            .dwattr $C$DW$T$130, DW_AT_byte_size(0x180)
    7391                    $C$DW$604       .dwtag  DW_TAG_subrange_type
    7392                            .dwattr $C$DW$604, DW_AT_upper_bound(0x03)
    7393                    
    7394                            .dwendtag $C$DW$T$130
    7395                    
    7396                    
    7397                    $C$DW$T$128     .dwtag  DW_TAG_structure_type
    7398                            .dwattr $C$DW$T$128, DW_AT_byte_size(0x10)
    7399                    $C$DW$605       .dwtag  DW_TAG_member
    7400                            .dwattr $C$DW$605, DW_AT_type(*$C$DW$T$23)
    7401                            .dwattr $C$DW$605, DW_AT_name("SEC_ZONE_PAYLOADADDR")
    7402                            .dwattr $C$DW$605, DW_AT_TI_symbol_name("SEC_ZONE_PAYLOADADDR")
    7403                            .dwattr $C$DW$605, DW_AT_data_member_location[DW_OP_plus_uconst 0x0]
    7404                            .dwattr $C$DW$605, DW_AT_accessibility(DW_ACCESS_public)
    7405                            .dwattr $C$DW$605, DW_AT_decl_file("C:\ti\ccs1200\ccs\ccs_base\arm\include\msp432p401r.h")
    7406                            .dwattr $C$DW$605, DW_AT_decl_line(0x3ab)
    7407                            .dwattr $C$DW$605, DW_AT_decl_column(0x11)
    7408                    
    7409                    $C$DW$606       .dwtag  DW_TAG_member
    7410                            .dwattr $C$DW$606, DW_AT_type(*$C$DW$T$23)
    7411                            .dwattr $C$DW$606, DW_AT_name("SEC_ZONE_PAYLOADLEN")
    7412                            .dwattr $C$DW$606, DW_AT_TI_symbol_name("SEC_ZONE_PAYLOADLEN")
    7413                            .dwattr $C$DW$606, DW_AT_data_member_location[DW_OP_plus_uconst 0x4]
    7414                            .dwattr $C$DW$606, DW_AT_accessibility(DW_ACCESS_public)
    7415                            .dwattr $C$DW$606, DW_AT_decl_file("C:\ti\ccs1200\ccs\ccs_base\arm\include\msp432p401r.h")
    7416                            .dwattr $C$DW$606, DW_AT_decl_line(0x3ac)
    7417                            .dwattr $C$DW$606, DW_AT_decl_column(0x11)
    7418                    
    7419                    $C$DW$607       .dwtag  DW_TAG_member
    7420                            .dwattr $C$DW$607, DW_AT_type(*$C$DW$T$23)
    7421                            .dwattr $C$DW$607, DW_AT_name("SEC_ZONE_UPDATE_ACK")
    7422                            .dwattr $C$DW$607, DW_AT_TI_symbol_name("SEC_ZONE_UPDATE_ACK")
    7423                            .dwattr $C$DW$607, DW_AT_data_member_location[DW_OP_plus_uconst 0x8]
    7424                            .dwattr $C$DW$607, DW_AT_accessibility(DW_ACCESS_public)
    7425                            .dwattr $C$DW$607, DW_AT_decl_file("C:\ti\ccs1200\ccs\ccs_base\arm\include\msp432p401r.h")
TI ARM Assembler PC v20.2.6 Mon Oct 31 23:16:56 2022

Copyright (c) 1996-2018 Texas Instruments Incorporated
system_msp432p401r.asm                                               PAGE  136

    7426                            .dwattr $C$DW$607, DW_AT_decl_line(0x3ad)
    7427                            .dwattr $C$DW$607, DW_AT_decl_column(0x11)
    7428                    
    7429                    $C$DW$608       .dwtag  DW_TAG_member
    7430                            .dwattr $C$DW$608, DW_AT_type(*$C$DW$T$22)
    7431                            .dwattr $C$DW$608, DW_AT_name("RESERVED0")
    7432                            .dwattr $C$DW$608, DW_AT_TI_symbol_name("RESERVED0")
    7433                            .dwattr $C$DW$608, DW_AT_data_member_location[DW_OP_plus_uconst 0xc]
    7434                            .dwattr $C$DW$608, DW_AT_accessibility(DW_ACCESS_public)
    7435                            .dwattr $C$DW$608, DW_AT_decl_file("C:\ti\ccs1200\ccs\ccs_base\arm\include\msp432p401r.h")
    7436                            .dwattr $C$DW$608, DW_AT_decl_line(0x3ae)
    7437                            .dwattr $C$DW$608, DW_AT_decl_column(0x11)
    7438                    
    7439                            .dwattr $C$DW$T$128, DW_AT_decl_file("C:\ti\ccs1200\ccs\ccs_base\arm\include\msp432p401r.h")
    7440                            .dwattr $C$DW$T$128, DW_AT_decl_line(0x3aa)
    7441                            .dwattr $C$DW$T$128, DW_AT_decl_column(0x10)
    7442                            .dwendtag $C$DW$T$128
    7443                    
    7444                    $C$DW$T$131     .dwtag  DW_TAG_typedef
    7445                            .dwattr $C$DW$T$131, DW_AT_name("SEC_ZONE_UPDATE_Type")
    7446                            .dwattr $C$DW$T$131, DW_AT_type(*$C$DW$T$128)
    7447                            .dwattr $C$DW$T$131, DW_AT_language(DW_LANG_C)
    7448                            .dwattr $C$DW$T$131, DW_AT_decl_file("C:\ti\ccs1200\ccs\ccs_base\arm\include\msp432p401r.h")
    7449                            .dwattr $C$DW$T$131, DW_AT_decl_line(0x3af)
    7450                            .dwattr $C$DW$T$131, DW_AT_decl_column(0x03)
    7451                    
    7452                    
    7453                    $C$DW$T$132     .dwtag  DW_TAG_array_type
    7454                            .dwattr $C$DW$T$132, DW_AT_type(*$C$DW$T$131)
    7455                            .dwattr $C$DW$T$132, DW_AT_language(DW_LANG_C)
    7456                            .dwattr $C$DW$T$132, DW_AT_byte_size(0x40)
    7457                    $C$DW$609       .dwtag  DW_TAG_subrange_type
    7458                            .dwattr $C$DW$609, DW_AT_upper_bound(0x03)
    7459                    
    7460                            .dwendtag $C$DW$T$132
    7461                    
    7462                    
    7463                    $C$DW$T$133     .dwtag  DW_TAG_structure_type
    7464                            .dwattr $C$DW$T$133, DW_AT_byte_size(0x290)
    7465                    $C$DW$610       .dwtag  DW_TAG_member
    7466                            .dwattr $C$DW$610, DW_AT_type(*$C$DW$T$23)
    7467                            .dwattr $C$DW$610, DW_AT_name("MB_START")
    7468                            .dwattr $C$DW$610, DW_AT_TI_symbol_name("MB_START")
    7469                            .dwattr $C$DW$610, DW_AT_data_member_location[DW_OP_plus_uconst 0x0]
    7470                            .dwattr $C$DW$610, DW_AT_accessibility(DW_ACCESS_public)
    7471                            .dwattr $C$DW$610, DW_AT_decl_file("C:\ti\ccs1200\ccs\ccs_base\arm\include\msp432p401r.h")
    7472                            .dwattr $C$DW$610, DW_AT_decl_line(0x3b7)
    7473                            .dwattr $C$DW$610, DW_AT_decl_column(0x11)
    7474                    
    7475                    $C$DW$611       .dwtag  DW_TAG_member
    7476                            .dwattr $C$DW$611, DW_AT_type(*$C$DW$T$23)
    7477                            .dwattr $C$DW$611, DW_AT_name("CMD")
    7478                            .dwattr $C$DW$611, DW_AT_TI_symbol_name("CMD")
    7479                            .dwattr $C$DW$611, DW_AT_data_member_location[DW_OP_plus_uconst 0x4]
    7480                            .dwattr $C$DW$611, DW_AT_accessibility(DW_ACCESS_public)
TI ARM Assembler PC v20.2.6 Mon Oct 31 23:16:56 2022

Copyright (c) 1996-2018 Texas Instruments Incorporated
system_msp432p401r.asm                                               PAGE  137

    7481                            .dwattr $C$DW$611, DW_AT_decl_file("C:\ti\ccs1200\ccs\ccs_base\arm\include\msp432p401r.h")
    7482                            .dwattr $C$DW$611, DW_AT_decl_line(0x3b8)
    7483                            .dwattr $C$DW$611, DW_AT_decl_column(0x11)
    7484                    
    7485                    $C$DW$612       .dwtag  DW_TAG_member
    7486                            .dwattr $C$DW$612, DW_AT_type(*$C$DW$T$26)
    7487                            .dwattr $C$DW$612, DW_AT_name("RESERVED0")
    7488                            .dwattr $C$DW$612, DW_AT_TI_symbol_name("RESERVED0")
    7489                            .dwattr $C$DW$612, DW_AT_data_member_location[DW_OP_plus_uconst 0x8]
    7490                            .dwattr $C$DW$612, DW_AT_accessibility(DW_ACCESS_public)
    7491                            .dwattr $C$DW$612, DW_AT_decl_file("C:\ti\ccs1200\ccs\ccs_base\arm\include\msp432p401r.h")
    7492                            .dwattr $C$DW$612, DW_AT_decl_line(0x3b9)
    7493                            .dwattr $C$DW$612, DW_AT_decl_column(0x11)
    7494                    
    7495                    $C$DW$613       .dwtag  DW_TAG_member
    7496                            .dwattr $C$DW$613, DW_AT_type(*$C$DW$T$23)
    7497                            .dwattr $C$DW$613, DW_AT_name("JTAG_SWD_LOCK_SECEN")
    7498                            .dwattr $C$DW$613, DW_AT_TI_symbol_name("JTAG_SWD_LOCK_SECEN")
    7499                            .dwattr $C$DW$613, DW_AT_data_member_location[DW_OP_plus_uconst 0x10]
    7500                            .dwattr $C$DW$613, DW_AT_accessibility(DW_ACCESS_public)
    7501                            .dwattr $C$DW$613, DW_AT_decl_file("C:\ti\ccs1200\ccs\ccs_base\arm\include\msp432p401r.h")
    7502                            .dwattr $C$DW$613, DW_AT_decl_line(0x3ba)
    7503                            .dwattr $C$DW$613, DW_AT_decl_column(0x11)
    7504                    
    7505                    $C$DW$614       .dwtag  DW_TAG_member
    7506                            .dwattr $C$DW$614, DW_AT_type(*$C$DW$T$126)
    7507                            .dwattr $C$DW$614, DW_AT_name("JTAG_SWD_LOCK_AES_INIT_VECT")
    7508                            .dwattr $C$DW$614, DW_AT_TI_symbol_name("JTAG_SWD_LOCK_AES_INIT_VECT")
    7509                            .dwattr $C$DW$614, DW_AT_data_member_location[DW_OP_plus_uconst 0x14]
    7510                            .dwattr $C$DW$614, DW_AT_accessibility(DW_ACCESS_public)
    7511                            .dwattr $C$DW$614, DW_AT_decl_file("C:\ti\ccs1200\ccs\ccs_base\arm\include\msp432p401r.h")
    7512                            .dwattr $C$DW$614, DW_AT_decl_line(0x3bb)
    7513                            .dwattr $C$DW$614, DW_AT_decl_column(0x11)
    7514                    
    7515                    $C$DW$615       .dwtag  DW_TAG_member
    7516                            .dwattr $C$DW$615, DW_AT_type(*$C$DW$T$52)
    7517                            .dwattr $C$DW$615, DW_AT_name("JTAG_SWD_LOCK_AES_SECKEYS")
    7518                            .dwattr $C$DW$615, DW_AT_TI_symbol_name("JTAG_SWD_LOCK_AES_SECKEYS")
    7519                            .dwattr $C$DW$615, DW_AT_data_member_location[DW_OP_plus_uconst 0x24]
    7520                            .dwattr $C$DW$615, DW_AT_accessibility(DW_ACCESS_public)
    7521                            .dwattr $C$DW$615, DW_AT_decl_file("C:\ti\ccs1200\ccs\ccs_base\arm\include\msp432p401r.h")
    7522                            .dwattr $C$DW$615, DW_AT_decl_line(0x3bc)
    7523                            .dwattr $C$DW$615, DW_AT_decl_column(0x11)
    7524                    
    7525                    $C$DW$616       .dwtag  DW_TAG_member
    7526                            .dwattr $C$DW$616, DW_AT_type(*$C$DW$T$126)
    7527                            .dwattr $C$DW$616, DW_AT_name("JTAG_SWD_LOCK_UNENC_PWD")
    7528                            .dwattr $C$DW$616, DW_AT_TI_symbol_name("JTAG_SWD_LOCK_UNENC_PWD")
    7529                            .dwattr $C$DW$616, DW_AT_data_member_location[DW_OP_plus_uconst 0x44]
    7530                            .dwattr $C$DW$616, DW_AT_accessibility(DW_ACCESS_public)
    7531                            .dwattr $C$DW$616, DW_AT_decl_file("C:\ti\ccs1200\ccs\ccs_base\arm\include\msp432p401r.h")
    7532                            .dwattr $C$DW$616, DW_AT_decl_line(0x3bd)
    7533                            .dwattr $C$DW$616, DW_AT_decl_column(0x11)
    7534                    
    7535                    $C$DW$617       .dwtag  DW_TAG_member
TI ARM Assembler PC v20.2.6 Mon Oct 31 23:16:56 2022

Copyright (c) 1996-2018 Texas Instruments Incorporated
system_msp432p401r.asm                                               PAGE  138

    7536                            .dwattr $C$DW$617, DW_AT_type(*$C$DW$T$23)
    7537                            .dwattr $C$DW$617, DW_AT_name("JTAG_SWD_LOCK_ACK")
    7538                            .dwattr $C$DW$617, DW_AT_TI_symbol_name("JTAG_SWD_LOCK_ACK")
    7539                            .dwattr $C$DW$617, DW_AT_data_member_location[DW_OP_plus_uconst 0x54]
    7540                            .dwattr $C$DW$617, DW_AT_accessibility(DW_ACCESS_public)
    7541                            .dwattr $C$DW$617, DW_AT_decl_file("C:\ti\ccs1200\ccs\ccs_base\arm\include\msp432p401r.h")
    7542                            .dwattr $C$DW$617, DW_AT_decl_line(0x3be)
    7543                            .dwattr $C$DW$617, DW_AT_decl_column(0x11)
    7544                    
    7545                    $C$DW$618       .dwtag  DW_TAG_member
    7546                            .dwattr $C$DW$618, DW_AT_type(*$C$DW$T$26)
    7547                            .dwattr $C$DW$618, DW_AT_name("RESERVED1")
    7548                            .dwattr $C$DW$618, DW_AT_TI_symbol_name("RESERVED1")
    7549                            .dwattr $C$DW$618, DW_AT_data_member_location[DW_OP_plus_uconst 0x58]
    7550                            .dwattr $C$DW$618, DW_AT_accessibility(DW_ACCESS_public)
    7551                            .dwattr $C$DW$618, DW_AT_decl_file("C:\ti\ccs1200\ccs\ccs_base\arm\include\msp432p401r.h")
    7552                            .dwattr $C$DW$618, DW_AT_decl_line(0x3bf)
    7553                            .dwattr $C$DW$618, DW_AT_decl_column(0x11)
    7554                    
    7555                    $C$DW$619       .dwtag  DW_TAG_member
    7556                            .dwattr $C$DW$619, DW_AT_type(*$C$DW$T$130)
    7557                            .dwattr $C$DW$619, DW_AT_name("SEC_ZONE_PARAMS")
    7558                            .dwattr $C$DW$619, DW_AT_TI_symbol_name("SEC_ZONE_PARAMS")
    7559                            .dwattr $C$DW$619, DW_AT_data_member_location[DW_OP_plus_uconst 0x60]
    7560                            .dwattr $C$DW$619, DW_AT_accessibility(DW_ACCESS_public)
    7561                            .dwattr $C$DW$619, DW_AT_decl_file("C:\ti\ccs1200\ccs\ccs_base\arm\include\msp432p401r.h")
    7562                            .dwattr $C$DW$619, DW_AT_decl_line(0x3c0)
    7563                            .dwattr $C$DW$619, DW_AT_decl_column(0x18)
    7564                    
    7565                    $C$DW$620       .dwtag  DW_TAG_member
    7566                            .dwattr $C$DW$620, DW_AT_type(*$C$DW$T$23)
    7567                            .dwattr $C$DW$620, DW_AT_name("BSL_ENABLE")
    7568                            .dwattr $C$DW$620, DW_AT_TI_symbol_name("BSL_ENABLE")
    7569                            .dwattr $C$DW$620, DW_AT_data_member_location[DW_OP_plus_uconst 0x1e0]
    7570                            .dwattr $C$DW$620, DW_AT_accessibility(DW_ACCESS_public)
    7571                            .dwattr $C$DW$620, DW_AT_decl_file("C:\ti\ccs1200\ccs\ccs_base\arm\include\msp432p401r.h")
    7572                            .dwattr $C$DW$620, DW_AT_decl_line(0x3c1)
    7573                            .dwattr $C$DW$620, DW_AT_decl_column(0x11)
    7574                    
    7575                    $C$DW$621       .dwtag  DW_TAG_member
    7576                            .dwattr $C$DW$621, DW_AT_type(*$C$DW$T$23)
    7577                            .dwattr $C$DW$621, DW_AT_name("BSL_START_ADDRESS")
    7578                            .dwattr $C$DW$621, DW_AT_TI_symbol_name("BSL_START_ADDRESS")
    7579                            .dwattr $C$DW$621, DW_AT_data_member_location[DW_OP_plus_uconst 0x1e4]
    7580                            .dwattr $C$DW$621, DW_AT_accessibility(DW_ACCESS_public)
    7581                            .dwattr $C$DW$621, DW_AT_decl_file("C:\ti\ccs1200\ccs\ccs_base\arm\include\msp432p401r.h")
    7582                            .dwattr $C$DW$621, DW_AT_decl_line(0x3c2)
    7583                            .dwattr $C$DW$621, DW_AT_decl_column(0x11)
    7584                    
    7585                    $C$DW$622       .dwtag  DW_TAG_member
    7586                            .dwattr $C$DW$622, DW_AT_type(*$C$DW$T$23)
    7587                            .dwattr $C$DW$622, DW_AT_name("BSL_PARAMETERS")
    7588                            .dwattr $C$DW$622, DW_AT_TI_symbol_name("BSL_PARAMETERS")
    7589                            .dwattr $C$DW$622, DW_AT_data_member_location[DW_OP_plus_uconst 0x1e8]
    7590                            .dwattr $C$DW$622, DW_AT_accessibility(DW_ACCESS_public)
TI ARM Assembler PC v20.2.6 Mon Oct 31 23:16:56 2022

Copyright (c) 1996-2018 Texas Instruments Incorporated
system_msp432p401r.asm                                               PAGE  139

    7591                            .dwattr $C$DW$622, DW_AT_decl_file("C:\ti\ccs1200\ccs\ccs_base\arm\include\msp432p401r.h")
    7592                            .dwattr $C$DW$622, DW_AT_decl_line(0x3c3)
    7593                            .dwattr $C$DW$622, DW_AT_decl_column(0x11)
    7594                    
    7595                    $C$DW$623       .dwtag  DW_TAG_member
    7596                            .dwattr $C$DW$623, DW_AT_type(*$C$DW$T$26)
    7597                            .dwattr $C$DW$623, DW_AT_name("RESERVED2")
    7598                            .dwattr $C$DW$623, DW_AT_TI_symbol_name("RESERVED2")
    7599                            .dwattr $C$DW$623, DW_AT_data_member_location[DW_OP_plus_uconst 0x1ec]
    7600                            .dwattr $C$DW$623, DW_AT_accessibility(DW_ACCESS_public)
    7601                            .dwattr $C$DW$623, DW_AT_decl_file("C:\ti\ccs1200\ccs\ccs_base\arm\include\msp432p401r.h")
    7602                            .dwattr $C$DW$623, DW_AT_decl_line(0x3c4)
    7603                            .dwattr $C$DW$623, DW_AT_decl_column(0x11)
    7604                    
    7605                    $C$DW$624       .dwtag  DW_TAG_member
    7606                            .dwattr $C$DW$624, DW_AT_type(*$C$DW$T$23)
    7607                            .dwattr $C$DW$624, DW_AT_name("BSL_ACK")
    7608                            .dwattr $C$DW$624, DW_AT_TI_symbol_name("BSL_ACK")
    7609                            .dwattr $C$DW$624, DW_AT_data_member_location[DW_OP_plus_uconst 0x1f4]
    7610                            .dwattr $C$DW$624, DW_AT_accessibility(DW_ACCESS_public)
    7611                            .dwattr $C$DW$624, DW_AT_decl_file("C:\ti\ccs1200\ccs\ccs_base\arm\include\msp432p401r.h")
    7612                            .dwattr $C$DW$624, DW_AT_decl_line(0x3c5)
    7613                            .dwattr $C$DW$624, DW_AT_decl_column(0x11)
    7614                    
    7615                    $C$DW$625       .dwtag  DW_TAG_member
    7616                            .dwattr $C$DW$625, DW_AT_type(*$C$DW$T$23)
    7617                            .dwattr $C$DW$625, DW_AT_name("JTAG_SWD_LOCK_ENCPAYLOADADD")
    7618                            .dwattr $C$DW$625, DW_AT_TI_symbol_name("JTAG_SWD_LOCK_ENCPAYLOADADD")
    7619                            .dwattr $C$DW$625, DW_AT_data_member_location[DW_OP_plus_uconst 0x1f8]
    7620                            .dwattr $C$DW$625, DW_AT_accessibility(DW_ACCESS_public)
    7621                            .dwattr $C$DW$625, DW_AT_decl_file("C:\ti\ccs1200\ccs\ccs_base\arm\include\msp432p401r.h")
    7622                            .dwattr $C$DW$625, DW_AT_decl_line(0x3c6)
    7623                            .dwattr $C$DW$625, DW_AT_decl_column(0x11)
    7624                    
    7625                    $C$DW$626       .dwtag  DW_TAG_member
    7626                            .dwattr $C$DW$626, DW_AT_type(*$C$DW$T$23)
    7627                            .dwattr $C$DW$626, DW_AT_name("JTAG_SWD_LOCK_ENCPAYLOADLEN")
    7628                            .dwattr $C$DW$626, DW_AT_TI_symbol_name("JTAG_SWD_LOCK_ENCPAYLOADLEN")
    7629                            .dwattr $C$DW$626, DW_AT_data_member_location[DW_OP_plus_uconst 0x1fc]
    7630                            .dwattr $C$DW$626, DW_AT_accessibility(DW_ACCESS_public)
    7631                            .dwattr $C$DW$626, DW_AT_decl_file("C:\ti\ccs1200\ccs\ccs_base\arm\include\msp432p401r.h")
    7632                            .dwattr $C$DW$626, DW_AT_decl_line(0x3c7)
    7633                            .dwattr $C$DW$626, DW_AT_decl_column(0x11)
    7634                    
    7635                    $C$DW$627       .dwtag  DW_TAG_member
    7636                            .dwattr $C$DW$627, DW_AT_type(*$C$DW$T$23)
    7637                            .dwattr $C$DW$627, DW_AT_name("JTAG_SWD_LOCK_DST_ADDR")
    7638                            .dwattr $C$DW$627, DW_AT_TI_symbol_name("JTAG_SWD_LOCK_DST_ADDR")
    7639                            .dwattr $C$DW$627, DW_AT_data_member_location[DW_OP_plus_uconst 0x200]
    7640                            .dwattr $C$DW$627, DW_AT_accessibility(DW_ACCESS_public)
    7641                            .dwattr $C$DW$627, DW_AT_decl_file("C:\ti\ccs1200\ccs\ccs_base\arm\include\msp432p401r.h")
    7642                            .dwattr $C$DW$627, DW_AT_decl_line(0x3c8)
    7643                            .dwattr $C$DW$627, DW_AT_decl_column(0x11)
    7644                    
    7645                    $C$DW$628       .dwtag  DW_TAG_member
TI ARM Assembler PC v20.2.6 Mon Oct 31 23:16:56 2022

Copyright (c) 1996-2018 Texas Instruments Incorporated
system_msp432p401r.asm                                               PAGE  140

    7646                            .dwattr $C$DW$628, DW_AT_type(*$C$DW$T$23)
    7647                            .dwattr $C$DW$628, DW_AT_name("ENC_UPDATE_ACK")
    7648                            .dwattr $C$DW$628, DW_AT_TI_symbol_name("ENC_UPDATE_ACK")
    7649                            .dwattr $C$DW$628, DW_AT_data_member_location[DW_OP_plus_uconst 0x204]
    7650                            .dwattr $C$DW$628, DW_AT_accessibility(DW_ACCESS_public)
    7651                            .dwattr $C$DW$628, DW_AT_decl_file("C:\ti\ccs1200\ccs\ccs_base\arm\include\msp432p401r.h")
    7652                            .dwattr $C$DW$628, DW_AT_decl_line(0x3c9)
    7653                            .dwattr $C$DW$628, DW_AT_decl_column(0x11)
    7654                    
    7655                    $C$DW$629       .dwtag  DW_TAG_member
    7656                            .dwattr $C$DW$629, DW_AT_type(*$C$DW$T$22)
    7657                            .dwattr $C$DW$629, DW_AT_name("RESERVED3")
    7658                            .dwattr $C$DW$629, DW_AT_TI_symbol_name("RESERVED3")
    7659                            .dwattr $C$DW$629, DW_AT_data_member_location[DW_OP_plus_uconst 0x208]
    7660                            .dwattr $C$DW$629, DW_AT_accessibility(DW_ACCESS_public)
    7661                            .dwattr $C$DW$629, DW_AT_decl_file("C:\ti\ccs1200\ccs\ccs_base\arm\include\msp432p401r.h")
    7662                            .dwattr $C$DW$629, DW_AT_decl_line(0x3ca)
    7663                            .dwattr $C$DW$629, DW_AT_decl_column(0x11)
    7664                    
    7665                    $C$DW$630       .dwtag  DW_TAG_member
    7666                            .dwattr $C$DW$630, DW_AT_type(*$C$DW$T$132)
    7667                            .dwattr $C$DW$630, DW_AT_name("SEC_ZONE_UPDATE")
    7668                            .dwattr $C$DW$630, DW_AT_TI_symbol_name("SEC_ZONE_UPDATE")
    7669                            .dwattr $C$DW$630, DW_AT_data_member_location[DW_OP_plus_uconst 0x20c]
    7670                            .dwattr $C$DW$630, DW_AT_accessibility(DW_ACCESS_public)
    7671                            .dwattr $C$DW$630, DW_AT_decl_file("C:\ti\ccs1200\ccs\ccs_base\arm\include\msp432p401r.h")
    7672                            .dwattr $C$DW$630, DW_AT_decl_line(0x3cb)
    7673                            .dwattr $C$DW$630, DW_AT_decl_column(0x18)
    7674                    
    7675                    $C$DW$631       .dwtag  DW_TAG_member
    7676                            .dwattr $C$DW$631, DW_AT_type(*$C$DW$T$22)
    7677                            .dwattr $C$DW$631, DW_AT_name("RESERVED4")
    7678                            .dwattr $C$DW$631, DW_AT_TI_symbol_name("RESERVED4")
    7679                            .dwattr $C$DW$631, DW_AT_data_member_location[DW_OP_plus_uconst 0x24c]
    7680                            .dwattr $C$DW$631, DW_AT_accessibility(DW_ACCESS_public)
    7681                            .dwattr $C$DW$631, DW_AT_decl_file("C:\ti\ccs1200\ccs\ccs_base\arm\include\msp432p401r.h")
    7682                            .dwattr $C$DW$631, DW_AT_decl_line(0x3cc)
    7683                            .dwattr $C$DW$631, DW_AT_decl_column(0x11)
    7684                    
    7685                    $C$DW$632       .dwtag  DW_TAG_member
    7686                            .dwattr $C$DW$632, DW_AT_type(*$C$DW$T$23)
    7687                            .dwattr $C$DW$632, DW_AT_name("FACTORY_RESET_ENABLE")
    7688                            .dwattr $C$DW$632, DW_AT_TI_symbol_name("FACTORY_RESET_ENABLE")
    7689                            .dwattr $C$DW$632, DW_AT_data_member_location[DW_OP_plus_uconst 0x250]
    7690                            .dwattr $C$DW$632, DW_AT_accessibility(DW_ACCESS_public)
    7691                            .dwattr $C$DW$632, DW_AT_decl_file("C:\ti\ccs1200\ccs\ccs_base\arm\include\msp432p401r.h")
    7692                            .dwattr $C$DW$632, DW_AT_decl_line(0x3cd)
    7693                            .dwattr $C$DW$632, DW_AT_decl_column(0x11)
    7694                    
    7695                    $C$DW$633       .dwtag  DW_TAG_member
    7696                            .dwattr $C$DW$633, DW_AT_type(*$C$DW$T$23)
    7697                            .dwattr $C$DW$633, DW_AT_name("FACTORY_RESET_PWDEN")
    7698                            .dwattr $C$DW$633, DW_AT_TI_symbol_name("FACTORY_RESET_PWDEN")
    7699                            .dwattr $C$DW$633, DW_AT_data_member_location[DW_OP_plus_uconst 0x254]
    7700                            .dwattr $C$DW$633, DW_AT_accessibility(DW_ACCESS_public)
TI ARM Assembler PC v20.2.6 Mon Oct 31 23:16:56 2022

Copyright (c) 1996-2018 Texas Instruments Incorporated
system_msp432p401r.asm                                               PAGE  141

    7701                            .dwattr $C$DW$633, DW_AT_decl_file("C:\ti\ccs1200\ccs\ccs_base\arm\include\msp432p401r.h")
    7702                            .dwattr $C$DW$633, DW_AT_decl_line(0x3ce)
    7703                            .dwattr $C$DW$633, DW_AT_decl_column(0x11)
    7704                    
    7705                    $C$DW$634       .dwtag  DW_TAG_member
    7706                            .dwattr $C$DW$634, DW_AT_type(*$C$DW$T$126)
    7707                            .dwattr $C$DW$634, DW_AT_name("FACTORY_RESET_PWD")
    7708                            .dwattr $C$DW$634, DW_AT_TI_symbol_name("FACTORY_RESET_PWD")
    7709                            .dwattr $C$DW$634, DW_AT_data_member_location[DW_OP_plus_uconst 0x258]
    7710                            .dwattr $C$DW$634, DW_AT_accessibility(DW_ACCESS_public)
    7711                            .dwattr $C$DW$634, DW_AT_decl_file("C:\ti\ccs1200\ccs\ccs_base\arm\include\msp432p401r.h")
    7712                            .dwattr $C$DW$634, DW_AT_decl_line(0x3cf)
    7713                            .dwattr $C$DW$634, DW_AT_decl_column(0x11)
    7714                    
    7715                    $C$DW$635       .dwtag  DW_TAG_member
    7716                            .dwattr $C$DW$635, DW_AT_type(*$C$DW$T$23)
    7717                            .dwattr $C$DW$635, DW_AT_name("FACTORY_RESET_PARAMS_ACK")
    7718                            .dwattr $C$DW$635, DW_AT_TI_symbol_name("FACTORY_RESET_PARAMS_ACK")
    7719                            .dwattr $C$DW$635, DW_AT_data_member_location[DW_OP_plus_uconst 0x268]
    7720                            .dwattr $C$DW$635, DW_AT_accessibility(DW_ACCESS_public)
    7721                            .dwattr $C$DW$635, DW_AT_decl_file("C:\ti\ccs1200\ccs\ccs_base\arm\include\msp432p401r.h")
    7722                            .dwattr $C$DW$635, DW_AT_decl_line(0x3d0)
    7723                            .dwattr $C$DW$635, DW_AT_decl_column(0x11)
    7724                    
    7725                    $C$DW$636       .dwtag  DW_TAG_member
    7726                            .dwattr $C$DW$636, DW_AT_type(*$C$DW$T$22)
    7727                            .dwattr $C$DW$636, DW_AT_name("RESERVED5")
    7728                            .dwattr $C$DW$636, DW_AT_TI_symbol_name("RESERVED5")
    7729                            .dwattr $C$DW$636, DW_AT_data_member_location[DW_OP_plus_uconst 0x26c]
    7730                            .dwattr $C$DW$636, DW_AT_accessibility(DW_ACCESS_public)
    7731                            .dwattr $C$DW$636, DW_AT_decl_file("C:\ti\ccs1200\ccs\ccs_base\arm\include\msp432p401r.h")
    7732                            .dwattr $C$DW$636, DW_AT_decl_line(0x3d1)
    7733                            .dwattr $C$DW$636, DW_AT_decl_column(0x11)
    7734                    
    7735                    $C$DW$637       .dwtag  DW_TAG_member
    7736                            .dwattr $C$DW$637, DW_AT_type(*$C$DW$T$126)
    7737                            .dwattr $C$DW$637, DW_AT_name("FACTORY_RESET_PASSWORD")
    7738                            .dwattr $C$DW$637, DW_AT_TI_symbol_name("FACTORY_RESET_PASSWORD")
    7739                            .dwattr $C$DW$637, DW_AT_data_member_location[DW_OP_plus_uconst 0x270]
    7740                            .dwattr $C$DW$637, DW_AT_accessibility(DW_ACCESS_public)
    7741                            .dwattr $C$DW$637, DW_AT_decl_file("C:\ti\ccs1200\ccs\ccs_base\arm\include\msp432p401r.h")
    7742                            .dwattr $C$DW$637, DW_AT_decl_line(0x3d2)
    7743                            .dwattr $C$DW$637, DW_AT_decl_column(0x11)
    7744                    
    7745                    $C$DW$638       .dwtag  DW_TAG_member
    7746                            .dwattr $C$DW$638, DW_AT_type(*$C$DW$T$23)
    7747                            .dwattr $C$DW$638, DW_AT_name("FACTORY_RESET_ACK")
    7748                            .dwattr $C$DW$638, DW_AT_TI_symbol_name("FACTORY_RESET_ACK")
    7749                            .dwattr $C$DW$638, DW_AT_data_member_location[DW_OP_plus_uconst 0x280]
    7750                            .dwattr $C$DW$638, DW_AT_accessibility(DW_ACCESS_public)
    7751                            .dwattr $C$DW$638, DW_AT_decl_file("C:\ti\ccs1200\ccs\ccs_base\arm\include\msp432p401r.h")
    7752                            .dwattr $C$DW$638, DW_AT_decl_line(0x3d3)
    7753                            .dwattr $C$DW$638, DW_AT_decl_column(0x11)
    7754                    
    7755                    $C$DW$639       .dwtag  DW_TAG_member
TI ARM Assembler PC v20.2.6 Mon Oct 31 23:16:56 2022

Copyright (c) 1996-2018 Texas Instruments Incorporated
system_msp432p401r.asm                                               PAGE  142

    7756                            .dwattr $C$DW$639, DW_AT_type(*$C$DW$T$26)
    7757                            .dwattr $C$DW$639, DW_AT_name("RESERVED6")
    7758                            .dwattr $C$DW$639, DW_AT_TI_symbol_name("RESERVED6")
    7759                            .dwattr $C$DW$639, DW_AT_data_member_location[DW_OP_plus_uconst 0x284]
    7760                            .dwattr $C$DW$639, DW_AT_accessibility(DW_ACCESS_public)
    7761                            .dwattr $C$DW$639, DW_AT_decl_file("C:\ti\ccs1200\ccs\ccs_base\arm\include\msp432p401r.h")
    7762                            .dwattr $C$DW$639, DW_AT_decl_line(0x3d4)
    7763                            .dwattr $C$DW$639, DW_AT_decl_column(0x11)
    7764                    
    7765                    $C$DW$640       .dwtag  DW_TAG_member
    7766                            .dwattr $C$DW$640, DW_AT_type(*$C$DW$T$23)
    7767                            .dwattr $C$DW$640, DW_AT_name("MB_END")
    7768                            .dwattr $C$DW$640, DW_AT_TI_symbol_name("MB_END")
    7769                            .dwattr $C$DW$640, DW_AT_data_member_location[DW_OP_plus_uconst 0x28c]
    7770                            .dwattr $C$DW$640, DW_AT_accessibility(DW_ACCESS_public)
    7771                            .dwattr $C$DW$640, DW_AT_decl_file("C:\ti\ccs1200\ccs\ccs_base\arm\include\msp432p401r.h")
    7772                            .dwattr $C$DW$640, DW_AT_decl_line(0x3d5)
    7773                            .dwattr $C$DW$640, DW_AT_decl_column(0x11)
    7774                    
    7775                            .dwattr $C$DW$T$133, DW_AT_decl_file("C:\ti\ccs1200\ccs\ccs_base\arm\include\msp432p401r.h")
    7776                            .dwattr $C$DW$T$133, DW_AT_decl_line(0x3b6)
    7777                            .dwattr $C$DW$T$133, DW_AT_decl_column(0x10)
    7778                            .dwendtag $C$DW$T$133
    7779                    
    7780                    $C$DW$T$216     .dwtag  DW_TAG_typedef
    7781                            .dwattr $C$DW$T$216, DW_AT_name("FL_BOOTOVER_MAILBOX_Type")
    7782                            .dwattr $C$DW$T$216, DW_AT_type(*$C$DW$T$133)
    7783                            .dwattr $C$DW$T$216, DW_AT_language(DW_LANG_C)
    7784                            .dwattr $C$DW$T$216, DW_AT_decl_file("C:\ti\ccs1200\ccs\ccs_base\arm\include\msp432p401r.h")
    7785                            .dwattr $C$DW$T$216, DW_AT_decl_line(0x3d6)
    7786                            .dwattr $C$DW$T$216, DW_AT_decl_column(0x03)
    7787                    
    7788                    
    7789                    $C$DW$T$134     .dwtag  DW_TAG_structure_type
    7790                            .dwattr $C$DW$T$134, DW_AT_byte_size(0x14)
    7791                    $C$DW$641       .dwtag  DW_TAG_member
    7792                            .dwattr $C$DW$641, DW_AT_type(*$C$DW$T$23)
    7793                            .dwattr $C$DW$641, DW_AT_name("CTL0")
    7794                            .dwattr $C$DW$641, DW_AT_TI_symbol_name("CTL0")
    7795                            .dwattr $C$DW$641, DW_AT_data_member_location[DW_OP_plus_uconst 0x0]
    7796                            .dwattr $C$DW$641, DW_AT_accessibility(DW_ACCESS_public)
    7797                            .dwattr $C$DW$641, DW_AT_decl_file("C:\ti\ccs1200\ccs\ccs_base\arm\include\msp432p401r.h")
    7798                            .dwattr $C$DW$641, DW_AT_decl_line(0x3e2)
    7799                            .dwattr $C$DW$641, DW_AT_decl_column(0x11)
    7800                    
    7801                    $C$DW$642       .dwtag  DW_TAG_member
    7802                            .dwattr $C$DW$642, DW_AT_type(*$C$DW$T$23)
    7803                            .dwattr $C$DW$642, DW_AT_name("CTL1")
    7804                            .dwattr $C$DW$642, DW_AT_TI_symbol_name("CTL1")
    7805                            .dwattr $C$DW$642, DW_AT_data_member_location[DW_OP_plus_uconst 0x4]
    7806                            .dwattr $C$DW$642, DW_AT_accessibility(DW_ACCESS_public)
    7807                            .dwattr $C$DW$642, DW_AT_decl_file("C:\ti\ccs1200\ccs\ccs_base\arm\include\msp432p401r.h")
    7808                            .dwattr $C$DW$642, DW_AT_decl_line(0x3e3)
    7809                            .dwattr $C$DW$642, DW_AT_decl_column(0x11)
    7810                    
TI ARM Assembler PC v20.2.6 Mon Oct 31 23:16:56 2022

Copyright (c) 1996-2018 Texas Instruments Incorporated
system_msp432p401r.asm                                               PAGE  143

    7811                    $C$DW$643       .dwtag  DW_TAG_member
    7812                            .dwattr $C$DW$643, DW_AT_type(*$C$DW$T$23)
    7813                            .dwattr $C$DW$643, DW_AT_name("IE")
    7814                            .dwattr $C$DW$643, DW_AT_TI_symbol_name("IE")
    7815                            .dwattr $C$DW$643, DW_AT_data_member_location[DW_OP_plus_uconst 0x8]
    7816                            .dwattr $C$DW$643, DW_AT_accessibility(DW_ACCESS_public)
    7817                            .dwattr $C$DW$643, DW_AT_decl_file("C:\ti\ccs1200\ccs\ccs_base\arm\include\msp432p401r.h")
    7818                            .dwattr $C$DW$643, DW_AT_decl_line(0x3e4)
    7819                            .dwattr $C$DW$643, DW_AT_decl_column(0x11)
    7820                    
    7821                    $C$DW$644       .dwtag  DW_TAG_member
    7822                            .dwattr $C$DW$644, DW_AT_type(*$C$DW$T$25)
    7823                            .dwattr $C$DW$644, DW_AT_name("IFG")
    7824                            .dwattr $C$DW$644, DW_AT_TI_symbol_name("IFG")
    7825                            .dwattr $C$DW$644, DW_AT_data_member_location[DW_OP_plus_uconst 0xc]
    7826                            .dwattr $C$DW$644, DW_AT_accessibility(DW_ACCESS_public)
    7827                            .dwattr $C$DW$644, DW_AT_decl_file("C:\ti\ccs1200\ccs\ccs_base\arm\include\msp432p401r.h")
    7828                            .dwattr $C$DW$644, DW_AT_decl_line(0x3e5)
    7829                            .dwattr $C$DW$644, DW_AT_decl_column(0x11)
    7830                    
    7831                    $C$DW$645       .dwtag  DW_TAG_member
    7832                            .dwattr $C$DW$645, DW_AT_type(*$C$DW$T$23)
    7833                            .dwattr $C$DW$645, DW_AT_name("CLRIFG")
    7834                            .dwattr $C$DW$645, DW_AT_TI_symbol_name("CLRIFG")
    7835                            .dwattr $C$DW$645, DW_AT_data_member_location[DW_OP_plus_uconst 0x10]
    7836                            .dwattr $C$DW$645, DW_AT_accessibility(DW_ACCESS_public)
    7837                            .dwattr $C$DW$645, DW_AT_decl_file("C:\ti\ccs1200\ccs\ccs_base\arm\include\msp432p401r.h")
    7838                            .dwattr $C$DW$645, DW_AT_decl_line(0x3e6)
    7839                            .dwattr $C$DW$645, DW_AT_decl_column(0x11)
    7840                    
    7841                            .dwattr $C$DW$T$134, DW_AT_decl_file("C:\ti\ccs1200\ccs\ccs_base\arm\include\msp432p401r.h")
    7842                            .dwattr $C$DW$T$134, DW_AT_decl_line(0x3e1)
    7843                            .dwattr $C$DW$T$134, DW_AT_decl_column(0x10)
    7844                            .dwendtag $C$DW$T$134
    7845                    
    7846                    $C$DW$T$217     .dwtag  DW_TAG_typedef
    7847                            .dwattr $C$DW$T$217, DW_AT_name("PCM_Type")
    7848                            .dwattr $C$DW$T$217, DW_AT_type(*$C$DW$T$134)
    7849                            .dwattr $C$DW$T$217, DW_AT_language(DW_LANG_C)
    7850                            .dwattr $C$DW$T$217, DW_AT_decl_file("C:\ti\ccs1200\ccs\ccs_base\arm\include\msp432p401r.h")
    7851                            .dwattr $C$DW$T$217, DW_AT_decl_line(0x3e7)
    7852                            .dwattr $C$DW$T$217, DW_AT_decl_column(0x03)
    7853                    
    7854                    
    7855                    $C$DW$T$135     .dwtag  DW_TAG_structure_type
    7856                            .dwattr $C$DW$T$135, DW_AT_byte_size(0x04)
    7857                    $C$DW$646       .dwtag  DW_TAG_member
    7858                            .dwattr $C$DW$646, DW_AT_type(*$C$DW$T$41)
    7859                            .dwattr $C$DW$646, DW_AT_name("KEYID")
    7860                            .dwattr $C$DW$646, DW_AT_TI_symbol_name("KEYID")
    7861                            .dwattr $C$DW$646, DW_AT_data_member_location[DW_OP_plus_uconst 0x0]
    7862                            .dwattr $C$DW$646, DW_AT_accessibility(DW_ACCESS_public)
    7863                            .dwattr $C$DW$646, DW_AT_decl_file("C:\ti\ccs1200\ccs\ccs_base\arm\include\msp432p401r.h")
    7864                            .dwattr $C$DW$646, DW_AT_decl_line(0x3f3)
    7865                            .dwattr $C$DW$646, DW_AT_decl_column(0x11)
TI ARM Assembler PC v20.2.6 Mon Oct 31 23:16:56 2022

Copyright (c) 1996-2018 Texas Instruments Incorporated
system_msp432p401r.asm                                               PAGE  144

    7866                    
    7867                    $C$DW$647       .dwtag  DW_TAG_member
    7868                            .dwattr $C$DW$647, DW_AT_type(*$C$DW$T$41)
    7869                            .dwattr $C$DW$647, DW_AT_name("CTL")
    7870                            .dwattr $C$DW$647, DW_AT_TI_symbol_name("CTL")
    7871                            .dwattr $C$DW$647, DW_AT_data_member_location[DW_OP_plus_uconst 0x2]
    7872                            .dwattr $C$DW$647, DW_AT_accessibility(DW_ACCESS_public)
    7873                            .dwattr $C$DW$647, DW_AT_decl_file("C:\ti\ccs1200\ccs\ccs_base\arm\include\msp432p401r.h")
    7874                            .dwattr $C$DW$647, DW_AT_decl_line(0x3f4)
    7875                            .dwattr $C$DW$647, DW_AT_decl_column(0x11)
    7876                    
    7877                            .dwattr $C$DW$T$135, DW_AT_decl_file("C:\ti\ccs1200\ccs\ccs_base\arm\include\msp432p401r.h")
    7878                            .dwattr $C$DW$T$135, DW_AT_decl_line(0x3f2)
    7879                            .dwattr $C$DW$T$135, DW_AT_decl_column(0x10)
    7880                            .dwendtag $C$DW$T$135
    7881                    
    7882                    $C$DW$T$218     .dwtag  DW_TAG_typedef
    7883                            .dwattr $C$DW$T$218, DW_AT_name("PMAP_COMMON_Type")
    7884                            .dwattr $C$DW$T$218, DW_AT_type(*$C$DW$T$135)
    7885                            .dwattr $C$DW$T$218, DW_AT_language(DW_LANG_C)
    7886                            .dwattr $C$DW$T$218, DW_AT_decl_file("C:\ti\ccs1200\ccs\ccs_base\arm\include\msp432p401r.h")
    7887                            .dwattr $C$DW$T$218, DW_AT_decl_line(0x3f5)
    7888                            .dwattr $C$DW$T$218, DW_AT_decl_column(0x03)
    7889                    
    7890                    
    7891                    $C$DW$T$136     .dwtag  DW_TAG_structure_type
    7892                            .dwattr $C$DW$T$136, DW_AT_byte_size(0x08)
    7893                    $C$DW$648       .dwtag  DW_TAG_member
    7894                            .dwattr $C$DW$648, DW_AT_type(*$C$DW$T$31)
    7895                            .dwattr $C$DW$648, DW_AT_name("PMAP_REGISTER0")
    7896                            .dwattr $C$DW$648, DW_AT_TI_symbol_name("PMAP_REGISTER0")
    7897                            .dwattr $C$DW$648, DW_AT_data_member_location[DW_OP_plus_uconst 0x0]
    7898                            .dwattr $C$DW$648, DW_AT_accessibility(DW_ACCESS_public)
    7899                            .dwattr $C$DW$648, DW_AT_decl_file("C:\ti\ccs1200\ccs\ccs_base\arm\include\msp432p401r.h")
    7900                            .dwattr $C$DW$648, DW_AT_decl_line(0x3fb)
    7901                            .dwattr $C$DW$648, DW_AT_decl_column(0x14)
    7902                    
    7903                    $C$DW$649       .dwtag  DW_TAG_member
    7904                            .dwattr $C$DW$649, DW_AT_type(*$C$DW$T$31)
    7905                            .dwattr $C$DW$649, DW_AT_name("PMAP_REGISTER1")
    7906                            .dwattr $C$DW$649, DW_AT_TI_symbol_name("PMAP_REGISTER1")
    7907                            .dwattr $C$DW$649, DW_AT_data_member_location[DW_OP_plus_uconst 0x1]
    7908                            .dwattr $C$DW$649, DW_AT_accessibility(DW_ACCESS_public)
    7909                            .dwattr $C$DW$649, DW_AT_decl_file("C:\ti\ccs1200\ccs\ccs_base\arm\include\msp432p401r.h")
    7910                            .dwattr $C$DW$649, DW_AT_decl_line(0x3fc)
    7911                            .dwattr $C$DW$649, DW_AT_decl_column(0x14)
    7912                    
    7913                    $C$DW$650       .dwtag  DW_TAG_member
    7914                            .dwattr $C$DW$650, DW_AT_type(*$C$DW$T$31)
    7915                            .dwattr $C$DW$650, DW_AT_name("PMAP_REGISTER2")
    7916                            .dwattr $C$DW$650, DW_AT_TI_symbol_name("PMAP_REGISTER2")
    7917                            .dwattr $C$DW$650, DW_AT_data_member_location[DW_OP_plus_uconst 0x2]
    7918                            .dwattr $C$DW$650, DW_AT_accessibility(DW_ACCESS_public)
    7919                            .dwattr $C$DW$650, DW_AT_decl_file("C:\ti\ccs1200\ccs\ccs_base\arm\include\msp432p401r.h")
    7920                            .dwattr $C$DW$650, DW_AT_decl_line(0x3fd)
TI ARM Assembler PC v20.2.6 Mon Oct 31 23:16:56 2022

Copyright (c) 1996-2018 Texas Instruments Incorporated
system_msp432p401r.asm                                               PAGE  145

    7921                            .dwattr $C$DW$650, DW_AT_decl_column(0x14)
    7922                    
    7923                    $C$DW$651       .dwtag  DW_TAG_member
    7924                            .dwattr $C$DW$651, DW_AT_type(*$C$DW$T$31)
    7925                            .dwattr $C$DW$651, DW_AT_name("PMAP_REGISTER3")
    7926                            .dwattr $C$DW$651, DW_AT_TI_symbol_name("PMAP_REGISTER3")
    7927                            .dwattr $C$DW$651, DW_AT_data_member_location[DW_OP_plus_uconst 0x3]
    7928                            .dwattr $C$DW$651, DW_AT_accessibility(DW_ACCESS_public)
    7929                            .dwattr $C$DW$651, DW_AT_decl_file("C:\ti\ccs1200\ccs\ccs_base\arm\include\msp432p401r.h")
    7930                            .dwattr $C$DW$651, DW_AT_decl_line(0x3fe)
    7931                            .dwattr $C$DW$651, DW_AT_decl_column(0x14)
    7932                    
    7933                    $C$DW$652       .dwtag  DW_TAG_member
    7934                            .dwattr $C$DW$652, DW_AT_type(*$C$DW$T$31)
    7935                            .dwattr $C$DW$652, DW_AT_name("PMAP_REGISTER4")
    7936                            .dwattr $C$DW$652, DW_AT_TI_symbol_name("PMAP_REGISTER4")
    7937                            .dwattr $C$DW$652, DW_AT_data_member_location[DW_OP_plus_uconst 0x4]
    7938                            .dwattr $C$DW$652, DW_AT_accessibility(DW_ACCESS_public)
    7939                            .dwattr $C$DW$652, DW_AT_decl_file("C:\ti\ccs1200\ccs\ccs_base\arm\include\msp432p401r.h")
    7940                            .dwattr $C$DW$652, DW_AT_decl_line(0x3ff)
    7941                            .dwattr $C$DW$652, DW_AT_decl_column(0x14)
    7942                    
    7943                    $C$DW$653       .dwtag  DW_TAG_member
    7944                            .dwattr $C$DW$653, DW_AT_type(*$C$DW$T$31)
    7945                            .dwattr $C$DW$653, DW_AT_name("PMAP_REGISTER5")
    7946                            .dwattr $C$DW$653, DW_AT_TI_symbol_name("PMAP_REGISTER5")
    7947                            .dwattr $C$DW$653, DW_AT_data_member_location[DW_OP_plus_uconst 0x5]
    7948                            .dwattr $C$DW$653, DW_AT_accessibility(DW_ACCESS_public)
    7949                            .dwattr $C$DW$653, DW_AT_decl_file("C:\ti\ccs1200\ccs\ccs_base\arm\include\msp432p401r.h")
    7950                            .dwattr $C$DW$653, DW_AT_decl_line(0x400)
    7951                            .dwattr $C$DW$653, DW_AT_decl_column(0x14)
    7952                    
    7953                    $C$DW$654       .dwtag  DW_TAG_member
    7954                            .dwattr $C$DW$654, DW_AT_type(*$C$DW$T$31)
    7955                            .dwattr $C$DW$654, DW_AT_name("PMAP_REGISTER6")
    7956                            .dwattr $C$DW$654, DW_AT_TI_symbol_name("PMAP_REGISTER6")
    7957                            .dwattr $C$DW$654, DW_AT_data_member_location[DW_OP_plus_uconst 0x6]
    7958                            .dwattr $C$DW$654, DW_AT_accessibility(DW_ACCESS_public)
    7959                            .dwattr $C$DW$654, DW_AT_decl_file("C:\ti\ccs1200\ccs\ccs_base\arm\include\msp432p401r.h")
    7960                            .dwattr $C$DW$654, DW_AT_decl_line(0x401)
    7961                            .dwattr $C$DW$654, DW_AT_decl_column(0x14)
    7962                    
    7963                    $C$DW$655       .dwtag  DW_TAG_member
    7964                            .dwattr $C$DW$655, DW_AT_type(*$C$DW$T$31)
    7965                            .dwattr $C$DW$655, DW_AT_name("PMAP_REGISTER7")
    7966                            .dwattr $C$DW$655, DW_AT_TI_symbol_name("PMAP_REGISTER7")
    7967                            .dwattr $C$DW$655, DW_AT_data_member_location[DW_OP_plus_uconst 0x7]
    7968                            .dwattr $C$DW$655, DW_AT_accessibility(DW_ACCESS_public)
    7969                            .dwattr $C$DW$655, DW_AT_decl_file("C:\ti\ccs1200\ccs\ccs_base\arm\include\msp432p401r.h")
    7970                            .dwattr $C$DW$655, DW_AT_decl_line(0x402)
    7971                            .dwattr $C$DW$655, DW_AT_decl_column(0x14)
    7972                    
    7973                            .dwattr $C$DW$T$136, DW_AT_decl_file("C:\ti\ccs1200\ccs\ccs_base\arm\include\msp432p401r.h")
    7974                            .dwattr $C$DW$T$136, DW_AT_decl_line(0x3fa)
    7975                            .dwattr $C$DW$T$136, DW_AT_decl_column(0x0c)
TI ARM Assembler PC v20.2.6 Mon Oct 31 23:16:56 2022

Copyright (c) 1996-2018 Texas Instruments Incorporated
system_msp432p401r.asm                                               PAGE  146

    7976                            .dwendtag $C$DW$T$136
    7977                    
    7978                    
    7979                    $C$DW$T$137     .dwtag  DW_TAG_structure_type
    7980                            .dwattr $C$DW$T$137, DW_AT_byte_size(0x08)
    7981                    $C$DW$656       .dwtag  DW_TAG_member
    7982                            .dwattr $C$DW$656, DW_AT_type(*$C$DW$T$176)
    7983                            .dwattr $C$DW$656, DW_AT_name("$P$T39")
    7984                            .dwattr $C$DW$656, DW_AT_TI_symbol_name("$P$T39")
    7985                            .dwattr $C$DW$656, DW_AT_data_member_location[DW_OP_plus_uconst 0x0]
    7986                            .dwattr $C$DW$656, DW_AT_accessibility(DW_ACCESS_public)
    7987                            .dwattr $C$DW$656, DW_AT_decl_file("C:\ti\ccs1200\ccs\ccs_base\arm\include\msp432p401r.h")
    7988                            .dwattr $C$DW$656, DW_AT_decl_line(0x3f8)
    7989                            .dwattr $C$DW$656, DW_AT_decl_column(0x03)
    7990                    
    7991                            .dwattr $C$DW$T$137, DW_AT_decl_file("C:\ti\ccs1200\ccs\ccs_base\arm\include\msp432p401r.h")
    7992                            .dwattr $C$DW$T$137, DW_AT_decl_line(0x3f7)
    7993                            .dwattr $C$DW$T$137, DW_AT_decl_column(0x10)
    7994                            .dwendtag $C$DW$T$137
    7995                    
    7996                    $C$DW$T$219     .dwtag  DW_TAG_typedef
    7997                            .dwattr $C$DW$T$219, DW_AT_name("PMAP_REGISTER_Type")
    7998                            .dwattr $C$DW$T$219, DW_AT_type(*$C$DW$T$137)
    7999                            .dwattr $C$DW$T$219, DW_AT_language(DW_LANG_C)
    8000                            .dwattr $C$DW$T$219, DW_AT_decl_file("C:\ti\ccs1200\ccs\ccs_base\arm\include\msp432p401r.h")
    8001                            .dwattr $C$DW$T$219, DW_AT_decl_line(0x405)
    8002                            .dwattr $C$DW$T$219, DW_AT_decl_column(0x03)
    8003                    
    8004                    
    8005                    $C$DW$T$139     .dwtag  DW_TAG_structure_type
    8006                            .dwattr $C$DW$T$139, DW_AT_byte_size(0x40)
    8007                    $C$DW$657       .dwtag  DW_TAG_member
    8008                            .dwattr $C$DW$657, DW_AT_type(*$C$DW$T$23)
    8009                            .dwattr $C$DW$657, DW_AT_name("KEY")
    8010                            .dwattr $C$DW$657, DW_AT_TI_symbol_name("KEY")
    8011                            .dwattr $C$DW$657, DW_AT_data_member_location[DW_OP_plus_uconst 0x0]
    8012                            .dwattr $C$DW$657, DW_AT_accessibility(DW_ACCESS_public)
    8013                            .dwattr $C$DW$657, DW_AT_decl_file("C:\ti\ccs1200\ccs\ccs_base\arm\include\msp432p401r.h")
    8014                            .dwattr $C$DW$657, DW_AT_decl_line(0x411)
    8015                            .dwattr $C$DW$657, DW_AT_decl_column(0x11)
    8016                    
    8017                    $C$DW$658       .dwtag  DW_TAG_member
    8018                            .dwattr $C$DW$658, DW_AT_type(*$C$DW$T$23)
    8019                            .dwattr $C$DW$658, DW_AT_name("CTL0")
    8020                            .dwattr $C$DW$658, DW_AT_TI_symbol_name("CTL0")
    8021                            .dwattr $C$DW$658, DW_AT_data_member_location[DW_OP_plus_uconst 0x4]
    8022                            .dwattr $C$DW$658, DW_AT_accessibility(DW_ACCESS_public)
    8023                            .dwattr $C$DW$658, DW_AT_decl_file("C:\ti\ccs1200\ccs\ccs_base\arm\include\msp432p401r.h")
    8024                            .dwattr $C$DW$658, DW_AT_decl_line(0x412)
    8025                            .dwattr $C$DW$658, DW_AT_decl_column(0x11)
    8026                    
    8027                    $C$DW$659       .dwtag  DW_TAG_member
    8028                            .dwattr $C$DW$659, DW_AT_type(*$C$DW$T$138)
    8029                            .dwattr $C$DW$659, DW_AT_name("RESERVED0")
    8030                            .dwattr $C$DW$659, DW_AT_TI_symbol_name("RESERVED0")
TI ARM Assembler PC v20.2.6 Mon Oct 31 23:16:56 2022

Copyright (c) 1996-2018 Texas Instruments Incorporated
system_msp432p401r.asm                                               PAGE  147

    8031                            .dwattr $C$DW$659, DW_AT_data_member_location[DW_OP_plus_uconst 0x8]
    8032                            .dwattr $C$DW$659, DW_AT_accessibility(DW_ACCESS_public)
    8033                            .dwattr $C$DW$659, DW_AT_decl_file("C:\ti\ccs1200\ccs\ccs_base\arm\include\msp432p401r.h")
    8034                            .dwattr $C$DW$659, DW_AT_decl_line(0x413)
    8035                            .dwattr $C$DW$659, DW_AT_decl_column(0x11)
    8036                    
    8037                    $C$DW$660       .dwtag  DW_TAG_member
    8038                            .dwattr $C$DW$660, DW_AT_type(*$C$DW$T$23)
    8039                            .dwattr $C$DW$660, DW_AT_name("IE")
    8040                            .dwattr $C$DW$660, DW_AT_TI_symbol_name("IE")
    8041                            .dwattr $C$DW$660, DW_AT_data_member_location[DW_OP_plus_uconst 0x34]
    8042                            .dwattr $C$DW$660, DW_AT_accessibility(DW_ACCESS_public)
    8043                            .dwattr $C$DW$660, DW_AT_decl_file("C:\ti\ccs1200\ccs\ccs_base\arm\include\msp432p401r.h")
    8044                            .dwattr $C$DW$660, DW_AT_decl_line(0x414)
    8045                            .dwattr $C$DW$660, DW_AT_decl_column(0x11)
    8046                    
    8047                    $C$DW$661       .dwtag  DW_TAG_member
    8048                            .dwattr $C$DW$661, DW_AT_type(*$C$DW$T$25)
    8049                            .dwattr $C$DW$661, DW_AT_name("IFG")
    8050                            .dwattr $C$DW$661, DW_AT_TI_symbol_name("IFG")
    8051                            .dwattr $C$DW$661, DW_AT_data_member_location[DW_OP_plus_uconst 0x38]
    8052                            .dwattr $C$DW$661, DW_AT_accessibility(DW_ACCESS_public)
    8053                            .dwattr $C$DW$661, DW_AT_decl_file("C:\ti\ccs1200\ccs\ccs_base\arm\include\msp432p401r.h")
    8054                            .dwattr $C$DW$661, DW_AT_decl_line(0x415)
    8055                            .dwattr $C$DW$661, DW_AT_decl_column(0x11)
    8056                    
    8057                    $C$DW$662       .dwtag  DW_TAG_member
    8058                            .dwattr $C$DW$662, DW_AT_type(*$C$DW$T$23)
    8059                            .dwattr $C$DW$662, DW_AT_name("CLRIFG")
    8060                            .dwattr $C$DW$662, DW_AT_TI_symbol_name("CLRIFG")
    8061                            .dwattr $C$DW$662, DW_AT_data_member_location[DW_OP_plus_uconst 0x3c]
    8062                            .dwattr $C$DW$662, DW_AT_accessibility(DW_ACCESS_public)
    8063                            .dwattr $C$DW$662, DW_AT_decl_file("C:\ti\ccs1200\ccs\ccs_base\arm\include\msp432p401r.h")
    8064                            .dwattr $C$DW$662, DW_AT_decl_line(0x416)
    8065                            .dwattr $C$DW$662, DW_AT_decl_column(0x11)
    8066                    
    8067                            .dwattr $C$DW$T$139, DW_AT_decl_file("C:\ti\ccs1200\ccs\ccs_base\arm\include\msp432p401r.h")
    8068                            .dwattr $C$DW$T$139, DW_AT_decl_line(0x410)
    8069                            .dwattr $C$DW$T$139, DW_AT_decl_column(0x10)
    8070                            .dwendtag $C$DW$T$139
    8071                    
    8072                    $C$DW$T$220     .dwtag  DW_TAG_typedef
    8073                            .dwattr $C$DW$T$220, DW_AT_name("PSS_Type")
    8074                            .dwattr $C$DW$T$220, DW_AT_type(*$C$DW$T$139)
    8075                            .dwattr $C$DW$T$220, DW_AT_language(DW_LANG_C)
    8076                            .dwattr $C$DW$T$220, DW_AT_decl_file("C:\ti\ccs1200\ccs\ccs_base\arm\include\msp432p401r.h")
    8077                            .dwattr $C$DW$T$220, DW_AT_decl_line(0x417)
    8078                            .dwattr $C$DW$T$220, DW_AT_decl_column(0x03)
    8079                    
    8080                    
    8081                    $C$DW$T$140     .dwtag  DW_TAG_structure_type
    8082                            .dwattr $C$DW$T$140, DW_AT_byte_size(0x02)
    8083                    $C$DW$663       .dwtag  DW_TAG_member
    8084                            .dwattr $C$DW$663, DW_AT_type(*$C$DW$T$41)
    8085                            .dwattr $C$DW$663, DW_AT_name("CTL0")
TI ARM Assembler PC v20.2.6 Mon Oct 31 23:16:56 2022

Copyright (c) 1996-2018 Texas Instruments Incorporated
system_msp432p401r.asm                                               PAGE  148

    8086                            .dwattr $C$DW$663, DW_AT_TI_symbol_name("CTL0")
    8087                            .dwattr $C$DW$663, DW_AT_data_member_location[DW_OP_plus_uconst 0x0]
    8088                            .dwattr $C$DW$663, DW_AT_accessibility(DW_ACCESS_public)
    8089                            .dwattr $C$DW$663, DW_AT_decl_file("C:\ti\ccs1200\ccs\ccs_base\arm\include\msp432p401r.h")
    8090                            .dwattr $C$DW$663, DW_AT_decl_line(0x423)
    8091                            .dwattr $C$DW$663, DW_AT_decl_column(0x11)
    8092                    
    8093                            .dwattr $C$DW$T$140, DW_AT_decl_file("C:\ti\ccs1200\ccs\ccs_base\arm\include\msp432p401r.h")
    8094                            .dwattr $C$DW$T$140, DW_AT_decl_line(0x422)
    8095                            .dwattr $C$DW$T$140, DW_AT_decl_column(0x10)
    8096                            .dwendtag $C$DW$T$140
    8097                    
    8098                    $C$DW$T$221     .dwtag  DW_TAG_typedef
    8099                            .dwattr $C$DW$T$221, DW_AT_name("REF_A_Type")
    8100                            .dwattr $C$DW$T$221, DW_AT_type(*$C$DW$T$140)
    8101                            .dwattr $C$DW$T$221, DW_AT_language(DW_LANG_C)
    8102                            .dwattr $C$DW$T$221, DW_AT_decl_file("C:\ti\ccs1200\ccs\ccs_base\arm\include\msp432p401r.h")
    8103                            .dwattr $C$DW$T$221, DW_AT_decl_line(0x424)
    8104                            .dwattr $C$DW$T$221, DW_AT_decl_column(0x03)
    8105                    
    8106                    
    8107                    $C$DW$T$142     .dwtag  DW_TAG_structure_type
    8108                            .dwattr $C$DW$T$142, DW_AT_byte_size(0x128)
    8109                    $C$DW$664       .dwtag  DW_TAG_member
    8110                            .dwattr $C$DW$664, DW_AT_type(*$C$DW$T$23)
    8111                            .dwattr $C$DW$664, DW_AT_name("RESET_REQ")
    8112                            .dwattr $C$DW$664, DW_AT_TI_symbol_name("RESET_REQ")
    8113                            .dwattr $C$DW$664, DW_AT_data_member_location[DW_OP_plus_uconst 0x0]
    8114                            .dwattr $C$DW$664, DW_AT_accessibility(DW_ACCESS_public)
    8115                            .dwattr $C$DW$664, DW_AT_decl_file("C:\ti\ccs1200\ccs\ccs_base\arm\include\msp432p401r.h")
    8116                            .dwattr $C$DW$664, DW_AT_decl_line(0x430)
    8117                            .dwattr $C$DW$664, DW_AT_decl_column(0x11)
    8118                    
    8119                    $C$DW$665       .dwtag  DW_TAG_member
    8120                            .dwattr $C$DW$665, DW_AT_type(*$C$DW$T$25)
    8121                            .dwattr $C$DW$665, DW_AT_name("HARDRESET_STAT")
    8122                            .dwattr $C$DW$665, DW_AT_TI_symbol_name("HARDRESET_STAT")
    8123                            .dwattr $C$DW$665, DW_AT_data_member_location[DW_OP_plus_uconst 0x4]
    8124                            .dwattr $C$DW$665, DW_AT_accessibility(DW_ACCESS_public)
    8125                            .dwattr $C$DW$665, DW_AT_decl_file("C:\ti\ccs1200\ccs\ccs_base\arm\include\msp432p401r.h")
    8126                            .dwattr $C$DW$665, DW_AT_decl_line(0x431)
    8127                            .dwattr $C$DW$665, DW_AT_decl_column(0x11)
    8128                    
    8129                    $C$DW$666       .dwtag  DW_TAG_member
    8130                            .dwattr $C$DW$666, DW_AT_type(*$C$DW$T$23)
    8131                            .dwattr $C$DW$666, DW_AT_name("HARDRESET_CLR")
    8132                            .dwattr $C$DW$666, DW_AT_TI_symbol_name("HARDRESET_CLR")
    8133                            .dwattr $C$DW$666, DW_AT_data_member_location[DW_OP_plus_uconst 0x8]
    8134                            .dwattr $C$DW$666, DW_AT_accessibility(DW_ACCESS_public)
    8135                            .dwattr $C$DW$666, DW_AT_decl_file("C:\ti\ccs1200\ccs\ccs_base\arm\include\msp432p401r.h")
    8136                            .dwattr $C$DW$666, DW_AT_decl_line(0x432)
    8137                            .dwattr $C$DW$666, DW_AT_decl_column(0x11)
    8138                    
    8139                    $C$DW$667       .dwtag  DW_TAG_member
    8140                            .dwattr $C$DW$667, DW_AT_type(*$C$DW$T$23)
TI ARM Assembler PC v20.2.6 Mon Oct 31 23:16:56 2022

Copyright (c) 1996-2018 Texas Instruments Incorporated
system_msp432p401r.asm                                               PAGE  149

    8141                            .dwattr $C$DW$667, DW_AT_name("HARDRESET_SET")
    8142                            .dwattr $C$DW$667, DW_AT_TI_symbol_name("HARDRESET_SET")
    8143                            .dwattr $C$DW$667, DW_AT_data_member_location[DW_OP_plus_uconst 0xc]
    8144                            .dwattr $C$DW$667, DW_AT_accessibility(DW_ACCESS_public)
    8145                            .dwattr $C$DW$667, DW_AT_decl_file("C:\ti\ccs1200\ccs\ccs_base\arm\include\msp432p401r.h")
    8146                            .dwattr $C$DW$667, DW_AT_decl_line(0x433)
    8147                            .dwattr $C$DW$667, DW_AT_decl_column(0x11)
    8148                    
    8149                    $C$DW$668       .dwtag  DW_TAG_member
    8150                            .dwattr $C$DW$668, DW_AT_type(*$C$DW$T$25)
    8151                            .dwattr $C$DW$668, DW_AT_name("SOFTRESET_STAT")
    8152                            .dwattr $C$DW$668, DW_AT_TI_symbol_name("SOFTRESET_STAT")
    8153                            .dwattr $C$DW$668, DW_AT_data_member_location[DW_OP_plus_uconst 0x10]
    8154                            .dwattr $C$DW$668, DW_AT_accessibility(DW_ACCESS_public)
    8155                            .dwattr $C$DW$668, DW_AT_decl_file("C:\ti\ccs1200\ccs\ccs_base\arm\include\msp432p401r.h")
    8156                            .dwattr $C$DW$668, DW_AT_decl_line(0x434)
    8157                            .dwattr $C$DW$668, DW_AT_decl_column(0x11)
    8158                    
    8159                    $C$DW$669       .dwtag  DW_TAG_member
    8160                            .dwattr $C$DW$669, DW_AT_type(*$C$DW$T$23)
    8161                            .dwattr $C$DW$669, DW_AT_name("SOFTRESET_CLR")
    8162                            .dwattr $C$DW$669, DW_AT_TI_symbol_name("SOFTRESET_CLR")
    8163                            .dwattr $C$DW$669, DW_AT_data_member_location[DW_OP_plus_uconst 0x14]
    8164                            .dwattr $C$DW$669, DW_AT_accessibility(DW_ACCESS_public)
    8165                            .dwattr $C$DW$669, DW_AT_decl_file("C:\ti\ccs1200\ccs\ccs_base\arm\include\msp432p401r.h")
    8166                            .dwattr $C$DW$669, DW_AT_decl_line(0x435)
    8167                            .dwattr $C$DW$669, DW_AT_decl_column(0x11)
    8168                    
    8169                    $C$DW$670       .dwtag  DW_TAG_member
    8170                            .dwattr $C$DW$670, DW_AT_type(*$C$DW$T$23)
    8171                            .dwattr $C$DW$670, DW_AT_name("SOFTRESET_SET")
    8172                            .dwattr $C$DW$670, DW_AT_TI_symbol_name("SOFTRESET_SET")
    8173                            .dwattr $C$DW$670, DW_AT_data_member_location[DW_OP_plus_uconst 0x18]
    8174                            .dwattr $C$DW$670, DW_AT_accessibility(DW_ACCESS_public)
    8175                            .dwattr $C$DW$670, DW_AT_decl_file("C:\ti\ccs1200\ccs\ccs_base\arm\include\msp432p401r.h")
    8176                            .dwattr $C$DW$670, DW_AT_decl_line(0x436)
    8177                            .dwattr $C$DW$670, DW_AT_decl_column(0x11)
    8178                    
    8179                    $C$DW$671       .dwtag  DW_TAG_member
    8180                            .dwattr $C$DW$671, DW_AT_type(*$C$DW$T$141)
    8181                            .dwattr $C$DW$671, DW_AT_name("RESERVED0")
    8182                            .dwattr $C$DW$671, DW_AT_TI_symbol_name("RESERVED0")
    8183                            .dwattr $C$DW$671, DW_AT_data_member_location[DW_OP_plus_uconst 0x1c]
    8184                            .dwattr $C$DW$671, DW_AT_accessibility(DW_ACCESS_public)
    8185                            .dwattr $C$DW$671, DW_AT_decl_file("C:\ti\ccs1200\ccs\ccs_base\arm\include\msp432p401r.h")
    8186                            .dwattr $C$DW$671, DW_AT_decl_line(0x437)
    8187                            .dwattr $C$DW$671, DW_AT_decl_column(0x11)
    8188                    
    8189                    $C$DW$672       .dwtag  DW_TAG_member
    8190                            .dwattr $C$DW$672, DW_AT_type(*$C$DW$T$25)
    8191                            .dwattr $C$DW$672, DW_AT_name("PSSRESET_STAT")
    8192                            .dwattr $C$DW$672, DW_AT_TI_symbol_name("PSSRESET_STAT")
    8193                            .dwattr $C$DW$672, DW_AT_data_member_location[DW_OP_plus_uconst 0x100]
    8194                            .dwattr $C$DW$672, DW_AT_accessibility(DW_ACCESS_public)
    8195                            .dwattr $C$DW$672, DW_AT_decl_file("C:\ti\ccs1200\ccs\ccs_base\arm\include\msp432p401r.h")
TI ARM Assembler PC v20.2.6 Mon Oct 31 23:16:56 2022

Copyright (c) 1996-2018 Texas Instruments Incorporated
system_msp432p401r.asm                                               PAGE  150

    8196                            .dwattr $C$DW$672, DW_AT_decl_line(0x438)
    8197                            .dwattr $C$DW$672, DW_AT_decl_column(0x11)
    8198                    
    8199                    $C$DW$673       .dwtag  DW_TAG_member
    8200                            .dwattr $C$DW$673, DW_AT_type(*$C$DW$T$23)
    8201                            .dwattr $C$DW$673, DW_AT_name("PSSRESET_CLR")
    8202                            .dwattr $C$DW$673, DW_AT_TI_symbol_name("PSSRESET_CLR")
    8203                            .dwattr $C$DW$673, DW_AT_data_member_location[DW_OP_plus_uconst 0x104]
    8204                            .dwattr $C$DW$673, DW_AT_accessibility(DW_ACCESS_public)
    8205                            .dwattr $C$DW$673, DW_AT_decl_file("C:\ti\ccs1200\ccs\ccs_base\arm\include\msp432p401r.h")
    8206                            .dwattr $C$DW$673, DW_AT_decl_line(0x439)
    8207                            .dwattr $C$DW$673, DW_AT_decl_column(0x11)
    8208                    
    8209                    $C$DW$674       .dwtag  DW_TAG_member
    8210                            .dwattr $C$DW$674, DW_AT_type(*$C$DW$T$25)
    8211                            .dwattr $C$DW$674, DW_AT_name("PCMRESET_STAT")
    8212                            .dwattr $C$DW$674, DW_AT_TI_symbol_name("PCMRESET_STAT")
    8213                            .dwattr $C$DW$674, DW_AT_data_member_location[DW_OP_plus_uconst 0x108]
    8214                            .dwattr $C$DW$674, DW_AT_accessibility(DW_ACCESS_public)
    8215                            .dwattr $C$DW$674, DW_AT_decl_file("C:\ti\ccs1200\ccs\ccs_base\arm\include\msp432p401r.h")
    8216                            .dwattr $C$DW$674, DW_AT_decl_line(0x43a)
    8217                            .dwattr $C$DW$674, DW_AT_decl_column(0x11)
    8218                    
    8219                    $C$DW$675       .dwtag  DW_TAG_member
    8220                            .dwattr $C$DW$675, DW_AT_type(*$C$DW$T$23)
    8221                            .dwattr $C$DW$675, DW_AT_name("PCMRESET_CLR")
    8222                            .dwattr $C$DW$675, DW_AT_TI_symbol_name("PCMRESET_CLR")
    8223                            .dwattr $C$DW$675, DW_AT_data_member_location[DW_OP_plus_uconst 0x10c]
    8224                            .dwattr $C$DW$675, DW_AT_accessibility(DW_ACCESS_public)
    8225                            .dwattr $C$DW$675, DW_AT_decl_file("C:\ti\ccs1200\ccs\ccs_base\arm\include\msp432p401r.h")
    8226                            .dwattr $C$DW$675, DW_AT_decl_line(0x43b)
    8227                            .dwattr $C$DW$675, DW_AT_decl_column(0x11)
    8228                    
    8229                    $C$DW$676       .dwtag  DW_TAG_member
    8230                            .dwattr $C$DW$676, DW_AT_type(*$C$DW$T$25)
    8231                            .dwattr $C$DW$676, DW_AT_name("PINRESET_STAT")
    8232                            .dwattr $C$DW$676, DW_AT_TI_symbol_name("PINRESET_STAT")
    8233                            .dwattr $C$DW$676, DW_AT_data_member_location[DW_OP_plus_uconst 0x110]
    8234                            .dwattr $C$DW$676, DW_AT_accessibility(DW_ACCESS_public)
    8235                            .dwattr $C$DW$676, DW_AT_decl_file("C:\ti\ccs1200\ccs\ccs_base\arm\include\msp432p401r.h")
    8236                            .dwattr $C$DW$676, DW_AT_decl_line(0x43c)
    8237                            .dwattr $C$DW$676, DW_AT_decl_column(0x11)
    8238                    
    8239                    $C$DW$677       .dwtag  DW_TAG_member
    8240                            .dwattr $C$DW$677, DW_AT_type(*$C$DW$T$23)
    8241                            .dwattr $C$DW$677, DW_AT_name("PINRESET_CLR")
    8242                            .dwattr $C$DW$677, DW_AT_TI_symbol_name("PINRESET_CLR")
    8243                            .dwattr $C$DW$677, DW_AT_data_member_location[DW_OP_plus_uconst 0x114]
    8244                            .dwattr $C$DW$677, DW_AT_accessibility(DW_ACCESS_public)
    8245                            .dwattr $C$DW$677, DW_AT_decl_file("C:\ti\ccs1200\ccs\ccs_base\arm\include\msp432p401r.h")
    8246                            .dwattr $C$DW$677, DW_AT_decl_line(0x43d)
    8247                            .dwattr $C$DW$677, DW_AT_decl_column(0x11)
    8248                    
    8249                    $C$DW$678       .dwtag  DW_TAG_member
    8250                            .dwattr $C$DW$678, DW_AT_type(*$C$DW$T$25)
TI ARM Assembler PC v20.2.6 Mon Oct 31 23:16:56 2022

Copyright (c) 1996-2018 Texas Instruments Incorporated
system_msp432p401r.asm                                               PAGE  151

    8251                            .dwattr $C$DW$678, DW_AT_name("REBOOTRESET_STAT")
    8252                            .dwattr $C$DW$678, DW_AT_TI_symbol_name("REBOOTRESET_STAT")
    8253                            .dwattr $C$DW$678, DW_AT_data_member_location[DW_OP_plus_uconst 0x118]
    8254                            .dwattr $C$DW$678, DW_AT_accessibility(DW_ACCESS_public)
    8255                            .dwattr $C$DW$678, DW_AT_decl_file("C:\ti\ccs1200\ccs\ccs_base\arm\include\msp432p401r.h")
    8256                            .dwattr $C$DW$678, DW_AT_decl_line(0x43e)
    8257                            .dwattr $C$DW$678, DW_AT_decl_column(0x11)
    8258                    
    8259                    $C$DW$679       .dwtag  DW_TAG_member
    8260                            .dwattr $C$DW$679, DW_AT_type(*$C$DW$T$23)
    8261                            .dwattr $C$DW$679, DW_AT_name("REBOOTRESET_CLR")
    8262                            .dwattr $C$DW$679, DW_AT_TI_symbol_name("REBOOTRESET_CLR")
    8263                            .dwattr $C$DW$679, DW_AT_data_member_location[DW_OP_plus_uconst 0x11c]
    8264                            .dwattr $C$DW$679, DW_AT_accessibility(DW_ACCESS_public)
    8265                            .dwattr $C$DW$679, DW_AT_decl_file("C:\ti\ccs1200\ccs\ccs_base\arm\include\msp432p401r.h")
    8266                            .dwattr $C$DW$679, DW_AT_decl_line(0x43f)
    8267                            .dwattr $C$DW$679, DW_AT_decl_column(0x11)
    8268                    
    8269                    $C$DW$680       .dwtag  DW_TAG_member
    8270                            .dwattr $C$DW$680, DW_AT_type(*$C$DW$T$25)
    8271                            .dwattr $C$DW$680, DW_AT_name("CSRESET_STAT")
    8272                            .dwattr $C$DW$680, DW_AT_TI_symbol_name("CSRESET_STAT")
    8273                            .dwattr $C$DW$680, DW_AT_data_member_location[DW_OP_plus_uconst 0x120]
    8274                            .dwattr $C$DW$680, DW_AT_accessibility(DW_ACCESS_public)
    8275                            .dwattr $C$DW$680, DW_AT_decl_file("C:\ti\ccs1200\ccs\ccs_base\arm\include\msp432p401r.h")
    8276                            .dwattr $C$DW$680, DW_AT_decl_line(0x440)
    8277                            .dwattr $C$DW$680, DW_AT_decl_column(0x11)
    8278                    
    8279                    $C$DW$681       .dwtag  DW_TAG_member
    8280                            .dwattr $C$DW$681, DW_AT_type(*$C$DW$T$23)
    8281                            .dwattr $C$DW$681, DW_AT_name("CSRESET_CLR")
    8282                            .dwattr $C$DW$681, DW_AT_TI_symbol_name("CSRESET_CLR")
    8283                            .dwattr $C$DW$681, DW_AT_data_member_location[DW_OP_plus_uconst 0x124]
    8284                            .dwattr $C$DW$681, DW_AT_accessibility(DW_ACCESS_public)
    8285                            .dwattr $C$DW$681, DW_AT_decl_file("C:\ti\ccs1200\ccs\ccs_base\arm\include\msp432p401r.h")
    8286                            .dwattr $C$DW$681, DW_AT_decl_line(0x441)
    8287                            .dwattr $C$DW$681, DW_AT_decl_column(0x11)
    8288                    
    8289                            .dwattr $C$DW$T$142, DW_AT_decl_file("C:\ti\ccs1200\ccs\ccs_base\arm\include\msp432p401r.h")
    8290                            .dwattr $C$DW$T$142, DW_AT_decl_line(0x42f)
    8291                            .dwattr $C$DW$T$142, DW_AT_decl_column(0x10)
    8292                            .dwendtag $C$DW$T$142
    8293                    
    8294                    $C$DW$T$222     .dwtag  DW_TAG_typedef
    8295                            .dwattr $C$DW$T$222, DW_AT_name("RSTCTL_Type")
    8296                            .dwattr $C$DW$T$222, DW_AT_type(*$C$DW$T$142)
    8297                            .dwattr $C$DW$T$222, DW_AT_language(DW_LANG_C)
    8298                            .dwattr $C$DW$T$222, DW_AT_decl_file("C:\ti\ccs1200\ccs\ccs_base\arm\include\msp432p401r.h")
    8299                            .dwattr $C$DW$T$222, DW_AT_decl_line(0x442)
    8300                            .dwattr $C$DW$T$222, DW_AT_decl_column(0x03)
    8301                    
    8302                    
    8303                    $C$DW$T$143     .dwtag  DW_TAG_structure_type
    8304                            .dwattr $C$DW$T$143, DW_AT_byte_size(0x20)
    8305                    $C$DW$682       .dwtag  DW_TAG_member
TI ARM Assembler PC v20.2.6 Mon Oct 31 23:16:56 2022

Copyright (c) 1996-2018 Texas Instruments Incorporated
system_msp432p401r.asm                                               PAGE  152

    8306                            .dwattr $C$DW$682, DW_AT_type(*$C$DW$T$41)
    8307                            .dwattr $C$DW$682, DW_AT_name("CTL0")
    8308                            .dwattr $C$DW$682, DW_AT_TI_symbol_name("CTL0")
    8309                            .dwattr $C$DW$682, DW_AT_data_member_location[DW_OP_plus_uconst 0x0]
    8310                            .dwattr $C$DW$682, DW_AT_accessibility(DW_ACCESS_public)
    8311                            .dwattr $C$DW$682, DW_AT_decl_file("C:\ti\ccs1200\ccs\ccs_base\arm\include\msp432p401r.h")
    8312                            .dwattr $C$DW$682, DW_AT_decl_line(0x44e)
    8313                            .dwattr $C$DW$682, DW_AT_decl_column(0x11)
    8314                    
    8315                    $C$DW$683       .dwtag  DW_TAG_member
    8316                            .dwattr $C$DW$683, DW_AT_type(*$C$DW$T$41)
    8317                            .dwattr $C$DW$683, DW_AT_name("CTL13")
    8318                            .dwattr $C$DW$683, DW_AT_TI_symbol_name("CTL13")
    8319                            .dwattr $C$DW$683, DW_AT_data_member_location[DW_OP_plus_uconst 0x2]
    8320                            .dwattr $C$DW$683, DW_AT_accessibility(DW_ACCESS_public)
    8321                            .dwattr $C$DW$683, DW_AT_decl_file("C:\ti\ccs1200\ccs\ccs_base\arm\include\msp432p401r.h")
    8322                            .dwattr $C$DW$683, DW_AT_decl_line(0x44f)
    8323                            .dwattr $C$DW$683, DW_AT_decl_column(0x11)
    8324                    
    8325                    $C$DW$684       .dwtag  DW_TAG_member
    8326                            .dwattr $C$DW$684, DW_AT_type(*$C$DW$T$41)
    8327                            .dwattr $C$DW$684, DW_AT_name("OCAL")
    8328                            .dwattr $C$DW$684, DW_AT_TI_symbol_name("OCAL")
    8329                            .dwattr $C$DW$684, DW_AT_data_member_location[DW_OP_plus_uconst 0x4]
    8330                            .dwattr $C$DW$684, DW_AT_accessibility(DW_ACCESS_public)
    8331                            .dwattr $C$DW$684, DW_AT_decl_file("C:\ti\ccs1200\ccs\ccs_base\arm\include\msp432p401r.h")
    8332                            .dwattr $C$DW$684, DW_AT_decl_line(0x450)
    8333                            .dwattr $C$DW$684, DW_AT_decl_column(0x11)
    8334                    
    8335                    $C$DW$685       .dwtag  DW_TAG_member
    8336                            .dwattr $C$DW$685, DW_AT_type(*$C$DW$T$41)
    8337                            .dwattr $C$DW$685, DW_AT_name("TCMP")
    8338                            .dwattr $C$DW$685, DW_AT_TI_symbol_name("TCMP")
    8339                            .dwattr $C$DW$685, DW_AT_data_member_location[DW_OP_plus_uconst 0x6]
    8340                            .dwattr $C$DW$685, DW_AT_accessibility(DW_ACCESS_public)
    8341                            .dwattr $C$DW$685, DW_AT_decl_file("C:\ti\ccs1200\ccs\ccs_base\arm\include\msp432p401r.h")
    8342                            .dwattr $C$DW$685, DW_AT_decl_line(0x451)
    8343                            .dwattr $C$DW$685, DW_AT_decl_column(0x11)
    8344                    
    8345                    $C$DW$686       .dwtag  DW_TAG_member
    8346                            .dwattr $C$DW$686, DW_AT_type(*$C$DW$T$41)
    8347                            .dwattr $C$DW$686, DW_AT_name("PS0CTL")
    8348                            .dwattr $C$DW$686, DW_AT_TI_symbol_name("PS0CTL")
    8349                            .dwattr $C$DW$686, DW_AT_data_member_location[DW_OP_plus_uconst 0x8]
    8350                            .dwattr $C$DW$686, DW_AT_accessibility(DW_ACCESS_public)
    8351                            .dwattr $C$DW$686, DW_AT_decl_file("C:\ti\ccs1200\ccs\ccs_base\arm\include\msp432p401r.h")
    8352                            .dwattr $C$DW$686, DW_AT_decl_line(0x452)
    8353                            .dwattr $C$DW$686, DW_AT_decl_column(0x11)
    8354                    
    8355                    $C$DW$687       .dwtag  DW_TAG_member
    8356                            .dwattr $C$DW$687, DW_AT_type(*$C$DW$T$41)
    8357                            .dwattr $C$DW$687, DW_AT_name("PS1CTL")
    8358                            .dwattr $C$DW$687, DW_AT_TI_symbol_name("PS1CTL")
    8359                            .dwattr $C$DW$687, DW_AT_data_member_location[DW_OP_plus_uconst 0xa]
    8360                            .dwattr $C$DW$687, DW_AT_accessibility(DW_ACCESS_public)
TI ARM Assembler PC v20.2.6 Mon Oct 31 23:16:56 2022

Copyright (c) 1996-2018 Texas Instruments Incorporated
system_msp432p401r.asm                                               PAGE  153

    8361                            .dwattr $C$DW$687, DW_AT_decl_file("C:\ti\ccs1200\ccs\ccs_base\arm\include\msp432p401r.h")
    8362                            .dwattr $C$DW$687, DW_AT_decl_line(0x453)
    8363                            .dwattr $C$DW$687, DW_AT_decl_column(0x11)
    8364                    
    8365                    $C$DW$688       .dwtag  DW_TAG_member
    8366                            .dwattr $C$DW$688, DW_AT_type(*$C$DW$T$41)
    8367                            .dwattr $C$DW$688, DW_AT_name("PS")
    8368                            .dwattr $C$DW$688, DW_AT_TI_symbol_name("PS")
    8369                            .dwattr $C$DW$688, DW_AT_data_member_location[DW_OP_plus_uconst 0xc]
    8370                            .dwattr $C$DW$688, DW_AT_accessibility(DW_ACCESS_public)
    8371                            .dwattr $C$DW$688, DW_AT_decl_file("C:\ti\ccs1200\ccs\ccs_base\arm\include\msp432p401r.h")
    8372                            .dwattr $C$DW$688, DW_AT_decl_line(0x454)
    8373                            .dwattr $C$DW$688, DW_AT_decl_column(0x11)
    8374                    
    8375                    $C$DW$689       .dwtag  DW_TAG_member
    8376                            .dwattr $C$DW$689, DW_AT_type(*$C$DW$T$86)
    8377                            .dwattr $C$DW$689, DW_AT_name("IV")
    8378                            .dwattr $C$DW$689, DW_AT_TI_symbol_name("IV")
    8379                            .dwattr $C$DW$689, DW_AT_data_member_location[DW_OP_plus_uconst 0xe]
    8380                            .dwattr $C$DW$689, DW_AT_accessibility(DW_ACCESS_public)
    8381                            .dwattr $C$DW$689, DW_AT_decl_file("C:\ti\ccs1200\ccs\ccs_base\arm\include\msp432p401r.h")
    8382                            .dwattr $C$DW$689, DW_AT_decl_line(0x455)
    8383                            .dwattr $C$DW$689, DW_AT_decl_column(0x11)
    8384                    
    8385                    $C$DW$690       .dwtag  DW_TAG_member
    8386                            .dwattr $C$DW$690, DW_AT_type(*$C$DW$T$41)
    8387                            .dwattr $C$DW$690, DW_AT_name("TIM0")
    8388                            .dwattr $C$DW$690, DW_AT_TI_symbol_name("TIM0")
    8389                            .dwattr $C$DW$690, DW_AT_data_member_location[DW_OP_plus_uconst 0x10]
    8390                            .dwattr $C$DW$690, DW_AT_accessibility(DW_ACCESS_public)
    8391                            .dwattr $C$DW$690, DW_AT_decl_file("C:\ti\ccs1200\ccs\ccs_base\arm\include\msp432p401r.h")
    8392                            .dwattr $C$DW$690, DW_AT_decl_line(0x456)
    8393                            .dwattr $C$DW$690, DW_AT_decl_column(0x11)
    8394                    
    8395                    $C$DW$691       .dwtag  DW_TAG_member
    8396                            .dwattr $C$DW$691, DW_AT_type(*$C$DW$T$41)
    8397                            .dwattr $C$DW$691, DW_AT_name("TIM1")
    8398                            .dwattr $C$DW$691, DW_AT_TI_symbol_name("TIM1")
    8399                            .dwattr $C$DW$691, DW_AT_data_member_location[DW_OP_plus_uconst 0x12]
    8400                            .dwattr $C$DW$691, DW_AT_accessibility(DW_ACCESS_public)
    8401                            .dwattr $C$DW$691, DW_AT_decl_file("C:\ti\ccs1200\ccs\ccs_base\arm\include\msp432p401r.h")
    8402                            .dwattr $C$DW$691, DW_AT_decl_line(0x457)
    8403                            .dwattr $C$DW$691, DW_AT_decl_column(0x11)
    8404                    
    8405                    $C$DW$692       .dwtag  DW_TAG_member
    8406                            .dwattr $C$DW$692, DW_AT_type(*$C$DW$T$41)
    8407                            .dwattr $C$DW$692, DW_AT_name("DATE")
    8408                            .dwattr $C$DW$692, DW_AT_TI_symbol_name("DATE")
    8409                            .dwattr $C$DW$692, DW_AT_data_member_location[DW_OP_plus_uconst 0x14]
    8410                            .dwattr $C$DW$692, DW_AT_accessibility(DW_ACCESS_public)
    8411                            .dwattr $C$DW$692, DW_AT_decl_file("C:\ti\ccs1200\ccs\ccs_base\arm\include\msp432p401r.h")
    8412                            .dwattr $C$DW$692, DW_AT_decl_line(0x458)
    8413                            .dwattr $C$DW$692, DW_AT_decl_column(0x11)
    8414                    
    8415                    $C$DW$693       .dwtag  DW_TAG_member
TI ARM Assembler PC v20.2.6 Mon Oct 31 23:16:56 2022

Copyright (c) 1996-2018 Texas Instruments Incorporated
system_msp432p401r.asm                                               PAGE  154

    8416                            .dwattr $C$DW$693, DW_AT_type(*$C$DW$T$41)
    8417                            .dwattr $C$DW$693, DW_AT_name("YEAR")
    8418                            .dwattr $C$DW$693, DW_AT_TI_symbol_name("YEAR")
    8419                            .dwattr $C$DW$693, DW_AT_data_member_location[DW_OP_plus_uconst 0x16]
    8420                            .dwattr $C$DW$693, DW_AT_accessibility(DW_ACCESS_public)
    8421                            .dwattr $C$DW$693, DW_AT_decl_file("C:\ti\ccs1200\ccs\ccs_base\arm\include\msp432p401r.h")
    8422                            .dwattr $C$DW$693, DW_AT_decl_line(0x459)
    8423                            .dwattr $C$DW$693, DW_AT_decl_column(0x11)
    8424                    
    8425                    $C$DW$694       .dwtag  DW_TAG_member
    8426                            .dwattr $C$DW$694, DW_AT_type(*$C$DW$T$41)
    8427                            .dwattr $C$DW$694, DW_AT_name("AMINHR")
    8428                            .dwattr $C$DW$694, DW_AT_TI_symbol_name("AMINHR")
    8429                            .dwattr $C$DW$694, DW_AT_data_member_location[DW_OP_plus_uconst 0x18]
    8430                            .dwattr $C$DW$694, DW_AT_accessibility(DW_ACCESS_public)
    8431                            .dwattr $C$DW$694, DW_AT_decl_file("C:\ti\ccs1200\ccs\ccs_base\arm\include\msp432p401r.h")
    8432                            .dwattr $C$DW$694, DW_AT_decl_line(0x45a)
    8433                            .dwattr $C$DW$694, DW_AT_decl_column(0x11)
    8434                    
    8435                    $C$DW$695       .dwtag  DW_TAG_member
    8436                            .dwattr $C$DW$695, DW_AT_type(*$C$DW$T$41)
    8437                            .dwattr $C$DW$695, DW_AT_name("ADOWDAY")
    8438                            .dwattr $C$DW$695, DW_AT_TI_symbol_name("ADOWDAY")
    8439                            .dwattr $C$DW$695, DW_AT_data_member_location[DW_OP_plus_uconst 0x1a]
    8440                            .dwattr $C$DW$695, DW_AT_accessibility(DW_ACCESS_public)
    8441                            .dwattr $C$DW$695, DW_AT_decl_file("C:\ti\ccs1200\ccs\ccs_base\arm\include\msp432p401r.h")
    8442                            .dwattr $C$DW$695, DW_AT_decl_line(0x45b)
    8443                            .dwattr $C$DW$695, DW_AT_decl_column(0x11)
    8444                    
    8445                    $C$DW$696       .dwtag  DW_TAG_member
    8446                            .dwattr $C$DW$696, DW_AT_type(*$C$DW$T$41)
    8447                            .dwattr $C$DW$696, DW_AT_name("BIN2BCD")
    8448                            .dwattr $C$DW$696, DW_AT_TI_symbol_name("BIN2BCD")
    8449                            .dwattr $C$DW$696, DW_AT_data_member_location[DW_OP_plus_uconst 0x1c]
    8450                            .dwattr $C$DW$696, DW_AT_accessibility(DW_ACCESS_public)
    8451                            .dwattr $C$DW$696, DW_AT_decl_file("C:\ti\ccs1200\ccs\ccs_base\arm\include\msp432p401r.h")
    8452                            .dwattr $C$DW$696, DW_AT_decl_line(0x45c)
    8453                            .dwattr $C$DW$696, DW_AT_decl_column(0x11)
    8454                    
    8455                    $C$DW$697       .dwtag  DW_TAG_member
    8456                            .dwattr $C$DW$697, DW_AT_type(*$C$DW$T$41)
    8457                            .dwattr $C$DW$697, DW_AT_name("BCD2BIN")
    8458                            .dwattr $C$DW$697, DW_AT_TI_symbol_name("BCD2BIN")
    8459                            .dwattr $C$DW$697, DW_AT_data_member_location[DW_OP_plus_uconst 0x1e]
    8460                            .dwattr $C$DW$697, DW_AT_accessibility(DW_ACCESS_public)
    8461                            .dwattr $C$DW$697, DW_AT_decl_file("C:\ti\ccs1200\ccs\ccs_base\arm\include\msp432p401r.h")
    8462                            .dwattr $C$DW$697, DW_AT_decl_line(0x45d)
    8463                            .dwattr $C$DW$697, DW_AT_decl_column(0x11)
    8464                    
    8465                            .dwattr $C$DW$T$143, DW_AT_decl_file("C:\ti\ccs1200\ccs\ccs_base\arm\include\msp432p401r.h")
    8466                            .dwattr $C$DW$T$143, DW_AT_decl_line(0x44d)
    8467                            .dwattr $C$DW$T$143, DW_AT_decl_column(0x10)
    8468                            .dwendtag $C$DW$T$143
    8469                    
    8470                    $C$DW$T$223     .dwtag  DW_TAG_typedef
TI ARM Assembler PC v20.2.6 Mon Oct 31 23:16:56 2022

Copyright (c) 1996-2018 Texas Instruments Incorporated
system_msp432p401r.asm                                               PAGE  155

    8471                            .dwattr $C$DW$T$223, DW_AT_name("RTC_C_Type")
    8472                            .dwattr $C$DW$T$223, DW_AT_type(*$C$DW$T$143)
    8473                            .dwattr $C$DW$T$223, DW_AT_language(DW_LANG_C)
    8474                            .dwattr $C$DW$T$223, DW_AT_decl_file("C:\ti\ccs1200\ccs\ccs_base\arm\include\msp432p401r.h")
    8475                            .dwattr $C$DW$T$223, DW_AT_decl_line(0x45e)
    8476                            .dwattr $C$DW$T$223, DW_AT_decl_column(0x03)
    8477                    
    8478                    
    8479                    $C$DW$T$145     .dwtag  DW_TAG_structure_type
    8480                            .dwattr $C$DW$T$145, DW_AT_byte_size(0x1c)
    8481                    $C$DW$698       .dwtag  DW_TAG_member
    8482                            .dwattr $C$DW$698, DW_AT_type(*$C$DW$T$144)
    8483                            .dwattr $C$DW$698, DW_AT_name("RESERVED0")
    8484                            .dwattr $C$DW$698, DW_AT_TI_symbol_name("RESERVED0")
    8485                            .dwattr $C$DW$698, DW_AT_data_member_location[DW_OP_plus_uconst 0x0]
    8486                            .dwattr $C$DW$698, DW_AT_accessibility(DW_ACCESS_public)
    8487                            .dwattr $C$DW$698, DW_AT_decl_file("C:\ti\ccs1200\ccs\ccs_base\arm\include\msp432p401r.h")
    8488                            .dwattr $C$DW$698, DW_AT_decl_line(0x466)
    8489                            .dwattr $C$DW$698, DW_AT_decl_column(0x11)
    8490                    
    8491                    $C$DW$699       .dwtag  DW_TAG_member
    8492                            .dwattr $C$DW$699, DW_AT_type(*$C$DW$T$41)
    8493                            .dwattr $C$DW$699, DW_AT_name("TIM0")
    8494                            .dwattr $C$DW$699, DW_AT_TI_symbol_name("TIM0")
    8495                            .dwattr $C$DW$699, DW_AT_data_member_location[DW_OP_plus_uconst 0x10]
    8496                            .dwattr $C$DW$699, DW_AT_accessibility(DW_ACCESS_public)
    8497                            .dwattr $C$DW$699, DW_AT_decl_file("C:\ti\ccs1200\ccs\ccs_base\arm\include\msp432p401r.h")
    8498                            .dwattr $C$DW$699, DW_AT_decl_line(0x467)
    8499                            .dwattr $C$DW$699, DW_AT_decl_column(0x11)
    8500                    
    8501                    $C$DW$700       .dwtag  DW_TAG_member
    8502                            .dwattr $C$DW$700, DW_AT_type(*$C$DW$T$41)
    8503                            .dwattr $C$DW$700, DW_AT_name("TIM1")
    8504                            .dwattr $C$DW$700, DW_AT_TI_symbol_name("TIM1")
    8505                            .dwattr $C$DW$700, DW_AT_data_member_location[DW_OP_plus_uconst 0x12]
    8506                            .dwattr $C$DW$700, DW_AT_accessibility(DW_ACCESS_public)
    8507                            .dwattr $C$DW$700, DW_AT_decl_file("C:\ti\ccs1200\ccs\ccs_base\arm\include\msp432p401r.h")
    8508                            .dwattr $C$DW$700, DW_AT_decl_line(0x468)
    8509                            .dwattr $C$DW$700, DW_AT_decl_column(0x11)
    8510                    
    8511                    $C$DW$701       .dwtag  DW_TAG_member
    8512                            .dwattr $C$DW$701, DW_AT_type(*$C$DW$T$41)
    8513                            .dwattr $C$DW$701, DW_AT_name("DATE")
    8514                            .dwattr $C$DW$701, DW_AT_TI_symbol_name("DATE")
    8515                            .dwattr $C$DW$701, DW_AT_data_member_location[DW_OP_plus_uconst 0x14]
    8516                            .dwattr $C$DW$701, DW_AT_accessibility(DW_ACCESS_public)
    8517                            .dwattr $C$DW$701, DW_AT_decl_file("C:\ti\ccs1200\ccs\ccs_base\arm\include\msp432p401r.h")
    8518                            .dwattr $C$DW$701, DW_AT_decl_line(0x469)
    8519                            .dwattr $C$DW$701, DW_AT_decl_column(0x11)
    8520                    
    8521                    $C$DW$702       .dwtag  DW_TAG_member
    8522                            .dwattr $C$DW$702, DW_AT_type(*$C$DW$T$41)
    8523                            .dwattr $C$DW$702, DW_AT_name("YEAR")
    8524                            .dwattr $C$DW$702, DW_AT_TI_symbol_name("YEAR")
    8525                            .dwattr $C$DW$702, DW_AT_data_member_location[DW_OP_plus_uconst 0x16]
TI ARM Assembler PC v20.2.6 Mon Oct 31 23:16:56 2022

Copyright (c) 1996-2018 Texas Instruments Incorporated
system_msp432p401r.asm                                               PAGE  156

    8526                            .dwattr $C$DW$702, DW_AT_accessibility(DW_ACCESS_public)
    8527                            .dwattr $C$DW$702, DW_AT_decl_file("C:\ti\ccs1200\ccs\ccs_base\arm\include\msp432p401r.h")
    8528                            .dwattr $C$DW$702, DW_AT_decl_line(0x46a)
    8529                            .dwattr $C$DW$702, DW_AT_decl_column(0x11)
    8530                    
    8531                    $C$DW$703       .dwtag  DW_TAG_member
    8532                            .dwattr $C$DW$703, DW_AT_type(*$C$DW$T$41)
    8533                            .dwattr $C$DW$703, DW_AT_name("AMINHR")
    8534                            .dwattr $C$DW$703, DW_AT_TI_symbol_name("AMINHR")
    8535                            .dwattr $C$DW$703, DW_AT_data_member_location[DW_OP_plus_uconst 0x18]
    8536                            .dwattr $C$DW$703, DW_AT_accessibility(DW_ACCESS_public)
    8537                            .dwattr $C$DW$703, DW_AT_decl_file("C:\ti\ccs1200\ccs\ccs_base\arm\include\msp432p401r.h")
    8538                            .dwattr $C$DW$703, DW_AT_decl_line(0x46b)
    8539                            .dwattr $C$DW$703, DW_AT_decl_column(0x11)
    8540                    
    8541                    $C$DW$704       .dwtag  DW_TAG_member
    8542                            .dwattr $C$DW$704, DW_AT_type(*$C$DW$T$41)
    8543                            .dwattr $C$DW$704, DW_AT_name("ADOWDAY")
    8544                            .dwattr $C$DW$704, DW_AT_TI_symbol_name("ADOWDAY")
    8545                            .dwattr $C$DW$704, DW_AT_data_member_location[DW_OP_plus_uconst 0x1a]
    8546                            .dwattr $C$DW$704, DW_AT_accessibility(DW_ACCESS_public)
    8547                            .dwattr $C$DW$704, DW_AT_decl_file("C:\ti\ccs1200\ccs\ccs_base\arm\include\msp432p401r.h")
    8548                            .dwattr $C$DW$704, DW_AT_decl_line(0x46c)
    8549                            .dwattr $C$DW$704, DW_AT_decl_column(0x11)
    8550                    
    8551                            .dwattr $C$DW$T$145, DW_AT_decl_file("C:\ti\ccs1200\ccs\ccs_base\arm\include\msp432p401r.h")
    8552                            .dwattr $C$DW$T$145, DW_AT_decl_line(0x465)
    8553                            .dwattr $C$DW$T$145, DW_AT_decl_column(0x10)
    8554                            .dwendtag $C$DW$T$145
    8555                    
    8556                    $C$DW$T$224     .dwtag  DW_TAG_typedef
    8557                            .dwattr $C$DW$T$224, DW_AT_name("RTC_C_BCD_Type")
    8558                            .dwattr $C$DW$T$224, DW_AT_type(*$C$DW$T$145)
    8559                            .dwattr $C$DW$T$224, DW_AT_language(DW_LANG_C)
    8560                            .dwattr $C$DW$T$224, DW_AT_decl_file("C:\ti\ccs1200\ccs\ccs_base\arm\include\msp432p401r.h")
    8561                            .dwattr $C$DW$T$224, DW_AT_decl_line(0x46d)
    8562                            .dwattr $C$DW$T$224, DW_AT_decl_column(0x03)
    8563                    
    8564                    
    8565                    $C$DW$T$147     .dwtag  DW_TAG_structure_type
    8566                            .dwattr $C$DW$T$147, DW_AT_byte_size(0x24)
    8567                    $C$DW$705       .dwtag  DW_TAG_member
    8568                            .dwattr $C$DW$705, DW_AT_type(*$C$DW$T$23)
    8569                            .dwattr $C$DW$705, DW_AT_name("MASTER_UNLOCK")
    8570                            .dwattr $C$DW$705, DW_AT_TI_symbol_name("MASTER_UNLOCK")
    8571                            .dwattr $C$DW$705, DW_AT_data_member_location[DW_OP_plus_uconst 0x0]
    8572                            .dwattr $C$DW$705, DW_AT_accessibility(DW_ACCESS_public)
    8573                            .dwattr $C$DW$705, DW_AT_decl_file("C:\ti\ccs1200\ccs\ccs_base\arm\include\msp432p401r.h")
    8574                            .dwattr $C$DW$705, DW_AT_decl_line(0x489)
    8575                            .dwattr $C$DW$705, DW_AT_decl_column(0x11)
    8576                    
    8577                    $C$DW$706       .dwtag  DW_TAG_member
    8578                            .dwattr $C$DW$706, DW_AT_type(*$C$DW$T$146)
    8579                            .dwattr $C$DW$706, DW_AT_name("BOOTOVER_REQ")
    8580                            .dwattr $C$DW$706, DW_AT_TI_symbol_name("BOOTOVER_REQ")
TI ARM Assembler PC v20.2.6 Mon Oct 31 23:16:56 2022

Copyright (c) 1996-2018 Texas Instruments Incorporated
system_msp432p401r.asm                                               PAGE  157

    8581                            .dwattr $C$DW$706, DW_AT_data_member_location[DW_OP_plus_uconst 0x4]
    8582                            .dwattr $C$DW$706, DW_AT_accessibility(DW_ACCESS_public)
    8583                            .dwattr $C$DW$706, DW_AT_decl_file("C:\ti\ccs1200\ccs\ccs_base\arm\include\msp432p401r.h")
    8584                            .dwattr $C$DW$706, DW_AT_decl_line(0x48a)
    8585                            .dwattr $C$DW$706, DW_AT_decl_column(0x11)
    8586                    
    8587                    $C$DW$707       .dwtag  DW_TAG_member
    8588                            .dwattr $C$DW$707, DW_AT_type(*$C$DW$T$23)
    8589                            .dwattr $C$DW$707, DW_AT_name("BOOTOVER_ACK")
    8590                            .dwattr $C$DW$707, DW_AT_TI_symbol_name("BOOTOVER_ACK")
    8591                            .dwattr $C$DW$707, DW_AT_data_member_location[DW_OP_plus_uconst 0xc]
    8592                            .dwattr $C$DW$707, DW_AT_accessibility(DW_ACCESS_public)
    8593                            .dwattr $C$DW$707, DW_AT_decl_file("C:\ti\ccs1200\ccs\ccs_base\arm\include\msp432p401r.h")
    8594                            .dwattr $C$DW$707, DW_AT_decl_line(0x48b)
    8595                            .dwattr $C$DW$707, DW_AT_decl_column(0x11)
    8596                    
    8597                    $C$DW$708       .dwtag  DW_TAG_member
    8598                            .dwattr $C$DW$708, DW_AT_type(*$C$DW$T$23)
    8599                            .dwattr $C$DW$708, DW_AT_name("RESET_REQ")
    8600                            .dwattr $C$DW$708, DW_AT_TI_symbol_name("RESET_REQ")
    8601                            .dwattr $C$DW$708, DW_AT_data_member_location[DW_OP_plus_uconst 0x10]
    8602                            .dwattr $C$DW$708, DW_AT_accessibility(DW_ACCESS_public)
    8603                            .dwattr $C$DW$708, DW_AT_decl_file("C:\ti\ccs1200\ccs\ccs_base\arm\include\msp432p401r.h")
    8604                            .dwattr $C$DW$708, DW_AT_decl_line(0x48c)
    8605                            .dwattr $C$DW$708, DW_AT_decl_column(0x11)
    8606                    
    8607                    $C$DW$709       .dwtag  DW_TAG_member
    8608                            .dwattr $C$DW$709, DW_AT_type(*$C$DW$T$23)
    8609                            .dwattr $C$DW$709, DW_AT_name("RESET_STATOVER")
    8610                            .dwattr $C$DW$709, DW_AT_TI_symbol_name("RESET_STATOVER")
    8611                            .dwattr $C$DW$709, DW_AT_data_member_location[DW_OP_plus_uconst 0x14]
    8612                            .dwattr $C$DW$709, DW_AT_accessibility(DW_ACCESS_public)
    8613                            .dwattr $C$DW$709, DW_AT_decl_file("C:\ti\ccs1200\ccs\ccs_base\arm\include\msp432p401r.h")
    8614                            .dwattr $C$DW$709, DW_AT_decl_line(0x48d)
    8615                            .dwattr $C$DW$709, DW_AT_decl_column(0x11)
    8616                    
    8617                    $C$DW$710       .dwtag  DW_TAG_member
    8618                            .dwattr $C$DW$710, DW_AT_type(*$C$DW$T$26)
    8619                            .dwattr $C$DW$710, DW_AT_name("RESERVED7")
    8620                            .dwattr $C$DW$710, DW_AT_TI_symbol_name("RESERVED7")
    8621                            .dwattr $C$DW$710, DW_AT_data_member_location[DW_OP_plus_uconst 0x18]
    8622                            .dwattr $C$DW$710, DW_AT_accessibility(DW_ACCESS_public)
    8623                            .dwattr $C$DW$710, DW_AT_decl_file("C:\ti\ccs1200\ccs\ccs_base\arm\include\msp432p401r.h")
    8624                            .dwattr $C$DW$710, DW_AT_decl_line(0x48e)
    8625                            .dwattr $C$DW$710, DW_AT_decl_column(0x11)
    8626                    
    8627                    $C$DW$711       .dwtag  DW_TAG_member
    8628                            .dwattr $C$DW$711, DW_AT_type(*$C$DW$T$25)
    8629                            .dwattr $C$DW$711, DW_AT_name("SYSTEM_STAT")
    8630                            .dwattr $C$DW$711, DW_AT_TI_symbol_name("SYSTEM_STAT")
    8631                            .dwattr $C$DW$711, DW_AT_data_member_location[DW_OP_plus_uconst 0x20]
    8632                            .dwattr $C$DW$711, DW_AT_accessibility(DW_ACCESS_public)
    8633                            .dwattr $C$DW$711, DW_AT_decl_file("C:\ti\ccs1200\ccs\ccs_base\arm\include\msp432p401r.h")
    8634                            .dwattr $C$DW$711, DW_AT_decl_line(0x48f)
    8635                            .dwattr $C$DW$711, DW_AT_decl_column(0x11)
TI ARM Assembler PC v20.2.6 Mon Oct 31 23:16:56 2022

Copyright (c) 1996-2018 Texas Instruments Incorporated
system_msp432p401r.asm                                               PAGE  158

    8636                    
    8637                            .dwattr $C$DW$T$147, DW_AT_decl_file("C:\ti\ccs1200\ccs\ccs_base\arm\include\msp432p401r.h")
    8638                            .dwattr $C$DW$T$147, DW_AT_decl_line(0x488)
    8639                            .dwattr $C$DW$T$147, DW_AT_decl_column(0x10)
    8640                            .dwendtag $C$DW$T$147
    8641                    
    8642                    $C$DW$T$225     .dwtag  DW_TAG_typedef
    8643                            .dwattr $C$DW$T$225, DW_AT_name("SYSCTL_Boot_Type")
    8644                            .dwattr $C$DW$T$225, DW_AT_type(*$C$DW$T$147)
    8645                            .dwattr $C$DW$T$225, DW_AT_language(DW_LANG_C)
    8646                            .dwattr $C$DW$T$225, DW_AT_decl_file("C:\ti\ccs1200\ccs\ccs_base\arm\include\msp432p401r.h")
    8647                            .dwattr $C$DW$T$225, DW_AT_decl_line(0x490)
    8648                            .dwattr $C$DW$T$225, DW_AT_decl_column(0x03)
    8649                    
    8650                    
    8651                    $C$DW$T$148     .dwtag  DW_TAG_structure_type
    8652                            .dwattr $C$DW$T$148, DW_AT_byte_size(0x1c)
    8653                    $C$DW$712       .dwtag  DW_TAG_member
    8654                            .dwattr $C$DW$712, DW_AT_type(*$C$DW$T$23)
    8655                            .dwattr $C$DW$712, DW_AT_name("LOAD")
    8656                            .dwattr $C$DW$712, DW_AT_TI_symbol_name("LOAD")
    8657                            .dwattr $C$DW$712, DW_AT_data_member_location[DW_OP_plus_uconst 0x0]
    8658                            .dwattr $C$DW$712, DW_AT_accessibility(DW_ACCESS_public)
    8659                            .dwattr $C$DW$712, DW_AT_decl_file("C:\ti\ccs1200\ccs\ccs_base\arm\include\msp432p401r.h")
    8660                            .dwattr $C$DW$712, DW_AT_decl_line(0x49c)
    8661                            .dwattr $C$DW$712, DW_AT_decl_column(0x11)
    8662                    
    8663                    $C$DW$713       .dwtag  DW_TAG_member
    8664                            .dwattr $C$DW$713, DW_AT_type(*$C$DW$T$25)
    8665                            .dwattr $C$DW$713, DW_AT_name("VALUE")
    8666                            .dwattr $C$DW$713, DW_AT_TI_symbol_name("VALUE")
    8667                            .dwattr $C$DW$713, DW_AT_data_member_location[DW_OP_plus_uconst 0x4]
    8668                            .dwattr $C$DW$713, DW_AT_accessibility(DW_ACCESS_public)
    8669                            .dwattr $C$DW$713, DW_AT_decl_file("C:\ti\ccs1200\ccs\ccs_base\arm\include\msp432p401r.h")
    8670                            .dwattr $C$DW$713, DW_AT_decl_line(0x49d)
    8671                            .dwattr $C$DW$713, DW_AT_decl_column(0x11)
    8672                    
    8673                    $C$DW$714       .dwtag  DW_TAG_member
    8674                            .dwattr $C$DW$714, DW_AT_type(*$C$DW$T$23)
    8675                            .dwattr $C$DW$714, DW_AT_name("CONTROL")
    8676                            .dwattr $C$DW$714, DW_AT_TI_symbol_name("CONTROL")
    8677                            .dwattr $C$DW$714, DW_AT_data_member_location[DW_OP_plus_uconst 0x8]
    8678                            .dwattr $C$DW$714, DW_AT_accessibility(DW_ACCESS_public)
    8679                            .dwattr $C$DW$714, DW_AT_decl_file("C:\ti\ccs1200\ccs\ccs_base\arm\include\msp432p401r.h")
    8680                            .dwattr $C$DW$714, DW_AT_decl_line(0x49e)
    8681                            .dwattr $C$DW$714, DW_AT_decl_column(0x11)
    8682                    
    8683                    $C$DW$715       .dwtag  DW_TAG_member
    8684                            .dwattr $C$DW$715, DW_AT_type(*$C$DW$T$23)
    8685                            .dwattr $C$DW$715, DW_AT_name("INTCLR")
    8686                            .dwattr $C$DW$715, DW_AT_TI_symbol_name("INTCLR")
    8687                            .dwattr $C$DW$715, DW_AT_data_member_location[DW_OP_plus_uconst 0xc]
    8688                            .dwattr $C$DW$715, DW_AT_accessibility(DW_ACCESS_public)
    8689                            .dwattr $C$DW$715, DW_AT_decl_file("C:\ti\ccs1200\ccs\ccs_base\arm\include\msp432p401r.h")
    8690                            .dwattr $C$DW$715, DW_AT_decl_line(0x49f)
TI ARM Assembler PC v20.2.6 Mon Oct 31 23:16:56 2022

Copyright (c) 1996-2018 Texas Instruments Incorporated
system_msp432p401r.asm                                               PAGE  159

    8691                            .dwattr $C$DW$715, DW_AT_decl_column(0x11)
    8692                    
    8693                    $C$DW$716       .dwtag  DW_TAG_member
    8694                            .dwattr $C$DW$716, DW_AT_type(*$C$DW$T$25)
    8695                            .dwattr $C$DW$716, DW_AT_name("RIS")
    8696                            .dwattr $C$DW$716, DW_AT_TI_symbol_name("RIS")
    8697                            .dwattr $C$DW$716, DW_AT_data_member_location[DW_OP_plus_uconst 0x10]
    8698                            .dwattr $C$DW$716, DW_AT_accessibility(DW_ACCESS_public)
    8699                            .dwattr $C$DW$716, DW_AT_decl_file("C:\ti\ccs1200\ccs\ccs_base\arm\include\msp432p401r.h")
    8700                            .dwattr $C$DW$716, DW_AT_decl_line(0x4a0)
    8701                            .dwattr $C$DW$716, DW_AT_decl_column(0x11)
    8702                    
    8703                    $C$DW$717       .dwtag  DW_TAG_member
    8704                            .dwattr $C$DW$717, DW_AT_type(*$C$DW$T$25)
    8705                            .dwattr $C$DW$717, DW_AT_name("MIS")
    8706                            .dwattr $C$DW$717, DW_AT_TI_symbol_name("MIS")
    8707                            .dwattr $C$DW$717, DW_AT_data_member_location[DW_OP_plus_uconst 0x14]
    8708                            .dwattr $C$DW$717, DW_AT_accessibility(DW_ACCESS_public)
    8709                            .dwattr $C$DW$717, DW_AT_decl_file("C:\ti\ccs1200\ccs\ccs_base\arm\include\msp432p401r.h")
    8710                            .dwattr $C$DW$717, DW_AT_decl_line(0x4a1)
    8711                            .dwattr $C$DW$717, DW_AT_decl_column(0x11)
    8712                    
    8713                    $C$DW$718       .dwtag  DW_TAG_member
    8714                            .dwattr $C$DW$718, DW_AT_type(*$C$DW$T$23)
    8715                            .dwattr $C$DW$718, DW_AT_name("BGLOAD")
    8716                            .dwattr $C$DW$718, DW_AT_TI_symbol_name("BGLOAD")
    8717                            .dwattr $C$DW$718, DW_AT_data_member_location[DW_OP_plus_uconst 0x18]
    8718                            .dwattr $C$DW$718, DW_AT_accessibility(DW_ACCESS_public)
    8719                            .dwattr $C$DW$718, DW_AT_decl_file("C:\ti\ccs1200\ccs\ccs_base\arm\include\msp432p401r.h")
    8720                            .dwattr $C$DW$718, DW_AT_decl_line(0x4a2)
    8721                            .dwattr $C$DW$718, DW_AT_decl_column(0x11)
    8722                    
    8723                            .dwattr $C$DW$T$148, DW_AT_decl_file("C:\ti\ccs1200\ccs\ccs_base\arm\include\msp432p401r.h")
    8724                            .dwattr $C$DW$T$148, DW_AT_decl_line(0x49b)
    8725                            .dwattr $C$DW$T$148, DW_AT_decl_column(0x10)
    8726                            .dwendtag $C$DW$T$148
    8727                    
    8728                    $C$DW$T$226     .dwtag  DW_TAG_typedef
    8729                            .dwattr $C$DW$T$226, DW_AT_name("Timer32_Type")
    8730                            .dwattr $C$DW$T$226, DW_AT_type(*$C$DW$T$148)
    8731                            .dwattr $C$DW$T$226, DW_AT_language(DW_LANG_C)
    8732                            .dwattr $C$DW$T$226, DW_AT_decl_file("C:\ti\ccs1200\ccs\ccs_base\arm\include\msp432p401r.h")
    8733                            .dwattr $C$DW$T$226, DW_AT_decl_line(0x4a3)
    8734                            .dwattr $C$DW$T$226, DW_AT_decl_column(0x03)
    8735                    
    8736                    
    8737                    $C$DW$T$150     .dwtag  DW_TAG_structure_type
    8738                            .dwattr $C$DW$T$150, DW_AT_byte_size(0x30)
    8739                    $C$DW$719       .dwtag  DW_TAG_member
    8740                            .dwattr $C$DW$719, DW_AT_type(*$C$DW$T$41)
    8741                            .dwattr $C$DW$719, DW_AT_name("CTL")
    8742                            .dwattr $C$DW$719, DW_AT_TI_symbol_name("CTL")
    8743                            .dwattr $C$DW$719, DW_AT_data_member_location[DW_OP_plus_uconst 0x0]
    8744                            .dwattr $C$DW$719, DW_AT_accessibility(DW_ACCESS_public)
    8745                            .dwattr $C$DW$719, DW_AT_decl_file("C:\ti\ccs1200\ccs\ccs_base\arm\include\msp432p401r.h")
TI ARM Assembler PC v20.2.6 Mon Oct 31 23:16:56 2022

Copyright (c) 1996-2018 Texas Instruments Incorporated
system_msp432p401r.asm                                               PAGE  160

    8746                            .dwattr $C$DW$719, DW_AT_decl_line(0x4af)
    8747                            .dwattr $C$DW$719, DW_AT_decl_column(0x11)
    8748                    
    8749                    $C$DW$720       .dwtag  DW_TAG_member
    8750                            .dwattr $C$DW$720, DW_AT_type(*$C$DW$T$149)
    8751                            .dwattr $C$DW$720, DW_AT_name("CCTL")
    8752                            .dwattr $C$DW$720, DW_AT_TI_symbol_name("CCTL")
    8753                            .dwattr $C$DW$720, DW_AT_data_member_location[DW_OP_plus_uconst 0x2]
    8754                            .dwattr $C$DW$720, DW_AT_accessibility(DW_ACCESS_public)
    8755                            .dwattr $C$DW$720, DW_AT_decl_file("C:\ti\ccs1200\ccs\ccs_base\arm\include\msp432p401r.h")
    8756                            .dwattr $C$DW$720, DW_AT_decl_line(0x4b0)
    8757                            .dwattr $C$DW$720, DW_AT_decl_column(0x11)
    8758                    
    8759                    $C$DW$721       .dwtag  DW_TAG_member
    8760                            .dwattr $C$DW$721, DW_AT_type(*$C$DW$T$85)
    8761                            .dwattr $C$DW$721, DW_AT_name("RESERVED0")
    8762                            .dwattr $C$DW$721, DW_AT_TI_symbol_name("RESERVED0")
    8763                            .dwattr $C$DW$721, DW_AT_data_member_location[DW_OP_plus_uconst 0xc]
    8764                            .dwattr $C$DW$721, DW_AT_accessibility(DW_ACCESS_public)
    8765                            .dwattr $C$DW$721, DW_AT_decl_file("C:\ti\ccs1200\ccs\ccs_base\arm\include\msp432p401r.h")
    8766                            .dwattr $C$DW$721, DW_AT_decl_line(0x4b1)
    8767                            .dwattr $C$DW$721, DW_AT_decl_column(0x11)
    8768                    
    8769                    $C$DW$722       .dwtag  DW_TAG_member
    8770                            .dwattr $C$DW$722, DW_AT_type(*$C$DW$T$41)
    8771                            .dwattr $C$DW$722, DW_AT_name("R")
    8772                            .dwattr $C$DW$722, DW_AT_TI_symbol_name("R")
    8773                            .dwattr $C$DW$722, DW_AT_data_member_location[DW_OP_plus_uconst 0x10]
    8774                            .dwattr $C$DW$722, DW_AT_accessibility(DW_ACCESS_public)
    8775                            .dwattr $C$DW$722, DW_AT_decl_file("C:\ti\ccs1200\ccs\ccs_base\arm\include\msp432p401r.h")
    8776                            .dwattr $C$DW$722, DW_AT_decl_line(0x4b2)
    8777                            .dwattr $C$DW$722, DW_AT_decl_column(0x11)
    8778                    
    8779                    $C$DW$723       .dwtag  DW_TAG_member
    8780                            .dwattr $C$DW$723, DW_AT_type(*$C$DW$T$149)
    8781                            .dwattr $C$DW$723, DW_AT_name("CCR")
    8782                            .dwattr $C$DW$723, DW_AT_TI_symbol_name("CCR")
    8783                            .dwattr $C$DW$723, DW_AT_data_member_location[DW_OP_plus_uconst 0x12]
    8784                            .dwattr $C$DW$723, DW_AT_accessibility(DW_ACCESS_public)
    8785                            .dwattr $C$DW$723, DW_AT_decl_file("C:\ti\ccs1200\ccs\ccs_base\arm\include\msp432p401r.h")
    8786                            .dwattr $C$DW$723, DW_AT_decl_line(0x4b3)
    8787                            .dwattr $C$DW$723, DW_AT_decl_column(0x11)
    8788                    
    8789                    $C$DW$724       .dwtag  DW_TAG_member
    8790                            .dwattr $C$DW$724, DW_AT_type(*$C$DW$T$85)
    8791                            .dwattr $C$DW$724, DW_AT_name("RESERVED1")
    8792                            .dwattr $C$DW$724, DW_AT_TI_symbol_name("RESERVED1")
    8793                            .dwattr $C$DW$724, DW_AT_data_member_location[DW_OP_plus_uconst 0x1c]
    8794                            .dwattr $C$DW$724, DW_AT_accessibility(DW_ACCESS_public)
    8795                            .dwattr $C$DW$724, DW_AT_decl_file("C:\ti\ccs1200\ccs\ccs_base\arm\include\msp432p401r.h")
    8796                            .dwattr $C$DW$724, DW_AT_decl_line(0x4b4)
    8797                            .dwattr $C$DW$724, DW_AT_decl_column(0x11)
    8798                    
    8799                    $C$DW$725       .dwtag  DW_TAG_member
    8800                            .dwattr $C$DW$725, DW_AT_type(*$C$DW$T$41)
TI ARM Assembler PC v20.2.6 Mon Oct 31 23:16:56 2022

Copyright (c) 1996-2018 Texas Instruments Incorporated
system_msp432p401r.asm                                               PAGE  161

    8801                            .dwattr $C$DW$725, DW_AT_name("EX0")
    8802                            .dwattr $C$DW$725, DW_AT_TI_symbol_name("EX0")
    8803                            .dwattr $C$DW$725, DW_AT_data_member_location[DW_OP_plus_uconst 0x20]
    8804                            .dwattr $C$DW$725, DW_AT_accessibility(DW_ACCESS_public)
    8805                            .dwattr $C$DW$725, DW_AT_decl_file("C:\ti\ccs1200\ccs\ccs_base\arm\include\msp432p401r.h")
    8806                            .dwattr $C$DW$725, DW_AT_decl_line(0x4b5)
    8807                            .dwattr $C$DW$725, DW_AT_decl_column(0x11)
    8808                    
    8809                    $C$DW$726       .dwtag  DW_TAG_member
    8810                            .dwattr $C$DW$726, DW_AT_type(*$C$DW$T$40)
    8811                            .dwattr $C$DW$726, DW_AT_name("RESERVED2")
    8812                            .dwattr $C$DW$726, DW_AT_TI_symbol_name("RESERVED2")
    8813                            .dwattr $C$DW$726, DW_AT_data_member_location[DW_OP_plus_uconst 0x22]
    8814                            .dwattr $C$DW$726, DW_AT_accessibility(DW_ACCESS_public)
    8815                            .dwattr $C$DW$726, DW_AT_decl_file("C:\ti\ccs1200\ccs\ccs_base\arm\include\msp432p401r.h")
    8816                            .dwattr $C$DW$726, DW_AT_decl_line(0x4b6)
    8817                            .dwattr $C$DW$726, DW_AT_decl_column(0x11)
    8818                    
    8819                    $C$DW$727       .dwtag  DW_TAG_member
    8820                            .dwattr $C$DW$727, DW_AT_type(*$C$DW$T$86)
    8821                            .dwattr $C$DW$727, DW_AT_name("IV")
    8822                            .dwattr $C$DW$727, DW_AT_TI_symbol_name("IV")
    8823                            .dwattr $C$DW$727, DW_AT_data_member_location[DW_OP_plus_uconst 0x2e]
    8824                            .dwattr $C$DW$727, DW_AT_accessibility(DW_ACCESS_public)
    8825                            .dwattr $C$DW$727, DW_AT_decl_file("C:\ti\ccs1200\ccs\ccs_base\arm\include\msp432p401r.h")
    8826                            .dwattr $C$DW$727, DW_AT_decl_line(0x4b7)
    8827                            .dwattr $C$DW$727, DW_AT_decl_column(0x11)
    8828                    
    8829                            .dwattr $C$DW$T$150, DW_AT_decl_file("C:\ti\ccs1200\ccs\ccs_base\arm\include\msp432p401r.h")
    8830                            .dwattr $C$DW$T$150, DW_AT_decl_line(0x4ae)
    8831                            .dwattr $C$DW$T$150, DW_AT_decl_column(0x10)
    8832                            .dwendtag $C$DW$T$150
    8833                    
    8834                    $C$DW$T$227     .dwtag  DW_TAG_typedef
    8835                            .dwattr $C$DW$T$227, DW_AT_name("Timer_A_Type")
    8836                            .dwattr $C$DW$T$227, DW_AT_type(*$C$DW$T$150)
    8837                            .dwattr $C$DW$T$227, DW_AT_language(DW_LANG_C)
    8838                            .dwattr $C$DW$T$227, DW_AT_decl_file("C:\ti\ccs1200\ccs\ccs_base\arm\include\msp432p401r.h")
    8839                            .dwattr $C$DW$T$227, DW_AT_decl_line(0x4b8)
    8840                            .dwattr $C$DW$T$227, DW_AT_decl_column(0x03)
    8841                    
    8842                    
    8843                    $C$DW$T$151     .dwtag  DW_TAG_union_type
    8844                            .dwattr $C$DW$T$151, DW_AT_byte_size(0x04)
    8845                    $C$DW$728       .dwtag  DW_TAG_member
    8846                            .dwattr $C$DW$728, DW_AT_type(*$C$DW$T$48)
    8847                            .dwattr $C$DW$728, DW_AT_name("b")
    8848                            .dwattr $C$DW$728, DW_AT_TI_symbol_name("b")
    8849                            .dwattr $C$DW$728, DW_AT_data_member_location[DW_OP_plus_uconst 0x0]
    8850                            .dwattr $C$DW$728, DW_AT_accessibility(DW_ACCESS_public)
    8851                            .dwattr $C$DW$728, DW_AT_decl_file("C:/ti/ccs1200/ccs/ccs_base/arm/include/CMSIS/core_cm4.h")
    8852                            .dwattr $C$DW$728, DW_AT_decl_line(0x10d)
    8853                            .dwattr $C$DW$728, DW_AT_decl_column(0x05)
    8854                    
    8855                    $C$DW$729       .dwtag  DW_TAG_member
TI ARM Assembler PC v20.2.6 Mon Oct 31 23:16:56 2022

Copyright (c) 1996-2018 Texas Instruments Incorporated
system_msp432p401r.asm                                               PAGE  162

    8856                            .dwattr $C$DW$729, DW_AT_type(*$C$DW$T$22)
    8857                            .dwattr $C$DW$729, DW_AT_name("w")
    8858                            .dwattr $C$DW$729, DW_AT_TI_symbol_name("w")
    8859                            .dwattr $C$DW$729, DW_AT_data_member_location[DW_OP_plus_uconst 0x0]
    8860                            .dwattr $C$DW$729, DW_AT_accessibility(DW_ACCESS_public)
    8861                            .dwattr $C$DW$729, DW_AT_decl_file("C:/ti/ccs1200/ccs/ccs_base/arm/include/CMSIS/core_cm4.h")
    8862                            .dwattr $C$DW$729, DW_AT_decl_line(0x10e)
    8863                            .dwattr $C$DW$729, DW_AT_decl_column(0x0c)
    8864                    
    8865                            .dwattr $C$DW$T$151, DW_AT_decl_file("C:/ti/ccs1200/ccs/ccs_base/arm/include/CMSIS/core_cm4.h"
    8866                            .dwattr $C$DW$T$151, DW_AT_decl_line(0x102)
    8867                            .dwattr $C$DW$T$151, DW_AT_decl_column(0x01)
    8868                            .dwendtag $C$DW$T$151
    8869                    
    8870                    $C$DW$T$228     .dwtag  DW_TAG_typedef
    8871                            .dwattr $C$DW$T$228, DW_AT_name("APSR_Type")
    8872                            .dwattr $C$DW$T$228, DW_AT_type(*$C$DW$T$151)
    8873                            .dwattr $C$DW$T$228, DW_AT_language(DW_LANG_C)
    8874                            .dwattr $C$DW$T$228, DW_AT_decl_file("C:/ti/ccs1200/ccs/ccs_base/arm/include/CMSIS/core_cm4.h"
    8875                            .dwattr $C$DW$T$228, DW_AT_decl_line(0x10f)
    8876                            .dwattr $C$DW$T$228, DW_AT_decl_column(0x03)
    8877                    
    8878                    
    8879                    $C$DW$T$152     .dwtag  DW_TAG_union_type
    8880                            .dwattr $C$DW$T$152, DW_AT_byte_size(0x04)
    8881                    $C$DW$730       .dwtag  DW_TAG_member
    8882                            .dwattr $C$DW$730, DW_AT_type(*$C$DW$T$49)
    8883                            .dwattr $C$DW$730, DW_AT_name("b")
    8884                            .dwattr $C$DW$730, DW_AT_TI_symbol_name("b")
    8885                            .dwattr $C$DW$730, DW_AT_data_member_location[DW_OP_plus_uconst 0x0]
    8886                            .dwattr $C$DW$730, DW_AT_accessibility(DW_ACCESS_public)
    8887                            .dwattr $C$DW$730, DW_AT_decl_file("C:/ti/ccs1200/ccs/ccs_base/arm/include/CMSIS/core_cm4.h")
    8888                            .dwattr $C$DW$730, DW_AT_decl_line(0x12e)
    8889                            .dwattr $C$DW$730, DW_AT_decl_column(0x05)
    8890                    
    8891                    $C$DW$731       .dwtag  DW_TAG_member
    8892                            .dwattr $C$DW$731, DW_AT_type(*$C$DW$T$22)
    8893                            .dwattr $C$DW$731, DW_AT_name("w")
    8894                            .dwattr $C$DW$731, DW_AT_TI_symbol_name("w")
    8895                            .dwattr $C$DW$731, DW_AT_data_member_location[DW_OP_plus_uconst 0x0]
    8896                            .dwattr $C$DW$731, DW_AT_accessibility(DW_ACCESS_public)
    8897                            .dwattr $C$DW$731, DW_AT_decl_file("C:/ti/ccs1200/ccs/ccs_base/arm/include/CMSIS/core_cm4.h")
    8898                            .dwattr $C$DW$731, DW_AT_decl_line(0x12f)
    8899                            .dwattr $C$DW$731, DW_AT_decl_column(0x0c)
    8900                    
    8901                            .dwattr $C$DW$T$152, DW_AT_decl_file("C:/ti/ccs1200/ccs/ccs_base/arm/include/CMSIS/core_cm4.h"
    8902                            .dwattr $C$DW$T$152, DW_AT_decl_line(0x129)
    8903                            .dwattr $C$DW$T$152, DW_AT_decl_column(0x01)
    8904                            .dwendtag $C$DW$T$152
    8905                    
    8906                    $C$DW$T$229     .dwtag  DW_TAG_typedef
    8907                            .dwattr $C$DW$T$229, DW_AT_name("IPSR_Type")
    8908                            .dwattr $C$DW$T$229, DW_AT_type(*$C$DW$T$152)
    8909                            .dwattr $C$DW$T$229, DW_AT_language(DW_LANG_C)
    8910                            .dwattr $C$DW$T$229, DW_AT_decl_file("C:/ti/ccs1200/ccs/ccs_base/arm/include/CMSIS/core_cm4.h"
TI ARM Assembler PC v20.2.6 Mon Oct 31 23:16:56 2022

Copyright (c) 1996-2018 Texas Instruments Incorporated
system_msp432p401r.asm                                               PAGE  163

    8911                            .dwattr $C$DW$T$229, DW_AT_decl_line(0x130)
    8912                            .dwattr $C$DW$T$229, DW_AT_decl_column(0x03)
    8913                    
    8914                    
    8915                    $C$DW$T$153     .dwtag  DW_TAG_union_type
    8916                            .dwattr $C$DW$T$153, DW_AT_byte_size(0x04)
    8917                    $C$DW$732       .dwtag  DW_TAG_member
    8918                            .dwattr $C$DW$732, DW_AT_type(*$C$DW$T$50)
    8919                            .dwattr $C$DW$732, DW_AT_name("b")
    8920                            .dwattr $C$DW$732, DW_AT_TI_symbol_name("b")
    8921                            .dwattr $C$DW$732, DW_AT_data_member_location[DW_OP_plus_uconst 0x0]
    8922                            .dwattr $C$DW$732, DW_AT_accessibility(DW_ACCESS_public)
    8923                            .dwattr $C$DW$732, DW_AT_decl_file("C:/ti/ccs1200/ccs/ccs_base/arm/include/CMSIS/core_cm4.h")
    8924                            .dwattr $C$DW$732, DW_AT_decl_line(0x14a)
    8925                            .dwattr $C$DW$732, DW_AT_decl_column(0x05)
    8926                    
    8927                    $C$DW$733       .dwtag  DW_TAG_member
    8928                            .dwattr $C$DW$733, DW_AT_type(*$C$DW$T$22)
    8929                            .dwattr $C$DW$733, DW_AT_name("w")
    8930                            .dwattr $C$DW$733, DW_AT_TI_symbol_name("w")
    8931                            .dwattr $C$DW$733, DW_AT_data_member_location[DW_OP_plus_uconst 0x0]
    8932                            .dwattr $C$DW$733, DW_AT_accessibility(DW_ACCESS_public)
    8933                            .dwattr $C$DW$733, DW_AT_decl_file("C:/ti/ccs1200/ccs/ccs_base/arm/include/CMSIS/core_cm4.h")
    8934                            .dwattr $C$DW$733, DW_AT_decl_line(0x14b)
    8935                            .dwattr $C$DW$733, DW_AT_decl_column(0x0c)
    8936                    
    8937                            .dwattr $C$DW$T$153, DW_AT_decl_file("C:/ti/ccs1200/ccs/ccs_base/arm/include/CMSIS/core_cm4.h"
    8938                            .dwattr $C$DW$T$153, DW_AT_decl_line(0x13b)
    8939                            .dwattr $C$DW$T$153, DW_AT_decl_column(0x01)
    8940                            .dwendtag $C$DW$T$153
    8941                    
    8942                    $C$DW$T$230     .dwtag  DW_TAG_typedef
    8943                            .dwattr $C$DW$T$230, DW_AT_name("xPSR_Type")
    8944                            .dwattr $C$DW$T$230, DW_AT_type(*$C$DW$T$153)
    8945                            .dwattr $C$DW$T$230, DW_AT_language(DW_LANG_C)
    8946                            .dwattr $C$DW$T$230, DW_AT_decl_file("C:/ti/ccs1200/ccs/ccs_base/arm/include/CMSIS/core_cm4.h"
    8947                            .dwattr $C$DW$T$230, DW_AT_decl_line(0x14c)
    8948                            .dwattr $C$DW$T$230, DW_AT_decl_column(0x03)
    8949                    
    8950                    
    8951                    $C$DW$T$154     .dwtag  DW_TAG_union_type
    8952                            .dwattr $C$DW$T$154, DW_AT_byte_size(0x04)
    8953                    $C$DW$734       .dwtag  DW_TAG_member
    8954                            .dwattr $C$DW$734, DW_AT_type(*$C$DW$T$51)
    8955                            .dwattr $C$DW$734, DW_AT_name("b")
    8956                            .dwattr $C$DW$734, DW_AT_TI_symbol_name("b")
    8957                            .dwattr $C$DW$734, DW_AT_data_member_location[DW_OP_plus_uconst 0x0]
    8958                            .dwattr $C$DW$734, DW_AT_accessibility(DW_ACCESS_public)
    8959                            .dwattr $C$DW$734, DW_AT_decl_file("C:/ti/ccs1200/ccs/ccs_base/arm/include/CMSIS/core_cm4.h")
    8960                            .dwattr $C$DW$734, DW_AT_decl_line(0x179)
    8961                            .dwattr $C$DW$734, DW_AT_decl_column(0x05)
    8962                    
    8963                    $C$DW$735       .dwtag  DW_TAG_member
    8964                            .dwattr $C$DW$735, DW_AT_type(*$C$DW$T$22)
    8965                            .dwattr $C$DW$735, DW_AT_name("w")
TI ARM Assembler PC v20.2.6 Mon Oct 31 23:16:56 2022

Copyright (c) 1996-2018 Texas Instruments Incorporated
system_msp432p401r.asm                                               PAGE  164

    8966                            .dwattr $C$DW$735, DW_AT_TI_symbol_name("w")
    8967                            .dwattr $C$DW$735, DW_AT_data_member_location[DW_OP_plus_uconst 0x0]
    8968                            .dwattr $C$DW$735, DW_AT_accessibility(DW_ACCESS_public)
    8969                            .dwattr $C$DW$735, DW_AT_decl_file("C:/ti/ccs1200/ccs/ccs_base/arm/include/CMSIS/core_cm4.h")
    8970                            .dwattr $C$DW$735, DW_AT_decl_line(0x17a)
    8971                            .dwattr $C$DW$735, DW_AT_decl_column(0x0c)
    8972                    
    8973                            .dwattr $C$DW$T$154, DW_AT_decl_file("C:/ti/ccs1200/ccs/ccs_base/arm/include/CMSIS/core_cm4.h"
    8974                            .dwattr $C$DW$T$154, DW_AT_decl_line(0x172)
    8975                            .dwattr $C$DW$T$154, DW_AT_decl_column(0x01)
    8976                            .dwendtag $C$DW$T$154
    8977                    
    8978                    $C$DW$T$231     .dwtag  DW_TAG_typedef
    8979                            .dwattr $C$DW$T$231, DW_AT_name("CONTROL_Type")
    8980                            .dwattr $C$DW$T$231, DW_AT_type(*$C$DW$T$154)
    8981                            .dwattr $C$DW$T$231, DW_AT_language(DW_LANG_C)
    8982                            .dwattr $C$DW$T$231, DW_AT_decl_file("C:/ti/ccs1200/ccs/ccs_base/arm/include/CMSIS/core_cm4.h"
    8983                            .dwattr $C$DW$T$231, DW_AT_decl_line(0x17b)
    8984                            .dwattr $C$DW$T$231, DW_AT_decl_column(0x03)
    8985                    
    8986                    
    8987                    $C$DW$T$155     .dwtag  DW_TAG_union_type
    8988                            .dwattr $C$DW$T$155, DW_AT_byte_size(0x04)
    8989                    $C$DW$736       .dwtag  DW_TAG_member
    8990                            .dwattr $C$DW$736, DW_AT_type(*$C$DW$T$31)
    8991                            .dwattr $C$DW$736, DW_AT_name("u8")
    8992                            .dwattr $C$DW$736, DW_AT_TI_symbol_name("u8")
    8993                            .dwattr $C$DW$736, DW_AT_data_member_location[DW_OP_plus_uconst 0x0]
    8994                            .dwattr $C$DW$736, DW_AT_accessibility(DW_ACCESS_public)
    8995                            .dwattr $C$DW$736, DW_AT_decl_file("C:/ti/ccs1200/ccs/ccs_base/arm/include/CMSIS/core_cm4.h")
    8996                            .dwattr $C$DW$736, DW_AT_decl_line(0x32d)
    8997                            .dwattr $C$DW$736, DW_AT_decl_column(0x16)
    8998                    
    8999                    $C$DW$737       .dwtag  DW_TAG_member
    9000                            .dwattr $C$DW$737, DW_AT_type(*$C$DW$T$41)
    9001                            .dwattr $C$DW$737, DW_AT_name("u16")
    9002                            .dwattr $C$DW$737, DW_AT_TI_symbol_name("u16")
    9003                            .dwattr $C$DW$737, DW_AT_data_member_location[DW_OP_plus_uconst 0x0]
    9004                            .dwattr $C$DW$737, DW_AT_accessibility(DW_ACCESS_public)
    9005                            .dwattr $C$DW$737, DW_AT_decl_file("C:/ti/ccs1200/ccs/ccs_base/arm/include/CMSIS/core_cm4.h")
    9006                            .dwattr $C$DW$737, DW_AT_decl_line(0x32e)
    9007                            .dwattr $C$DW$737, DW_AT_decl_column(0x16)
    9008                    
    9009                    $C$DW$738       .dwtag  DW_TAG_member
    9010                            .dwattr $C$DW$738, DW_AT_type(*$C$DW$T$23)
    9011                            .dwattr $C$DW$738, DW_AT_name("u32")
    9012                            .dwattr $C$DW$738, DW_AT_TI_symbol_name("u32")
    9013                            .dwattr $C$DW$738, DW_AT_data_member_location[DW_OP_plus_uconst 0x0]
    9014                            .dwattr $C$DW$738, DW_AT_accessibility(DW_ACCESS_public)
    9015                            .dwattr $C$DW$738, DW_AT_decl_file("C:/ti/ccs1200/ccs/ccs_base/arm/include/CMSIS/core_cm4.h")
    9016                            .dwattr $C$DW$738, DW_AT_decl_line(0x32f)
    9017                            .dwattr $C$DW$738, DW_AT_decl_column(0x16)
    9018                    
    9019                            .dwattr $C$DW$T$155, DW_AT_decl_file("C:/ti/ccs1200/ccs/ccs_base/arm/include/CMSIS/core_cm4.h"
    9020                            .dwattr $C$DW$T$155, DW_AT_decl_line(0x32c)
TI ARM Assembler PC v20.2.6 Mon Oct 31 23:16:56 2022

Copyright (c) 1996-2018 Texas Instruments Incorporated
system_msp432p401r.asm                                               PAGE  165

    9021                            .dwattr $C$DW$T$155, DW_AT_decl_column(0x03)
    9022                            .dwendtag $C$DW$T$155
    9023                    
    9024                    $C$DW$T$61      .dwtag  DW_TAG_volatile_type
    9025                            .dwattr $C$DW$T$61, DW_AT_type(*$C$DW$T$155)
    9026                    
    9027                    
    9028                    $C$DW$T$62      .dwtag  DW_TAG_array_type
    9029                            .dwattr $C$DW$T$62, DW_AT_type(*$C$DW$T$61)
    9030                            .dwattr $C$DW$T$62, DW_AT_language(DW_LANG_C)
    9031                            .dwattr $C$DW$T$62, DW_AT_byte_size(0x80)
    9032                    $C$DW$739       .dwtag  DW_TAG_subrange_type
    9033                            .dwattr $C$DW$739, DW_AT_upper_bound(0x1f)
    9034                    
    9035                            .dwendtag $C$DW$T$62
    9036                    
    9037                    
    9038                    $C$DW$T$156     .dwtag  DW_TAG_union_type
    9039                            .dwattr $C$DW$T$156, DW_AT_byte_size(0x02)
    9040                    $C$DW$740       .dwtag  DW_TAG_member
    9041                            .dwattr $C$DW$740, DW_AT_type(*$C$DW$T$86)
    9042                            .dwattr $C$DW$740, DW_AT_name("IN")
    9043                            .dwattr $C$DW$740, DW_AT_TI_symbol_name("IN")
    9044                            .dwattr $C$DW$740, DW_AT_data_member_location[DW_OP_plus_uconst 0x0]
    9045                            .dwattr $C$DW$740, DW_AT_accessibility(DW_ACCESS_public)
    9046                            .dwattr $C$DW$740, DW_AT_decl_file("C:\ti\ccs1200\ccs\ccs_base\arm\include\msp432p401r.h")
    9047                            .dwattr $C$DW$740, DW_AT_decl_line(0x1f9)
    9048                            .dwattr $C$DW$740, DW_AT_decl_column(0x12)
    9049                    
    9050                    $C$DW$741       .dwtag  DW_TAG_member
    9051                            .dwattr $C$DW$741, DW_AT_type(*$C$DW$T$90)
    9052                            .dwattr $C$DW$741, DW_AT_name("$P$T0")
    9053                            .dwattr $C$DW$741, DW_AT_TI_symbol_name("$P$T0")
    9054                            .dwattr $C$DW$741, DW_AT_data_member_location[DW_OP_plus_uconst 0x0]
    9055                            .dwattr $C$DW$741, DW_AT_accessibility(DW_ACCESS_public)
    9056                            .dwattr $C$DW$741, DW_AT_decl_file("C:\ti\ccs1200\ccs\ccs_base\arm\include\msp432p401r.h")
    9057                            .dwattr $C$DW$741, DW_AT_decl_line(0x1fa)
    9058                            .dwattr $C$DW$741, DW_AT_decl_column(0x05)
    9059                    
    9060                            .dwattr $C$DW$T$156, DW_AT_decl_file("C:\ti\ccs1200\ccs\ccs_base\arm\include\msp432p401r.h")
    9061                            .dwattr $C$DW$T$156, DW_AT_decl_line(0x1f8)
    9062                            .dwattr $C$DW$T$156, DW_AT_decl_column(0x09)
    9063                            .dwendtag $C$DW$T$156
    9064                    
    9065                    
    9066                    $C$DW$T$157     .dwtag  DW_TAG_union_type
    9067                            .dwattr $C$DW$T$157, DW_AT_byte_size(0x02)
    9068                    $C$DW$742       .dwtag  DW_TAG_member
    9069                            .dwattr $C$DW$742, DW_AT_type(*$C$DW$T$41)
    9070                            .dwattr $C$DW$742, DW_AT_name("OUT")
    9071                            .dwattr $C$DW$742, DW_AT_TI_symbol_name("OUT")
    9072                            .dwattr $C$DW$742, DW_AT_data_member_location[DW_OP_plus_uconst 0x0]
    9073                            .dwattr $C$DW$742, DW_AT_accessibility(DW_ACCESS_public)
    9074                            .dwattr $C$DW$742, DW_AT_decl_file("C:\ti\ccs1200\ccs\ccs_base\arm\include\msp432p401r.h")
    9075                            .dwattr $C$DW$742, DW_AT_decl_line(0x200)
TI ARM Assembler PC v20.2.6 Mon Oct 31 23:16:56 2022

Copyright (c) 1996-2018 Texas Instruments Incorporated
system_msp432p401r.asm                                               PAGE  166

    9076                            .dwattr $C$DW$742, DW_AT_decl_column(0x13)
    9077                    
    9078                    $C$DW$743       .dwtag  DW_TAG_member
    9079                            .dwattr $C$DW$743, DW_AT_type(*$C$DW$T$91)
    9080                            .dwattr $C$DW$743, DW_AT_name("$P$T1")
    9081                            .dwattr $C$DW$743, DW_AT_TI_symbol_name("$P$T1")
    9082                            .dwattr $C$DW$743, DW_AT_data_member_location[DW_OP_plus_uconst 0x0]
    9083                            .dwattr $C$DW$743, DW_AT_accessibility(DW_ACCESS_public)
    9084                            .dwattr $C$DW$743, DW_AT_decl_file("C:\ti\ccs1200\ccs\ccs_base\arm\include\msp432p401r.h")
    9085                            .dwattr $C$DW$743, DW_AT_decl_line(0x201)
    9086                            .dwattr $C$DW$743, DW_AT_decl_column(0x05)
    9087                    
    9088                            .dwattr $C$DW$T$157, DW_AT_decl_file("C:\ti\ccs1200\ccs\ccs_base\arm\include\msp432p401r.h")
    9089                            .dwattr $C$DW$T$157, DW_AT_decl_line(0x1ff)
    9090                            .dwattr $C$DW$T$157, DW_AT_decl_column(0x09)
    9091                            .dwendtag $C$DW$T$157
    9092                    
    9093                    
    9094                    $C$DW$T$158     .dwtag  DW_TAG_union_type
    9095                            .dwattr $C$DW$T$158, DW_AT_byte_size(0x02)
    9096                    $C$DW$744       .dwtag  DW_TAG_member
    9097                            .dwattr $C$DW$744, DW_AT_type(*$C$DW$T$41)
    9098                            .dwattr $C$DW$744, DW_AT_name("DIR")
    9099                            .dwattr $C$DW$744, DW_AT_TI_symbol_name("DIR")
    9100                            .dwattr $C$DW$744, DW_AT_data_member_location[DW_OP_plus_uconst 0x0]
    9101                            .dwattr $C$DW$744, DW_AT_accessibility(DW_ACCESS_public)
    9102                            .dwattr $C$DW$744, DW_AT_decl_file("C:\ti\ccs1200\ccs\ccs_base\arm\include\msp432p401r.h")
    9103                            .dwattr $C$DW$744, DW_AT_decl_line(0x207)
    9104                            .dwattr $C$DW$744, DW_AT_decl_column(0x13)
    9105                    
    9106                    $C$DW$745       .dwtag  DW_TAG_member
    9107                            .dwattr $C$DW$745, DW_AT_type(*$C$DW$T$92)
    9108                            .dwattr $C$DW$745, DW_AT_name("$P$T2")
    9109                            .dwattr $C$DW$745, DW_AT_TI_symbol_name("$P$T2")
    9110                            .dwattr $C$DW$745, DW_AT_data_member_location[DW_OP_plus_uconst 0x0]
    9111                            .dwattr $C$DW$745, DW_AT_accessibility(DW_ACCESS_public)
    9112                            .dwattr $C$DW$745, DW_AT_decl_file("C:\ti\ccs1200\ccs\ccs_base\arm\include\msp432p401r.h")
    9113                            .dwattr $C$DW$745, DW_AT_decl_line(0x208)
    9114                            .dwattr $C$DW$745, DW_AT_decl_column(0x05)
    9115                    
    9116                            .dwattr $C$DW$T$158, DW_AT_decl_file("C:\ti\ccs1200\ccs\ccs_base\arm\include\msp432p401r.h")
    9117                            .dwattr $C$DW$T$158, DW_AT_decl_line(0x206)
    9118                            .dwattr $C$DW$T$158, DW_AT_decl_column(0x09)
    9119                            .dwendtag $C$DW$T$158
    9120                    
    9121                    
    9122                    $C$DW$T$159     .dwtag  DW_TAG_union_type
    9123                            .dwattr $C$DW$T$159, DW_AT_byte_size(0x02)
    9124                    $C$DW$746       .dwtag  DW_TAG_member
    9125                            .dwattr $C$DW$746, DW_AT_type(*$C$DW$T$41)
    9126                            .dwattr $C$DW$746, DW_AT_name("REN")
    9127                            .dwattr $C$DW$746, DW_AT_TI_symbol_name("REN")
    9128                            .dwattr $C$DW$746, DW_AT_data_member_location[DW_OP_plus_uconst 0x0]
    9129                            .dwattr $C$DW$746, DW_AT_accessibility(DW_ACCESS_public)
    9130                            .dwattr $C$DW$746, DW_AT_decl_file("C:\ti\ccs1200\ccs\ccs_base\arm\include\msp432p401r.h")
TI ARM Assembler PC v20.2.6 Mon Oct 31 23:16:56 2022

Copyright (c) 1996-2018 Texas Instruments Incorporated
system_msp432p401r.asm                                               PAGE  167

    9131                            .dwattr $C$DW$746, DW_AT_decl_line(0x20e)
    9132                            .dwattr $C$DW$746, DW_AT_decl_column(0x13)
    9133                    
    9134                    $C$DW$747       .dwtag  DW_TAG_member
    9135                            .dwattr $C$DW$747, DW_AT_type(*$C$DW$T$93)
    9136                            .dwattr $C$DW$747, DW_AT_name("$P$T3")
    9137                            .dwattr $C$DW$747, DW_AT_TI_symbol_name("$P$T3")
    9138                            .dwattr $C$DW$747, DW_AT_data_member_location[DW_OP_plus_uconst 0x0]
    9139                            .dwattr $C$DW$747, DW_AT_accessibility(DW_ACCESS_public)
    9140                            .dwattr $C$DW$747, DW_AT_decl_file("C:\ti\ccs1200\ccs\ccs_base\arm\include\msp432p401r.h")
    9141                            .dwattr $C$DW$747, DW_AT_decl_line(0x20f)
    9142                            .dwattr $C$DW$747, DW_AT_decl_column(0x05)
    9143                    
    9144                            .dwattr $C$DW$T$159, DW_AT_decl_file("C:\ti\ccs1200\ccs\ccs_base\arm\include\msp432p401r.h")
    9145                            .dwattr $C$DW$T$159, DW_AT_decl_line(0x20d)
    9146                            .dwattr $C$DW$T$159, DW_AT_decl_column(0x09)
    9147                            .dwendtag $C$DW$T$159
    9148                    
    9149                    
    9150                    $C$DW$T$160     .dwtag  DW_TAG_union_type
    9151                            .dwattr $C$DW$T$160, DW_AT_byte_size(0x02)
    9152                    $C$DW$748       .dwtag  DW_TAG_member
    9153                            .dwattr $C$DW$748, DW_AT_type(*$C$DW$T$41)
    9154                            .dwattr $C$DW$748, DW_AT_name("DS")
    9155                            .dwattr $C$DW$748, DW_AT_TI_symbol_name("DS")
    9156                            .dwattr $C$DW$748, DW_AT_data_member_location[DW_OP_plus_uconst 0x0]
    9157                            .dwattr $C$DW$748, DW_AT_accessibility(DW_ACCESS_public)
    9158                            .dwattr $C$DW$748, DW_AT_decl_file("C:\ti\ccs1200\ccs\ccs_base\arm\include\msp432p401r.h")
    9159                            .dwattr $C$DW$748, DW_AT_decl_line(0x215)
    9160                            .dwattr $C$DW$748, DW_AT_decl_column(0x13)
    9161                    
    9162                    $C$DW$749       .dwtag  DW_TAG_member
    9163                            .dwattr $C$DW$749, DW_AT_type(*$C$DW$T$94)
    9164                            .dwattr $C$DW$749, DW_AT_name("$P$T4")
    9165                            .dwattr $C$DW$749, DW_AT_TI_symbol_name("$P$T4")
    9166                            .dwattr $C$DW$749, DW_AT_data_member_location[DW_OP_plus_uconst 0x0]
    9167                            .dwattr $C$DW$749, DW_AT_accessibility(DW_ACCESS_public)
    9168                            .dwattr $C$DW$749, DW_AT_decl_file("C:\ti\ccs1200\ccs\ccs_base\arm\include\msp432p401r.h")
    9169                            .dwattr $C$DW$749, DW_AT_decl_line(0x216)
    9170                            .dwattr $C$DW$749, DW_AT_decl_column(0x05)
    9171                    
    9172                            .dwattr $C$DW$T$160, DW_AT_decl_file("C:\ti\ccs1200\ccs\ccs_base\arm\include\msp432p401r.h")
    9173                            .dwattr $C$DW$T$160, DW_AT_decl_line(0x214)
    9174                            .dwattr $C$DW$T$160, DW_AT_decl_column(0x09)
    9175                            .dwendtag $C$DW$T$160
    9176                    
    9177                    
    9178                    $C$DW$T$161     .dwtag  DW_TAG_union_type
    9179                            .dwattr $C$DW$T$161, DW_AT_byte_size(0x02)
    9180                    $C$DW$750       .dwtag  DW_TAG_member
    9181                            .dwattr $C$DW$750, DW_AT_type(*$C$DW$T$41)
    9182                            .dwattr $C$DW$750, DW_AT_name("SEL0")
    9183                            .dwattr $C$DW$750, DW_AT_TI_symbol_name("SEL0")
    9184                            .dwattr $C$DW$750, DW_AT_data_member_location[DW_OP_plus_uconst 0x0]
    9185                            .dwattr $C$DW$750, DW_AT_accessibility(DW_ACCESS_public)
TI ARM Assembler PC v20.2.6 Mon Oct 31 23:16:56 2022

Copyright (c) 1996-2018 Texas Instruments Incorporated
system_msp432p401r.asm                                               PAGE  168

    9186                            .dwattr $C$DW$750, DW_AT_decl_file("C:\ti\ccs1200\ccs\ccs_base\arm\include\msp432p401r.h")
    9187                            .dwattr $C$DW$750, DW_AT_decl_line(0x21c)
    9188                            .dwattr $C$DW$750, DW_AT_decl_column(0x13)
    9189                    
    9190                    $C$DW$751       .dwtag  DW_TAG_member
    9191                            .dwattr $C$DW$751, DW_AT_type(*$C$DW$T$95)
    9192                            .dwattr $C$DW$751, DW_AT_name("$P$T5")
    9193                            .dwattr $C$DW$751, DW_AT_TI_symbol_name("$P$T5")
    9194                            .dwattr $C$DW$751, DW_AT_data_member_location[DW_OP_plus_uconst 0x0]
    9195                            .dwattr $C$DW$751, DW_AT_accessibility(DW_ACCESS_public)
    9196                            .dwattr $C$DW$751, DW_AT_decl_file("C:\ti\ccs1200\ccs\ccs_base\arm\include\msp432p401r.h")
    9197                            .dwattr $C$DW$751, DW_AT_decl_line(0x21d)
    9198                            .dwattr $C$DW$751, DW_AT_decl_column(0x05)
    9199                    
    9200                            .dwattr $C$DW$T$161, DW_AT_decl_file("C:\ti\ccs1200\ccs\ccs_base\arm\include\msp432p401r.h")
    9201                            .dwattr $C$DW$T$161, DW_AT_decl_line(0x21b)
    9202                            .dwattr $C$DW$T$161, DW_AT_decl_column(0x09)
    9203                            .dwendtag $C$DW$T$161
    9204                    
    9205                    
    9206                    $C$DW$T$162     .dwtag  DW_TAG_union_type
    9207                            .dwattr $C$DW$T$162, DW_AT_byte_size(0x02)
    9208                    $C$DW$752       .dwtag  DW_TAG_member
    9209                            .dwattr $C$DW$752, DW_AT_type(*$C$DW$T$41)
    9210                            .dwattr $C$DW$752, DW_AT_name("SEL1")
    9211                            .dwattr $C$DW$752, DW_AT_TI_symbol_name("SEL1")
    9212                            .dwattr $C$DW$752, DW_AT_data_member_location[DW_OP_plus_uconst 0x0]
    9213                            .dwattr $C$DW$752, DW_AT_accessibility(DW_ACCESS_public)
    9214                            .dwattr $C$DW$752, DW_AT_decl_file("C:\ti\ccs1200\ccs\ccs_base\arm\include\msp432p401r.h")
    9215                            .dwattr $C$DW$752, DW_AT_decl_line(0x223)
    9216                            .dwattr $C$DW$752, DW_AT_decl_column(0x13)
    9217                    
    9218                    $C$DW$753       .dwtag  DW_TAG_member
    9219                            .dwattr $C$DW$753, DW_AT_type(*$C$DW$T$96)
    9220                            .dwattr $C$DW$753, DW_AT_name("$P$T6")
    9221                            .dwattr $C$DW$753, DW_AT_TI_symbol_name("$P$T6")
    9222                            .dwattr $C$DW$753, DW_AT_data_member_location[DW_OP_plus_uconst 0x0]
    9223                            .dwattr $C$DW$753, DW_AT_accessibility(DW_ACCESS_public)
    9224                            .dwattr $C$DW$753, DW_AT_decl_file("C:\ti\ccs1200\ccs\ccs_base\arm\include\msp432p401r.h")
    9225                            .dwattr $C$DW$753, DW_AT_decl_line(0x224)
    9226                            .dwattr $C$DW$753, DW_AT_decl_column(0x05)
    9227                    
    9228                            .dwattr $C$DW$T$162, DW_AT_decl_file("C:\ti\ccs1200\ccs\ccs_base\arm\include\msp432p401r.h")
    9229                            .dwattr $C$DW$T$162, DW_AT_decl_line(0x222)
    9230                            .dwattr $C$DW$T$162, DW_AT_decl_column(0x09)
    9231                            .dwendtag $C$DW$T$162
    9232                    
    9233                    
    9234                    $C$DW$T$163     .dwtag  DW_TAG_union_type
    9235                            .dwattr $C$DW$T$163, DW_AT_byte_size(0x02)
    9236                    $C$DW$754       .dwtag  DW_TAG_member
    9237                            .dwattr $C$DW$754, DW_AT_type(*$C$DW$T$41)
    9238                            .dwattr $C$DW$754, DW_AT_name("SELC")
    9239                            .dwattr $C$DW$754, DW_AT_TI_symbol_name("SELC")
    9240                            .dwattr $C$DW$754, DW_AT_data_member_location[DW_OP_plus_uconst 0x0]
TI ARM Assembler PC v20.2.6 Mon Oct 31 23:16:56 2022

Copyright (c) 1996-2018 Texas Instruments Incorporated
system_msp432p401r.asm                                               PAGE  169

    9241                            .dwattr $C$DW$754, DW_AT_accessibility(DW_ACCESS_public)
    9242                            .dwattr $C$DW$754, DW_AT_decl_file("C:\ti\ccs1200\ccs\ccs_base\arm\include\msp432p401r.h")
    9243                            .dwattr $C$DW$754, DW_AT_decl_line(0x22c)
    9244                            .dwattr $C$DW$754, DW_AT_decl_column(0x13)
    9245                    
    9246                    $C$DW$755       .dwtag  DW_TAG_member
    9247                            .dwattr $C$DW$755, DW_AT_type(*$C$DW$T$97)
    9248                            .dwattr $C$DW$755, DW_AT_name("$P$T7")
    9249                            .dwattr $C$DW$755, DW_AT_TI_symbol_name("$P$T7")
    9250                            .dwattr $C$DW$755, DW_AT_data_member_location[DW_OP_plus_uconst 0x0]
    9251                            .dwattr $C$DW$755, DW_AT_accessibility(DW_ACCESS_public)
    9252                            .dwattr $C$DW$755, DW_AT_decl_file("C:\ti\ccs1200\ccs\ccs_base\arm\include\msp432p401r.h")
    9253                            .dwattr $C$DW$755, DW_AT_decl_line(0x22d)
    9254                            .dwattr $C$DW$755, DW_AT_decl_column(0x05)
    9255                    
    9256                            .dwattr $C$DW$T$163, DW_AT_decl_file("C:\ti\ccs1200\ccs\ccs_base\arm\include\msp432p401r.h")
    9257                            .dwattr $C$DW$T$163, DW_AT_decl_line(0x22b)
    9258                            .dwattr $C$DW$T$163, DW_AT_decl_column(0x09)
    9259                            .dwendtag $C$DW$T$163
    9260                    
    9261                    
    9262                    $C$DW$T$164     .dwtag  DW_TAG_union_type
    9263                            .dwattr $C$DW$T$164, DW_AT_byte_size(0x02)
    9264                    $C$DW$756       .dwtag  DW_TAG_member
    9265                            .dwattr $C$DW$756, DW_AT_type(*$C$DW$T$41)
    9266                            .dwattr $C$DW$756, DW_AT_name("IES")
    9267                            .dwattr $C$DW$756, DW_AT_TI_symbol_name("IES")
    9268                            .dwattr $C$DW$756, DW_AT_data_member_location[DW_OP_plus_uconst 0x0]
    9269                            .dwattr $C$DW$756, DW_AT_accessibility(DW_ACCESS_public)
    9270                            .dwattr $C$DW$756, DW_AT_decl_file("C:\ti\ccs1200\ccs\ccs_base\arm\include\msp432p401r.h")
    9271                            .dwattr $C$DW$756, DW_AT_decl_line(0x233)
    9272                            .dwattr $C$DW$756, DW_AT_decl_column(0x13)
    9273                    
    9274                    $C$DW$757       .dwtag  DW_TAG_member
    9275                            .dwattr $C$DW$757, DW_AT_type(*$C$DW$T$98)
    9276                            .dwattr $C$DW$757, DW_AT_name("$P$T8")
    9277                            .dwattr $C$DW$757, DW_AT_TI_symbol_name("$P$T8")
    9278                            .dwattr $C$DW$757, DW_AT_data_member_location[DW_OP_plus_uconst 0x0]
    9279                            .dwattr $C$DW$757, DW_AT_accessibility(DW_ACCESS_public)
    9280                            .dwattr $C$DW$757, DW_AT_decl_file("C:\ti\ccs1200\ccs\ccs_base\arm\include\msp432p401r.h")
    9281                            .dwattr $C$DW$757, DW_AT_decl_line(0x234)
    9282                            .dwattr $C$DW$757, DW_AT_decl_column(0x05)
    9283                    
    9284                            .dwattr $C$DW$T$164, DW_AT_decl_file("C:\ti\ccs1200\ccs\ccs_base\arm\include\msp432p401r.h")
    9285                            .dwattr $C$DW$T$164, DW_AT_decl_line(0x232)
    9286                            .dwattr $C$DW$T$164, DW_AT_decl_column(0x09)
    9287                            .dwendtag $C$DW$T$164
    9288                    
    9289                    
    9290                    $C$DW$T$165     .dwtag  DW_TAG_union_type
    9291                            .dwattr $C$DW$T$165, DW_AT_byte_size(0x02)
    9292                    $C$DW$758       .dwtag  DW_TAG_member
    9293                            .dwattr $C$DW$758, DW_AT_type(*$C$DW$T$41)
    9294                            .dwattr $C$DW$758, DW_AT_name("IE")
    9295                            .dwattr $C$DW$758, DW_AT_TI_symbol_name("IE")
TI ARM Assembler PC v20.2.6 Mon Oct 31 23:16:56 2022

Copyright (c) 1996-2018 Texas Instruments Incorporated
system_msp432p401r.asm                                               PAGE  170

    9296                            .dwattr $C$DW$758, DW_AT_data_member_location[DW_OP_plus_uconst 0x0]
    9297                            .dwattr $C$DW$758, DW_AT_accessibility(DW_ACCESS_public)
    9298                            .dwattr $C$DW$758, DW_AT_decl_file("C:\ti\ccs1200\ccs\ccs_base\arm\include\msp432p401r.h")
    9299                            .dwattr $C$DW$758, DW_AT_decl_line(0x23a)
    9300                            .dwattr $C$DW$758, DW_AT_decl_column(0x13)
    9301                    
    9302                    $C$DW$759       .dwtag  DW_TAG_member
    9303                            .dwattr $C$DW$759, DW_AT_type(*$C$DW$T$99)
    9304                            .dwattr $C$DW$759, DW_AT_name("$P$T9")
    9305                            .dwattr $C$DW$759, DW_AT_TI_symbol_name("$P$T9")
    9306                            .dwattr $C$DW$759, DW_AT_data_member_location[DW_OP_plus_uconst 0x0]
    9307                            .dwattr $C$DW$759, DW_AT_accessibility(DW_ACCESS_public)
    9308                            .dwattr $C$DW$759, DW_AT_decl_file("C:\ti\ccs1200\ccs\ccs_base\arm\include\msp432p401r.h")
    9309                            .dwattr $C$DW$759, DW_AT_decl_line(0x23b)
    9310                            .dwattr $C$DW$759, DW_AT_decl_column(0x05)
    9311                    
    9312                            .dwattr $C$DW$T$165, DW_AT_decl_file("C:\ti\ccs1200\ccs\ccs_base\arm\include\msp432p401r.h")
    9313                            .dwattr $C$DW$T$165, DW_AT_decl_line(0x239)
    9314                            .dwattr $C$DW$T$165, DW_AT_decl_column(0x09)
    9315                            .dwendtag $C$DW$T$165
    9316                    
    9317                    
    9318                    $C$DW$T$166     .dwtag  DW_TAG_union_type
    9319                            .dwattr $C$DW$T$166, DW_AT_byte_size(0x02)
    9320                    $C$DW$760       .dwtag  DW_TAG_member
    9321                            .dwattr $C$DW$760, DW_AT_type(*$C$DW$T$41)
    9322                            .dwattr $C$DW$760, DW_AT_name("IFG")
    9323                            .dwattr $C$DW$760, DW_AT_TI_symbol_name("IFG")
    9324                            .dwattr $C$DW$760, DW_AT_data_member_location[DW_OP_plus_uconst 0x0]
    9325                            .dwattr $C$DW$760, DW_AT_accessibility(DW_ACCESS_public)
    9326                            .dwattr $C$DW$760, DW_AT_decl_file("C:\ti\ccs1200\ccs\ccs_base\arm\include\msp432p401r.h")
    9327                            .dwattr $C$DW$760, DW_AT_decl_line(0x241)
    9328                            .dwattr $C$DW$760, DW_AT_decl_column(0x13)
    9329                    
    9330                    $C$DW$761       .dwtag  DW_TAG_member
    9331                            .dwattr $C$DW$761, DW_AT_type(*$C$DW$T$100)
    9332                            .dwattr $C$DW$761, DW_AT_name("$P$T10")
    9333                            .dwattr $C$DW$761, DW_AT_TI_symbol_name("$P$T10")
    9334                            .dwattr $C$DW$761, DW_AT_data_member_location[DW_OP_plus_uconst 0x0]
    9335                            .dwattr $C$DW$761, DW_AT_accessibility(DW_ACCESS_public)
    9336                            .dwattr $C$DW$761, DW_AT_decl_file("C:\ti\ccs1200\ccs\ccs_base\arm\include\msp432p401r.h")
    9337                            .dwattr $C$DW$761, DW_AT_decl_line(0x242)
    9338                            .dwattr $C$DW$761, DW_AT_decl_column(0x05)
    9339                    
    9340                            .dwattr $C$DW$T$166, DW_AT_decl_file("C:\ti\ccs1200\ccs\ccs_base\arm\include\msp432p401r.h")
    9341                            .dwattr $C$DW$T$166, DW_AT_decl_line(0x240)
    9342                            .dwattr $C$DW$T$166, DW_AT_decl_column(0x09)
    9343                            .dwendtag $C$DW$T$166
    9344                    
    9345                    
    9346                    $C$DW$T$167     .dwtag  DW_TAG_union_type
    9347                            .dwattr $C$DW$T$167, DW_AT_byte_size(0x02)
    9348                    $C$DW$762       .dwtag  DW_TAG_member
    9349                            .dwattr $C$DW$762, DW_AT_type(*$C$DW$T$86)
    9350                            .dwattr $C$DW$762, DW_AT_name("IN")
TI ARM Assembler PC v20.2.6 Mon Oct 31 23:16:56 2022

Copyright (c) 1996-2018 Texas Instruments Incorporated
system_msp432p401r.asm                                               PAGE  171

    9351                            .dwattr $C$DW$762, DW_AT_TI_symbol_name("IN")
    9352                            .dwattr $C$DW$762, DW_AT_data_member_location[DW_OP_plus_uconst 0x0]
    9353                            .dwattr $C$DW$762, DW_AT_accessibility(DW_ACCESS_public)
    9354                            .dwattr $C$DW$762, DW_AT_decl_file("C:\ti\ccs1200\ccs\ccs_base\arm\include\msp432p401r.h")
    9355                            .dwattr $C$DW$762, DW_AT_decl_line(0x24c)
    9356                            .dwattr $C$DW$762, DW_AT_decl_column(0x12)
    9357                    
    9358                    $C$DW$763       .dwtag  DW_TAG_member
    9359                            .dwattr $C$DW$763, DW_AT_type(*$C$DW$T$103)
    9360                            .dwattr $C$DW$763, DW_AT_name("$P$T22")
    9361                            .dwattr $C$DW$763, DW_AT_TI_symbol_name("$P$T22")
    9362                            .dwattr $C$DW$763, DW_AT_data_member_location[DW_OP_plus_uconst 0x0]
    9363                            .dwattr $C$DW$763, DW_AT_accessibility(DW_ACCESS_public)
    9364                            .dwattr $C$DW$763, DW_AT_decl_file("C:\ti\ccs1200\ccs\ccs_base\arm\include\msp432p401r.h")
    9365                            .dwattr $C$DW$763, DW_AT_decl_line(0x24d)
    9366                            .dwattr $C$DW$763, DW_AT_decl_column(0x05)
    9367                    
    9368                            .dwattr $C$DW$T$167, DW_AT_decl_file("C:\ti\ccs1200\ccs\ccs_base\arm\include\msp432p401r.h")
    9369                            .dwattr $C$DW$T$167, DW_AT_decl_line(0x24b)
    9370                            .dwattr $C$DW$T$167, DW_AT_decl_column(0x09)
    9371                            .dwendtag $C$DW$T$167
    9372                    
    9373                    
    9374                    $C$DW$T$168     .dwtag  DW_TAG_union_type
    9375                            .dwattr $C$DW$T$168, DW_AT_byte_size(0x02)
    9376                    $C$DW$764       .dwtag  DW_TAG_member
    9377                            .dwattr $C$DW$764, DW_AT_type(*$C$DW$T$41)
    9378                            .dwattr $C$DW$764, DW_AT_name("OUT")
    9379                            .dwattr $C$DW$764, DW_AT_TI_symbol_name("OUT")
    9380                            .dwattr $C$DW$764, DW_AT_data_member_location[DW_OP_plus_uconst 0x0]
    9381                            .dwattr $C$DW$764, DW_AT_accessibility(DW_ACCESS_public)
    9382                            .dwattr $C$DW$764, DW_AT_decl_file("C:\ti\ccs1200\ccs\ccs_base\arm\include\msp432p401r.h")
    9383                            .dwattr $C$DW$764, DW_AT_decl_line(0x253)
    9384                            .dwattr $C$DW$764, DW_AT_decl_column(0x13)
    9385                    
    9386                    $C$DW$765       .dwtag  DW_TAG_member
    9387                            .dwattr $C$DW$765, DW_AT_type(*$C$DW$T$104)
    9388                            .dwattr $C$DW$765, DW_AT_name("$P$T23")
    9389                            .dwattr $C$DW$765, DW_AT_TI_symbol_name("$P$T23")
    9390                            .dwattr $C$DW$765, DW_AT_data_member_location[DW_OP_plus_uconst 0x0]
    9391                            .dwattr $C$DW$765, DW_AT_accessibility(DW_ACCESS_public)
    9392                            .dwattr $C$DW$765, DW_AT_decl_file("C:\ti\ccs1200\ccs\ccs_base\arm\include\msp432p401r.h")
    9393                            .dwattr $C$DW$765, DW_AT_decl_line(0x254)
    9394                            .dwattr $C$DW$765, DW_AT_decl_column(0x05)
    9395                    
    9396                            .dwattr $C$DW$T$168, DW_AT_decl_file("C:\ti\ccs1200\ccs\ccs_base\arm\include\msp432p401r.h")
    9397                            .dwattr $C$DW$T$168, DW_AT_decl_line(0x252)
    9398                            .dwattr $C$DW$T$168, DW_AT_decl_column(0x09)
    9399                            .dwendtag $C$DW$T$168
    9400                    
    9401                    
    9402                    $C$DW$T$169     .dwtag  DW_TAG_union_type
    9403                            .dwattr $C$DW$T$169, DW_AT_byte_size(0x02)
    9404                    $C$DW$766       .dwtag  DW_TAG_member
    9405                            .dwattr $C$DW$766, DW_AT_type(*$C$DW$T$41)
TI ARM Assembler PC v20.2.6 Mon Oct 31 23:16:56 2022

Copyright (c) 1996-2018 Texas Instruments Incorporated
system_msp432p401r.asm                                               PAGE  172

    9406                            .dwattr $C$DW$766, DW_AT_name("DIR")
    9407                            .dwattr $C$DW$766, DW_AT_TI_symbol_name("DIR")
    9408                            .dwattr $C$DW$766, DW_AT_data_member_location[DW_OP_plus_uconst 0x0]
    9409                            .dwattr $C$DW$766, DW_AT_accessibility(DW_ACCESS_public)
    9410                            .dwattr $C$DW$766, DW_AT_decl_file("C:\ti\ccs1200\ccs\ccs_base\arm\include\msp432p401r.h")
    9411                            .dwattr $C$DW$766, DW_AT_decl_line(0x25a)
    9412                            .dwattr $C$DW$766, DW_AT_decl_column(0x13)
    9413                    
    9414                    $C$DW$767       .dwtag  DW_TAG_member
    9415                            .dwattr $C$DW$767, DW_AT_type(*$C$DW$T$105)
    9416                            .dwattr $C$DW$767, DW_AT_name("$P$T24")
    9417                            .dwattr $C$DW$767, DW_AT_TI_symbol_name("$P$T24")
    9418                            .dwattr $C$DW$767, DW_AT_data_member_location[DW_OP_plus_uconst 0x0]
    9419                            .dwattr $C$DW$767, DW_AT_accessibility(DW_ACCESS_public)
    9420                            .dwattr $C$DW$767, DW_AT_decl_file("C:\ti\ccs1200\ccs\ccs_base\arm\include\msp432p401r.h")
    9421                            .dwattr $C$DW$767, DW_AT_decl_line(0x25b)
    9422                            .dwattr $C$DW$767, DW_AT_decl_column(0x05)
    9423                    
    9424                            .dwattr $C$DW$T$169, DW_AT_decl_file("C:\ti\ccs1200\ccs\ccs_base\arm\include\msp432p401r.h")
    9425                            .dwattr $C$DW$T$169, DW_AT_decl_line(0x259)
    9426                            .dwattr $C$DW$T$169, DW_AT_decl_column(0x09)
    9427                            .dwendtag $C$DW$T$169
    9428                    
    9429                    
    9430                    $C$DW$T$170     .dwtag  DW_TAG_union_type
    9431                            .dwattr $C$DW$T$170, DW_AT_byte_size(0x02)
    9432                    $C$DW$768       .dwtag  DW_TAG_member
    9433                            .dwattr $C$DW$768, DW_AT_type(*$C$DW$T$41)
    9434                            .dwattr $C$DW$768, DW_AT_name("REN")
    9435                            .dwattr $C$DW$768, DW_AT_TI_symbol_name("REN")
    9436                            .dwattr $C$DW$768, DW_AT_data_member_location[DW_OP_plus_uconst 0x0]
    9437                            .dwattr $C$DW$768, DW_AT_accessibility(DW_ACCESS_public)
    9438                            .dwattr $C$DW$768, DW_AT_decl_file("C:\ti\ccs1200\ccs\ccs_base\arm\include\msp432p401r.h")
    9439                            .dwattr $C$DW$768, DW_AT_decl_line(0x261)
    9440                            .dwattr $C$DW$768, DW_AT_decl_column(0x13)
    9441                    
    9442                    $C$DW$769       .dwtag  DW_TAG_member
    9443                            .dwattr $C$DW$769, DW_AT_type(*$C$DW$T$106)
    9444                            .dwattr $C$DW$769, DW_AT_name("$P$T25")
    9445                            .dwattr $C$DW$769, DW_AT_TI_symbol_name("$P$T25")
    9446                            .dwattr $C$DW$769, DW_AT_data_member_location[DW_OP_plus_uconst 0x0]
    9447                            .dwattr $C$DW$769, DW_AT_accessibility(DW_ACCESS_public)
    9448                            .dwattr $C$DW$769, DW_AT_decl_file("C:\ti\ccs1200\ccs\ccs_base\arm\include\msp432p401r.h")
    9449                            .dwattr $C$DW$769, DW_AT_decl_line(0x262)
    9450                            .dwattr $C$DW$769, DW_AT_decl_column(0x05)
    9451                    
    9452                            .dwattr $C$DW$T$170, DW_AT_decl_file("C:\ti\ccs1200\ccs\ccs_base\arm\include\msp432p401r.h")
    9453                            .dwattr $C$DW$T$170, DW_AT_decl_line(0x260)
    9454                            .dwattr $C$DW$T$170, DW_AT_decl_column(0x09)
    9455                            .dwendtag $C$DW$T$170
    9456                    
    9457                    
    9458                    $C$DW$T$171     .dwtag  DW_TAG_union_type
    9459                            .dwattr $C$DW$T$171, DW_AT_byte_size(0x02)
    9460                    $C$DW$770       .dwtag  DW_TAG_member
TI ARM Assembler PC v20.2.6 Mon Oct 31 23:16:56 2022

Copyright (c) 1996-2018 Texas Instruments Incorporated
system_msp432p401r.asm                                               PAGE  173

    9461                            .dwattr $C$DW$770, DW_AT_type(*$C$DW$T$41)
    9462                            .dwattr $C$DW$770, DW_AT_name("DS")
    9463                            .dwattr $C$DW$770, DW_AT_TI_symbol_name("DS")
    9464                            .dwattr $C$DW$770, DW_AT_data_member_location[DW_OP_plus_uconst 0x0]
    9465                            .dwattr $C$DW$770, DW_AT_accessibility(DW_ACCESS_public)
    9466                            .dwattr $C$DW$770, DW_AT_decl_file("C:\ti\ccs1200\ccs\ccs_base\arm\include\msp432p401r.h")
    9467                            .dwattr $C$DW$770, DW_AT_decl_line(0x268)
    9468                            .dwattr $C$DW$770, DW_AT_decl_column(0x13)
    9469                    
    9470                    $C$DW$771       .dwtag  DW_TAG_member
    9471                            .dwattr $C$DW$771, DW_AT_type(*$C$DW$T$107)
    9472                            .dwattr $C$DW$771, DW_AT_name("$P$T26")
    9473                            .dwattr $C$DW$771, DW_AT_TI_symbol_name("$P$T26")
    9474                            .dwattr $C$DW$771, DW_AT_data_member_location[DW_OP_plus_uconst 0x0]
    9475                            .dwattr $C$DW$771, DW_AT_accessibility(DW_ACCESS_public)
    9476                            .dwattr $C$DW$771, DW_AT_decl_file("C:\ti\ccs1200\ccs\ccs_base\arm\include\msp432p401r.h")
    9477                            .dwattr $C$DW$771, DW_AT_decl_line(0x269)
    9478                            .dwattr $C$DW$771, DW_AT_decl_column(0x05)
    9479                    
    9480                            .dwattr $C$DW$T$171, DW_AT_decl_file("C:\ti\ccs1200\ccs\ccs_base\arm\include\msp432p401r.h")
    9481                            .dwattr $C$DW$T$171, DW_AT_decl_line(0x267)
    9482                            .dwattr $C$DW$T$171, DW_AT_decl_column(0x09)
    9483                            .dwendtag $C$DW$T$171
    9484                    
    9485                    
    9486                    $C$DW$T$172     .dwtag  DW_TAG_union_type
    9487                            .dwattr $C$DW$T$172, DW_AT_byte_size(0x02)
    9488                    $C$DW$772       .dwtag  DW_TAG_member
    9489                            .dwattr $C$DW$772, DW_AT_type(*$C$DW$T$41)
    9490                            .dwattr $C$DW$772, DW_AT_name("SEL0")
    9491                            .dwattr $C$DW$772, DW_AT_TI_symbol_name("SEL0")
    9492                            .dwattr $C$DW$772, DW_AT_data_member_location[DW_OP_plus_uconst 0x0]
    9493                            .dwattr $C$DW$772, DW_AT_accessibility(DW_ACCESS_public)
    9494                            .dwattr $C$DW$772, DW_AT_decl_file("C:\ti\ccs1200\ccs\ccs_base\arm\include\msp432p401r.h")
    9495                            .dwattr $C$DW$772, DW_AT_decl_line(0x26f)
    9496                            .dwattr $C$DW$772, DW_AT_decl_column(0x13)
    9497                    
    9498                    $C$DW$773       .dwtag  DW_TAG_member
    9499                            .dwattr $C$DW$773, DW_AT_type(*$C$DW$T$108)
    9500                            .dwattr $C$DW$773, DW_AT_name("$P$T27")
    9501                            .dwattr $C$DW$773, DW_AT_TI_symbol_name("$P$T27")
    9502                            .dwattr $C$DW$773, DW_AT_data_member_location[DW_OP_plus_uconst 0x0]
    9503                            .dwattr $C$DW$773, DW_AT_accessibility(DW_ACCESS_public)
    9504                            .dwattr $C$DW$773, DW_AT_decl_file("C:\ti\ccs1200\ccs\ccs_base\arm\include\msp432p401r.h")
    9505                            .dwattr $C$DW$773, DW_AT_decl_line(0x270)
    9506                            .dwattr $C$DW$773, DW_AT_decl_column(0x05)
    9507                    
    9508                            .dwattr $C$DW$T$172, DW_AT_decl_file("C:\ti\ccs1200\ccs\ccs_base\arm\include\msp432p401r.h")
    9509                            .dwattr $C$DW$T$172, DW_AT_decl_line(0x26e)
    9510                            .dwattr $C$DW$T$172, DW_AT_decl_column(0x09)
    9511                            .dwendtag $C$DW$T$172
    9512                    
    9513                    
    9514                    $C$DW$T$173     .dwtag  DW_TAG_union_type
    9515                            .dwattr $C$DW$T$173, DW_AT_byte_size(0x02)
TI ARM Assembler PC v20.2.6 Mon Oct 31 23:16:56 2022

Copyright (c) 1996-2018 Texas Instruments Incorporated
system_msp432p401r.asm                                               PAGE  174

    9516                    $C$DW$774       .dwtag  DW_TAG_member
    9517                            .dwattr $C$DW$774, DW_AT_type(*$C$DW$T$41)
    9518                            .dwattr $C$DW$774, DW_AT_name("SEL1")
    9519                            .dwattr $C$DW$774, DW_AT_TI_symbol_name("SEL1")
    9520                            .dwattr $C$DW$774, DW_AT_data_member_location[DW_OP_plus_uconst 0x0]
    9521                            .dwattr $C$DW$774, DW_AT_accessibility(DW_ACCESS_public)
    9522                            .dwattr $C$DW$774, DW_AT_decl_file("C:\ti\ccs1200\ccs\ccs_base\arm\include\msp432p401r.h")
    9523                            .dwattr $C$DW$774, DW_AT_decl_line(0x276)
    9524                            .dwattr $C$DW$774, DW_AT_decl_column(0x13)
    9525                    
    9526                    $C$DW$775       .dwtag  DW_TAG_member
    9527                            .dwattr $C$DW$775, DW_AT_type(*$C$DW$T$109)
    9528                            .dwattr $C$DW$775, DW_AT_name("$P$T28")
    9529                            .dwattr $C$DW$775, DW_AT_TI_symbol_name("$P$T28")
    9530                            .dwattr $C$DW$775, DW_AT_data_member_location[DW_OP_plus_uconst 0x0]
    9531                            .dwattr $C$DW$775, DW_AT_accessibility(DW_ACCESS_public)
    9532                            .dwattr $C$DW$775, DW_AT_decl_file("C:\ti\ccs1200\ccs\ccs_base\arm\include\msp432p401r.h")
    9533                            .dwattr $C$DW$775, DW_AT_decl_line(0x277)
    9534                            .dwattr $C$DW$775, DW_AT_decl_column(0x05)
    9535                    
    9536                            .dwattr $C$DW$T$173, DW_AT_decl_file("C:\ti\ccs1200\ccs\ccs_base\arm\include\msp432p401r.h")
    9537                            .dwattr $C$DW$T$173, DW_AT_decl_line(0x275)
    9538                            .dwattr $C$DW$T$173, DW_AT_decl_column(0x09)
    9539                            .dwendtag $C$DW$T$173
    9540                    
    9541                    
    9542                    $C$DW$T$174     .dwtag  DW_TAG_union_type
    9543                            .dwattr $C$DW$T$174, DW_AT_byte_size(0x02)
    9544                    $C$DW$776       .dwtag  DW_TAG_member
    9545                            .dwattr $C$DW$776, DW_AT_type(*$C$DW$T$41)
    9546                            .dwattr $C$DW$776, DW_AT_name("SELC")
    9547                            .dwattr $C$DW$776, DW_AT_TI_symbol_name("SELC")
    9548                            .dwattr $C$DW$776, DW_AT_data_member_location[DW_OP_plus_uconst 0x0]
    9549                            .dwattr $C$DW$776, DW_AT_accessibility(DW_ACCESS_public)
    9550                            .dwattr $C$DW$776, DW_AT_decl_file("C:\ti\ccs1200\ccs\ccs_base\arm\include\msp432p401r.h")
    9551                            .dwattr $C$DW$776, DW_AT_decl_line(0x27e)
    9552                            .dwattr $C$DW$776, DW_AT_decl_column(0x13)
    9553                    
    9554                    $C$DW$777       .dwtag  DW_TAG_member
    9555                            .dwattr $C$DW$777, DW_AT_type(*$C$DW$T$110)
    9556                            .dwattr $C$DW$777, DW_AT_name("$P$T29")
    9557                            .dwattr $C$DW$777, DW_AT_TI_symbol_name("$P$T29")
    9558                            .dwattr $C$DW$777, DW_AT_data_member_location[DW_OP_plus_uconst 0x0]
    9559                            .dwattr $C$DW$777, DW_AT_accessibility(DW_ACCESS_public)
    9560                            .dwattr $C$DW$777, DW_AT_decl_file("C:\ti\ccs1200\ccs\ccs_base\arm\include\msp432p401r.h")
    9561                            .dwattr $C$DW$777, DW_AT_decl_line(0x27f)
    9562                            .dwattr $C$DW$777, DW_AT_decl_column(0x05)
    9563                    
    9564                            .dwattr $C$DW$T$174, DW_AT_decl_file("C:\ti\ccs1200\ccs\ccs_base\arm\include\msp432p401r.h")
    9565                            .dwattr $C$DW$T$174, DW_AT_decl_line(0x27d)
    9566                            .dwattr $C$DW$T$174, DW_AT_decl_column(0x09)
    9567                            .dwendtag $C$DW$T$174
    9568                    
    9569                    
    9570                    $C$DW$T$176     .dwtag  DW_TAG_union_type
TI ARM Assembler PC v20.2.6 Mon Oct 31 23:16:56 2022

Copyright (c) 1996-2018 Texas Instruments Incorporated
system_msp432p401r.asm                                               PAGE  175

    9571                            .dwattr $C$DW$T$176, DW_AT_byte_size(0x08)
    9572                    $C$DW$778       .dwtag  DW_TAG_member
    9573                            .dwattr $C$DW$778, DW_AT_type(*$C$DW$T$175)
    9574                            .dwattr $C$DW$778, DW_AT_name("PMAP_REGISTER")
    9575                            .dwattr $C$DW$778, DW_AT_TI_symbol_name("PMAP_REGISTER")
    9576                            .dwattr $C$DW$778, DW_AT_data_member_location[DW_OP_plus_uconst 0x0]
    9577                            .dwattr $C$DW$778, DW_AT_accessibility(DW_ACCESS_public)
    9578                            .dwattr $C$DW$778, DW_AT_decl_file("C:\ti\ccs1200\ccs\ccs_base\arm\include\msp432p401r.h")
    9579                            .dwattr $C$DW$778, DW_AT_decl_line(0x3f9)
    9580                            .dwattr $C$DW$778, DW_AT_decl_column(0x13)
    9581                    
    9582                    $C$DW$779       .dwtag  DW_TAG_member
    9583                            .dwattr $C$DW$779, DW_AT_type(*$C$DW$T$136)
    9584                            .dwattr $C$DW$779, DW_AT_name("$P$T38")
    9585                            .dwattr $C$DW$779, DW_AT_TI_symbol_name("$P$T38")
    9586                            .dwattr $C$DW$779, DW_AT_data_member_location[DW_OP_plus_uconst 0x0]
    9587                            .dwattr $C$DW$779, DW_AT_accessibility(DW_ACCESS_public)
    9588                            .dwattr $C$DW$779, DW_AT_decl_file("C:\ti\ccs1200\ccs\ccs_base\arm\include\msp432p401r.h")
    9589                            .dwattr $C$DW$779, DW_AT_decl_line(0x3fa)
    9590                            .dwattr $C$DW$779, DW_AT_decl_column(0x05)
    9591                    
    9592                            .dwattr $C$DW$T$176, DW_AT_decl_file("C:\ti\ccs1200\ccs\ccs_base\arm\include\msp432p401r.h")
    9593                            .dwattr $C$DW$T$176, DW_AT_decl_line(0x3f8)
    9594                            .dwattr $C$DW$T$176, DW_AT_decl_column(0x09)
    9595                            .dwendtag $C$DW$T$176
    9596                    
    9597                    
    9598                    $C$DW$T$232     .dwtag  DW_TAG_enumeration_type
    9599                            .dwattr $C$DW$T$232, DW_AT_name("IRQn")
    9600                            .dwattr $C$DW$T$232, DW_AT_byte_size(0x01)
    9601                    $C$DW$780       .dwtag  DW_TAG_enumerator
    9602                            .dwattr $C$DW$780, DW_AT_name("NonMaskableInt_IRQn")
    9603                            .dwattr $C$DW$780, DW_AT_const_value(-14)
    9604                            .dwattr $C$DW$780, DW_AT_decl_file("C:\ti\ccs1200\ccs\ccs_base\arm\include\msp432p401r.h")
    9605                            .dwattr $C$DW$780, DW_AT_decl_line(0x68)
    9606                            .dwattr $C$DW$780, DW_AT_decl_column(0x03)
    9607                    
    9608                    $C$DW$781       .dwtag  DW_TAG_enumerator
    9609                            .dwattr $C$DW$781, DW_AT_name("HardFault_IRQn")
    9610                            .dwattr $C$DW$781, DW_AT_const_value(-13)
    9611                            .dwattr $C$DW$781, DW_AT_decl_file("C:\ti\ccs1200\ccs\ccs_base\arm\include\msp432p401r.h")
    9612                            .dwattr $C$DW$781, DW_AT_decl_line(0x69)
    9613                            .dwattr $C$DW$781, DW_AT_decl_column(0x03)
    9614                    
    9615                    $C$DW$782       .dwtag  DW_TAG_enumerator
    9616                            .dwattr $C$DW$782, DW_AT_name("MemoryManagement_IRQn")
    9617                            .dwattr $C$DW$782, DW_AT_const_value(-12)
    9618                            .dwattr $C$DW$782, DW_AT_decl_file("C:\ti\ccs1200\ccs\ccs_base\arm\include\msp432p401r.h")
    9619                            .dwattr $C$DW$782, DW_AT_decl_line(0x6a)
    9620                            .dwattr $C$DW$782, DW_AT_decl_column(0x03)
    9621                    
    9622                    $C$DW$783       .dwtag  DW_TAG_enumerator
    9623                            .dwattr $C$DW$783, DW_AT_name("BusFault_IRQn")
    9624                            .dwattr $C$DW$783, DW_AT_const_value(-11)
    9625                            .dwattr $C$DW$783, DW_AT_decl_file("C:\ti\ccs1200\ccs\ccs_base\arm\include\msp432p401r.h")
TI ARM Assembler PC v20.2.6 Mon Oct 31 23:16:56 2022

Copyright (c) 1996-2018 Texas Instruments Incorporated
system_msp432p401r.asm                                               PAGE  176

    9626                            .dwattr $C$DW$783, DW_AT_decl_line(0x6b)
    9627                            .dwattr $C$DW$783, DW_AT_decl_column(0x03)
    9628                    
    9629                    $C$DW$784       .dwtag  DW_TAG_enumerator
    9630                            .dwattr $C$DW$784, DW_AT_name("UsageFault_IRQn")
    9631                            .dwattr $C$DW$784, DW_AT_const_value(-10)
    9632                            .dwattr $C$DW$784, DW_AT_decl_file("C:\ti\ccs1200\ccs\ccs_base\arm\include\msp432p401r.h")
    9633                            .dwattr $C$DW$784, DW_AT_decl_line(0x6c)
    9634                            .dwattr $C$DW$784, DW_AT_decl_column(0x03)
    9635                    
    9636                    $C$DW$785       .dwtag  DW_TAG_enumerator
    9637                            .dwattr $C$DW$785, DW_AT_name("SVCall_IRQn")
    9638                            .dwattr $C$DW$785, DW_AT_const_value(-5)
    9639                            .dwattr $C$DW$785, DW_AT_decl_file("C:\ti\ccs1200\ccs\ccs_base\arm\include\msp432p401r.h")
    9640                            .dwattr $C$DW$785, DW_AT_decl_line(0x6d)
    9641                            .dwattr $C$DW$785, DW_AT_decl_column(0x03)
    9642                    
    9643                    $C$DW$786       .dwtag  DW_TAG_enumerator
    9644                            .dwattr $C$DW$786, DW_AT_name("DebugMonitor_IRQn")
    9645                            .dwattr $C$DW$786, DW_AT_const_value(-4)
    9646                            .dwattr $C$DW$786, DW_AT_decl_file("C:\ti\ccs1200\ccs\ccs_base\arm\include\msp432p401r.h")
    9647                            .dwattr $C$DW$786, DW_AT_decl_line(0x6e)
    9648                            .dwattr $C$DW$786, DW_AT_decl_column(0x03)
    9649                    
    9650                    $C$DW$787       .dwtag  DW_TAG_enumerator
    9651                            .dwattr $C$DW$787, DW_AT_name("PendSV_IRQn")
    9652                            .dwattr $C$DW$787, DW_AT_const_value(-2)
    9653                            .dwattr $C$DW$787, DW_AT_decl_file("C:\ti\ccs1200\ccs\ccs_base\arm\include\msp432p401r.h")
    9654                            .dwattr $C$DW$787, DW_AT_decl_line(0x6f)
    9655                            .dwattr $C$DW$787, DW_AT_decl_column(0x03)
    9656                    
    9657                    $C$DW$788       .dwtag  DW_TAG_enumerator
    9658                            .dwattr $C$DW$788, DW_AT_name("SysTick_IRQn")
    9659                            .dwattr $C$DW$788, DW_AT_const_value(-1)
    9660                            .dwattr $C$DW$788, DW_AT_decl_file("C:\ti\ccs1200\ccs\ccs_base\arm\include\msp432p401r.h")
    9661                            .dwattr $C$DW$788, DW_AT_decl_line(0x70)
    9662                            .dwattr $C$DW$788, DW_AT_decl_column(0x03)
    9663                    
    9664                    $C$DW$789       .dwtag  DW_TAG_enumerator
    9665                            .dwattr $C$DW$789, DW_AT_name("PSS_IRQn")
    9666                            .dwattr $C$DW$789, DW_AT_const_value(0x00)
    9667                            .dwattr $C$DW$789, DW_AT_decl_file("C:\ti\ccs1200\ccs\ccs_base\arm\include\msp432p401r.h")
    9668                            .dwattr $C$DW$789, DW_AT_decl_line(0x72)
    9669                            .dwattr $C$DW$789, DW_AT_decl_column(0x03)
    9670                    
    9671                    $C$DW$790       .dwtag  DW_TAG_enumerator
    9672                            .dwattr $C$DW$790, DW_AT_name("CS_IRQn")
    9673                            .dwattr $C$DW$790, DW_AT_const_value(0x01)
    9674                            .dwattr $C$DW$790, DW_AT_decl_file("C:\ti\ccs1200\ccs\ccs_base\arm\include\msp432p401r.h")
    9675                            .dwattr $C$DW$790, DW_AT_decl_line(0x73)
    9676                            .dwattr $C$DW$790, DW_AT_decl_column(0x03)
    9677                    
    9678                    $C$DW$791       .dwtag  DW_TAG_enumerator
    9679                            .dwattr $C$DW$791, DW_AT_name("PCM_IRQn")
    9680                            .dwattr $C$DW$791, DW_AT_const_value(0x02)
TI ARM Assembler PC v20.2.6 Mon Oct 31 23:16:56 2022

Copyright (c) 1996-2018 Texas Instruments Incorporated
system_msp432p401r.asm                                               PAGE  177

    9681                            .dwattr $C$DW$791, DW_AT_decl_file("C:\ti\ccs1200\ccs\ccs_base\arm\include\msp432p401r.h")
    9682                            .dwattr $C$DW$791, DW_AT_decl_line(0x74)
    9683                            .dwattr $C$DW$791, DW_AT_decl_column(0x03)
    9684                    
    9685                    $C$DW$792       .dwtag  DW_TAG_enumerator
    9686                            .dwattr $C$DW$792, DW_AT_name("WDT_A_IRQn")
    9687                            .dwattr $C$DW$792, DW_AT_const_value(0x03)
    9688                            .dwattr $C$DW$792, DW_AT_decl_file("C:\ti\ccs1200\ccs\ccs_base\arm\include\msp432p401r.h")
    9689                            .dwattr $C$DW$792, DW_AT_decl_line(0x75)
    9690                            .dwattr $C$DW$792, DW_AT_decl_column(0x03)
    9691                    
    9692                    $C$DW$793       .dwtag  DW_TAG_enumerator
    9693                            .dwattr $C$DW$793, DW_AT_name("FPU_IRQn")
    9694                            .dwattr $C$DW$793, DW_AT_const_value(0x04)
    9695                            .dwattr $C$DW$793, DW_AT_decl_file("C:\ti\ccs1200\ccs\ccs_base\arm\include\msp432p401r.h")
    9696                            .dwattr $C$DW$793, DW_AT_decl_line(0x76)
    9697                            .dwattr $C$DW$793, DW_AT_decl_column(0x03)
    9698                    
    9699                    $C$DW$794       .dwtag  DW_TAG_enumerator
    9700                            .dwattr $C$DW$794, DW_AT_name("FLCTL_IRQn")
    9701                            .dwattr $C$DW$794, DW_AT_const_value(0x05)
    9702                            .dwattr $C$DW$794, DW_AT_decl_file("C:\ti\ccs1200\ccs\ccs_base\arm\include\msp432p401r.h")
    9703                            .dwattr $C$DW$794, DW_AT_decl_line(0x77)
    9704                            .dwattr $C$DW$794, DW_AT_decl_column(0x03)
    9705                    
    9706                    $C$DW$795       .dwtag  DW_TAG_enumerator
    9707                            .dwattr $C$DW$795, DW_AT_name("COMP_E0_IRQn")
    9708                            .dwattr $C$DW$795, DW_AT_const_value(0x06)
    9709                            .dwattr $C$DW$795, DW_AT_decl_file("C:\ti\ccs1200\ccs\ccs_base\arm\include\msp432p401r.h")
    9710                            .dwattr $C$DW$795, DW_AT_decl_line(0x78)
    9711                            .dwattr $C$DW$795, DW_AT_decl_column(0x03)
    9712                    
    9713                    $C$DW$796       .dwtag  DW_TAG_enumerator
    9714                            .dwattr $C$DW$796, DW_AT_name("COMP_E1_IRQn")
    9715                            .dwattr $C$DW$796, DW_AT_const_value(0x07)
    9716                            .dwattr $C$DW$796, DW_AT_decl_file("C:\ti\ccs1200\ccs\ccs_base\arm\include\msp432p401r.h")
    9717                            .dwattr $C$DW$796, DW_AT_decl_line(0x79)
    9718                            .dwattr $C$DW$796, DW_AT_decl_column(0x03)
    9719                    
    9720                    $C$DW$797       .dwtag  DW_TAG_enumerator
    9721                            .dwattr $C$DW$797, DW_AT_name("TA0_0_IRQn")
    9722                            .dwattr $C$DW$797, DW_AT_const_value(0x08)
    9723                            .dwattr $C$DW$797, DW_AT_decl_file("C:\ti\ccs1200\ccs\ccs_base\arm\include\msp432p401r.h")
    9724                            .dwattr $C$DW$797, DW_AT_decl_line(0x7a)
    9725                            .dwattr $C$DW$797, DW_AT_decl_column(0x03)
    9726                    
    9727                    $C$DW$798       .dwtag  DW_TAG_enumerator
    9728                            .dwattr $C$DW$798, DW_AT_name("TA0_N_IRQn")
    9729                            .dwattr $C$DW$798, DW_AT_const_value(0x09)
    9730                            .dwattr $C$DW$798, DW_AT_decl_file("C:\ti\ccs1200\ccs\ccs_base\arm\include\msp432p401r.h")
    9731                            .dwattr $C$DW$798, DW_AT_decl_line(0x7b)
    9732                            .dwattr $C$DW$798, DW_AT_decl_column(0x03)
    9733                    
    9734                    $C$DW$799       .dwtag  DW_TAG_enumerator
    9735                            .dwattr $C$DW$799, DW_AT_name("TA1_0_IRQn")
TI ARM Assembler PC v20.2.6 Mon Oct 31 23:16:56 2022

Copyright (c) 1996-2018 Texas Instruments Incorporated
system_msp432p401r.asm                                               PAGE  178

    9736                            .dwattr $C$DW$799, DW_AT_const_value(0x0a)
    9737                            .dwattr $C$DW$799, DW_AT_decl_file("C:\ti\ccs1200\ccs\ccs_base\arm\include\msp432p401r.h")
    9738                            .dwattr $C$DW$799, DW_AT_decl_line(0x7c)
    9739                            .dwattr $C$DW$799, DW_AT_decl_column(0x03)
    9740                    
    9741                    $C$DW$800       .dwtag  DW_TAG_enumerator
    9742                            .dwattr $C$DW$800, DW_AT_name("TA1_N_IRQn")
    9743                            .dwattr $C$DW$800, DW_AT_const_value(0x0b)
    9744                            .dwattr $C$DW$800, DW_AT_decl_file("C:\ti\ccs1200\ccs\ccs_base\arm\include\msp432p401r.h")
    9745                            .dwattr $C$DW$800, DW_AT_decl_line(0x7d)
    9746                            .dwattr $C$DW$800, DW_AT_decl_column(0x03)
    9747                    
    9748                    $C$DW$801       .dwtag  DW_TAG_enumerator
    9749                            .dwattr $C$DW$801, DW_AT_name("TA2_0_IRQn")
    9750                            .dwattr $C$DW$801, DW_AT_const_value(0x0c)
    9751                            .dwattr $C$DW$801, DW_AT_decl_file("C:\ti\ccs1200\ccs\ccs_base\arm\include\msp432p401r.h")
    9752                            .dwattr $C$DW$801, DW_AT_decl_line(0x7e)
    9753                            .dwattr $C$DW$801, DW_AT_decl_column(0x03)
    9754                    
    9755                    $C$DW$802       .dwtag  DW_TAG_enumerator
    9756                            .dwattr $C$DW$802, DW_AT_name("TA2_N_IRQn")
    9757                            .dwattr $C$DW$802, DW_AT_const_value(0x0d)
    9758                            .dwattr $C$DW$802, DW_AT_decl_file("C:\ti\ccs1200\ccs\ccs_base\arm\include\msp432p401r.h")
    9759                            .dwattr $C$DW$802, DW_AT_decl_line(0x7f)
    9760                            .dwattr $C$DW$802, DW_AT_decl_column(0x03)
    9761                    
    9762                    $C$DW$803       .dwtag  DW_TAG_enumerator
    9763                            .dwattr $C$DW$803, DW_AT_name("TA3_0_IRQn")
    9764                            .dwattr $C$DW$803, DW_AT_const_value(0x0e)
    9765                            .dwattr $C$DW$803, DW_AT_decl_file("C:\ti\ccs1200\ccs\ccs_base\arm\include\msp432p401r.h")
    9766                            .dwattr $C$DW$803, DW_AT_decl_line(0x80)
    9767                            .dwattr $C$DW$803, DW_AT_decl_column(0x03)
    9768                    
    9769                    $C$DW$804       .dwtag  DW_TAG_enumerator
    9770                            .dwattr $C$DW$804, DW_AT_name("TA3_N_IRQn")
    9771                            .dwattr $C$DW$804, DW_AT_const_value(0x0f)
    9772                            .dwattr $C$DW$804, DW_AT_decl_file("C:\ti\ccs1200\ccs\ccs_base\arm\include\msp432p401r.h")
    9773                            .dwattr $C$DW$804, DW_AT_decl_line(0x81)
    9774                            .dwattr $C$DW$804, DW_AT_decl_column(0x03)
    9775                    
    9776                    $C$DW$805       .dwtag  DW_TAG_enumerator
    9777                            .dwattr $C$DW$805, DW_AT_name("EUSCIA0_IRQn")
    9778                            .dwattr $C$DW$805, DW_AT_const_value(0x10)
    9779                            .dwattr $C$DW$805, DW_AT_decl_file("C:\ti\ccs1200\ccs\ccs_base\arm\include\msp432p401r.h")
    9780                            .dwattr $C$DW$805, DW_AT_decl_line(0x82)
    9781                            .dwattr $C$DW$805, DW_AT_decl_column(0x03)
    9782                    
    9783                    $C$DW$806       .dwtag  DW_TAG_enumerator
    9784                            .dwattr $C$DW$806, DW_AT_name("EUSCIA1_IRQn")
    9785                            .dwattr $C$DW$806, DW_AT_const_value(0x11)
    9786                            .dwattr $C$DW$806, DW_AT_decl_file("C:\ti\ccs1200\ccs\ccs_base\arm\include\msp432p401r.h")
    9787                            .dwattr $C$DW$806, DW_AT_decl_line(0x83)
    9788                            .dwattr $C$DW$806, DW_AT_decl_column(0x03)
    9789                    
    9790                    $C$DW$807       .dwtag  DW_TAG_enumerator
TI ARM Assembler PC v20.2.6 Mon Oct 31 23:16:56 2022

Copyright (c) 1996-2018 Texas Instruments Incorporated
system_msp432p401r.asm                                               PAGE  179

    9791                            .dwattr $C$DW$807, DW_AT_name("EUSCIA2_IRQn")
    9792                            .dwattr $C$DW$807, DW_AT_const_value(0x12)
    9793                            .dwattr $C$DW$807, DW_AT_decl_file("C:\ti\ccs1200\ccs\ccs_base\arm\include\msp432p401r.h")
    9794                            .dwattr $C$DW$807, DW_AT_decl_line(0x84)
    9795                            .dwattr $C$DW$807, DW_AT_decl_column(0x03)
    9796                    
    9797                    $C$DW$808       .dwtag  DW_TAG_enumerator
    9798                            .dwattr $C$DW$808, DW_AT_name("EUSCIA3_IRQn")
    9799                            .dwattr $C$DW$808, DW_AT_const_value(0x13)
    9800                            .dwattr $C$DW$808, DW_AT_decl_file("C:\ti\ccs1200\ccs\ccs_base\arm\include\msp432p401r.h")
    9801                            .dwattr $C$DW$808, DW_AT_decl_line(0x85)
    9802                            .dwattr $C$DW$808, DW_AT_decl_column(0x03)
    9803                    
    9804                    $C$DW$809       .dwtag  DW_TAG_enumerator
    9805                            .dwattr $C$DW$809, DW_AT_name("EUSCIB0_IRQn")
    9806                            .dwattr $C$DW$809, DW_AT_const_value(0x14)
    9807                            .dwattr $C$DW$809, DW_AT_decl_file("C:\ti\ccs1200\ccs\ccs_base\arm\include\msp432p401r.h")
    9808                            .dwattr $C$DW$809, DW_AT_decl_line(0x86)
    9809                            .dwattr $C$DW$809, DW_AT_decl_column(0x03)
    9810                    
    9811                    $C$DW$810       .dwtag  DW_TAG_enumerator
    9812                            .dwattr $C$DW$810, DW_AT_name("EUSCIB1_IRQn")
    9813                            .dwattr $C$DW$810, DW_AT_const_value(0x15)
    9814                            .dwattr $C$DW$810, DW_AT_decl_file("C:\ti\ccs1200\ccs\ccs_base\arm\include\msp432p401r.h")
    9815                            .dwattr $C$DW$810, DW_AT_decl_line(0x87)
    9816                            .dwattr $C$DW$810, DW_AT_decl_column(0x03)
    9817                    
    9818                    $C$DW$811       .dwtag  DW_TAG_enumerator
    9819                            .dwattr $C$DW$811, DW_AT_name("EUSCIB2_IRQn")
    9820                            .dwattr $C$DW$811, DW_AT_const_value(0x16)
    9821                            .dwattr $C$DW$811, DW_AT_decl_file("C:\ti\ccs1200\ccs\ccs_base\arm\include\msp432p401r.h")
    9822                            .dwattr $C$DW$811, DW_AT_decl_line(0x88)
    9823                            .dwattr $C$DW$811, DW_AT_decl_column(0x03)
    9824                    
    9825                    $C$DW$812       .dwtag  DW_TAG_enumerator
    9826                            .dwattr $C$DW$812, DW_AT_name("EUSCIB3_IRQn")
    9827                            .dwattr $C$DW$812, DW_AT_const_value(0x17)
    9828                            .dwattr $C$DW$812, DW_AT_decl_file("C:\ti\ccs1200\ccs\ccs_base\arm\include\msp432p401r.h")
    9829                            .dwattr $C$DW$812, DW_AT_decl_line(0x89)
    9830                            .dwattr $C$DW$812, DW_AT_decl_column(0x03)
    9831                    
    9832                    $C$DW$813       .dwtag  DW_TAG_enumerator
    9833                            .dwattr $C$DW$813, DW_AT_name("ADC14_IRQn")
    9834                            .dwattr $C$DW$813, DW_AT_const_value(0x18)
    9835                            .dwattr $C$DW$813, DW_AT_decl_file("C:\ti\ccs1200\ccs\ccs_base\arm\include\msp432p401r.h")
    9836                            .dwattr $C$DW$813, DW_AT_decl_line(0x8a)
    9837                            .dwattr $C$DW$813, DW_AT_decl_column(0x03)
    9838                    
    9839                    $C$DW$814       .dwtag  DW_TAG_enumerator
    9840                            .dwattr $C$DW$814, DW_AT_name("T32_INT1_IRQn")
    9841                            .dwattr $C$DW$814, DW_AT_const_value(0x19)
    9842                            .dwattr $C$DW$814, DW_AT_decl_file("C:\ti\ccs1200\ccs\ccs_base\arm\include\msp432p401r.h")
    9843                            .dwattr $C$DW$814, DW_AT_decl_line(0x8b)
    9844                            .dwattr $C$DW$814, DW_AT_decl_column(0x03)
    9845                    
TI ARM Assembler PC v20.2.6 Mon Oct 31 23:16:56 2022

Copyright (c) 1996-2018 Texas Instruments Incorporated
system_msp432p401r.asm                                               PAGE  180

    9846                    $C$DW$815       .dwtag  DW_TAG_enumerator
    9847                            .dwattr $C$DW$815, DW_AT_name("T32_INT2_IRQn")
    9848                            .dwattr $C$DW$815, DW_AT_const_value(0x1a)
    9849                            .dwattr $C$DW$815, DW_AT_decl_file("C:\ti\ccs1200\ccs\ccs_base\arm\include\msp432p401r.h")
    9850                            .dwattr $C$DW$815, DW_AT_decl_line(0x8c)
    9851                            .dwattr $C$DW$815, DW_AT_decl_column(0x03)
    9852                    
    9853                    $C$DW$816       .dwtag  DW_TAG_enumerator
    9854                            .dwattr $C$DW$816, DW_AT_name("T32_INTC_IRQn")
    9855                            .dwattr $C$DW$816, DW_AT_const_value(0x1b)
    9856                            .dwattr $C$DW$816, DW_AT_decl_file("C:\ti\ccs1200\ccs\ccs_base\arm\include\msp432p401r.h")
    9857                            .dwattr $C$DW$816, DW_AT_decl_line(0x8d)
    9858                            .dwattr $C$DW$816, DW_AT_decl_column(0x03)
    9859                    
    9860                    $C$DW$817       .dwtag  DW_TAG_enumerator
    9861                            .dwattr $C$DW$817, DW_AT_name("AES256_IRQn")
    9862                            .dwattr $C$DW$817, DW_AT_const_value(0x1c)
    9863                            .dwattr $C$DW$817, DW_AT_decl_file("C:\ti\ccs1200\ccs\ccs_base\arm\include\msp432p401r.h")
    9864                            .dwattr $C$DW$817, DW_AT_decl_line(0x8e)
    9865                            .dwattr $C$DW$817, DW_AT_decl_column(0x03)
    9866                    
    9867                    $C$DW$818       .dwtag  DW_TAG_enumerator
    9868                            .dwattr $C$DW$818, DW_AT_name("RTC_C_IRQn")
    9869                            .dwattr $C$DW$818, DW_AT_const_value(0x1d)
    9870                            .dwattr $C$DW$818, DW_AT_decl_file("C:\ti\ccs1200\ccs\ccs_base\arm\include\msp432p401r.h")
    9871                            .dwattr $C$DW$818, DW_AT_decl_line(0x8f)
    9872                            .dwattr $C$DW$818, DW_AT_decl_column(0x03)
    9873                    
    9874                    $C$DW$819       .dwtag  DW_TAG_enumerator
    9875                            .dwattr $C$DW$819, DW_AT_name("DMA_ERR_IRQn")
    9876                            .dwattr $C$DW$819, DW_AT_const_value(0x1e)
    9877                            .dwattr $C$DW$819, DW_AT_decl_file("C:\ti\ccs1200\ccs\ccs_base\arm\include\msp432p401r.h")
    9878                            .dwattr $C$DW$819, DW_AT_decl_line(0x90)
    9879                            .dwattr $C$DW$819, DW_AT_decl_column(0x03)
    9880                    
    9881                    $C$DW$820       .dwtag  DW_TAG_enumerator
    9882                            .dwattr $C$DW$820, DW_AT_name("DMA_INT3_IRQn")
    9883                            .dwattr $C$DW$820, DW_AT_const_value(0x1f)
    9884                            .dwattr $C$DW$820, DW_AT_decl_file("C:\ti\ccs1200\ccs\ccs_base\arm\include\msp432p401r.h")
    9885                            .dwattr $C$DW$820, DW_AT_decl_line(0x91)
    9886                            .dwattr $C$DW$820, DW_AT_decl_column(0x03)
    9887                    
    9888                    $C$DW$821       .dwtag  DW_TAG_enumerator
    9889                            .dwattr $C$DW$821, DW_AT_name("DMA_INT2_IRQn")
    9890                            .dwattr $C$DW$821, DW_AT_const_value(0x20)
    9891                            .dwattr $C$DW$821, DW_AT_decl_file("C:\ti\ccs1200\ccs\ccs_base\arm\include\msp432p401r.h")
    9892                            .dwattr $C$DW$821, DW_AT_decl_line(0x92)
    9893                            .dwattr $C$DW$821, DW_AT_decl_column(0x03)
    9894                    
    9895                    $C$DW$822       .dwtag  DW_TAG_enumerator
    9896                            .dwattr $C$DW$822, DW_AT_name("DMA_INT1_IRQn")
    9897                            .dwattr $C$DW$822, DW_AT_const_value(0x21)
    9898                            .dwattr $C$DW$822, DW_AT_decl_file("C:\ti\ccs1200\ccs\ccs_base\arm\include\msp432p401r.h")
    9899                            .dwattr $C$DW$822, DW_AT_decl_line(0x93)
    9900                            .dwattr $C$DW$822, DW_AT_decl_column(0x03)
TI ARM Assembler PC v20.2.6 Mon Oct 31 23:16:56 2022

Copyright (c) 1996-2018 Texas Instruments Incorporated
system_msp432p401r.asm                                               PAGE  181

    9901                    
    9902                    $C$DW$823       .dwtag  DW_TAG_enumerator
    9903                            .dwattr $C$DW$823, DW_AT_name("DMA_INT0_IRQn")
    9904                            .dwattr $C$DW$823, DW_AT_const_value(0x22)
    9905                            .dwattr $C$DW$823, DW_AT_decl_file("C:\ti\ccs1200\ccs\ccs_base\arm\include\msp432p401r.h")
    9906                            .dwattr $C$DW$823, DW_AT_decl_line(0x94)
    9907                            .dwattr $C$DW$823, DW_AT_decl_column(0x03)
    9908                    
    9909                    $C$DW$824       .dwtag  DW_TAG_enumerator
    9910                            .dwattr $C$DW$824, DW_AT_name("PORT1_IRQn")
    9911                            .dwattr $C$DW$824, DW_AT_const_value(0x23)
    9912                            .dwattr $C$DW$824, DW_AT_decl_file("C:\ti\ccs1200\ccs\ccs_base\arm\include\msp432p401r.h")
    9913                            .dwattr $C$DW$824, DW_AT_decl_line(0x95)
    9914                            .dwattr $C$DW$824, DW_AT_decl_column(0x03)
    9915                    
    9916                    $C$DW$825       .dwtag  DW_TAG_enumerator
    9917                            .dwattr $C$DW$825, DW_AT_name("PORT2_IRQn")
    9918                            .dwattr $C$DW$825, DW_AT_const_value(0x24)
    9919                            .dwattr $C$DW$825, DW_AT_decl_file("C:\ti\ccs1200\ccs\ccs_base\arm\include\msp432p401r.h")
    9920                            .dwattr $C$DW$825, DW_AT_decl_line(0x96)
    9921                            .dwattr $C$DW$825, DW_AT_decl_column(0x03)
    9922                    
    9923                    $C$DW$826       .dwtag  DW_TAG_enumerator
    9924                            .dwattr $C$DW$826, DW_AT_name("PORT3_IRQn")
    9925                            .dwattr $C$DW$826, DW_AT_const_value(0x25)
    9926                            .dwattr $C$DW$826, DW_AT_decl_file("C:\ti\ccs1200\ccs\ccs_base\arm\include\msp432p401r.h")
    9927                            .dwattr $C$DW$826, DW_AT_decl_line(0x97)
    9928                            .dwattr $C$DW$826, DW_AT_decl_column(0x03)
    9929                    
    9930                    $C$DW$827       .dwtag  DW_TAG_enumerator
    9931                            .dwattr $C$DW$827, DW_AT_name("PORT4_IRQn")
    9932                            .dwattr $C$DW$827, DW_AT_const_value(0x26)
    9933                            .dwattr $C$DW$827, DW_AT_decl_file("C:\ti\ccs1200\ccs\ccs_base\arm\include\msp432p401r.h")
    9934                            .dwattr $C$DW$827, DW_AT_decl_line(0x98)
    9935                            .dwattr $C$DW$827, DW_AT_decl_column(0x03)
    9936                    
    9937                    $C$DW$828       .dwtag  DW_TAG_enumerator
    9938                            .dwattr $C$DW$828, DW_AT_name("PORT5_IRQn")
    9939                            .dwattr $C$DW$828, DW_AT_const_value(0x27)
    9940                            .dwattr $C$DW$828, DW_AT_decl_file("C:\ti\ccs1200\ccs\ccs_base\arm\include\msp432p401r.h")
    9941                            .dwattr $C$DW$828, DW_AT_decl_line(0x99)
    9942                            .dwattr $C$DW$828, DW_AT_decl_column(0x03)
    9943                    
    9944                    $C$DW$829       .dwtag  DW_TAG_enumerator
    9945                            .dwattr $C$DW$829, DW_AT_name("PORT6_IRQn")
    9946                            .dwattr $C$DW$829, DW_AT_const_value(0x28)
    9947                            .dwattr $C$DW$829, DW_AT_decl_file("C:\ti\ccs1200\ccs\ccs_base\arm\include\msp432p401r.h")
    9948                            .dwattr $C$DW$829, DW_AT_decl_line(0x9a)
    9949                            .dwattr $C$DW$829, DW_AT_decl_column(0x03)
    9950                    
    9951                            .dwattr $C$DW$T$232, DW_AT_decl_file("C:\ti\ccs1200\ccs\ccs_base\arm\include\msp432p401r.h")
    9952                            .dwattr $C$DW$T$232, DW_AT_decl_line(0x65)
    9953                            .dwattr $C$DW$T$232, DW_AT_decl_column(0x0e)
    9954                            .dwendtag $C$DW$T$232
    9955                    
TI ARM Assembler PC v20.2.6 Mon Oct 31 23:16:56 2022

Copyright (c) 1996-2018 Texas Instruments Incorporated
system_msp432p401r.asm                                               PAGE  182

    9956                    $C$DW$T$233     .dwtag  DW_TAG_typedef
    9957                            .dwattr $C$DW$T$233, DW_AT_name("IRQn_Type")
    9958                            .dwattr $C$DW$T$233, DW_AT_type(*$C$DW$T$232)
    9959                            .dwattr $C$DW$T$233, DW_AT_language(DW_LANG_C)
    9960                            .dwattr $C$DW$T$233, DW_AT_decl_file("C:\ti\ccs1200\ccs\ccs_base\arm\include\msp432p401r.h")
    9961                            .dwattr $C$DW$T$233, DW_AT_decl_line(0x9b)
    9962                            .dwattr $C$DW$T$233, DW_AT_decl_column(0x03)
    9963                    
    9964                    
    9965                    $C$DW$T$177     .dwtag  DW_TAG_structure_type
    9966                            .dwattr $C$DW$T$177, DW_AT_name("T_UINT32")
    9967                            .dwattr $C$DW$T$177, DW_AT_byte_size(0x04)
    9968                    $C$DW$830       .dwtag  DW_TAG_member
    9969                            .dwattr $C$DW$830, DW_AT_type(*$C$DW$T$22)
    9970                            .dwattr $C$DW$830, DW_AT_name("v")
    9971                            .dwattr $C$DW$830, DW_AT_TI_symbol_name("v")
    9972                            .dwattr $C$DW$830, DW_AT_data_member_location[DW_OP_plus_uconst 0x0]
    9973                            .dwattr $C$DW$830, DW_AT_accessibility(DW_ACCESS_public)
    9974                            .dwattr $C$DW$830, DW_AT_decl_file("C:\ti\ccs1200\ccs\ccs_base\arm\include\CMSIS\cmsis_compile
    9975                            .dwattr $C$DW$830, DW_AT_decl_line(0x76)
    9976                            .dwattr $C$DW$830, DW_AT_decl_column(0x38)
    9977                    
    9978                            .dwattr $C$DW$T$177, DW_AT_decl_file("C:\ti\ccs1200\ccs\ccs_base\arm\include\CMSIS\cmsis_compi
    9979                            .dwattr $C$DW$T$177, DW_AT_decl_line(0x76)
    9980                            .dwattr $C$DW$T$177, DW_AT_decl_column(0x24)
    9981                            .dwendtag $C$DW$T$177
    9982                    
    9983                    $C$DW$T$2       .dwtag  DW_TAG_unspecified_type
    9984                            .dwattr $C$DW$T$2, DW_AT_name("void")
    9985                    
    9986                    $C$DW$T$3       .dwtag  DW_TAG_pointer_type
    9987                            .dwattr $C$DW$T$3, DW_AT_type(*$C$DW$T$2)
    9988                            .dwattr $C$DW$T$3, DW_AT_address_class(0x20)
    9989                    
    9990                    $C$DW$T$4       .dwtag  DW_TAG_base_type
    9991                            .dwattr $C$DW$T$4, DW_AT_encoding(DW_ATE_boolean)
    9992                            .dwattr $C$DW$T$4, DW_AT_name("bool")
    9993                            .dwattr $C$DW$T$4, DW_AT_byte_size(0x01)
    9994                    
    9995                    $C$DW$T$5       .dwtag  DW_TAG_base_type
    9996                            .dwattr $C$DW$T$5, DW_AT_encoding(DW_ATE_signed_char)
    9997                            .dwattr $C$DW$T$5, DW_AT_name("signed char")
    9998                            .dwattr $C$DW$T$5, DW_AT_byte_size(0x01)
    9999                    
   10000                    $C$DW$T$235     .dwtag  DW_TAG_typedef
   10001                            .dwattr $C$DW$T$235, DW_AT_name("__int8_t")
   10002                            .dwattr $C$DW$T$235, DW_AT_type(*$C$DW$T$5)
   10003                            .dwattr $C$DW$T$235, DW_AT_language(DW_LANG_C)
   10004                            .dwattr $C$DW$T$235, DW_AT_decl_file("C:/ti/ccs1200/ccs/tools/compiler/ti-cgt-arm_20.2.6.LTS/i
   10005                            .dwattr $C$DW$T$235, DW_AT_decl_line(0x4a)
   10006                            .dwattr $C$DW$T$235, DW_AT_decl_column(0x16)
   10007                    
   10008                    $C$DW$T$236     .dwtag  DW_TAG_typedef
   10009                            .dwattr $C$DW$T$236, DW_AT_name("__int_least8_t")
   10010                            .dwattr $C$DW$T$236, DW_AT_type(*$C$DW$T$235)
TI ARM Assembler PC v20.2.6 Mon Oct 31 23:16:56 2022

Copyright (c) 1996-2018 Texas Instruments Incorporated
system_msp432p401r.asm                                               PAGE  183

   10011                            .dwattr $C$DW$T$236, DW_AT_language(DW_LANG_C)
   10012                            .dwattr $C$DW$T$236, DW_AT_decl_file("C:/ti/ccs1200/ccs/tools/compiler/ti-cgt-arm_20.2.6.LTS/i
   10013                            .dwattr $C$DW$T$236, DW_AT_decl_line(0x69)
   10014                            .dwattr $C$DW$T$236, DW_AT_decl_column(0x12)
   10015                    
   10016                    $C$DW$T$237     .dwtag  DW_TAG_typedef
   10017                            .dwattr $C$DW$T$237, DW_AT_name("int_least8_t")
   10018                            .dwattr $C$DW$T$237, DW_AT_type(*$C$DW$T$236)
   10019                            .dwattr $C$DW$T$237, DW_AT_language(DW_LANG_C)
   10020                            .dwattr $C$DW$T$237, DW_AT_decl_file("C:/ti/ccs1200/ccs/tools/compiler/ti-cgt-arm_20.2.6.LTS/i
   10021                            .dwattr $C$DW$T$237, DW_AT_decl_line(0x2a)
   10022                            .dwattr $C$DW$T$237, DW_AT_decl_column(0x19)
   10023                    
   10024                    $C$DW$T$238     .dwtag  DW_TAG_typedef
   10025                            .dwattr $C$DW$T$238, DW_AT_name("int8_t")
   10026                            .dwattr $C$DW$T$238, DW_AT_type(*$C$DW$T$235)
   10027                            .dwattr $C$DW$T$238, DW_AT_language(DW_LANG_C)
   10028                            .dwattr $C$DW$T$238, DW_AT_decl_file("C:/ti/ccs1200/ccs/tools/compiler/ti-cgt-arm_20.2.6.LTS/i
   10029                            .dwattr $C$DW$T$238, DW_AT_decl_line(0x25)
   10030                            .dwattr $C$DW$T$238, DW_AT_decl_column(0x13)
   10031                    
   10032                    $C$DW$T$6       .dwtag  DW_TAG_base_type
   10033                            .dwattr $C$DW$T$6, DW_AT_encoding(DW_ATE_unsigned_char)
   10034                            .dwattr $C$DW$T$6, DW_AT_name("unsigned char")
   10035                            .dwattr $C$DW$T$6, DW_AT_byte_size(0x01)
   10036                    
   10037                    $C$DW$T$29      .dwtag  DW_TAG_typedef
   10038                            .dwattr $C$DW$T$29, DW_AT_name("__uint8_t")
   10039                            .dwattr $C$DW$T$29, DW_AT_type(*$C$DW$T$6)
   10040                            .dwattr $C$DW$T$29, DW_AT_language(DW_LANG_C)
   10041                            .dwattr $C$DW$T$29, DW_AT_decl_file("C:/ti/ccs1200/ccs/tools/compiler/ti-cgt-arm_20.2.6.LTS/in
   10042                            .dwattr $C$DW$T$29, DW_AT_decl_line(0x4b)
   10043                            .dwattr $C$DW$T$29, DW_AT_decl_column(0x18)
   10044                    
   10045                    $C$DW$T$239     .dwtag  DW_TAG_typedef
   10046                            .dwattr $C$DW$T$239, DW_AT_name("__sa_family_t")
   10047                            .dwattr $C$DW$T$239, DW_AT_type(*$C$DW$T$29)
   10048                            .dwattr $C$DW$T$239, DW_AT_language(DW_LANG_C)
   10049                            .dwattr $C$DW$T$239, DW_AT_decl_file("C:/ti/ccs1200/ccs/tools/compiler/ti-cgt-arm_20.2.6.LTS/i
   10050                            .dwattr $C$DW$T$239, DW_AT_decl_line(0x47)
   10051                            .dwattr $C$DW$T$239, DW_AT_decl_column(0x13)
   10052                    
   10053                    $C$DW$T$240     .dwtag  DW_TAG_typedef
   10054                            .dwattr $C$DW$T$240, DW_AT_name("__uint_least8_t")
   10055                            .dwattr $C$DW$T$240, DW_AT_type(*$C$DW$T$29)
   10056                            .dwattr $C$DW$T$240, DW_AT_language(DW_LANG_C)
   10057                            .dwattr $C$DW$T$240, DW_AT_decl_file("C:/ti/ccs1200/ccs/tools/compiler/ti-cgt-arm_20.2.6.LTS/i
   10058                            .dwattr $C$DW$T$240, DW_AT_decl_line(0x7f)
   10059                            .dwattr $C$DW$T$240, DW_AT_decl_column(0x13)
   10060                    
   10061                    $C$DW$T$241     .dwtag  DW_TAG_typedef
   10062                            .dwattr $C$DW$T$241, DW_AT_name("uint_least8_t")
   10063                            .dwattr $C$DW$T$241, DW_AT_type(*$C$DW$T$240)
   10064                            .dwattr $C$DW$T$241, DW_AT_language(DW_LANG_C)
   10065                            .dwattr $C$DW$T$241, DW_AT_decl_file("C:/ti/ccs1200/ccs/tools/compiler/ti-cgt-arm_20.2.6.LTS/i
TI ARM Assembler PC v20.2.6 Mon Oct 31 23:16:56 2022

Copyright (c) 1996-2018 Texas Instruments Incorporated
system_msp432p401r.asm                                               PAGE  184

   10066                            .dwattr $C$DW$T$241, DW_AT_decl_line(0x2f)
   10067                            .dwattr $C$DW$T$241, DW_AT_decl_column(0x1a)
   10068                    
   10069                    $C$DW$T$30      .dwtag  DW_TAG_typedef
   10070                            .dwattr $C$DW$T$30, DW_AT_name("uint8_t")
   10071                            .dwattr $C$DW$T$30, DW_AT_type(*$C$DW$T$29)
   10072                            .dwattr $C$DW$T$30, DW_AT_language(DW_LANG_C)
   10073                            .dwattr $C$DW$T$30, DW_AT_decl_file("C:/ti/ccs1200/ccs/tools/compiler/ti-cgt-arm_20.2.6.LTS/in
   10074                            .dwattr $C$DW$T$30, DW_AT_decl_line(0x3b)
   10075                            .dwattr $C$DW$T$30, DW_AT_decl_column(0x14)
   10076                    
   10077                    
   10078                    $C$DW$T$113     .dwtag  DW_TAG_array_type
   10079                            .dwattr $C$DW$T$113, DW_AT_type(*$C$DW$T$30)
   10080                            .dwattr $C$DW$T$113, DW_AT_language(DW_LANG_C)
   10081                            .dwattr $C$DW$T$113, DW_AT_byte_size(0x06)
   10082                    $C$DW$831       .dwtag  DW_TAG_subrange_type
   10083                            .dwattr $C$DW$831, DW_AT_upper_bound(0x05)
   10084                    
   10085                            .dwendtag $C$DW$T$113
   10086                    
   10087                    
   10088                    $C$DW$T$115     .dwtag  DW_TAG_array_type
   10089                            .dwattr $C$DW$T$115, DW_AT_type(*$C$DW$T$30)
   10090                            .dwattr $C$DW$T$115, DW_AT_language(DW_LANG_C)
   10091                            .dwattr $C$DW$T$115, DW_AT_byte_size(0x09)
   10092                    $C$DW$832       .dwtag  DW_TAG_subrange_type
   10093                            .dwattr $C$DW$832, DW_AT_upper_bound(0x08)
   10094                    
   10095                            .dwendtag $C$DW$T$115
   10096                    
   10097                    $C$DW$T$31      .dwtag  DW_TAG_volatile_type
   10098                            .dwattr $C$DW$T$31, DW_AT_type(*$C$DW$T$30)
   10099                    
   10100                    
   10101                    $C$DW$T$32      .dwtag  DW_TAG_array_type
   10102                            .dwattr $C$DW$T$32, DW_AT_type(*$C$DW$T$31)
   10103                            .dwattr $C$DW$T$32, DW_AT_language(DW_LANG_C)
   10104                            .dwattr $C$DW$T$32, DW_AT_byte_size(0x0c)
   10105                    $C$DW$833       .dwtag  DW_TAG_subrange_type
   10106                            .dwattr $C$DW$833, DW_AT_upper_bound(0x0b)
   10107                    
   10108                            .dwendtag $C$DW$T$32
   10109                    
   10110                    
   10111                    $C$DW$T$55      .dwtag  DW_TAG_array_type
   10112                            .dwattr $C$DW$T$55, DW_AT_type(*$C$DW$T$31)
   10113                            .dwattr $C$DW$T$55, DW_AT_language(DW_LANG_C)
   10114                            .dwattr $C$DW$T$55, DW_AT_byte_size(0xf0)
   10115                    $C$DW$834       .dwtag  DW_TAG_subrange_type
   10116                            .dwattr $C$DW$834, DW_AT_upper_bound(0xef)
   10117                    
   10118                            .dwendtag $C$DW$T$55
   10119                    
   10120                    $C$DW$835       .dwtag  DW_TAG_const_type
TI ARM Assembler PC v20.2.6 Mon Oct 31 23:16:56 2022

Copyright (c) 1996-2018 Texas Instruments Incorporated
system_msp432p401r.asm                                               PAGE  185

   10121                            .dwattr $C$DW$835, DW_AT_type(*$C$DW$T$30)
   10122                    
   10123                    $C$DW$T$89      .dwtag  DW_TAG_volatile_type
   10124                            .dwattr $C$DW$T$89, DW_AT_type(*$C$DW$835)
   10125                    
   10126                    $C$DW$T$7       .dwtag  DW_TAG_base_type
   10127                            .dwattr $C$DW$T$7, DW_AT_encoding(DW_ATE_signed_char)
   10128                            .dwattr $C$DW$T$7, DW_AT_name("wchar_t")
   10129                            .dwattr $C$DW$T$7, DW_AT_byte_size(0x02)
   10130                    
   10131                    $C$DW$T$8       .dwtag  DW_TAG_base_type
   10132                            .dwattr $C$DW$T$8, DW_AT_encoding(DW_ATE_signed)
   10133                            .dwattr $C$DW$T$8, DW_AT_name("short")
   10134                            .dwattr $C$DW$T$8, DW_AT_byte_size(0x02)
   10135                    
   10136                    $C$DW$T$243     .dwtag  DW_TAG_typedef
   10137                            .dwattr $C$DW$T$243, DW_AT_name("__int16_t")
   10138                            .dwattr $C$DW$T$243, DW_AT_type(*$C$DW$T$8)
   10139                            .dwattr $C$DW$T$243, DW_AT_language(DW_LANG_C)
   10140                            .dwattr $C$DW$T$243, DW_AT_decl_file("C:/ti/ccs1200/ccs/tools/compiler/ti-cgt-arm_20.2.6.LTS/i
   10141                            .dwattr $C$DW$T$243, DW_AT_decl_line(0x4c)
   10142                            .dwattr $C$DW$T$243, DW_AT_decl_column(0x11)
   10143                    
   10144                    $C$DW$T$244     .dwtag  DW_TAG_typedef
   10145                            .dwattr $C$DW$T$244, DW_AT_name("__int_least16_t")
   10146                            .dwattr $C$DW$T$244, DW_AT_type(*$C$DW$T$243)
   10147                            .dwattr $C$DW$T$244, DW_AT_language(DW_LANG_C)
   10148                            .dwattr $C$DW$T$244, DW_AT_decl_file("C:/ti/ccs1200/ccs/tools/compiler/ti-cgt-arm_20.2.6.LTS/i
   10149                            .dwattr $C$DW$T$244, DW_AT_decl_line(0x6a)
   10150                            .dwattr $C$DW$T$244, DW_AT_decl_column(0x13)
   10151                    
   10152                    $C$DW$T$245     .dwtag  DW_TAG_typedef
   10153                            .dwattr $C$DW$T$245, DW_AT_name("int_least16_t")
   10154                            .dwattr $C$DW$T$245, DW_AT_type(*$C$DW$T$244)
   10155                            .dwattr $C$DW$T$245, DW_AT_language(DW_LANG_C)
   10156                            .dwattr $C$DW$T$245, DW_AT_decl_file("C:/ti/ccs1200/ccs/tools/compiler/ti-cgt-arm_20.2.6.LTS/i
   10157                            .dwattr $C$DW$T$245, DW_AT_decl_line(0x2b)
   10158                            .dwattr $C$DW$T$245, DW_AT_decl_column(0x1a)
   10159                    
   10160                    $C$DW$T$246     .dwtag  DW_TAG_typedef
   10161                            .dwattr $C$DW$T$246, DW_AT_name("int16_t")
   10162                            .dwattr $C$DW$T$246, DW_AT_type(*$C$DW$T$243)
   10163                            .dwattr $C$DW$T$246, DW_AT_language(DW_LANG_C)
   10164                            .dwattr $C$DW$T$246, DW_AT_decl_file("C:/ti/ccs1200/ccs/tools/compiler/ti-cgt-arm_20.2.6.LTS/i
   10165                            .dwattr $C$DW$T$246, DW_AT_decl_line(0x2b)
   10166                            .dwattr $C$DW$T$246, DW_AT_decl_column(0x14)
   10167                    
   10168                    $C$DW$T$9       .dwtag  DW_TAG_base_type
   10169                            .dwattr $C$DW$T$9, DW_AT_encoding(DW_ATE_unsigned)
   10170                            .dwattr $C$DW$T$9, DW_AT_name("unsigned short")
   10171                            .dwattr $C$DW$T$9, DW_AT_byte_size(0x02)
   10172                    
   10173                    $C$DW$T$247     .dwtag  DW_TAG_typedef
   10174                            .dwattr $C$DW$T$247, DW_AT_name("___wchar_t")
   10175                            .dwattr $C$DW$T$247, DW_AT_type(*$C$DW$T$9)
TI ARM Assembler PC v20.2.6 Mon Oct 31 23:16:56 2022

Copyright (c) 1996-2018 Texas Instruments Incorporated
system_msp432p401r.asm                                               PAGE  186

   10176                            .dwattr $C$DW$T$247, DW_AT_language(DW_LANG_C)
   10177                            .dwattr $C$DW$T$247, DW_AT_decl_file("C:/ti/ccs1200/ccs/tools/compiler/ti-cgt-arm_20.2.6.LTS/i
   10178                            .dwattr $C$DW$T$247, DW_AT_decl_line(0x8b)
   10179                            .dwattr $C$DW$T$247, DW_AT_decl_column(0x1a)
   10180                    
   10181                    $C$DW$T$38      .dwtag  DW_TAG_typedef
   10182                            .dwattr $C$DW$T$38, DW_AT_name("__uint16_t")
   10183                            .dwattr $C$DW$T$38, DW_AT_type(*$C$DW$T$9)
   10184                            .dwattr $C$DW$T$38, DW_AT_language(DW_LANG_C)
   10185                            .dwattr $C$DW$T$38, DW_AT_decl_file("C:/ti/ccs1200/ccs/tools/compiler/ti-cgt-arm_20.2.6.LTS/in
   10186                            .dwattr $C$DW$T$38, DW_AT_decl_line(0x4d)
   10187                            .dwattr $C$DW$T$38, DW_AT_decl_column(0x19)
   10188                    
   10189                    $C$DW$T$248     .dwtag  DW_TAG_typedef
   10190                            .dwattr $C$DW$T$248, DW_AT_name("__mode_t")
   10191                            .dwattr $C$DW$T$248, DW_AT_type(*$C$DW$T$38)
   10192                            .dwattr $C$DW$T$248, DW_AT_language(DW_LANG_C)
   10193                            .dwattr $C$DW$T$248, DW_AT_decl_file("C:/ti/ccs1200/ccs/tools/compiler/ti-cgt-arm_20.2.6.LTS/i
   10194                            .dwattr $C$DW$T$248, DW_AT_decl_line(0x3a)
   10195                            .dwattr $C$DW$T$248, DW_AT_decl_column(0x14)
   10196                    
   10197                    $C$DW$T$249     .dwtag  DW_TAG_typedef
   10198                            .dwattr $C$DW$T$249, DW_AT_name("__uint_least16_t")
   10199                            .dwattr $C$DW$T$249, DW_AT_type(*$C$DW$T$38)
   10200                            .dwattr $C$DW$T$249, DW_AT_language(DW_LANG_C)
   10201                            .dwattr $C$DW$T$249, DW_AT_decl_file("C:/ti/ccs1200/ccs/tools/compiler/ti-cgt-arm_20.2.6.LTS/i
   10202                            .dwattr $C$DW$T$249, DW_AT_decl_line(0x80)
   10203                            .dwattr $C$DW$T$249, DW_AT_decl_column(0x14)
   10204                    
   10205                    $C$DW$T$250     .dwtag  DW_TAG_typedef
   10206                            .dwattr $C$DW$T$250, DW_AT_name("__char16_t")
   10207                            .dwattr $C$DW$T$250, DW_AT_type(*$C$DW$T$249)
   10208                            .dwattr $C$DW$T$250, DW_AT_language(DW_LANG_C)
   10209                            .dwattr $C$DW$T$250, DW_AT_decl_file("C:/ti/ccs1200/ccs/tools/compiler/ti-cgt-arm_20.2.6.LTS/i
   10210                            .dwattr $C$DW$T$250, DW_AT_decl_line(0x71)
   10211                            .dwattr $C$DW$T$250, DW_AT_decl_column(0x1a)
   10212                    
   10213                    $C$DW$T$251     .dwtag  DW_TAG_typedef
   10214                            .dwattr $C$DW$T$251, DW_AT_name("uint_least16_t")
   10215                            .dwattr $C$DW$T$251, DW_AT_type(*$C$DW$T$249)
   10216                            .dwattr $C$DW$T$251, DW_AT_language(DW_LANG_C)
   10217                            .dwattr $C$DW$T$251, DW_AT_decl_file("C:/ti/ccs1200/ccs/tools/compiler/ti-cgt-arm_20.2.6.LTS/i
   10218                            .dwattr $C$DW$T$251, DW_AT_decl_line(0x30)
   10219                            .dwattr $C$DW$T$251, DW_AT_decl_column(0x1a)
   10220                    
   10221                    $C$DW$T$39      .dwtag  DW_TAG_typedef
   10222                            .dwattr $C$DW$T$39, DW_AT_name("uint16_t")
   10223                            .dwattr $C$DW$T$39, DW_AT_type(*$C$DW$T$38)
   10224                            .dwattr $C$DW$T$39, DW_AT_language(DW_LANG_C)
   10225                            .dwattr $C$DW$T$39, DW_AT_decl_file("C:/ti/ccs1200/ccs/tools/compiler/ti-cgt-arm_20.2.6.LTS/in
   10226                            .dwattr $C$DW$T$39, DW_AT_decl_line(0x41)
   10227                            .dwattr $C$DW$T$39, DW_AT_decl_column(0x15)
   10228                    
   10229                    
   10230                    $C$DW$T$40      .dwtag  DW_TAG_array_type
TI ARM Assembler PC v20.2.6 Mon Oct 31 23:16:56 2022

Copyright (c) 1996-2018 Texas Instruments Incorporated
system_msp432p401r.asm                                               PAGE  187

   10231                            .dwattr $C$DW$T$40, DW_AT_type(*$C$DW$T$39)
   10232                            .dwattr $C$DW$T$40, DW_AT_language(DW_LANG_C)
   10233                            .dwattr $C$DW$T$40, DW_AT_byte_size(0x0c)
   10234                    $C$DW$836       .dwtag  DW_TAG_subrange_type
   10235                            .dwattr $C$DW$836, DW_AT_upper_bound(0x05)
   10236                    
   10237                            .dwendtag $C$DW$T$40
   10238                    
   10239                    
   10240                    $C$DW$T$83      .dwtag  DW_TAG_array_type
   10241                            .dwattr $C$DW$T$83, DW_AT_type(*$C$DW$T$39)
   10242                            .dwattr $C$DW$T$83, DW_AT_language(DW_LANG_C)
   10243                            .dwattr $C$DW$T$83, DW_AT_byte_size(0x0e)
   10244                    $C$DW$837       .dwtag  DW_TAG_subrange_type
   10245                            .dwattr $C$DW$837, DW_AT_upper_bound(0x06)
   10246                    
   10247                            .dwendtag $C$DW$T$83
   10248                    
   10249                    
   10250                    $C$DW$T$85      .dwtag  DW_TAG_array_type
   10251                            .dwattr $C$DW$T$85, DW_AT_type(*$C$DW$T$39)
   10252                            .dwattr $C$DW$T$85, DW_AT_language(DW_LANG_C)
   10253                            .dwattr $C$DW$T$85, DW_AT_byte_size(0x04)
   10254                    $C$DW$838       .dwtag  DW_TAG_subrange_type
   10255                            .dwattr $C$DW$838, DW_AT_upper_bound(0x01)
   10256                    
   10257                            .dwendtag $C$DW$T$85
   10258                    
   10259                    
   10260                    $C$DW$T$101     .dwtag  DW_TAG_array_type
   10261                            .dwattr $C$DW$T$101, DW_AT_type(*$C$DW$T$39)
   10262                            .dwattr $C$DW$T$101, DW_AT_language(DW_LANG_C)
   10263                            .dwattr $C$DW$T$101, DW_AT_byte_size(0x06)
   10264                    $C$DW$839       .dwtag  DW_TAG_subrange_type
   10265                            .dwattr $C$DW$839, DW_AT_upper_bound(0x02)
   10266                    
   10267                            .dwendtag $C$DW$T$101
   10268                    
   10269                    
   10270                    $C$DW$T$111     .dwtag  DW_TAG_array_type
   10271                            .dwattr $C$DW$T$111, DW_AT_type(*$C$DW$T$39)
   10272                            .dwattr $C$DW$T$111, DW_AT_language(DW_LANG_C)
   10273                            .dwattr $C$DW$T$111, DW_AT_byte_size(0x08)
   10274                    $C$DW$840       .dwtag  DW_TAG_subrange_type
   10275                            .dwattr $C$DW$840, DW_AT_upper_bound(0x03)
   10276                    
   10277                            .dwendtag $C$DW$T$111
   10278                    
   10279                    
   10280                    $C$DW$T$121     .dwtag  DW_TAG_array_type
   10281                            .dwattr $C$DW$T$121, DW_AT_type(*$C$DW$T$39)
   10282                            .dwattr $C$DW$T$121, DW_AT_language(DW_LANG_C)
   10283                            .dwattr $C$DW$T$121, DW_AT_byte_size(0x0a)
   10284                    $C$DW$841       .dwtag  DW_TAG_subrange_type
   10285                            .dwattr $C$DW$841, DW_AT_upper_bound(0x04)
TI ARM Assembler PC v20.2.6 Mon Oct 31 23:16:56 2022

Copyright (c) 1996-2018 Texas Instruments Incorporated
system_msp432p401r.asm                                               PAGE  188

   10286                    
   10287                            .dwendtag $C$DW$T$121
   10288                    
   10289                    
   10290                    $C$DW$T$124     .dwtag  DW_TAG_array_type
   10291                            .dwattr $C$DW$T$124, DW_AT_type(*$C$DW$T$39)
   10292                            .dwattr $C$DW$T$124, DW_AT_language(DW_LANG_C)
   10293                            .dwattr $C$DW$T$124, DW_AT_byte_size(0x1a)
   10294                    $C$DW$842       .dwtag  DW_TAG_subrange_type
   10295                            .dwattr $C$DW$842, DW_AT_upper_bound(0x0c)
   10296                    
   10297                            .dwendtag $C$DW$T$124
   10298                    
   10299                    
   10300                    $C$DW$T$144     .dwtag  DW_TAG_array_type
   10301                            .dwattr $C$DW$T$144, DW_AT_type(*$C$DW$T$39)
   10302                            .dwattr $C$DW$T$144, DW_AT_language(DW_LANG_C)
   10303                            .dwattr $C$DW$T$144, DW_AT_byte_size(0x10)
   10304                    $C$DW$843       .dwtag  DW_TAG_subrange_type
   10305                            .dwattr $C$DW$843, DW_AT_upper_bound(0x07)
   10306                    
   10307                            .dwendtag $C$DW$T$144
   10308                    
   10309                    $C$DW$T$41      .dwtag  DW_TAG_volatile_type
   10310                            .dwattr $C$DW$T$41, DW_AT_type(*$C$DW$T$39)
   10311                    
   10312                    
   10313                    $C$DW$T$149     .dwtag  DW_TAG_array_type
   10314                            .dwattr $C$DW$T$149, DW_AT_type(*$C$DW$T$41)
   10315                            .dwattr $C$DW$T$149, DW_AT_language(DW_LANG_C)
   10316                            .dwattr $C$DW$T$149, DW_AT_byte_size(0x0a)
   10317                    $C$DW$844       .dwtag  DW_TAG_subrange_type
   10318                            .dwattr $C$DW$844, DW_AT_upper_bound(0x04)
   10319                    
   10320                            .dwendtag $C$DW$T$149
   10321                    
   10322                    
   10323                    $C$DW$T$175     .dwtag  DW_TAG_array_type
   10324                            .dwattr $C$DW$T$175, DW_AT_type(*$C$DW$T$41)
   10325                            .dwattr $C$DW$T$175, DW_AT_language(DW_LANG_C)
   10326                            .dwattr $C$DW$T$175, DW_AT_byte_size(0x08)
   10327                    $C$DW$845       .dwtag  DW_TAG_subrange_type
   10328                            .dwattr $C$DW$845, DW_AT_upper_bound(0x03)
   10329                    
   10330                            .dwendtag $C$DW$T$175
   10331                    
   10332                    $C$DW$846       .dwtag  DW_TAG_const_type
   10333                            .dwattr $C$DW$846, DW_AT_type(*$C$DW$T$39)
   10334                    
   10335                    $C$DW$T$86      .dwtag  DW_TAG_volatile_type
   10336                            .dwattr $C$DW$T$86, DW_AT_type(*$C$DW$846)
   10337                    
   10338                    $C$DW$T$10      .dwtag  DW_TAG_base_type
   10339                            .dwattr $C$DW$T$10, DW_AT_encoding(DW_ATE_signed)
   10340                            .dwattr $C$DW$T$10, DW_AT_name("int")
TI ARM Assembler PC v20.2.6 Mon Oct 31 23:16:56 2022

Copyright (c) 1996-2018 Texas Instruments Incorporated
system_msp432p401r.asm                                               PAGE  189

   10341                            .dwattr $C$DW$T$10, DW_AT_byte_size(0x04)
   10342                    
   10343                    $C$DW$T$252     .dwtag  DW_TAG_typedef
   10344                            .dwattr $C$DW$T$252, DW_AT_name("_Mbstatet")
   10345                            .dwattr $C$DW$T$252, DW_AT_type(*$C$DW$T$10)
   10346                            .dwattr $C$DW$T$252, DW_AT_language(DW_LANG_C)
   10347                            .dwattr $C$DW$T$252, DW_AT_decl_file("C:/ti/ccs1200/ccs/tools/compiler/ti-cgt-arm_20.2.6.LTS/i
   10348                            .dwattr $C$DW$T$252, DW_AT_decl_line(0x8f)
   10349                            .dwattr $C$DW$T$252, DW_AT_decl_column(0x0d)
   10350                    
   10351                    $C$DW$T$253     .dwtag  DW_TAG_typedef
   10352                            .dwattr $C$DW$T$253, DW_AT_name("__mbstate_t")
   10353                            .dwattr $C$DW$T$253, DW_AT_type(*$C$DW$T$252)
   10354                            .dwattr $C$DW$T$253, DW_AT_language(DW_LANG_C)
   10355                            .dwattr $C$DW$T$253, DW_AT_decl_file("C:/ti/ccs1200/ccs/tools/compiler/ti-cgt-arm_20.2.6.LTS/i
   10356                            .dwattr $C$DW$T$253, DW_AT_decl_line(0x92)
   10357                            .dwattr $C$DW$T$253, DW_AT_decl_column(0x13)
   10358                    
   10359                    $C$DW$T$254     .dwtag  DW_TAG_typedef
   10360                            .dwattr $C$DW$T$254, DW_AT_name("__accmode_t")
   10361                            .dwattr $C$DW$T$254, DW_AT_type(*$C$DW$T$10)
   10362                            .dwattr $C$DW$T$254, DW_AT_language(DW_LANG_C)
   10363                            .dwattr $C$DW$T$254, DW_AT_decl_file("C:/ti/ccs1200/ccs/tools/compiler/ti-cgt-arm_20.2.6.LTS/i
   10364                            .dwattr $C$DW$T$254, DW_AT_decl_line(0x3b)
   10365                            .dwattr $C$DW$T$254, DW_AT_decl_column(0x0e)
   10366                    
   10367                    $C$DW$T$255     .dwtag  DW_TAG_typedef
   10368                            .dwattr $C$DW$T$255, DW_AT_name("__cpulevel_t")
   10369                            .dwattr $C$DW$T$255, DW_AT_type(*$C$DW$T$10)
   10370                            .dwattr $C$DW$T$255, DW_AT_language(DW_LANG_C)
   10371                            .dwattr $C$DW$T$255, DW_AT_decl_file("C:/ti/ccs1200/ccs/tools/compiler/ti-cgt-arm_20.2.6.LTS/i
   10372                            .dwattr $C$DW$T$255, DW_AT_decl_line(0x50)
   10373                            .dwattr $C$DW$T$255, DW_AT_decl_column(0x0e)
   10374                    
   10375                    $C$DW$T$256     .dwtag  DW_TAG_typedef
   10376                            .dwattr $C$DW$T$256, DW_AT_name("__cpusetid_t")
   10377                            .dwattr $C$DW$T$256, DW_AT_type(*$C$DW$T$10)
   10378                            .dwattr $C$DW$T$256, DW_AT_language(DW_LANG_C)
   10379                            .dwattr $C$DW$T$256, DW_AT_decl_file("C:/ti/ccs1200/ccs/tools/compiler/ti-cgt-arm_20.2.6.LTS/i
   10380                            .dwattr $C$DW$T$256, DW_AT_decl_line(0x51)
   10381                            .dwattr $C$DW$T$256, DW_AT_decl_column(0x0e)
   10382                    
   10383                    $C$DW$T$257     .dwtag  DW_TAG_typedef
   10384                            .dwattr $C$DW$T$257, DW_AT_name("__cpuwhich_t")
   10385                            .dwattr $C$DW$T$257, DW_AT_type(*$C$DW$T$10)
   10386                            .dwattr $C$DW$T$257, DW_AT_language(DW_LANG_C)
   10387                            .dwattr $C$DW$T$257, DW_AT_decl_file("C:/ti/ccs1200/ccs/tools/compiler/ti-cgt-arm_20.2.6.LTS/i
   10388                            .dwattr $C$DW$T$257, DW_AT_decl_line(0x4f)
   10389                            .dwattr $C$DW$T$257, DW_AT_decl_column(0x0e)
   10390                    
   10391                    $C$DW$T$258     .dwtag  DW_TAG_typedef
   10392                            .dwattr $C$DW$T$258, DW_AT_name("__ct_rune_t")
   10393                            .dwattr $C$DW$T$258, DW_AT_type(*$C$DW$T$10)
   10394                            .dwattr $C$DW$T$258, DW_AT_language(DW_LANG_C)
   10395                            .dwattr $C$DW$T$258, DW_AT_decl_file("C:/ti/ccs1200/ccs/tools/compiler/ti-cgt-arm_20.2.6.LTS/i
TI ARM Assembler PC v20.2.6 Mon Oct 31 23:16:56 2022

Copyright (c) 1996-2018 Texas Instruments Incorporated
system_msp432p401r.asm                                               PAGE  190

   10396                            .dwattr $C$DW$T$258, DW_AT_decl_line(0x69)
   10397                            .dwattr $C$DW$T$258, DW_AT_decl_column(0x0e)
   10398                    
   10399                    $C$DW$T$259     .dwtag  DW_TAG_typedef
   10400                            .dwattr $C$DW$T$259, DW_AT_name("__rune_t")
   10401                            .dwattr $C$DW$T$259, DW_AT_type(*$C$DW$T$258)
   10402                            .dwattr $C$DW$T$259, DW_AT_language(DW_LANG_C)
   10403                            .dwattr $C$DW$T$259, DW_AT_decl_file("C:/ti/ccs1200/ccs/tools/compiler/ti-cgt-arm_20.2.6.LTS/i
   10404                            .dwattr $C$DW$T$259, DW_AT_decl_line(0x6c)
   10405                            .dwattr $C$DW$T$259, DW_AT_decl_column(0x15)
   10406                    
   10407                    $C$DW$T$260     .dwtag  DW_TAG_typedef
   10408                            .dwattr $C$DW$T$260, DW_AT_name("__wint_t")
   10409                            .dwattr $C$DW$T$260, DW_AT_type(*$C$DW$T$258)
   10410                            .dwattr $C$DW$T$260, DW_AT_language(DW_LANG_C)
   10411                            .dwattr $C$DW$T$260, DW_AT_decl_file("C:/ti/ccs1200/ccs/tools/compiler/ti-cgt-arm_20.2.6.LTS/i
   10412                            .dwattr $C$DW$T$260, DW_AT_decl_line(0x6d)
   10413                            .dwattr $C$DW$T$260, DW_AT_decl_column(0x15)
   10414                    
   10415                    $C$DW$T$261     .dwtag  DW_TAG_typedef
   10416                            .dwattr $C$DW$T$261, DW_AT_name("__int32_t")
   10417                            .dwattr $C$DW$T$261, DW_AT_type(*$C$DW$T$10)
   10418                            .dwattr $C$DW$T$261, DW_AT_language(DW_LANG_C)
   10419                            .dwattr $C$DW$T$261, DW_AT_decl_file("C:/ti/ccs1200/ccs/tools/compiler/ti-cgt-arm_20.2.6.LTS/i
   10420                            .dwattr $C$DW$T$261, DW_AT_decl_line(0x4e)
   10421                            .dwattr $C$DW$T$261, DW_AT_decl_column(0x0f)
   10422                    
   10423                    $C$DW$T$262     .dwtag  DW_TAG_typedef
   10424                            .dwattr $C$DW$T$262, DW_AT_name("__blksize_t")
   10425                            .dwattr $C$DW$T$262, DW_AT_type(*$C$DW$T$261)
   10426                            .dwattr $C$DW$T$262, DW_AT_language(DW_LANG_C)
   10427                            .dwattr $C$DW$T$262, DW_AT_decl_file("C:/ti/ccs1200/ccs/tools/compiler/ti-cgt-arm_20.2.6.LTS/i
   10428                            .dwattr $C$DW$T$262, DW_AT_decl_line(0x2f)
   10429                            .dwattr $C$DW$T$262, DW_AT_decl_column(0x13)
   10430                    
   10431                    $C$DW$T$263     .dwtag  DW_TAG_typedef
   10432                            .dwattr $C$DW$T$263, DW_AT_name("__clockid_t")
   10433                            .dwattr $C$DW$T$263, DW_AT_type(*$C$DW$T$261)
   10434                            .dwattr $C$DW$T$263, DW_AT_language(DW_LANG_C)
   10435                            .dwattr $C$DW$T$263, DW_AT_decl_file("C:/ti/ccs1200/ccs/tools/compiler/ti-cgt-arm_20.2.6.LTS/i
   10436                            .dwattr $C$DW$T$263, DW_AT_decl_line(0x31)
   10437                            .dwattr $C$DW$T$263, DW_AT_decl_column(0x13)
   10438                    
   10439                    $C$DW$T$264     .dwtag  DW_TAG_typedef
   10440                            .dwattr $C$DW$T$264, DW_AT_name("__critical_t")
   10441                            .dwattr $C$DW$T$264, DW_AT_type(*$C$DW$T$261)
   10442                            .dwattr $C$DW$T$264, DW_AT_language(DW_LANG_C)
   10443                            .dwattr $C$DW$T$264, DW_AT_decl_file("C:/ti/ccs1200/ccs/tools/compiler/ti-cgt-arm_20.2.6.LTS/i
   10444                            .dwattr $C$DW$T$264, DW_AT_decl_line(0x5f)
   10445                            .dwattr $C$DW$T$264, DW_AT_decl_column(0x13)
   10446                    
   10447                    $C$DW$T$265     .dwtag  DW_TAG_typedef
   10448                            .dwattr $C$DW$T$265, DW_AT_name("__int_fast16_t")
   10449                            .dwattr $C$DW$T$265, DW_AT_type(*$C$DW$T$261)
   10450                            .dwattr $C$DW$T$265, DW_AT_language(DW_LANG_C)
TI ARM Assembler PC v20.2.6 Mon Oct 31 23:16:56 2022

Copyright (c) 1996-2018 Texas Instruments Incorporated
system_msp432p401r.asm                                               PAGE  191

   10451                            .dwattr $C$DW$T$265, DW_AT_decl_file("C:/ti/ccs1200/ccs/tools/compiler/ti-cgt-arm_20.2.6.LTS/i
   10452                            .dwattr $C$DW$T$265, DW_AT_decl_line(0x66)
   10453                            .dwattr $C$DW$T$265, DW_AT_decl_column(0x13)
   10454                    
   10455                    $C$DW$T$266     .dwtag  DW_TAG_typedef
   10456                            .dwattr $C$DW$T$266, DW_AT_name("int_fast16_t")
   10457                            .dwattr $C$DW$T$266, DW_AT_type(*$C$DW$T$265)
   10458                            .dwattr $C$DW$T$266, DW_AT_language(DW_LANG_C)
   10459                            .dwattr $C$DW$T$266, DW_AT_decl_file("C:/ti/ccs1200/ccs/tools/compiler/ti-cgt-arm_20.2.6.LTS/i
   10460                            .dwattr $C$DW$T$266, DW_AT_decl_line(0x35)
   10461                            .dwattr $C$DW$T$266, DW_AT_decl_column(0x19)
   10462                    
   10463                    $C$DW$T$267     .dwtag  DW_TAG_typedef
   10464                            .dwattr $C$DW$T$267, DW_AT_name("__int_fast32_t")
   10465                            .dwattr $C$DW$T$267, DW_AT_type(*$C$DW$T$261)
   10466                            .dwattr $C$DW$T$267, DW_AT_language(DW_LANG_C)
   10467                            .dwattr $C$DW$T$267, DW_AT_decl_file("C:/ti/ccs1200/ccs/tools/compiler/ti-cgt-arm_20.2.6.LTS/i
   10468                            .dwattr $C$DW$T$267, DW_AT_decl_line(0x67)
   10469                            .dwattr $C$DW$T$267, DW_AT_decl_column(0x13)
   10470                    
   10471                    $C$DW$T$268     .dwtag  DW_TAG_typedef
   10472                            .dwattr $C$DW$T$268, DW_AT_name("int_fast32_t")
   10473                            .dwattr $C$DW$T$268, DW_AT_type(*$C$DW$T$267)
   10474                            .dwattr $C$DW$T$268, DW_AT_language(DW_LANG_C)
   10475                            .dwattr $C$DW$T$268, DW_AT_decl_file("C:/ti/ccs1200/ccs/tools/compiler/ti-cgt-arm_20.2.6.LTS/i
   10476                            .dwattr $C$DW$T$268, DW_AT_decl_line(0x36)
   10477                            .dwattr $C$DW$T$268, DW_AT_decl_column(0x19)
   10478                    
   10479                    $C$DW$T$269     .dwtag  DW_TAG_typedef
   10480                            .dwattr $C$DW$T$269, DW_AT_name("__int_fast8_t")
   10481                            .dwattr $C$DW$T$269, DW_AT_type(*$C$DW$T$261)
   10482                            .dwattr $C$DW$T$269, DW_AT_language(DW_LANG_C)
   10483                            .dwattr $C$DW$T$269, DW_AT_decl_file("C:/ti/ccs1200/ccs/tools/compiler/ti-cgt-arm_20.2.6.LTS/i
   10484                            .dwattr $C$DW$T$269, DW_AT_decl_line(0x65)
   10485                            .dwattr $C$DW$T$269, DW_AT_decl_column(0x13)
   10486                    
   10487                    $C$DW$T$270     .dwtag  DW_TAG_typedef
   10488                            .dwattr $C$DW$T$270, DW_AT_name("int_fast8_t")
   10489                            .dwattr $C$DW$T$270, DW_AT_type(*$C$DW$T$269)
   10490                            .dwattr $C$DW$T$270, DW_AT_language(DW_LANG_C)
   10491                            .dwattr $C$DW$T$270, DW_AT_decl_file("C:/ti/ccs1200/ccs/tools/compiler/ti-cgt-arm_20.2.6.LTS/i
   10492                            .dwattr $C$DW$T$270, DW_AT_decl_line(0x34)
   10493                            .dwattr $C$DW$T$270, DW_AT_decl_column(0x18)
   10494                    
   10495                    $C$DW$T$271     .dwtag  DW_TAG_typedef
   10496                            .dwattr $C$DW$T$271, DW_AT_name("__int_least32_t")
   10497                            .dwattr $C$DW$T$271, DW_AT_type(*$C$DW$T$261)
   10498                            .dwattr $C$DW$T$271, DW_AT_language(DW_LANG_C)
   10499                            .dwattr $C$DW$T$271, DW_AT_decl_file("C:/ti/ccs1200/ccs/tools/compiler/ti-cgt-arm_20.2.6.LTS/i
   10500                            .dwattr $C$DW$T$271, DW_AT_decl_line(0x6b)
   10501                            .dwattr $C$DW$T$271, DW_AT_decl_column(0x13)
   10502                    
   10503                    $C$DW$T$272     .dwtag  DW_TAG_typedef
   10504                            .dwattr $C$DW$T$272, DW_AT_name("int_least32_t")
   10505                            .dwattr $C$DW$T$272, DW_AT_type(*$C$DW$T$271)
TI ARM Assembler PC v20.2.6 Mon Oct 31 23:16:56 2022

Copyright (c) 1996-2018 Texas Instruments Incorporated
system_msp432p401r.asm                                               PAGE  192

   10506                            .dwattr $C$DW$T$272, DW_AT_language(DW_LANG_C)
   10507                            .dwattr $C$DW$T$272, DW_AT_decl_file("C:/ti/ccs1200/ccs/tools/compiler/ti-cgt-arm_20.2.6.LTS/i
   10508                            .dwattr $C$DW$T$272, DW_AT_decl_line(0x2c)
   10509                            .dwattr $C$DW$T$272, DW_AT_decl_column(0x1a)
   10510                    
   10511                    $C$DW$T$273     .dwtag  DW_TAG_typedef
   10512                            .dwattr $C$DW$T$273, DW_AT_name("__intfptr_t")
   10513                            .dwattr $C$DW$T$273, DW_AT_type(*$C$DW$T$261)
   10514                            .dwattr $C$DW$T$273, DW_AT_language(DW_LANG_C)
   10515                            .dwattr $C$DW$T$273, DW_AT_decl_file("C:/ti/ccs1200/ccs/tools/compiler/ti-cgt-arm_20.2.6.LTS/i
   10516                            .dwattr $C$DW$T$273, DW_AT_decl_line(0x62)
   10517                            .dwattr $C$DW$T$273, DW_AT_decl_column(0x13)
   10518                    
   10519                    $C$DW$T$274     .dwtag  DW_TAG_typedef
   10520                            .dwattr $C$DW$T$274, DW_AT_name("__intptr_t")
   10521                            .dwattr $C$DW$T$274, DW_AT_type(*$C$DW$T$261)
   10522                            .dwattr $C$DW$T$274, DW_AT_language(DW_LANG_C)
   10523                            .dwattr $C$DW$T$274, DW_AT_decl_file("C:/ti/ccs1200/ccs/tools/compiler/ti-cgt-arm_20.2.6.LTS/i
   10524                            .dwattr $C$DW$T$274, DW_AT_decl_line(0x64)
   10525                            .dwattr $C$DW$T$274, DW_AT_decl_column(0x13)
   10526                    
   10527                    $C$DW$T$275     .dwtag  DW_TAG_typedef
   10528                            .dwattr $C$DW$T$275, DW_AT_name("intptr_t")
   10529                            .dwattr $C$DW$T$275, DW_AT_type(*$C$DW$T$274)
   10530                            .dwattr $C$DW$T$275, DW_AT_language(DW_LANG_C)
   10531                            .dwattr $C$DW$T$275, DW_AT_decl_file("C:/ti/ccs1200/ccs/tools/compiler/ti-cgt-arm_20.2.6.LTS/i
   10532                            .dwattr $C$DW$T$275, DW_AT_decl_line(0x50)
   10533                            .dwattr $C$DW$T$275, DW_AT_decl_column(0x15)
   10534                    
   10535                    $C$DW$T$276     .dwtag  DW_TAG_typedef
   10536                            .dwattr $C$DW$T$276, DW_AT_name("__lwpid_t")
   10537                            .dwattr $C$DW$T$276, DW_AT_type(*$C$DW$T$261)
   10538                            .dwattr $C$DW$T$276, DW_AT_language(DW_LANG_C)
   10539                            .dwattr $C$DW$T$276, DW_AT_decl_file("C:/ti/ccs1200/ccs/tools/compiler/ti-cgt-arm_20.2.6.LTS/i
   10540                            .dwattr $C$DW$T$276, DW_AT_decl_line(0x39)
   10541                            .dwattr $C$DW$T$276, DW_AT_decl_column(0x13)
   10542                    
   10543                    $C$DW$T$277     .dwtag  DW_TAG_typedef
   10544                            .dwattr $C$DW$T$277, DW_AT_name("__pid_t")
   10545                            .dwattr $C$DW$T$277, DW_AT_type(*$C$DW$T$261)
   10546                            .dwattr $C$DW$T$277, DW_AT_language(DW_LANG_C)
   10547                            .dwattr $C$DW$T$277, DW_AT_decl_file("C:/ti/ccs1200/ccs/tools/compiler/ti-cgt-arm_20.2.6.LTS/i
   10548                            .dwattr $C$DW$T$277, DW_AT_decl_line(0x40)
   10549                            .dwattr $C$DW$T$277, DW_AT_decl_column(0x13)
   10550                    
   10551                    $C$DW$T$278     .dwtag  DW_TAG_typedef
   10552                            .dwattr $C$DW$T$278, DW_AT_name("__ptrdiff_t")
   10553                            .dwattr $C$DW$T$278, DW_AT_type(*$C$DW$T$261)
   10554                            .dwattr $C$DW$T$278, DW_AT_language(DW_LANG_C)
   10555                            .dwattr $C$DW$T$278, DW_AT_decl_file("C:/ti/ccs1200/ccs/tools/compiler/ti-cgt-arm_20.2.6.LTS/i
   10556                            .dwattr $C$DW$T$278, DW_AT_decl_line(0x6d)
   10557                            .dwattr $C$DW$T$278, DW_AT_decl_column(0x13)
   10558                    
   10559                    $C$DW$T$279     .dwtag  DW_TAG_typedef
   10560                            .dwattr $C$DW$T$279, DW_AT_name("__register_t")
TI ARM Assembler PC v20.2.6 Mon Oct 31 23:16:56 2022

Copyright (c) 1996-2018 Texas Instruments Incorporated
system_msp432p401r.asm                                               PAGE  193

   10561                            .dwattr $C$DW$T$279, DW_AT_type(*$C$DW$T$261)
   10562                            .dwattr $C$DW$T$279, DW_AT_language(DW_LANG_C)
   10563                            .dwattr $C$DW$T$279, DW_AT_decl_file("C:/ti/ccs1200/ccs/tools/compiler/ti-cgt-arm_20.2.6.LTS/i
   10564                            .dwattr $C$DW$T$279, DW_AT_decl_line(0x6e)
   10565                            .dwattr $C$DW$T$279, DW_AT_decl_column(0x13)
   10566                    
   10567                    $C$DW$T$280     .dwtag  DW_TAG_typedef
   10568                            .dwattr $C$DW$T$280, DW_AT_name("__segsz_t")
   10569                            .dwattr $C$DW$T$280, DW_AT_type(*$C$DW$T$261)
   10570                            .dwattr $C$DW$T$280, DW_AT_language(DW_LANG_C)
   10571                            .dwattr $C$DW$T$280, DW_AT_decl_file("C:/ti/ccs1200/ccs/tools/compiler/ti-cgt-arm_20.2.6.LTS/i
   10572                            .dwattr $C$DW$T$280, DW_AT_decl_line(0x6f)
   10573                            .dwattr $C$DW$T$280, DW_AT_decl_column(0x13)
   10574                    
   10575                    $C$DW$T$281     .dwtag  DW_TAG_typedef
   10576                            .dwattr $C$DW$T$281, DW_AT_name("__ssize_t")
   10577                            .dwattr $C$DW$T$281, DW_AT_type(*$C$DW$T$261)
   10578                            .dwattr $C$DW$T$281, DW_AT_language(DW_LANG_C)
   10579                            .dwattr $C$DW$T$281, DW_AT_decl_file("C:/ti/ccs1200/ccs/tools/compiler/ti-cgt-arm_20.2.6.LTS/i
   10580                            .dwattr $C$DW$T$281, DW_AT_decl_line(0x71)
   10581                            .dwattr $C$DW$T$281, DW_AT_decl_column(0x13)
   10582                    
   10583                    $C$DW$T$282     .dwtag  DW_TAG_typedef
   10584                            .dwattr $C$DW$T$282, DW_AT_name("int32_t")
   10585                            .dwattr $C$DW$T$282, DW_AT_type(*$C$DW$T$261)
   10586                            .dwattr $C$DW$T$282, DW_AT_language(DW_LANG_C)
   10587                            .dwattr $C$DW$T$282, DW_AT_decl_file("C:/ti/ccs1200/ccs/tools/compiler/ti-cgt-arm_20.2.6.LTS/i
   10588                            .dwattr $C$DW$T$282, DW_AT_decl_line(0x30)
   10589                            .dwattr $C$DW$T$282, DW_AT_decl_column(0x14)
   10590                    
   10591                    $C$DW$T$283     .dwtag  DW_TAG_typedef
   10592                            .dwattr $C$DW$T$283, DW_AT_name("__nl_item")
   10593                            .dwattr $C$DW$T$283, DW_AT_type(*$C$DW$T$10)
   10594                            .dwattr $C$DW$T$283, DW_AT_language(DW_LANG_C)
   10595                            .dwattr $C$DW$T$283, DW_AT_decl_file("C:/ti/ccs1200/ccs/tools/compiler/ti-cgt-arm_20.2.6.LTS/i
   10596                            .dwattr $C$DW$T$283, DW_AT_decl_line(0x3c)
   10597                            .dwattr $C$DW$T$283, DW_AT_decl_column(0x0e)
   10598                    
   10599                    $C$DW$T$11      .dwtag  DW_TAG_base_type
   10600                            .dwattr $C$DW$T$11, DW_AT_encoding(DW_ATE_unsigned)
   10601                            .dwattr $C$DW$T$11, DW_AT_name("unsigned int")
   10602                            .dwattr $C$DW$T$11, DW_AT_byte_size(0x04)
   10603                    
   10604                    $C$DW$T$21      .dwtag  DW_TAG_typedef
   10605                            .dwattr $C$DW$T$21, DW_AT_name("__uint32_t")
   10606                            .dwattr $C$DW$T$21, DW_AT_type(*$C$DW$T$11)
   10607                            .dwattr $C$DW$T$21, DW_AT_language(DW_LANG_C)
   10608                            .dwattr $C$DW$T$21, DW_AT_decl_file("C:/ti/ccs1200/ccs/tools/compiler/ti-cgt-arm_20.2.6.LTS/in
   10609                            .dwattr $C$DW$T$21, DW_AT_decl_line(0x4f)
   10610                            .dwattr $C$DW$T$21, DW_AT_decl_column(0x17)
   10611                    
   10612                    $C$DW$T$284     .dwtag  DW_TAG_typedef
   10613                            .dwattr $C$DW$T$284, DW_AT_name("__clock_t")
   10614                            .dwattr $C$DW$T$284, DW_AT_type(*$C$DW$T$21)
   10615                            .dwattr $C$DW$T$284, DW_AT_language(DW_LANG_C)
TI ARM Assembler PC v20.2.6 Mon Oct 31 23:16:56 2022

Copyright (c) 1996-2018 Texas Instruments Incorporated
system_msp432p401r.asm                                               PAGE  194

   10616                            .dwattr $C$DW$T$284, DW_AT_decl_file("C:/ti/ccs1200/ccs/tools/compiler/ti-cgt-arm_20.2.6.LTS/i
   10617                            .dwattr $C$DW$T$284, DW_AT_decl_line(0x5e)
   10618                            .dwattr $C$DW$T$284, DW_AT_decl_column(0x14)
   10619                    
   10620                    $C$DW$T$285     .dwtag  DW_TAG_typedef
   10621                            .dwattr $C$DW$T$285, DW_AT_name("__fflags_t")
   10622                            .dwattr $C$DW$T$285, DW_AT_type(*$C$DW$T$21)
   10623                            .dwattr $C$DW$T$285, DW_AT_language(DW_LANG_C)
   10624                            .dwattr $C$DW$T$285, DW_AT_decl_file("C:/ti/ccs1200/ccs/tools/compiler/ti-cgt-arm_20.2.6.LTS/i
   10625                            .dwattr $C$DW$T$285, DW_AT_decl_line(0x32)
   10626                            .dwattr $C$DW$T$285, DW_AT_decl_column(0x14)
   10627                    
   10628                    $C$DW$T$286     .dwtag  DW_TAG_typedef
   10629                            .dwattr $C$DW$T$286, DW_AT_name("__fixpt_t")
   10630                            .dwattr $C$DW$T$286, DW_AT_type(*$C$DW$T$21)
   10631                            .dwattr $C$DW$T$286, DW_AT_language(DW_LANG_C)
   10632                            .dwattr $C$DW$T$286, DW_AT_decl_file("C:/ti/ccs1200/ccs/tools/compiler/ti-cgt-arm_20.2.6.LTS/i
   10633                            .dwattr $C$DW$T$286, DW_AT_decl_line(0x81)
   10634                            .dwattr $C$DW$T$286, DW_AT_decl_column(0x14)
   10635                    
   10636                    $C$DW$T$287     .dwtag  DW_TAG_typedef
   10637                            .dwattr $C$DW$T$287, DW_AT_name("__gid_t")
   10638                            .dwattr $C$DW$T$287, DW_AT_type(*$C$DW$T$21)
   10639                            .dwattr $C$DW$T$287, DW_AT_language(DW_LANG_C)
   10640                            .dwattr $C$DW$T$287, DW_AT_decl_file("C:/ti/ccs1200/ccs/tools/compiler/ti-cgt-arm_20.2.6.LTS/i
   10641                            .dwattr $C$DW$T$287, DW_AT_decl_line(0x35)
   10642                            .dwattr $C$DW$T$287, DW_AT_decl_column(0x14)
   10643                    
   10644                    $C$DW$T$288     .dwtag  DW_TAG_typedef
   10645                            .dwattr $C$DW$T$288, DW_AT_name("__size_t")
   10646                            .dwattr $C$DW$T$288, DW_AT_type(*$C$DW$T$21)
   10647                            .dwattr $C$DW$T$288, DW_AT_language(DW_LANG_C)
   10648                            .dwattr $C$DW$T$288, DW_AT_decl_file("C:/ti/ccs1200/ccs/tools/compiler/ti-cgt-arm_20.2.6.LTS/i
   10649                            .dwattr $C$DW$T$288, DW_AT_decl_line(0x70)
   10650                            .dwattr $C$DW$T$288, DW_AT_decl_column(0x14)
   10651                    
   10652                    $C$DW$T$289     .dwtag  DW_TAG_typedef
   10653                            .dwattr $C$DW$T$289, DW_AT_name("__socklen_t")
   10654                            .dwattr $C$DW$T$289, DW_AT_type(*$C$DW$T$21)
   10655                            .dwattr $C$DW$T$289, DW_AT_language(DW_LANG_C)
   10656                            .dwattr $C$DW$T$289, DW_AT_decl_file("C:/ti/ccs1200/ccs/tools/compiler/ti-cgt-arm_20.2.6.LTS/i
   10657                            .dwattr $C$DW$T$289, DW_AT_decl_line(0x49)
   10658                            .dwattr $C$DW$T$289, DW_AT_decl_column(0x14)
   10659                    
   10660                    $C$DW$T$290     .dwtag  DW_TAG_typedef
   10661                            .dwattr $C$DW$T$290, DW_AT_name("__time_t")
   10662                            .dwattr $C$DW$T$290, DW_AT_type(*$C$DW$T$21)
   10663                            .dwattr $C$DW$T$290, DW_AT_language(DW_LANG_C)
   10664                            .dwattr $C$DW$T$290, DW_AT_decl_file("C:/ti/ccs1200/ccs/tools/compiler/ti-cgt-arm_20.2.6.LTS/i
   10665                            .dwattr $C$DW$T$290, DW_AT_decl_line(0x76)
   10666                            .dwattr $C$DW$T$290, DW_AT_decl_column(0x19)
   10667                    
   10668                    $C$DW$T$291     .dwtag  DW_TAG_typedef
   10669                            .dwattr $C$DW$T$291, DW_AT_name("__u_register_t")
   10670                            .dwattr $C$DW$T$291, DW_AT_type(*$C$DW$T$21)
TI ARM Assembler PC v20.2.6 Mon Oct 31 23:16:56 2022

Copyright (c) 1996-2018 Texas Instruments Incorporated
system_msp432p401r.asm                                               PAGE  195

   10671                            .dwattr $C$DW$T$291, DW_AT_language(DW_LANG_C)
   10672                            .dwattr $C$DW$T$291, DW_AT_decl_file("C:/ti/ccs1200/ccs/tools/compiler/ti-cgt-arm_20.2.6.LTS/i
   10673                            .dwattr $C$DW$T$291, DW_AT_decl_line(0x83)
   10674                            .dwattr $C$DW$T$291, DW_AT_decl_column(0x14)
   10675                    
   10676                    $C$DW$T$292     .dwtag  DW_TAG_typedef
   10677                            .dwattr $C$DW$T$292, DW_AT_name("__uid_t")
   10678                            .dwattr $C$DW$T$292, DW_AT_type(*$C$DW$T$21)
   10679                            .dwattr $C$DW$T$292, DW_AT_language(DW_LANG_C)
   10680                            .dwattr $C$DW$T$292, DW_AT_decl_file("C:/ti/ccs1200/ccs/tools/compiler/ti-cgt-arm_20.2.6.LTS/i
   10681                            .dwattr $C$DW$T$292, DW_AT_decl_line(0x4d)
   10682                            .dwattr $C$DW$T$292, DW_AT_decl_column(0x14)
   10683                    
   10684                    $C$DW$T$293     .dwtag  DW_TAG_typedef
   10685                            .dwattr $C$DW$T$293, DW_AT_name("__uint_fast16_t")
   10686                            .dwattr $C$DW$T$293, DW_AT_type(*$C$DW$T$21)
   10687                            .dwattr $C$DW$T$293, DW_AT_language(DW_LANG_C)
   10688                            .dwattr $C$DW$T$293, DW_AT_decl_file("C:/ti/ccs1200/ccs/tools/compiler/ti-cgt-arm_20.2.6.LTS/i
   10689                            .dwattr $C$DW$T$293, DW_AT_decl_line(0x7c)
   10690                            .dwattr $C$DW$T$293, DW_AT_decl_column(0x14)
   10691                    
   10692                    $C$DW$T$294     .dwtag  DW_TAG_typedef
   10693                            .dwattr $C$DW$T$294, DW_AT_name("uint_fast16_t")
   10694                            .dwattr $C$DW$T$294, DW_AT_type(*$C$DW$T$293)
   10695                            .dwattr $C$DW$T$294, DW_AT_language(DW_LANG_C)
   10696                            .dwattr $C$DW$T$294, DW_AT_decl_file("C:/ti/ccs1200/ccs/tools/compiler/ti-cgt-arm_20.2.6.LTS/i
   10697                            .dwattr $C$DW$T$294, DW_AT_decl_line(0x3a)
   10698                            .dwattr $C$DW$T$294, DW_AT_decl_column(0x1a)
   10699                    
   10700                    $C$DW$T$295     .dwtag  DW_TAG_typedef
   10701                            .dwattr $C$DW$T$295, DW_AT_name("__uint_fast32_t")
   10702                            .dwattr $C$DW$T$295, DW_AT_type(*$C$DW$T$21)
   10703                            .dwattr $C$DW$T$295, DW_AT_language(DW_LANG_C)
   10704                            .dwattr $C$DW$T$295, DW_AT_decl_file("C:/ti/ccs1200/ccs/tools/compiler/ti-cgt-arm_20.2.6.LTS/i
   10705                            .dwattr $C$DW$T$295, DW_AT_decl_line(0x7d)
   10706                            .dwattr $C$DW$T$295, DW_AT_decl_column(0x14)
   10707                    
   10708                    $C$DW$T$296     .dwtag  DW_TAG_typedef
   10709                            .dwattr $C$DW$T$296, DW_AT_name("uint_fast32_t")
   10710                            .dwattr $C$DW$T$296, DW_AT_type(*$C$DW$T$295)
   10711                            .dwattr $C$DW$T$296, DW_AT_language(DW_LANG_C)
   10712                            .dwattr $C$DW$T$296, DW_AT_decl_file("C:/ti/ccs1200/ccs/tools/compiler/ti-cgt-arm_20.2.6.LTS/i
   10713                            .dwattr $C$DW$T$296, DW_AT_decl_line(0x3b)
   10714                            .dwattr $C$DW$T$296, DW_AT_decl_column(0x1a)
   10715                    
   10716                    $C$DW$T$297     .dwtag  DW_TAG_typedef
   10717                            .dwattr $C$DW$T$297, DW_AT_name("__uint_fast8_t")
   10718                            .dwattr $C$DW$T$297, DW_AT_type(*$C$DW$T$21)
   10719                            .dwattr $C$DW$T$297, DW_AT_language(DW_LANG_C)
   10720                            .dwattr $C$DW$T$297, DW_AT_decl_file("C:/ti/ccs1200/ccs/tools/compiler/ti-cgt-arm_20.2.6.LTS/i
   10721                            .dwattr $C$DW$T$297, DW_AT_decl_line(0x7b)
   10722                            .dwattr $C$DW$T$297, DW_AT_decl_column(0x14)
   10723                    
   10724                    $C$DW$T$298     .dwtag  DW_TAG_typedef
   10725                            .dwattr $C$DW$T$298, DW_AT_name("uint_fast8_t")
TI ARM Assembler PC v20.2.6 Mon Oct 31 23:16:56 2022

Copyright (c) 1996-2018 Texas Instruments Incorporated
system_msp432p401r.asm                                               PAGE  196

   10726                            .dwattr $C$DW$T$298, DW_AT_type(*$C$DW$T$297)
   10727                            .dwattr $C$DW$T$298, DW_AT_language(DW_LANG_C)
   10728                            .dwattr $C$DW$T$298, DW_AT_decl_file("C:/ti/ccs1200/ccs/tools/compiler/ti-cgt-arm_20.2.6.LTS/i
   10729                            .dwattr $C$DW$T$298, DW_AT_decl_line(0x39)
   10730                            .dwattr $C$DW$T$298, DW_AT_decl_column(0x19)
   10731                    
   10732                    $C$DW$T$299     .dwtag  DW_TAG_typedef
   10733                            .dwattr $C$DW$T$299, DW_AT_name("__uint_least32_t")
   10734                            .dwattr $C$DW$T$299, DW_AT_type(*$C$DW$T$21)
   10735                            .dwattr $C$DW$T$299, DW_AT_language(DW_LANG_C)
   10736                            .dwattr $C$DW$T$299, DW_AT_decl_file("C:/ti/ccs1200/ccs/tools/compiler/ti-cgt-arm_20.2.6.LTS/i
   10737                            .dwattr $C$DW$T$299, DW_AT_decl_line(0x81)
   10738                            .dwattr $C$DW$T$299, DW_AT_decl_column(0x14)
   10739                    
   10740                    $C$DW$T$300     .dwtag  DW_TAG_typedef
   10741                            .dwattr $C$DW$T$300, DW_AT_name("__char32_t")
   10742                            .dwattr $C$DW$T$300, DW_AT_type(*$C$DW$T$299)
   10743                            .dwattr $C$DW$T$300, DW_AT_language(DW_LANG_C)
   10744                            .dwattr $C$DW$T$300, DW_AT_decl_file("C:/ti/ccs1200/ccs/tools/compiler/ti-cgt-arm_20.2.6.LTS/i
   10745                            .dwattr $C$DW$T$300, DW_AT_decl_line(0x72)
   10746                            .dwattr $C$DW$T$300, DW_AT_decl_column(0x1a)
   10747                    
   10748                    $C$DW$T$301     .dwtag  DW_TAG_typedef
   10749                            .dwattr $C$DW$T$301, DW_AT_name("uint_least32_t")
   10750                            .dwattr $C$DW$T$301, DW_AT_type(*$C$DW$T$299)
   10751                            .dwattr $C$DW$T$301, DW_AT_language(DW_LANG_C)
   10752                            .dwattr $C$DW$T$301, DW_AT_decl_file("C:/ti/ccs1200/ccs/tools/compiler/ti-cgt-arm_20.2.6.LTS/i
   10753                            .dwattr $C$DW$T$301, DW_AT_decl_line(0x31)
   10754                            .dwattr $C$DW$T$301, DW_AT_decl_column(0x1a)
   10755                    
   10756                    $C$DW$T$302     .dwtag  DW_TAG_typedef
   10757                            .dwattr $C$DW$T$302, DW_AT_name("__uintfptr_t")
   10758                            .dwattr $C$DW$T$302, DW_AT_type(*$C$DW$T$21)
   10759                            .dwattr $C$DW$T$302, DW_AT_language(DW_LANG_C)
   10760                            .dwattr $C$DW$T$302, DW_AT_decl_file("C:/ti/ccs1200/ccs/tools/compiler/ti-cgt-arm_20.2.6.LTS/i
   10761                            .dwattr $C$DW$T$302, DW_AT_decl_line(0x78)
   10762                            .dwattr $C$DW$T$302, DW_AT_decl_column(0x14)
   10763                    
   10764                    $C$DW$T$303     .dwtag  DW_TAG_typedef
   10765                            .dwattr $C$DW$T$303, DW_AT_name("__uintptr_t")
   10766                            .dwattr $C$DW$T$303, DW_AT_type(*$C$DW$T$21)
   10767                            .dwattr $C$DW$T$303, DW_AT_language(DW_LANG_C)
   10768                            .dwattr $C$DW$T$303, DW_AT_decl_file("C:/ti/ccs1200/ccs/tools/compiler/ti-cgt-arm_20.2.6.LTS/i
   10769                            .dwattr $C$DW$T$303, DW_AT_decl_line(0x7a)
   10770                            .dwattr $C$DW$T$303, DW_AT_decl_column(0x14)
   10771                    
   10772                    $C$DW$T$304     .dwtag  DW_TAG_typedef
   10773                            .dwattr $C$DW$T$304, DW_AT_name("uintptr_t")
   10774                            .dwattr $C$DW$T$304, DW_AT_type(*$C$DW$T$303)
   10775                            .dwattr $C$DW$T$304, DW_AT_language(DW_LANG_C)
   10776                            .dwattr $C$DW$T$304, DW_AT_decl_file("C:/ti/ccs1200/ccs/tools/compiler/ti-cgt-arm_20.2.6.LTS/i
   10777                            .dwattr $C$DW$T$304, DW_AT_decl_line(0x54)
   10778                            .dwattr $C$DW$T$304, DW_AT_decl_column(0x16)
   10779                    
   10780                    $C$DW$T$305     .dwtag  DW_TAG_typedef
TI ARM Assembler PC v20.2.6 Mon Oct 31 23:16:56 2022

Copyright (c) 1996-2018 Texas Instruments Incorporated
system_msp432p401r.asm                                               PAGE  197

   10781                            .dwattr $C$DW$T$305, DW_AT_name("__vm_offset_t")
   10782                            .dwattr $C$DW$T$305, DW_AT_type(*$C$DW$T$21)
   10783                            .dwattr $C$DW$T$305, DW_AT_language(DW_LANG_C)
   10784                            .dwattr $C$DW$T$305, DW_AT_decl_file("C:/ti/ccs1200/ccs/tools/compiler/ti-cgt-arm_20.2.6.LTS/i
   10785                            .dwattr $C$DW$T$305, DW_AT_decl_line(0x84)
   10786                            .dwattr $C$DW$T$305, DW_AT_decl_column(0x14)
   10787                    
   10788                    $C$DW$T$306     .dwtag  DW_TAG_typedef
   10789                            .dwattr $C$DW$T$306, DW_AT_name("__vm_paddr_t")
   10790                            .dwattr $C$DW$T$306, DW_AT_type(*$C$DW$T$21)
   10791                            .dwattr $C$DW$T$306, DW_AT_language(DW_LANG_C)
   10792                            .dwattr $C$DW$T$306, DW_AT_decl_file("C:/ti/ccs1200/ccs/tools/compiler/ti-cgt-arm_20.2.6.LTS/i
   10793                            .dwattr $C$DW$T$306, DW_AT_decl_line(0x85)
   10794                            .dwattr $C$DW$T$306, DW_AT_decl_column(0x14)
   10795                    
   10796                    $C$DW$T$307     .dwtag  DW_TAG_typedef
   10797                            .dwattr $C$DW$T$307, DW_AT_name("__vm_size_t")
   10798                            .dwattr $C$DW$T$307, DW_AT_type(*$C$DW$T$21)
   10799                            .dwattr $C$DW$T$307, DW_AT_language(DW_LANG_C)
   10800                            .dwattr $C$DW$T$307, DW_AT_decl_file("C:/ti/ccs1200/ccs/tools/compiler/ti-cgt-arm_20.2.6.LTS/i
   10801                            .dwattr $C$DW$T$307, DW_AT_decl_line(0x86)
   10802                            .dwattr $C$DW$T$307, DW_AT_decl_column(0x14)
   10803                    
   10804                    $C$DW$T$22      .dwtag  DW_TAG_typedef
   10805                            .dwattr $C$DW$T$22, DW_AT_name("uint32_t")
   10806                            .dwattr $C$DW$T$22, DW_AT_type(*$C$DW$T$21)
   10807                            .dwattr $C$DW$T$22, DW_AT_language(DW_LANG_C)
   10808                            .dwattr $C$DW$T$22, DW_AT_decl_file("C:/ti/ccs1200/ccs/tools/compiler/ti-cgt-arm_20.2.6.LTS/in
   10809                            .dwattr $C$DW$T$22, DW_AT_decl_line(0x46)
   10810                            .dwattr $C$DW$T$22, DW_AT_decl_column(0x15)
   10811                    
   10812                    
   10813                    $C$DW$T$24      .dwtag  DW_TAG_array_type
   10814                            .dwattr $C$DW$T$24, DW_AT_type(*$C$DW$T$22)
   10815                            .dwattr $C$DW$T$24, DW_AT_language(DW_LANG_C)
   10816                            .dwattr $C$DW$T$24, DW_AT_byte_size(0x1c)
   10817                    $C$DW$847       .dwtag  DW_TAG_subrange_type
   10818                            .dwattr $C$DW$847, DW_AT_upper_bound(0x06)
   10819                    
   10820                            .dwendtag $C$DW$T$24
   10821                    
   10822                    
   10823                    $C$DW$T$26      .dwtag  DW_TAG_array_type
   10824                            .dwattr $C$DW$T$26, DW_AT_type(*$C$DW$T$22)
   10825                            .dwattr $C$DW$T$26, DW_AT_language(DW_LANG_C)
   10826                            .dwattr $C$DW$T$26, DW_AT_byte_size(0x08)
   10827                    $C$DW$848       .dwtag  DW_TAG_subrange_type
   10828                            .dwattr $C$DW$848, DW_AT_upper_bound(0x01)
   10829                    
   10830                            .dwendtag $C$DW$T$26
   10831                    
   10832                    
   10833                    $C$DW$T$36      .dwtag  DW_TAG_array_type
   10834                            .dwattr $C$DW$T$36, DW_AT_type(*$C$DW$T$22)
   10835                            .dwattr $C$DW$T$36, DW_AT_language(DW_LANG_C)
TI ARM Assembler PC v20.2.6 Mon Oct 31 23:16:56 2022

Copyright (c) 1996-2018 Texas Instruments Incorporated
system_msp432p401r.asm                                               PAGE  198

   10836                            .dwattr $C$DW$T$36, DW_AT_byte_size(0x14)
   10837                    $C$DW$849       .dwtag  DW_TAG_subrange_type
   10838                            .dwattr $C$DW$849, DW_AT_upper_bound(0x04)
   10839                    
   10840                            .dwendtag $C$DW$T$36
   10841                    
   10842                    
   10843                    $C$DW$T$43      .dwtag  DW_TAG_array_type
   10844                            .dwattr $C$DW$T$43, DW_AT_type(*$C$DW$T$22)
   10845                            .dwattr $C$DW$T$43, DW_AT_language(DW_LANG_C)
   10846                            .dwattr $C$DW$T$43, DW_AT_byte_size(0x0c)
   10847                    $C$DW$850       .dwtag  DW_TAG_subrange_type
   10848                            .dwattr $C$DW$850, DW_AT_upper_bound(0x02)
   10849                    
   10850                            .dwendtag $C$DW$T$43
   10851                    
   10852                    
   10853                    $C$DW$T$45      .dwtag  DW_TAG_array_type
   10854                            .dwattr $C$DW$T$45, DW_AT_type(*$C$DW$T$22)
   10855                            .dwattr $C$DW$T$45, DW_AT_language(DW_LANG_C)
   10856                            .dwattr $C$DW$T$45, DW_AT_byte_size(0x10)
   10857                    $C$DW$851       .dwtag  DW_TAG_subrange_type
   10858                            .dwattr $C$DW$851, DW_AT_upper_bound(0x03)
   10859                    
   10860                            .dwendtag $C$DW$T$45
   10861                    
   10862                    
   10863                    $C$DW$T$53      .dwtag  DW_TAG_array_type
   10864                            .dwattr $C$DW$T$53, DW_AT_type(*$C$DW$T$22)
   10865                            .dwattr $C$DW$T$53, DW_AT_language(DW_LANG_C)
   10866                            .dwattr $C$DW$T$53, DW_AT_byte_size(0x60)
   10867                    $C$DW$852       .dwtag  DW_TAG_subrange_type
   10868                            .dwattr $C$DW$852, DW_AT_upper_bound(0x17)
   10869                    
   10870                            .dwendtag $C$DW$T$53
   10871                    
   10872                    
   10873                    $C$DW$T$54      .dwtag  DW_TAG_array_type
   10874                            .dwattr $C$DW$T$54, DW_AT_type(*$C$DW$T$22)
   10875                            .dwattr $C$DW$T$54, DW_AT_language(DW_LANG_C)
   10876                            .dwattr $C$DW$T$54, DW_AT_byte_size(0xe0)
   10877                    $C$DW$853       .dwtag  DW_TAG_subrange_type
   10878                            .dwattr $C$DW$853, DW_AT_upper_bound(0x37)
   10879                    
   10880                            .dwendtag $C$DW$T$54
   10881                    
   10882                    
   10883                    $C$DW$T$56      .dwtag  DW_TAG_array_type
   10884                            .dwattr $C$DW$T$56, DW_AT_type(*$C$DW$T$22)
   10885                            .dwattr $C$DW$T$56, DW_AT_language(DW_LANG_C)
   10886                            .dwattr $C$DW$T$56, DW_AT_byte_size(0xa10)
   10887                    $C$DW$854       .dwtag  DW_TAG_subrange_type
   10888                            .dwattr $C$DW$854, DW_AT_upper_bound(0x283)
   10889                    
   10890                            .dwendtag $C$DW$T$56
TI ARM Assembler PC v20.2.6 Mon Oct 31 23:16:56 2022

Copyright (c) 1996-2018 Texas Instruments Incorporated
system_msp432p401r.asm                                               PAGE  199

   10891                    
   10892                    
   10893                    $C$DW$T$58      .dwtag  DW_TAG_array_type
   10894                            .dwattr $C$DW$T$58, DW_AT_type(*$C$DW$T$22)
   10895                            .dwattr $C$DW$T$58, DW_AT_language(DW_LANG_C)
   10896                            .dwattr $C$DW$T$58, DW_AT_byte_size(0x04)
   10897                    $C$DW$855       .dwtag  DW_TAG_subrange_type
   10898                            .dwattr $C$DW$855, DW_AT_upper_bound(0x00)
   10899                    
   10900                            .dwendtag $C$DW$T$58
   10901                    
   10902                    
   10903                    $C$DW$T$63      .dwtag  DW_TAG_array_type
   10904                            .dwattr $C$DW$T$63, DW_AT_type(*$C$DW$T$22)
   10905                            .dwattr $C$DW$T$63, DW_AT_language(DW_LANG_C)
   10906                            .dwattr $C$DW$T$63, DW_AT_byte_size(0xd80)
   10907                    $C$DW$856       .dwtag  DW_TAG_subrange_type
   10908                            .dwattr $C$DW$856, DW_AT_upper_bound(0x35f)
   10909                    
   10910                            .dwendtag $C$DW$T$63
   10911                    
   10912                    
   10913                    $C$DW$T$64      .dwtag  DW_TAG_array_type
   10914                            .dwattr $C$DW$T$64, DW_AT_type(*$C$DW$T$22)
   10915                            .dwattr $C$DW$T$64, DW_AT_language(DW_LANG_C)
   10916                            .dwattr $C$DW$T$64, DW_AT_byte_size(0x3c)
   10917                    $C$DW$857       .dwtag  DW_TAG_subrange_type
   10918                            .dwattr $C$DW$857, DW_AT_upper_bound(0x0e)
   10919                    
   10920                            .dwendtag $C$DW$T$64
   10921                    
   10922                    
   10923                    $C$DW$T$65      .dwtag  DW_TAG_array_type
   10924                            .dwattr $C$DW$T$65, DW_AT_type(*$C$DW$T$22)
   10925                            .dwattr $C$DW$T$65, DW_AT_language(DW_LANG_C)
   10926                            .dwattr $C$DW$T$65, DW_AT_byte_size(0x74)
   10927                    $C$DW$858       .dwtag  DW_TAG_subrange_type
   10928                            .dwattr $C$DW$858, DW_AT_upper_bound(0x1c)
   10929                    
   10930                            .dwendtag $C$DW$T$65
   10931                    
   10932                    
   10933                    $C$DW$T$66      .dwtag  DW_TAG_array_type
   10934                            .dwattr $C$DW$T$66, DW_AT_type(*$C$DW$T$22)
   10935                            .dwattr $C$DW$T$66, DW_AT_language(DW_LANG_C)
   10936                            .dwattr $C$DW$T$66, DW_AT_byte_size(0xac)
   10937                    $C$DW$859       .dwtag  DW_TAG_subrange_type
   10938                            .dwattr $C$DW$859, DW_AT_upper_bound(0x2a)
   10939                    
   10940                            .dwendtag $C$DW$T$66
   10941                    
   10942                    
   10943                    $C$DW$T$67      .dwtag  DW_TAG_array_type
   10944                            .dwattr $C$DW$T$67, DW_AT_type(*$C$DW$T$22)
   10945                            .dwattr $C$DW$T$67, DW_AT_language(DW_LANG_C)
TI ARM Assembler PC v20.2.6 Mon Oct 31 23:16:56 2022

Copyright (c) 1996-2018 Texas Instruments Incorporated
system_msp432p401r.asm                                               PAGE  200

   10946                            .dwattr $C$DW$T$67, DW_AT_byte_size(0x18)
   10947                    $C$DW$860       .dwtag  DW_TAG_subrange_type
   10948                            .dwattr $C$DW$860, DW_AT_upper_bound(0x05)
   10949                    
   10950                            .dwendtag $C$DW$T$67
   10951                    
   10952                    
   10953                    $C$DW$T$70      .dwtag  DW_TAG_array_type
   10954                            .dwattr $C$DW$T$70, DW_AT_type(*$C$DW$T$22)
   10955                            .dwattr $C$DW$T$70, DW_AT_language(DW_LANG_C)
   10956                            .dwattr $C$DW$T$70, DW_AT_byte_size(0xdc)
   10957                    $C$DW$861       .dwtag  DW_TAG_subrange_type
   10958                            .dwattr $C$DW$861, DW_AT_upper_bound(0x36)
   10959                    
   10960                            .dwendtag $C$DW$T$70
   10961                    
   10962                    
   10963                    $C$DW$T$71      .dwtag  DW_TAG_array_type
   10964                            .dwattr $C$DW$T$71, DW_AT_type(*$C$DW$T$22)
   10965                            .dwattr $C$DW$T$71, DW_AT_language(DW_LANG_C)
   10966                            .dwattr $C$DW$T$71, DW_AT_byte_size(0x20c)
   10967                    $C$DW$862       .dwtag  DW_TAG_subrange_type
   10968                            .dwattr $C$DW$862, DW_AT_upper_bound(0x82)
   10969                    
   10970                            .dwendtag $C$DW$T$71
   10971                    
   10972                    
   10973                    $C$DW$T$72      .dwtag  DW_TAG_array_type
   10974                            .dwattr $C$DW$T$72, DW_AT_type(*$C$DW$T$22)
   10975                            .dwattr $C$DW$T$72, DW_AT_language(DW_LANG_C)
   10976                            .dwattr $C$DW$T$72, DW_AT_byte_size(0xbdc)
   10977                    $C$DW$863       .dwtag  DW_TAG_subrange_type
   10978                            .dwattr $C$DW$863, DW_AT_upper_bound(0x2f6)
   10979                    
   10980                            .dwendtag $C$DW$T$72
   10981                    
   10982                    
   10983                    $C$DW$T$73      .dwtag  DW_TAG_array_type
   10984                            .dwattr $C$DW$T$73, DW_AT_type(*$C$DW$T$22)
   10985                            .dwattr $C$DW$T$73, DW_AT_language(DW_LANG_C)
   10986                            .dwattr $C$DW$T$73, DW_AT_byte_size(0x9c)
   10987                    $C$DW$864       .dwtag  DW_TAG_subrange_type
   10988                            .dwattr $C$DW$864, DW_AT_upper_bound(0x26)
   10989                    
   10990                            .dwendtag $C$DW$T$73
   10991                    
   10992                    
   10993                    $C$DW$T$74      .dwtag  DW_TAG_array_type
   10994                            .dwattr $C$DW$T$74, DW_AT_type(*$C$DW$T$22)
   10995                            .dwattr $C$DW$T$74, DW_AT_language(DW_LANG_C)
   10996                            .dwattr $C$DW$T$74, DW_AT_byte_size(0x20)
   10997                    $C$DW$865       .dwtag  DW_TAG_subrange_type
   10998                            .dwattr $C$DW$865, DW_AT_upper_bound(0x07)
   10999                    
   11000                            .dwendtag $C$DW$T$74
TI ARM Assembler PC v20.2.6 Mon Oct 31 23:16:56 2022

Copyright (c) 1996-2018 Texas Instruments Incorporated
system_msp432p401r.asm                                               PAGE  201

   11001                    
   11002                    
   11003                    $C$DW$T$80      .dwtag  DW_TAG_array_type
   11004                            .dwattr $C$DW$T$80, DW_AT_type(*$C$DW$T$22)
   11005                            .dwattr $C$DW$T$80, DW_AT_language(DW_LANG_C)
   11006                            .dwattr $C$DW$T$80, DW_AT_byte_size(0x24)
   11007                    $C$DW$866       .dwtag  DW_TAG_subrange_type
   11008                            .dwattr $C$DW$866, DW_AT_upper_bound(0x08)
   11009                    
   11010                            .dwendtag $C$DW$T$80
   11011                    
   11012                    
   11013                    $C$DW$T$117     .dwtag  DW_TAG_array_type
   11014                            .dwattr $C$DW$T$117, DW_AT_type(*$C$DW$T$22)
   11015                            .dwattr $C$DW$T$117, DW_AT_language(DW_LANG_C)
   11016                            .dwattr $C$DW$T$117, DW_AT_byte_size(0x70)
   11017                    $C$DW$867       .dwtag  DW_TAG_subrange_type
   11018                            .dwattr $C$DW$867, DW_AT_upper_bound(0x1b)
   11019                    
   11020                            .dwendtag $C$DW$T$117
   11021                    
   11022                    
   11023                    $C$DW$T$138     .dwtag  DW_TAG_array_type
   11024                            .dwattr $C$DW$T$138, DW_AT_type(*$C$DW$T$22)
   11025                            .dwattr $C$DW$T$138, DW_AT_language(DW_LANG_C)
   11026                            .dwattr $C$DW$T$138, DW_AT_byte_size(0x2c)
   11027                    $C$DW$868       .dwtag  DW_TAG_subrange_type
   11028                            .dwattr $C$DW$868, DW_AT_upper_bound(0x0a)
   11029                    
   11030                            .dwendtag $C$DW$T$138
   11031                    
   11032                    
   11033                    $C$DW$T$141     .dwtag  DW_TAG_array_type
   11034                            .dwattr $C$DW$T$141, DW_AT_type(*$C$DW$T$22)
   11035                            .dwattr $C$DW$T$141, DW_AT_language(DW_LANG_C)
   11036                            .dwattr $C$DW$T$141, DW_AT_byte_size(0xe4)
   11037                    $C$DW$869       .dwtag  DW_TAG_subrange_type
   11038                            .dwattr $C$DW$869, DW_AT_upper_bound(0x38)
   11039                    
   11040                            .dwendtag $C$DW$T$141
   11041                    
   11042                    $C$DW$T$23      .dwtag  DW_TAG_volatile_type
   11043                            .dwattr $C$DW$T$23, DW_AT_type(*$C$DW$T$22)
   11044                    
   11045                    
   11046                    $C$DW$T$52      .dwtag  DW_TAG_array_type
   11047                            .dwattr $C$DW$T$52, DW_AT_type(*$C$DW$T$23)
   11048                            .dwattr $C$DW$T$52, DW_AT_language(DW_LANG_C)
   11049                            .dwattr $C$DW$T$52, DW_AT_byte_size(0x20)
   11050                    $C$DW$870       .dwtag  DW_TAG_subrange_type
   11051                            .dwattr $C$DW$870, DW_AT_upper_bound(0x07)
   11052                    
   11053                            .dwendtag $C$DW$T$52
   11054                    
   11055                    
TI ARM Assembler PC v20.2.6 Mon Oct 31 23:16:56 2022

Copyright (c) 1996-2018 Texas Instruments Incorporated
system_msp432p401r.asm                                               PAGE  202

   11056                    $C$DW$T$79      .dwtag  DW_TAG_array_type
   11057                            .dwattr $C$DW$T$79, DW_AT_type(*$C$DW$T$23)
   11058                            .dwattr $C$DW$T$79, DW_AT_language(DW_LANG_C)
   11059                            .dwattr $C$DW$T$79, DW_AT_byte_size(0x80)
   11060                    $C$DW$871       .dwtag  DW_TAG_subrange_type
   11061                            .dwattr $C$DW$871, DW_AT_upper_bound(0x1f)
   11062                    
   11063                            .dwendtag $C$DW$T$79
   11064                    
   11065                    
   11066                    $C$DW$T$126     .dwtag  DW_TAG_array_type
   11067                            .dwattr $C$DW$T$126, DW_AT_type(*$C$DW$T$23)
   11068                            .dwattr $C$DW$T$126, DW_AT_language(DW_LANG_C)
   11069                            .dwattr $C$DW$T$126, DW_AT_byte_size(0x10)
   11070                    $C$DW$872       .dwtag  DW_TAG_subrange_type
   11071                            .dwattr $C$DW$872, DW_AT_upper_bound(0x03)
   11072                    
   11073                            .dwendtag $C$DW$T$126
   11074                    
   11075                    
   11076                    $C$DW$T$146     .dwtag  DW_TAG_array_type
   11077                            .dwattr $C$DW$T$146, DW_AT_type(*$C$DW$T$23)
   11078                            .dwattr $C$DW$T$146, DW_AT_language(DW_LANG_C)
   11079                            .dwattr $C$DW$T$146, DW_AT_byte_size(0x08)
   11080                    $C$DW$873       .dwtag  DW_TAG_subrange_type
   11081                            .dwattr $C$DW$873, DW_AT_upper_bound(0x01)
   11082                    
   11083                            .dwendtag $C$DW$T$146
   11084                    
   11085                    $C$DW$874       .dwtag  DW_TAG_const_type
   11086                            .dwattr $C$DW$874, DW_AT_type(*$C$DW$T$22)
   11087                    
   11088                    $C$DW$T$25      .dwtag  DW_TAG_volatile_type
   11089                            .dwattr $C$DW$T$25, DW_AT_type(*$C$DW$874)
   11090                    
   11091                    
   11092                    $C$DW$T$33      .dwtag  DW_TAG_array_type
   11093                            .dwattr $C$DW$T$33, DW_AT_type(*$C$DW$T$25)
   11094                            .dwattr $C$DW$T$33, DW_AT_language(DW_LANG_C)
   11095                            .dwattr $C$DW$T$33, DW_AT_byte_size(0x08)
   11096                    $C$DW$875       .dwtag  DW_TAG_subrange_type
   11097                            .dwattr $C$DW$875, DW_AT_upper_bound(0x01)
   11098                    
   11099                            .dwendtag $C$DW$T$33
   11100                    
   11101                    
   11102                    $C$DW$T$34      .dwtag  DW_TAG_array_type
   11103                            .dwattr $C$DW$T$34, DW_AT_type(*$C$DW$T$25)
   11104                            .dwattr $C$DW$T$34, DW_AT_language(DW_LANG_C)
   11105                            .dwattr $C$DW$T$34, DW_AT_byte_size(0x10)
   11106                    $C$DW$876       .dwtag  DW_TAG_subrange_type
   11107                            .dwattr $C$DW$876, DW_AT_upper_bound(0x03)
   11108                    
   11109                            .dwendtag $C$DW$T$34
   11110                    
TI ARM Assembler PC v20.2.6 Mon Oct 31 23:16:56 2022

Copyright (c) 1996-2018 Texas Instruments Incorporated
system_msp432p401r.asm                                               PAGE  203

   11111                    
   11112                    $C$DW$T$35      .dwtag  DW_TAG_array_type
   11113                            .dwattr $C$DW$T$35, DW_AT_type(*$C$DW$T$25)
   11114                            .dwattr $C$DW$T$35, DW_AT_language(DW_LANG_C)
   11115                            .dwattr $C$DW$T$35, DW_AT_byte_size(0x14)
   11116                    $C$DW$877       .dwtag  DW_TAG_subrange_type
   11117                            .dwattr $C$DW$877, DW_AT_upper_bound(0x04)
   11118                    
   11119                            .dwendtag $C$DW$T$35
   11120                    
   11121                    $C$DW$T$309     .dwtag  DW_TAG_typedef
   11122                            .dwattr $C$DW$T$309, DW_AT_name("__useconds_t")
   11123                            .dwattr $C$DW$T$309, DW_AT_type(*$C$DW$T$11)
   11124                            .dwattr $C$DW$T$309, DW_AT_language(DW_LANG_C)
   11125                            .dwattr $C$DW$T$309, DW_AT_decl_file("C:/ti/ccs1200/ccs/tools/compiler/ti-cgt-arm_20.2.6.LTS/i
   11126                            .dwattr $C$DW$T$309, DW_AT_decl_line(0x4e)
   11127                            .dwattr $C$DW$T$309, DW_AT_decl_column(0x16)
   11128                    
   11129                    $C$DW$T$12      .dwtag  DW_TAG_base_type
   11130                            .dwattr $C$DW$T$12, DW_AT_encoding(DW_ATE_signed)
   11131                            .dwattr $C$DW$T$12, DW_AT_name("long")
   11132                            .dwattr $C$DW$T$12, DW_AT_byte_size(0x04)
   11133                    
   11134                    $C$DW$T$310     .dwtag  DW_TAG_typedef
   11135                            .dwattr $C$DW$T$310, DW_AT_name("__key_t")
   11136                            .dwattr $C$DW$T$310, DW_AT_type(*$C$DW$T$12)
   11137                            .dwattr $C$DW$T$310, DW_AT_language(DW_LANG_C)
   11138                            .dwattr $C$DW$T$310, DW_AT_decl_file("C:/ti/ccs1200/ccs/tools/compiler/ti-cgt-arm_20.2.6.LTS/i
   11139                            .dwattr $C$DW$T$310, DW_AT_decl_line(0x38)
   11140                            .dwattr $C$DW$T$310, DW_AT_decl_column(0x0f)
   11141                    
   11142                    $C$DW$T$311     .dwtag  DW_TAG_typedef
   11143                            .dwattr $C$DW$T$311, DW_AT_name("__suseconds_t")
   11144                            .dwattr $C$DW$T$311, DW_AT_type(*$C$DW$T$12)
   11145                            .dwattr $C$DW$T$311, DW_AT_language(DW_LANG_C)
   11146                            .dwattr $C$DW$T$311, DW_AT_decl_file("C:/ti/ccs1200/ccs/tools/compiler/ti-cgt-arm_20.2.6.LTS/i
   11147                            .dwattr $C$DW$T$311, DW_AT_decl_line(0x4a)
   11148                            .dwattr $C$DW$T$311, DW_AT_decl_column(0x0f)
   11149                    
   11150                    $C$DW$T$312     .dwtag  DW_TAG_typedef
   11151                            .dwattr $C$DW$T$312, DW_AT_name("_off_t")
   11152                            .dwattr $C$DW$T$312, DW_AT_type(*$C$DW$T$12)
   11153                            .dwattr $C$DW$T$312, DW_AT_language(DW_LANG_C)
   11154                            .dwattr $C$DW$T$312, DW_AT_decl_file("C:/ti/ccs1200/ccs/tools/compiler/ti-cgt-arm_20.2.6.LTS/i
   11155                            .dwattr $C$DW$T$312, DW_AT_decl_line(0x9d)
   11156                            .dwattr $C$DW$T$312, DW_AT_decl_column(0x0e)
   11157                    
   11158                    $C$DW$T$313     .dwtag  DW_TAG_typedef
   11159                            .dwattr $C$DW$T$313, DW_AT_name("__off_t")
   11160                            .dwattr $C$DW$T$313, DW_AT_type(*$C$DW$T$312)
   11161                            .dwattr $C$DW$T$313, DW_AT_language(DW_LANG_C)
   11162                            .dwattr $C$DW$T$313, DW_AT_decl_file("C:/ti/ccs1200/ccs/tools/compiler/ti-cgt-arm_20.2.6.LTS/i
   11163                            .dwattr $C$DW$T$313, DW_AT_decl_line(0x3e)
   11164                            .dwattr $C$DW$T$313, DW_AT_decl_column(0x18)
   11165                    
TI ARM Assembler PC v20.2.6 Mon Oct 31 23:16:56 2022

Copyright (c) 1996-2018 Texas Instruments Incorporated
system_msp432p401r.asm                                               PAGE  204

   11166                    $C$DW$T$13      .dwtag  DW_TAG_base_type
   11167                            .dwattr $C$DW$T$13, DW_AT_encoding(DW_ATE_unsigned)
   11168                            .dwattr $C$DW$T$13, DW_AT_name("unsigned long")
   11169                            .dwattr $C$DW$T$13, DW_AT_byte_size(0x04)
   11170                    
   11171                    $C$DW$T$14      .dwtag  DW_TAG_base_type
   11172                            .dwattr $C$DW$T$14, DW_AT_encoding(DW_ATE_signed)
   11173                            .dwattr $C$DW$T$14, DW_AT_name("long long")
   11174                            .dwattr $C$DW$T$14, DW_AT_byte_size(0x08)
   11175                    
   11176                    $C$DW$T$314     .dwtag  DW_TAG_typedef
   11177                            .dwattr $C$DW$T$314, DW_AT_name("__int64_t")
   11178                            .dwattr $C$DW$T$314, DW_AT_type(*$C$DW$T$14)
   11179                            .dwattr $C$DW$T$314, DW_AT_language(DW_LANG_C)
   11180                            .dwattr $C$DW$T$314, DW_AT_decl_file("C:/ti/ccs1200/ccs/tools/compiler/ti-cgt-arm_20.2.6.LTS/i
   11181                            .dwattr $C$DW$T$314, DW_AT_decl_line(0x54)
   11182                            .dwattr $C$DW$T$314, DW_AT_decl_column(0x14)
   11183                    
   11184                    $C$DW$T$315     .dwtag  DW_TAG_typedef
   11185                            .dwattr $C$DW$T$315, DW_AT_name("__blkcnt_t")
   11186                            .dwattr $C$DW$T$315, DW_AT_type(*$C$DW$T$314)
   11187                            .dwattr $C$DW$T$315, DW_AT_language(DW_LANG_C)
   11188                            .dwattr $C$DW$T$315, DW_AT_decl_file("C:/ti/ccs1200/ccs/tools/compiler/ti-cgt-arm_20.2.6.LTS/i
   11189                            .dwattr $C$DW$T$315, DW_AT_decl_line(0x30)
   11190                            .dwattr $C$DW$T$315, DW_AT_decl_column(0x13)
   11191                    
   11192                    $C$DW$T$316     .dwtag  DW_TAG_typedef
   11193                            .dwattr $C$DW$T$316, DW_AT_name("__id_t")
   11194                            .dwattr $C$DW$T$316, DW_AT_type(*$C$DW$T$314)
   11195                            .dwattr $C$DW$T$316, DW_AT_language(DW_LANG_C)
   11196                            .dwattr $C$DW$T$316, DW_AT_decl_file("C:/ti/ccs1200/ccs/tools/compiler/ti-cgt-arm_20.2.6.LTS/i
   11197                            .dwattr $C$DW$T$316, DW_AT_decl_line(0x36)
   11198                            .dwattr $C$DW$T$316, DW_AT_decl_column(0x13)
   11199                    
   11200                    $C$DW$T$317     .dwtag  DW_TAG_typedef
   11201                            .dwattr $C$DW$T$317, DW_AT_name("__int_fast64_t")
   11202                            .dwattr $C$DW$T$317, DW_AT_type(*$C$DW$T$314)
   11203                            .dwattr $C$DW$T$317, DW_AT_language(DW_LANG_C)
   11204                            .dwattr $C$DW$T$317, DW_AT_decl_file("C:/ti/ccs1200/ccs/tools/compiler/ti-cgt-arm_20.2.6.LTS/i
   11205                            .dwattr $C$DW$T$317, DW_AT_decl_line(0x68)
   11206                            .dwattr $C$DW$T$317, DW_AT_decl_column(0x13)
   11207                    
   11208                    $C$DW$T$318     .dwtag  DW_TAG_typedef
   11209                            .dwattr $C$DW$T$318, DW_AT_name("int_fast64_t")
   11210                            .dwattr $C$DW$T$318, DW_AT_type(*$C$DW$T$317)
   11211                            .dwattr $C$DW$T$318, DW_AT_language(DW_LANG_C)
   11212                            .dwattr $C$DW$T$318, DW_AT_decl_file("C:/ti/ccs1200/ccs/tools/compiler/ti-cgt-arm_20.2.6.LTS/i
   11213                            .dwattr $C$DW$T$318, DW_AT_decl_line(0x37)
   11214                            .dwattr $C$DW$T$318, DW_AT_decl_column(0x19)
   11215                    
   11216                    $C$DW$T$319     .dwtag  DW_TAG_typedef
   11217                            .dwattr $C$DW$T$319, DW_AT_name("__int_least64_t")
   11218                            .dwattr $C$DW$T$319, DW_AT_type(*$C$DW$T$314)
   11219                            .dwattr $C$DW$T$319, DW_AT_language(DW_LANG_C)
   11220                            .dwattr $C$DW$T$319, DW_AT_decl_file("C:/ti/ccs1200/ccs/tools/compiler/ti-cgt-arm_20.2.6.LTS/i
TI ARM Assembler PC v20.2.6 Mon Oct 31 23:16:56 2022

Copyright (c) 1996-2018 Texas Instruments Incorporated
system_msp432p401r.asm                                               PAGE  205

   11221                            .dwattr $C$DW$T$319, DW_AT_decl_line(0x6c)
   11222                            .dwattr $C$DW$T$319, DW_AT_decl_column(0x13)
   11223                    
   11224                    $C$DW$T$320     .dwtag  DW_TAG_typedef
   11225                            .dwattr $C$DW$T$320, DW_AT_name("int_least64_t")
   11226                            .dwattr $C$DW$T$320, DW_AT_type(*$C$DW$T$319)
   11227                            .dwattr $C$DW$T$320, DW_AT_language(DW_LANG_C)
   11228                            .dwattr $C$DW$T$320, DW_AT_decl_file("C:/ti/ccs1200/ccs/tools/compiler/ti-cgt-arm_20.2.6.LTS/i
   11229                            .dwattr $C$DW$T$320, DW_AT_decl_line(0x2d)
   11230                            .dwattr $C$DW$T$320, DW_AT_decl_column(0x1a)
   11231                    
   11232                    $C$DW$T$321     .dwtag  DW_TAG_typedef
   11233                            .dwattr $C$DW$T$321, DW_AT_name("__intmax_t")
   11234                            .dwattr $C$DW$T$321, DW_AT_type(*$C$DW$T$314)
   11235                            .dwattr $C$DW$T$321, DW_AT_language(DW_LANG_C)
   11236                            .dwattr $C$DW$T$321, DW_AT_decl_file("C:/ti/ccs1200/ccs/tools/compiler/ti-cgt-arm_20.2.6.LTS/i
   11237                            .dwattr $C$DW$T$321, DW_AT_decl_line(0x63)
   11238                            .dwattr $C$DW$T$321, DW_AT_decl_column(0x13)
   11239                    
   11240                    $C$DW$T$322     .dwtag  DW_TAG_typedef
   11241                            .dwattr $C$DW$T$322, DW_AT_name("intmax_t")
   11242                            .dwattr $C$DW$T$322, DW_AT_type(*$C$DW$T$321)
   11243                            .dwattr $C$DW$T$322, DW_AT_language(DW_LANG_C)
   11244                            .dwattr $C$DW$T$322, DW_AT_decl_file("C:/ti/ccs1200/ccs/tools/compiler/ti-cgt-arm_20.2.6.LTS/i
   11245                            .dwattr $C$DW$T$322, DW_AT_decl_line(0x58)
   11246                            .dwattr $C$DW$T$322, DW_AT_decl_column(0x15)
   11247                    
   11248                    $C$DW$T$323     .dwtag  DW_TAG_typedef
   11249                            .dwattr $C$DW$T$323, DW_AT_name("__off64_t")
   11250                            .dwattr $C$DW$T$323, DW_AT_type(*$C$DW$T$314)
   11251                            .dwattr $C$DW$T$323, DW_AT_language(DW_LANG_C)
   11252                            .dwattr $C$DW$T$323, DW_AT_decl_file("C:/ti/ccs1200/ccs/tools/compiler/ti-cgt-arm_20.2.6.LTS/i
   11253                            .dwattr $C$DW$T$323, DW_AT_decl_line(0x3f)
   11254                            .dwattr $C$DW$T$323, DW_AT_decl_column(0x13)
   11255                    
   11256                    $C$DW$T$324     .dwtag  DW_TAG_typedef
   11257                            .dwattr $C$DW$T$324, DW_AT_name("__rlim_t")
   11258                            .dwattr $C$DW$T$324, DW_AT_type(*$C$DW$T$314)
   11259                            .dwattr $C$DW$T$324, DW_AT_language(DW_LANG_C)
   11260                            .dwattr $C$DW$T$324, DW_AT_decl_file("C:/ti/ccs1200/ccs/tools/compiler/ti-cgt-arm_20.2.6.LTS/i
   11261                            .dwattr $C$DW$T$324, DW_AT_decl_line(0x41)
   11262                            .dwattr $C$DW$T$324, DW_AT_decl_column(0x13)
   11263                    
   11264                    $C$DW$T$325     .dwtag  DW_TAG_typedef
   11265                            .dwattr $C$DW$T$325, DW_AT_name("int64_t")
   11266                            .dwattr $C$DW$T$325, DW_AT_type(*$C$DW$T$314)
   11267                            .dwattr $C$DW$T$325, DW_AT_language(DW_LANG_C)
   11268                            .dwattr $C$DW$T$325, DW_AT_decl_file("C:/ti/ccs1200/ccs/tools/compiler/ti-cgt-arm_20.2.6.LTS/i
   11269                            .dwattr $C$DW$T$325, DW_AT_decl_line(0x35)
   11270                            .dwattr $C$DW$T$325, DW_AT_decl_column(0x14)
   11271                    
   11272                    $C$DW$T$15      .dwtag  DW_TAG_base_type
   11273                            .dwattr $C$DW$T$15, DW_AT_encoding(DW_ATE_unsigned)
   11274                            .dwattr $C$DW$T$15, DW_AT_name("unsigned long long")
   11275                            .dwattr $C$DW$T$15, DW_AT_byte_size(0x08)
TI ARM Assembler PC v20.2.6 Mon Oct 31 23:16:56 2022

Copyright (c) 1996-2018 Texas Instruments Incorporated
system_msp432p401r.asm                                               PAGE  206

   11276                    
   11277                    $C$DW$T$326     .dwtag  DW_TAG_typedef
   11278                            .dwattr $C$DW$T$326, DW_AT_name("__uint64_t")
   11279                            .dwattr $C$DW$T$326, DW_AT_type(*$C$DW$T$15)
   11280                            .dwattr $C$DW$T$326, DW_AT_language(DW_LANG_C)
   11281                            .dwattr $C$DW$T$326, DW_AT_decl_file("C:/ti/ccs1200/ccs/tools/compiler/ti-cgt-arm_20.2.6.LTS/i
   11282                            .dwattr $C$DW$T$326, DW_AT_decl_line(0x59)
   11283                            .dwattr $C$DW$T$326, DW_AT_decl_column(0x1c)
   11284                    
   11285                    $C$DW$T$327     .dwtag  DW_TAG_typedef
   11286                            .dwattr $C$DW$T$327, DW_AT_name("__dev_t")
   11287                            .dwattr $C$DW$T$327, DW_AT_type(*$C$DW$T$326)
   11288                            .dwattr $C$DW$T$327, DW_AT_language(DW_LANG_C)
   11289                            .dwattr $C$DW$T$327, DW_AT_decl_file("C:/ti/ccs1200/ccs/tools/compiler/ti-cgt-arm_20.2.6.LTS/i
   11290                            .dwattr $C$DW$T$327, DW_AT_decl_line(0x7f)
   11291                            .dwattr $C$DW$T$327, DW_AT_decl_column(0x14)
   11292                    
   11293                    $C$DW$T$328     .dwtag  DW_TAG_typedef
   11294                            .dwattr $C$DW$T$328, DW_AT_name("__fsblkcnt_t")
   11295                            .dwattr $C$DW$T$328, DW_AT_type(*$C$DW$T$326)
   11296                            .dwattr $C$DW$T$328, DW_AT_language(DW_LANG_C)
   11297                            .dwattr $C$DW$T$328, DW_AT_decl_file("C:/ti/ccs1200/ccs/tools/compiler/ti-cgt-arm_20.2.6.LTS/i
   11298                            .dwattr $C$DW$T$328, DW_AT_decl_line(0x33)
   11299                            .dwattr $C$DW$T$328, DW_AT_decl_column(0x14)
   11300                    
   11301                    $C$DW$T$329     .dwtag  DW_TAG_typedef
   11302                            .dwattr $C$DW$T$329, DW_AT_name("__fsfilcnt_t")
   11303                            .dwattr $C$DW$T$329, DW_AT_type(*$C$DW$T$326)
   11304                            .dwattr $C$DW$T$329, DW_AT_language(DW_LANG_C)
   11305                            .dwattr $C$DW$T$329, DW_AT_decl_file("C:/ti/ccs1200/ccs/tools/compiler/ti-cgt-arm_20.2.6.LTS/i
   11306                            .dwattr $C$DW$T$329, DW_AT_decl_line(0x34)
   11307                            .dwattr $C$DW$T$329, DW_AT_decl_column(0x14)
   11308                    
   11309                    $C$DW$T$330     .dwtag  DW_TAG_typedef
   11310                            .dwattr $C$DW$T$330, DW_AT_name("__ino_t")
   11311                            .dwattr $C$DW$T$330, DW_AT_type(*$C$DW$T$326)
   11312                            .dwattr $C$DW$T$330, DW_AT_language(DW_LANG_C)
   11313                            .dwattr $C$DW$T$330, DW_AT_decl_file("C:/ti/ccs1200/ccs/tools/compiler/ti-cgt-arm_20.2.6.LTS/i
   11314                            .dwattr $C$DW$T$330, DW_AT_decl_line(0x37)
   11315                            .dwattr $C$DW$T$330, DW_AT_decl_column(0x14)
   11316                    
   11317                    $C$DW$T$331     .dwtag  DW_TAG_typedef
   11318                            .dwattr $C$DW$T$331, DW_AT_name("__nlink_t")
   11319                            .dwattr $C$DW$T$331, DW_AT_type(*$C$DW$T$326)
   11320                            .dwattr $C$DW$T$331, DW_AT_language(DW_LANG_C)
   11321                            .dwattr $C$DW$T$331, DW_AT_decl_file("C:/ti/ccs1200/ccs/tools/compiler/ti-cgt-arm_20.2.6.LTS/i
   11322                            .dwattr $C$DW$T$331, DW_AT_decl_line(0x3d)
   11323                            .dwattr $C$DW$T$331, DW_AT_decl_column(0x14)
   11324                    
   11325                    $C$DW$T$332     .dwtag  DW_TAG_typedef
   11326                            .dwattr $C$DW$T$332, DW_AT_name("__uint_fast64_t")
   11327                            .dwattr $C$DW$T$332, DW_AT_type(*$C$DW$T$326)
   11328                            .dwattr $C$DW$T$332, DW_AT_language(DW_LANG_C)
   11329                            .dwattr $C$DW$T$332, DW_AT_decl_file("C:/ti/ccs1200/ccs/tools/compiler/ti-cgt-arm_20.2.6.LTS/i
   11330                            .dwattr $C$DW$T$332, DW_AT_decl_line(0x7e)
TI ARM Assembler PC v20.2.6 Mon Oct 31 23:16:56 2022

Copyright (c) 1996-2018 Texas Instruments Incorporated
system_msp432p401r.asm                                               PAGE  207

   11331                            .dwattr $C$DW$T$332, DW_AT_decl_column(0x14)
   11332                    
   11333                    $C$DW$T$333     .dwtag  DW_TAG_typedef
   11334                            .dwattr $C$DW$T$333, DW_AT_name("uint_fast64_t")
   11335                            .dwattr $C$DW$T$333, DW_AT_type(*$C$DW$T$332)
   11336                            .dwattr $C$DW$T$333, DW_AT_language(DW_LANG_C)
   11337                            .dwattr $C$DW$T$333, DW_AT_decl_file("C:/ti/ccs1200/ccs/tools/compiler/ti-cgt-arm_20.2.6.LTS/i
   11338                            .dwattr $C$DW$T$333, DW_AT_decl_line(0x3c)
   11339                            .dwattr $C$DW$T$333, DW_AT_decl_column(0x1a)
   11340                    
   11341                    $C$DW$T$334     .dwtag  DW_TAG_typedef
   11342                            .dwattr $C$DW$T$334, DW_AT_name("__uint_least64_t")
   11343                            .dwattr $C$DW$T$334, DW_AT_type(*$C$DW$T$326)
   11344                            .dwattr $C$DW$T$334, DW_AT_language(DW_LANG_C)
   11345                            .dwattr $C$DW$T$334, DW_AT_decl_file("C:/ti/ccs1200/ccs/tools/compiler/ti-cgt-arm_20.2.6.LTS/i
   11346                            .dwattr $C$DW$T$334, DW_AT_decl_line(0x82)
   11347                            .dwattr $C$DW$T$334, DW_AT_decl_column(0x14)
   11348                    
   11349                    $C$DW$T$335     .dwtag  DW_TAG_typedef
   11350                            .dwattr $C$DW$T$335, DW_AT_name("uint_least64_t")
   11351                            .dwattr $C$DW$T$335, DW_AT_type(*$C$DW$T$334)
   11352                            .dwattr $C$DW$T$335, DW_AT_language(DW_LANG_C)
   11353                            .dwattr $C$DW$T$335, DW_AT_decl_file("C:/ti/ccs1200/ccs/tools/compiler/ti-cgt-arm_20.2.6.LTS/i
   11354                            .dwattr $C$DW$T$335, DW_AT_decl_line(0x32)
   11355                            .dwattr $C$DW$T$335, DW_AT_decl_column(0x1a)
   11356                    
   11357                    $C$DW$T$336     .dwtag  DW_TAG_typedef
   11358                            .dwattr $C$DW$T$336, DW_AT_name("__uintmax_t")
   11359                            .dwattr $C$DW$T$336, DW_AT_type(*$C$DW$T$326)
   11360                            .dwattr $C$DW$T$336, DW_AT_language(DW_LANG_C)
   11361                            .dwattr $C$DW$T$336, DW_AT_decl_file("C:/ti/ccs1200/ccs/tools/compiler/ti-cgt-arm_20.2.6.LTS/i
   11362                            .dwattr $C$DW$T$336, DW_AT_decl_line(0x79)
   11363                            .dwattr $C$DW$T$336, DW_AT_decl_column(0x14)
   11364                    
   11365                    $C$DW$T$337     .dwtag  DW_TAG_typedef
   11366                            .dwattr $C$DW$T$337, DW_AT_name("__rman_res_t")
   11367                            .dwattr $C$DW$T$337, DW_AT_type(*$C$DW$T$336)
   11368                            .dwattr $C$DW$T$337, DW_AT_language(DW_LANG_C)
   11369                            .dwattr $C$DW$T$337, DW_AT_decl_file("C:/ti/ccs1200/ccs/tools/compiler/ti-cgt-arm_20.2.6.LTS/i
   11370                            .dwattr $C$DW$T$337, DW_AT_decl_line(0x9a)
   11371                            .dwattr $C$DW$T$337, DW_AT_decl_column(0x19)
   11372                    
   11373                    $C$DW$T$338     .dwtag  DW_TAG_typedef
   11374                            .dwattr $C$DW$T$338, DW_AT_name("uintmax_t")
   11375                            .dwattr $C$DW$T$338, DW_AT_type(*$C$DW$T$336)
   11376                            .dwattr $C$DW$T$338, DW_AT_language(DW_LANG_C)
   11377                            .dwattr $C$DW$T$338, DW_AT_decl_file("C:/ti/ccs1200/ccs/tools/compiler/ti-cgt-arm_20.2.6.LTS/i
   11378                            .dwattr $C$DW$T$338, DW_AT_decl_line(0x5c)
   11379                            .dwattr $C$DW$T$338, DW_AT_decl_column(0x16)
   11380                    
   11381                    $C$DW$T$339     .dwtag  DW_TAG_typedef
   11382                            .dwattr $C$DW$T$339, DW_AT_name("uint64_t")
   11383                            .dwattr $C$DW$T$339, DW_AT_type(*$C$DW$T$326)
   11384                            .dwattr $C$DW$T$339, DW_AT_language(DW_LANG_C)
   11385                            .dwattr $C$DW$T$339, DW_AT_decl_file("C:/ti/ccs1200/ccs/tools/compiler/ti-cgt-arm_20.2.6.LTS/i
TI ARM Assembler PC v20.2.6 Mon Oct 31 23:16:56 2022

Copyright (c) 1996-2018 Texas Instruments Incorporated
system_msp432p401r.asm                                               PAGE  208

   11386                            .dwattr $C$DW$T$339, DW_AT_decl_line(0x4b)
   11387                            .dwattr $C$DW$T$339, DW_AT_decl_column(0x15)
   11388                    
   11389                    $C$DW$T$16      .dwtag  DW_TAG_base_type
   11390                            .dwattr $C$DW$T$16, DW_AT_encoding(DW_ATE_float)
   11391                            .dwattr $C$DW$T$16, DW_AT_name("float")
   11392                            .dwattr $C$DW$T$16, DW_AT_byte_size(0x04)
   11393                    
   11394                    $C$DW$T$341     .dwtag  DW_TAG_typedef
   11395                            .dwattr $C$DW$T$341, DW_AT_name("__float_t")
   11396                            .dwattr $C$DW$T$341, DW_AT_type(*$C$DW$T$16)
   11397                            .dwattr $C$DW$T$341, DW_AT_language(DW_LANG_C)
   11398                            .dwattr $C$DW$T$341, DW_AT_decl_file("C:/ti/ccs1200/ccs/tools/compiler/ti-cgt-arm_20.2.6.LTS/i
   11399                            .dwattr $C$DW$T$341, DW_AT_decl_line(0x61)
   11400                            .dwattr $C$DW$T$341, DW_AT_decl_column(0x10)
   11401                    
   11402                    $C$DW$T$17      .dwtag  DW_TAG_base_type
   11403                            .dwattr $C$DW$T$17, DW_AT_encoding(DW_ATE_float)
   11404                            .dwattr $C$DW$T$17, DW_AT_name("double")
   11405                            .dwattr $C$DW$T$17, DW_AT_byte_size(0x08)
   11406                    
   11407                    $C$DW$T$342     .dwtag  DW_TAG_typedef
   11408                            .dwattr $C$DW$T$342, DW_AT_name("__double_t")
   11409                            .dwattr $C$DW$T$342, DW_AT_type(*$C$DW$T$17)
   11410                            .dwattr $C$DW$T$342, DW_AT_language(DW_LANG_C)
   11411                            .dwattr $C$DW$T$342, DW_AT_decl_file("C:/ti/ccs1200/ccs/tools/compiler/ti-cgt-arm_20.2.6.LTS/i
   11412                            .dwattr $C$DW$T$342, DW_AT_decl_line(0x60)
   11413                            .dwattr $C$DW$T$342, DW_AT_decl_column(0x11)
   11414                    
   11415                    $C$DW$T$18      .dwtag  DW_TAG_base_type
   11416                            .dwattr $C$DW$T$18, DW_AT_encoding(DW_ATE_float)
   11417                            .dwattr $C$DW$T$18, DW_AT_name("long double")
   11418                            .dwattr $C$DW$T$18, DW_AT_byte_size(0x08)
   11419                    
   11420                    
   11421                    $C$DW$T$19      .dwtag  DW_TAG_structure_type
   11422                            .dwattr $C$DW$T$19, DW_AT_name("__mq")
   11423                            .dwattr $C$DW$T$19, DW_AT_declaration
   11424                            .dwattr $C$DW$T$19, DW_AT_decl_file("C:/ti/ccs1200/ccs/tools/compiler/ti-cgt-arm_20.2.6.LTS/in
   11425                            .dwattr $C$DW$T$19, DW_AT_decl_line(0x4c)
   11426                            .dwattr $C$DW$T$19, DW_AT_decl_column(0x10)
   11427                            .dwendtag $C$DW$T$19
   11428                    
   11429                    $C$DW$T$343     .dwtag  DW_TAG_pointer_type
   11430                            .dwattr $C$DW$T$343, DW_AT_type(*$C$DW$T$19)
   11431                            .dwattr $C$DW$T$343, DW_AT_address_class(0x20)
   11432                    
   11433                    $C$DW$T$344     .dwtag  DW_TAG_typedef
   11434                            .dwattr $C$DW$T$344, DW_AT_name("__mqd_t")
   11435                            .dwattr $C$DW$T$344, DW_AT_type(*$C$DW$T$343)
   11436                            .dwattr $C$DW$T$344, DW_AT_language(DW_LANG_C)
   11437                            .dwattr $C$DW$T$344, DW_AT_decl_file("C:/ti/ccs1200/ccs/tools/compiler/ti-cgt-arm_20.2.6.LTS/i
   11438                            .dwattr $C$DW$T$344, DW_AT_decl_line(0x4c)
   11439                            .dwattr $C$DW$T$344, DW_AT_decl_column(0x16)
   11440                    
TI ARM Assembler PC v20.2.6 Mon Oct 31 23:16:56 2022

Copyright (c) 1996-2018 Texas Instruments Incorporated
system_msp432p401r.asm                                               PAGE  209

   11441                    
   11442                    $C$DW$T$20      .dwtag  DW_TAG_structure_type
   11443                            .dwattr $C$DW$T$20, DW_AT_name("__timer")
   11444                            .dwattr $C$DW$T$20, DW_AT_declaration
   11445                            .dwattr $C$DW$T$20, DW_AT_decl_file("C:/ti/ccs1200/ccs/tools/compiler/ti-cgt-arm_20.2.6.LTS/in
   11446                            .dwattr $C$DW$T$20, DW_AT_decl_line(0x4b)
   11447                            .dwattr $C$DW$T$20, DW_AT_decl_column(0x10)
   11448                            .dwendtag $C$DW$T$20
   11449                    
   11450                    $C$DW$T$345     .dwtag  DW_TAG_pointer_type
   11451                            .dwattr $C$DW$T$345, DW_AT_type(*$C$DW$T$20)
   11452                            .dwattr $C$DW$T$345, DW_AT_address_class(0x20)
   11453                    
   11454                    $C$DW$T$346     .dwtag  DW_TAG_typedef
   11455                            .dwattr $C$DW$T$346, DW_AT_name("__timer_t")
   11456                            .dwattr $C$DW$T$346, DW_AT_type(*$C$DW$T$345)
   11457                            .dwattr $C$DW$T$346, DW_AT_language(DW_LANG_C)
   11458                            .dwattr $C$DW$T$346, DW_AT_decl_file("C:/ti/ccs1200/ccs/tools/compiler/ti-cgt-arm_20.2.6.LTS/i
   11459                            .dwattr $C$DW$T$346, DW_AT_decl_line(0x4b)
   11460                            .dwattr $C$DW$T$346, DW_AT_decl_column(0x19)
   11461                    
   11462                    
   11463                    $C$DW$T$178     .dwtag  DW_TAG_structure_type
   11464                            .dwattr $C$DW$T$178, DW_AT_name("__va_list_t")
   11465                            .dwattr $C$DW$T$178, DW_AT_byte_size(0x04)
   11466                    $C$DW$878       .dwtag  DW_TAG_member
   11467                            .dwattr $C$DW$878, DW_AT_type(*$C$DW$T$3)
   11468                            .dwattr $C$DW$878, DW_AT_name("__ap")
   11469                            .dwattr $C$DW$878, DW_AT_TI_symbol_name("__ap")
   11470                            .dwattr $C$DW$878, DW_AT_data_member_location[DW_OP_plus_uconst 0x0]
   11471                            .dwattr $C$DW$878, DW_AT_accessibility(DW_ACCESS_public)
   11472                            .dwattr $C$DW$878, DW_AT_decl_file("C:/ti/ccs1200/ccs/tools/compiler/ti-cgt-arm_20.2.6.LTS/inc
   11473                            .dwattr $C$DW$878, DW_AT_decl_line(0xa4)
   11474                            .dwattr $C$DW$878, DW_AT_decl_column(0x0c)
   11475                    
   11476                            .dwattr $C$DW$T$178, DW_AT_decl_file("C:/ti/ccs1200/ccs/tools/compiler/ti-cgt-arm_20.2.6.LTS/i
   11477                            .dwattr $C$DW$T$178, DW_AT_decl_line(0xa3)
   11478                            .dwattr $C$DW$T$178, DW_AT_decl_column(0x10)
   11479                            .dwendtag $C$DW$T$178
   11480                    
   11481                    $C$DW$T$347     .dwtag  DW_TAG_typedef
   11482                            .dwattr $C$DW$T$347, DW_AT_name("__va_list")
   11483                            .dwattr $C$DW$T$347, DW_AT_type(*$C$DW$T$178)
   11484                            .dwattr $C$DW$T$347, DW_AT_language(DW_LANG_C)
   11485                            .dwattr $C$DW$T$347, DW_AT_decl_file("C:/ti/ccs1200/ccs/tools/compiler/ti-cgt-arm_20.2.6.LTS/i
   11486                            .dwattr $C$DW$T$347, DW_AT_decl_line(0xa5)
   11487                            .dwattr $C$DW$T$347, DW_AT_decl_column(0x03)
   11488                    
   11489                            .dwattr $C$DW$CU, DW_AT_language(DW_LANG_C)
   11490                    
   11491                    ;***************************************************************
   11492                    ;* DWARF CIE ENTRIES                                           *
   11493                    ;***************************************************************
   11494                    
   11495                    $C$DW$CIE       .dwcie 14
TI ARM Assembler PC v20.2.6 Mon Oct 31 23:16:56 2022

Copyright (c) 1996-2018 Texas Instruments Incorporated
system_msp432p401r.asm                                               PAGE  210

   11496                            .dwcfi  cfa_register, 13
   11497                            .dwcfi  cfa_offset, 0
   11498                            .dwcfi  same_value, 4
   11499                            .dwcfi  same_value, 5
   11500                            .dwcfi  same_value, 6
   11501                            .dwcfi  same_value, 7
   11502                            .dwcfi  same_value, 8
   11503                            .dwcfi  same_value, 9
   11504                            .dwcfi  same_value, 10
   11505                            .dwcfi  same_value, 11
   11506                            .dwcfi  same_value, 80
   11507                            .dwcfi  same_value, 81
   11508                            .dwcfi  same_value, 82
   11509                            .dwcfi  same_value, 83
   11510                            .dwcfi  same_value, 84
   11511                            .dwcfi  same_value, 85
   11512                            .dwcfi  same_value, 86
   11513                            .dwcfi  same_value, 87
   11514                            .dwcfi  same_value, 88
   11515                            .dwcfi  same_value, 89
   11516                            .dwcfi  same_value, 90
   11517                            .dwcfi  same_value, 91
   11518                            .dwcfi  same_value, 92
   11519                            .dwcfi  same_value, 93
   11520                            .dwcfi  same_value, 94
   11521                            .dwcfi  same_value, 95
   11522                            .dwendentry
   11523                    
   11524                    ;***************************************************************
   11525                    ;* DWARF REGISTER MAP                                          *
   11526                    ;***************************************************************
   11527                    
   11528                    $C$DW$879       .dwtag  DW_TAG_TI_assign_register
   11529                            .dwattr $C$DW$879, DW_AT_name("A1")
   11530                            .dwattr $C$DW$879, DW_AT_location[DW_OP_reg0]
   11531                    
   11532                    $C$DW$880       .dwtag  DW_TAG_TI_assign_register
   11533                            .dwattr $C$DW$880, DW_AT_name("A2")
   11534                            .dwattr $C$DW$880, DW_AT_location[DW_OP_reg1]
   11535                    
   11536                    $C$DW$881       .dwtag  DW_TAG_TI_assign_register
   11537                            .dwattr $C$DW$881, DW_AT_name("A3")
   11538                            .dwattr $C$DW$881, DW_AT_location[DW_OP_reg2]
   11539                    
   11540                    $C$DW$882       .dwtag  DW_TAG_TI_assign_register
   11541                            .dwattr $C$DW$882, DW_AT_name("A4")
   11542                            .dwattr $C$DW$882, DW_AT_location[DW_OP_reg3]
   11543                    
   11544                    $C$DW$883       .dwtag  DW_TAG_TI_assign_register
   11545                            .dwattr $C$DW$883, DW_AT_name("V1")
   11546                            .dwattr $C$DW$883, DW_AT_location[DW_OP_reg4]
   11547                    
   11548                    $C$DW$884       .dwtag  DW_TAG_TI_assign_register
   11549                            .dwattr $C$DW$884, DW_AT_name("V2")
   11550                            .dwattr $C$DW$884, DW_AT_location[DW_OP_reg5]
TI ARM Assembler PC v20.2.6 Mon Oct 31 23:16:56 2022

Copyright (c) 1996-2018 Texas Instruments Incorporated
system_msp432p401r.asm                                               PAGE  211

   11551                    
   11552                    $C$DW$885       .dwtag  DW_TAG_TI_assign_register
   11553                            .dwattr $C$DW$885, DW_AT_name("V3")
   11554                            .dwattr $C$DW$885, DW_AT_location[DW_OP_reg6]
   11555                    
   11556                    $C$DW$886       .dwtag  DW_TAG_TI_assign_register
   11557                            .dwattr $C$DW$886, DW_AT_name("V4")
   11558                            .dwattr $C$DW$886, DW_AT_location[DW_OP_reg7]
   11559                    
   11560                    $C$DW$887       .dwtag  DW_TAG_TI_assign_register
   11561                            .dwattr $C$DW$887, DW_AT_name("V5")
   11562                            .dwattr $C$DW$887, DW_AT_location[DW_OP_reg8]
   11563                    
   11564                    $C$DW$888       .dwtag  DW_TAG_TI_assign_register
   11565                            .dwattr $C$DW$888, DW_AT_name("V6")
   11566                            .dwattr $C$DW$888, DW_AT_location[DW_OP_reg9]
   11567                    
   11568                    $C$DW$889       .dwtag  DW_TAG_TI_assign_register
   11569                            .dwattr $C$DW$889, DW_AT_name("V7")
   11570                            .dwattr $C$DW$889, DW_AT_location[DW_OP_reg10]
   11571                    
   11572                    $C$DW$890       .dwtag  DW_TAG_TI_assign_register
   11573                            .dwattr $C$DW$890, DW_AT_name("V8")
   11574                            .dwattr $C$DW$890, DW_AT_location[DW_OP_reg11]
   11575                    
   11576                    $C$DW$891       .dwtag  DW_TAG_TI_assign_register
   11577                            .dwattr $C$DW$891, DW_AT_name("V9")
   11578                            .dwattr $C$DW$891, DW_AT_location[DW_OP_reg12]
   11579                    
   11580                    $C$DW$892       .dwtag  DW_TAG_TI_assign_register
   11581                            .dwattr $C$DW$892, DW_AT_name("SP")
   11582                            .dwattr $C$DW$892, DW_AT_location[DW_OP_reg13]
   11583                    
   11584                    $C$DW$893       .dwtag  DW_TAG_TI_assign_register
   11585                            .dwattr $C$DW$893, DW_AT_name("LR")
   11586                            .dwattr $C$DW$893, DW_AT_location[DW_OP_reg14]
   11587                    
   11588                    $C$DW$894       .dwtag  DW_TAG_TI_assign_register
   11589                            .dwattr $C$DW$894, DW_AT_name("PC")
   11590                            .dwattr $C$DW$894, DW_AT_location[DW_OP_reg15]
   11591                    
   11592                    $C$DW$895       .dwtag  DW_TAG_TI_assign_register
   11593                            .dwattr $C$DW$895, DW_AT_name("SR")
   11594                            .dwattr $C$DW$895, DW_AT_location[DW_OP_reg17]
   11595                    
   11596                    $C$DW$896       .dwtag  DW_TAG_TI_assign_register
   11597                            .dwattr $C$DW$896, DW_AT_name("AP")
   11598                            .dwattr $C$DW$896, DW_AT_location[DW_OP_reg7]
   11599                    
   11600                    $C$DW$897       .dwtag  DW_TAG_TI_assign_register
   11601                            .dwattr $C$DW$897, DW_AT_name("D0")
   11602                            .dwattr $C$DW$897, DW_AT_location[DW_OP_regx 0x40]
   11603                    
   11604                    $C$DW$898       .dwtag  DW_TAG_TI_assign_register
   11605                            .dwattr $C$DW$898, DW_AT_name("D0_hi")
TI ARM Assembler PC v20.2.6 Mon Oct 31 23:16:56 2022

Copyright (c) 1996-2018 Texas Instruments Incorporated
system_msp432p401r.asm                                               PAGE  212

   11606                            .dwattr $C$DW$898, DW_AT_location[DW_OP_regx 0x41]
   11607                    
   11608                    $C$DW$899       .dwtag  DW_TAG_TI_assign_register
   11609                            .dwattr $C$DW$899, DW_AT_name("D1")
   11610                            .dwattr $C$DW$899, DW_AT_location[DW_OP_regx 0x42]
   11611                    
   11612                    $C$DW$900       .dwtag  DW_TAG_TI_assign_register
   11613                            .dwattr $C$DW$900, DW_AT_name("D1_hi")
   11614                            .dwattr $C$DW$900, DW_AT_location[DW_OP_regx 0x43]
   11615                    
   11616                    $C$DW$901       .dwtag  DW_TAG_TI_assign_register
   11617                            .dwattr $C$DW$901, DW_AT_name("D2")
   11618                            .dwattr $C$DW$901, DW_AT_location[DW_OP_regx 0x44]
   11619                    
   11620                    $C$DW$902       .dwtag  DW_TAG_TI_assign_register
   11621                            .dwattr $C$DW$902, DW_AT_name("D2_hi")
   11622                            .dwattr $C$DW$902, DW_AT_location[DW_OP_regx 0x45]
   11623                    
   11624                    $C$DW$903       .dwtag  DW_TAG_TI_assign_register
   11625                            .dwattr $C$DW$903, DW_AT_name("D3")
   11626                            .dwattr $C$DW$903, DW_AT_location[DW_OP_regx 0x46]
   11627                    
   11628                    $C$DW$904       .dwtag  DW_TAG_TI_assign_register
   11629                            .dwattr $C$DW$904, DW_AT_name("D3_hi")
   11630                            .dwattr $C$DW$904, DW_AT_location[DW_OP_regx 0x47]
   11631                    
   11632                    $C$DW$905       .dwtag  DW_TAG_TI_assign_register
   11633                            .dwattr $C$DW$905, DW_AT_name("D4")
   11634                            .dwattr $C$DW$905, DW_AT_location[DW_OP_regx 0x48]
   11635                    
   11636                    $C$DW$906       .dwtag  DW_TAG_TI_assign_register
   11637                            .dwattr $C$DW$906, DW_AT_name("D4_hi")
   11638                            .dwattr $C$DW$906, DW_AT_location[DW_OP_regx 0x49]
   11639                    
   11640                    $C$DW$907       .dwtag  DW_TAG_TI_assign_register
   11641                            .dwattr $C$DW$907, DW_AT_name("D5")
   11642                            .dwattr $C$DW$907, DW_AT_location[DW_OP_regx 0x4a]
   11643                    
   11644                    $C$DW$908       .dwtag  DW_TAG_TI_assign_register
   11645                            .dwattr $C$DW$908, DW_AT_name("D5_hi")
   11646                            .dwattr $C$DW$908, DW_AT_location[DW_OP_regx 0x4b]
   11647                    
   11648                    $C$DW$909       .dwtag  DW_TAG_TI_assign_register
   11649                            .dwattr $C$DW$909, DW_AT_name("D6")
   11650                            .dwattr $C$DW$909, DW_AT_location[DW_OP_regx 0x4c]
   11651                    
   11652                    $C$DW$910       .dwtag  DW_TAG_TI_assign_register
   11653                            .dwattr $C$DW$910, DW_AT_name("D6_hi")
   11654                            .dwattr $C$DW$910, DW_AT_location[DW_OP_regx 0x4d]
   11655                    
   11656                    $C$DW$911       .dwtag  DW_TAG_TI_assign_register
   11657                            .dwattr $C$DW$911, DW_AT_name("D7")
   11658                            .dwattr $C$DW$911, DW_AT_location[DW_OP_regx 0x4e]
   11659                    
   11660                    $C$DW$912       .dwtag  DW_TAG_TI_assign_register
TI ARM Assembler PC v20.2.6 Mon Oct 31 23:16:56 2022

Copyright (c) 1996-2018 Texas Instruments Incorporated
system_msp432p401r.asm                                               PAGE  213

   11661                            .dwattr $C$DW$912, DW_AT_name("D7_hi")
   11662                            .dwattr $C$DW$912, DW_AT_location[DW_OP_regx 0x4f]
   11663                    
   11664                    $C$DW$913       .dwtag  DW_TAG_TI_assign_register
   11665                            .dwattr $C$DW$913, DW_AT_name("D8")
   11666                            .dwattr $C$DW$913, DW_AT_location[DW_OP_regx 0x50]
   11667                    
   11668                    $C$DW$914       .dwtag  DW_TAG_TI_assign_register
   11669                            .dwattr $C$DW$914, DW_AT_name("D8_hi")
   11670                            .dwattr $C$DW$914, DW_AT_location[DW_OP_regx 0x51]
   11671                    
   11672                    $C$DW$915       .dwtag  DW_TAG_TI_assign_register
   11673                            .dwattr $C$DW$915, DW_AT_name("D9")
   11674                            .dwattr $C$DW$915, DW_AT_location[DW_OP_regx 0x52]
   11675                    
   11676                    $C$DW$916       .dwtag  DW_TAG_TI_assign_register
   11677                            .dwattr $C$DW$916, DW_AT_name("D9_hi")
   11678                            .dwattr $C$DW$916, DW_AT_location[DW_OP_regx 0x53]
   11679                    
   11680                    $C$DW$917       .dwtag  DW_TAG_TI_assign_register
   11681                            .dwattr $C$DW$917, DW_AT_name("D10")
   11682                            .dwattr $C$DW$917, DW_AT_location[DW_OP_regx 0x54]
   11683                    
   11684                    $C$DW$918       .dwtag  DW_TAG_TI_assign_register
   11685                            .dwattr $C$DW$918, DW_AT_name("D10_hi")
   11686                            .dwattr $C$DW$918, DW_AT_location[DW_OP_regx 0x55]
   11687                    
   11688                    $C$DW$919       .dwtag  DW_TAG_TI_assign_register
   11689                            .dwattr $C$DW$919, DW_AT_name("D11")
   11690                            .dwattr $C$DW$919, DW_AT_location[DW_OP_regx 0x56]
   11691                    
   11692                    $C$DW$920       .dwtag  DW_TAG_TI_assign_register
   11693                            .dwattr $C$DW$920, DW_AT_name("D11_hi")
   11694                            .dwattr $C$DW$920, DW_AT_location[DW_OP_regx 0x57]
   11695                    
   11696                    $C$DW$921       .dwtag  DW_TAG_TI_assign_register
   11697                            .dwattr $C$DW$921, DW_AT_name("D12")
   11698                            .dwattr $C$DW$921, DW_AT_location[DW_OP_regx 0x58]
   11699                    
   11700                    $C$DW$922       .dwtag  DW_TAG_TI_assign_register
   11701                            .dwattr $C$DW$922, DW_AT_name("D12_hi")
   11702                            .dwattr $C$DW$922, DW_AT_location[DW_OP_regx 0x59]
   11703                    
   11704                    $C$DW$923       .dwtag  DW_TAG_TI_assign_register
   11705                            .dwattr $C$DW$923, DW_AT_name("D13")
   11706                            .dwattr $C$DW$923, DW_AT_location[DW_OP_regx 0x5a]
   11707                    
   11708                    $C$DW$924       .dwtag  DW_TAG_TI_assign_register
   11709                            .dwattr $C$DW$924, DW_AT_name("D13_hi")
   11710                            .dwattr $C$DW$924, DW_AT_location[DW_OP_regx 0x5b]
   11711                    
   11712                    $C$DW$925       .dwtag  DW_TAG_TI_assign_register
   11713                            .dwattr $C$DW$925, DW_AT_name("D14")
   11714                            .dwattr $C$DW$925, DW_AT_location[DW_OP_regx 0x5c]
   11715                    
TI ARM Assembler PC v20.2.6 Mon Oct 31 23:16:56 2022

Copyright (c) 1996-2018 Texas Instruments Incorporated
system_msp432p401r.asm                                               PAGE  214

   11716                    $C$DW$926       .dwtag  DW_TAG_TI_assign_register
   11717                            .dwattr $C$DW$926, DW_AT_name("D14_hi")
   11718                            .dwattr $C$DW$926, DW_AT_location[DW_OP_regx 0x5d]
   11719                    
   11720                    $C$DW$927       .dwtag  DW_TAG_TI_assign_register
   11721                            .dwattr $C$DW$927, DW_AT_name("D15")
   11722                            .dwattr $C$DW$927, DW_AT_location[DW_OP_regx 0x5e]
   11723                    
   11724                    $C$DW$928       .dwtag  DW_TAG_TI_assign_register
   11725                            .dwattr $C$DW$928, DW_AT_name("D15_hi")
   11726                            .dwattr $C$DW$928, DW_AT_location[DW_OP_regx 0x5f]
   11727                    
   11728                    $C$DW$929       .dwtag  DW_TAG_TI_assign_register
   11729                            .dwattr $C$DW$929, DW_AT_name("FPEXC")
   11730                            .dwattr $C$DW$929, DW_AT_location[DW_OP_reg18]
   11731                    
   11732                    $C$DW$930       .dwtag  DW_TAG_TI_assign_register
   11733                            .dwattr $C$DW$930, DW_AT_name("FPSCR")
   11734                            .dwattr $C$DW$930, DW_AT_location[DW_OP_reg19]
   11735                    
   11736                            .dwendtag $C$DW$CU
   11737                    

--------------------------
Thumb2 Statistics
--------------------------
Number of Thumb2 ins converted to Thumb = 0 (0%)
Number of Thumb ins in input = 217 (71%)
Number of Thumb2 ins encoded as Thumb2 = 87 (100%)
Number of Thumb2 ins converted to 2 OPND Thumb = 2


No Assembly Errors, No Assembly Warnings
