TI ARM Assembler PC v20.2.6 Mon Oct 31 23:17:03 2022

Copyright (c) 1996-2018 Texas Instruments Incorporated
InputOutput.asm                                                      PAGE    1

       1                    ;******************************************************************************
       2                    ;* TI ARM G3 C/C++ Codegen                                              PC v20.2.6.LTS *
       3                    ;* Date/Time created: Mon Oct 31 23:17:02 2022                                *
       4                    ;******************************************************************************
       5                            .compiler_opts --abi=eabi --arm_vmrs_si_workaround=off --code_state=16 --diag_wrap=off --embed
       6 00000000                   .thumb
       7                    
       8                    $C$DW$CU        .dwtag  DW_TAG_compile_unit
       9                            .dwattr $C$DW$CU, DW_AT_name("../InputOutput.c")
      10                            .dwattr $C$DW$CU, DW_AT_producer("TI TI ARM G3 C/C++ Codegen PC v20.2.6.LTS Copyright (c) 1996
      11                            .dwattr $C$DW$CU, DW_AT_TI_version(0x01)
      12                            .dwattr $C$DW$CU, DW_AT_comp_dir("D:\Y2S1\SC2107 Lab\Lab1ref_InputOutput\Debug")
      13                    ;       C:\ti\ccs1200\ccs\tools\compiler\ti-cgt-arm_20.2.6.LTS\bin\armacpia.exe -@C:\\Users\\daych\\Ap
      14 00000000                   .sect   ".text"
      15                            .clink
      16                            .thumbfunc Port1_Init
      17 00000000                   .thumb
      18                            .global Port1_Init
      19                    
      20                    $C$DW$1 .dwtag  DW_TAG_subprogram
      21                            .dwattr $C$DW$1, DW_AT_name("Port1_Init")
      22                            .dwattr $C$DW$1, DW_AT_low_pc(Port1_Init)
      23                            .dwattr $C$DW$1, DW_AT_high_pc(0x00)
      24                            .dwattr $C$DW$1, DW_AT_TI_symbol_name("Port1_Init")
      25                            .dwattr $C$DW$1, DW_AT_external
      26                            .dwattr $C$DW$1, DW_AT_TI_begin_file("../InputOutput.c")
      27                            .dwattr $C$DW$1, DW_AT_TI_begin_line(0x4c)
      28                            .dwattr $C$DW$1, DW_AT_TI_begin_column(0x06)
      29                            .dwattr $C$DW$1, DW_AT_decl_file("../InputOutput.c")
      30                            .dwattr $C$DW$1, DW_AT_decl_line(0x4c)
      31                            .dwattr $C$DW$1, DW_AT_decl_column(0x06)
      32                            .dwattr $C$DW$1, DW_AT_TI_max_frame_size(0x00)
      33                            .dwpsn  file "../InputOutput.c",line 76,column 22,is_stmt,address Port1_Init,isa 1
      34                    
      35                            .dwfde $C$DW$CIE, Port1_Init
      36                    
      37                    ;*****************************************************************************
      38                    ;* FUNCTION NAME: Port1_Init                                                 *
      39                    ;*                                                                           *
      40                    ;*   Regs Modified     : A1,A2,SR                                            *
      41                    ;*   Regs Used         : A1,A2,LR,SR                                         *
      42                    ;*   Local Frame Size  : 0 Args + 0 Auto + 0 Save = 0 byte                   *
      43                    ;*****************************************************************************
      44 00000000           Port1_Init:
      45                    ;* --------------------------------------------------------------------------*
      46                            .dwcfi  cfa_offset, 0
      47                            .dwpsn  file "../InputOutput.c",line 77,column 3,is_stmt,isa 1
      48 00000000 4937              LDR       A2, $C$CON1           ; [DPU_V7M3_PIPE] |77|  ; [ORIG 16-BIT INS]
      49 00000002 2000              MOVS      A1, #0                ; [DPU_V7M3_PIPE] |77|  ; [ORIG 16-BIT INS]
      50 00000004 7008              STRB      A1, [A2, #0]          ; [DPU_V7M3_PIPE] |77|  ; [ORIG 16-BIT INS]
      51                            .dwpsn  file "../InputOutput.c",line 78,column 3,is_stmt,isa 1
      52 00000006 4937              LDR       A2, $C$CON2           ; [DPU_V7M3_PIPE] |78|  ; [ORIG 16-BIT INS]
      53 00000008 2000              MOVS      A1, #0                ; [DPU_V7M3_PIPE] |78|  ; [ORIG 16-BIT INS]
      54 0000000a 7008              STRB      A1, [A2, #0]          ; [DPU_V7M3_PIPE] |78|  ; [ORIG 16-BIT INS]
      55                            .dwpsn  file "../InputOutput.c",line 79,column 3,is_stmt,isa 1
TI ARM Assembler PC v20.2.6 Mon Oct 31 23:17:03 2022

Copyright (c) 1996-2018 Texas Instruments Incorporated
InputOutput.asm                                                      PAGE    2

      56 0000000c 4936              LDR       A2, $C$CON3           ; [DPU_V7M3_PIPE] |79|  ; [ORIG 16-BIT INS]
      57 0000000e 2001              MOVS      A1, #1                ; [DPU_V7M3_PIPE] |79|  ; [ORIG 16-BIT INS]
      58 00000010 7008              STRB      A1, [A2, #0]          ; [DPU_V7M3_PIPE] |79|  ; [ORIG 16-BIT INS]
      59                            .dwpsn  file "../InputOutput.c",line 80,column 3,is_stmt,isa 1
      60 00000012 4936              LDR       A2, $C$CON4           ; [DPU_V7M3_PIPE] |80|  ; [ORIG 16-BIT INS]
      61 00000014 2012              MOVS      A1, #18               ; [DPU_V7M3_PIPE] |80|  ; [ORIG 16-BIT INS]
      62 00000016 7008              STRB      A1, [A2, #0]          ; [DPU_V7M3_PIPE] |80|  ; [ORIG 16-BIT INS]
      63                            .dwpsn  file "../InputOutput.c",line 81,column 3,is_stmt,isa 1
      64 00000018 4935              LDR       A2, $C$CON5           ; [DPU_V7M3_PIPE] |81|  ; [ORIG 16-BIT INS]
      65 0000001a 2012              MOVS      A1, #18               ; [DPU_V7M3_PIPE] |81|  ; [ORIG 16-BIT INS]
      66 0000001c 7008              STRB      A1, [A2, #0]          ; [DPU_V7M3_PIPE] |81|  ; [ORIG 16-BIT INS]
      67                            .dwpsn  file "../InputOutput.c",line 82,column 1,is_stmt,isa 1
      68                    $C$DW$2 .dwtag  DW_TAG_TI_branch
      69                            .dwattr $C$DW$2, DW_AT_low_pc(0x00)
      70                            .dwattr $C$DW$2, DW_AT_TI_return
      71                    
      72 0000001e 4770              BX        LR                    ; [DPU_V7M3_PIPE]  ; [ORIG 16-BIT INS]
      73                            ; BRANCH OCCURS                  ; [] 
      74                            .dwattr $C$DW$1, DW_AT_TI_end_file("../InputOutput.c")
      75                            .dwattr $C$DW$1, DW_AT_TI_end_line(0x52)
      76                            .dwattr $C$DW$1, DW_AT_TI_end_column(0x01)
      77                            .dwendentry
      78                            .dwendtag $C$DW$1
      79                    
      80 00000020                   .sect   ".text"
      81                            .clink
      82                            .thumbfunc Port1_Input
      83 00000020                   .thumb
      84                            .global Port1_Input
      85                    
      86                    $C$DW$3 .dwtag  DW_TAG_subprogram
      87                            .dwattr $C$DW$3, DW_AT_name("Port1_Input")
      88                            .dwattr $C$DW$3, DW_AT_low_pc(Port1_Input)
      89                            .dwattr $C$DW$3, DW_AT_high_pc(0x00)
      90                            .dwattr $C$DW$3, DW_AT_TI_symbol_name("Port1_Input")
      91                            .dwattr $C$DW$3, DW_AT_external
      92                            .dwattr $C$DW$3, DW_AT_type(*$C$DW$T$22)
      93                            .dwattr $C$DW$3, DW_AT_TI_begin_file("../InputOutput.c")
      94                            .dwattr $C$DW$3, DW_AT_TI_begin_line(0x55)
      95                            .dwattr $C$DW$3, DW_AT_TI_begin_column(0x09)
      96                            .dwattr $C$DW$3, DW_AT_decl_file("../InputOutput.c")
      97                            .dwattr $C$DW$3, DW_AT_decl_line(0x55)
      98                            .dwattr $C$DW$3, DW_AT_decl_column(0x09)
      99                            .dwattr $C$DW$3, DW_AT_TI_max_frame_size(0x00)
     100                            .dwpsn  file "../InputOutput.c",line 85,column 26,is_stmt,address Port1_Input,isa 1
     101                    
     102                            .dwfde $C$DW$CIE, Port1_Input
     103                    
     104                    ;*****************************************************************************
     105                    ;* FUNCTION NAME: Port1_Input                                                *
     106                    ;*                                                                           *
     107                    ;*   Regs Modified     : A1                                                  *
     108                    ;*   Regs Used         : A1,LR                                               *
     109                    ;*   Local Frame Size  : 0 Args + 0 Auto + 0 Save = 0 byte                   *
     110                    ;*****************************************************************************
TI ARM Assembler PC v20.2.6 Mon Oct 31 23:17:03 2022

Copyright (c) 1996-2018 Texas Instruments Incorporated
InputOutput.asm                                                      PAGE    3

     111 00000020           Port1_Input:
     112                    ;* --------------------------------------------------------------------------*
     113                            .dwcfi  cfa_offset, 0
     114                            .dwpsn  file "../InputOutput.c",line 86,column 3,is_stmt,isa 1
     115 00000020 4834              LDR       A1, $C$CON6           ; [DPU_V7M3_PIPE] |86|  ; [ORIG 16-BIT INS]
     116 00000022 7800              LDRB      A1, [A1, #0]          ; [DPU_V7M3_PIPE] |86|  ; [ORIG 16-BIT INS]
     117 00000024 0012F000          AND       A1, A1, #18           ; [DPU_V7M3_PIPE] |86|  ; [KEEP 32-BIT INS]
     118                            .dwpsn  file "../InputOutput.c",line 87,column 1,is_stmt,isa 1
     119                    $C$DW$4 .dwtag  DW_TAG_TI_branch
     120                            .dwattr $C$DW$4, DW_AT_low_pc(0x00)
     121                            .dwattr $C$DW$4, DW_AT_TI_return
     122                    
     123 00000028 4770              BX        LR                    ; [DPU_V7M3_PIPE]  ; [ORIG 16-BIT INS]
     124                            ; BRANCH OCCURS                  ; [] 
     125                            .dwattr $C$DW$3, DW_AT_TI_end_file("../InputOutput.c")
     126                            .dwattr $C$DW$3, DW_AT_TI_end_line(0x57)
     127                            .dwattr $C$DW$3, DW_AT_TI_end_column(0x01)
     128                            .dwendentry
     129                            .dwendtag $C$DW$3
     130                    
     131 0000002a                   .sect   ".text"
     132                            .clink
     133                            .thumbfunc Port2_Init
     134 0000002a                   .thumb
     135                            .global Port2_Init
     136                    
     137                    $C$DW$5 .dwtag  DW_TAG_subprogram
     138                            .dwattr $C$DW$5, DW_AT_name("Port2_Init")
     139                            .dwattr $C$DW$5, DW_AT_low_pc(Port2_Init)
     140                            .dwattr $C$DW$5, DW_AT_high_pc(0x00)
     141                            .dwattr $C$DW$5, DW_AT_TI_symbol_name("Port2_Init")
     142                            .dwattr $C$DW$5, DW_AT_external
     143                            .dwattr $C$DW$5, DW_AT_TI_begin_file("../InputOutput.c")
     144                            .dwattr $C$DW$5, DW_AT_TI_begin_line(0x5a)
     145                            .dwattr $C$DW$5, DW_AT_TI_begin_column(0x06)
     146                            .dwattr $C$DW$5, DW_AT_decl_file("../InputOutput.c")
     147                            .dwattr $C$DW$5, DW_AT_decl_line(0x5a)
     148                            .dwattr $C$DW$5, DW_AT_decl_column(0x06)
     149                            .dwattr $C$DW$5, DW_AT_TI_max_frame_size(0x00)
     150                            .dwpsn  file "../InputOutput.c",line 90,column 22,is_stmt,address Port2_Init,isa 1
     151                    
     152                            .dwfde $C$DW$CIE, Port2_Init
     153                    
     154                    ;*****************************************************************************
     155                    ;* FUNCTION NAME: Port2_Init                                                 *
     156                    ;*                                                                           *
     157                    ;*   Regs Modified     : A1,A2,SR                                            *
     158                    ;*   Regs Used         : A1,A2,LR,SR                                         *
     159                    ;*   Local Frame Size  : 0 Args + 0 Auto + 0 Save = 0 byte                   *
     160                    ;*****************************************************************************
     161 0000002a           Port2_Init:
     162                    ;* --------------------------------------------------------------------------*
     163                            .dwcfi  cfa_offset, 0
     164                            .dwpsn  file "../InputOutput.c",line 91,column 3,is_stmt,isa 1
     165 0000002a 4933              LDR       A2, $C$CON7           ; [DPU_V7M3_PIPE] |91|  ; [ORIG 16-BIT INS]
TI ARM Assembler PC v20.2.6 Mon Oct 31 23:17:03 2022

Copyright (c) 1996-2018 Texas Instruments Incorporated
InputOutput.asm                                                      PAGE    4

     166 0000002c 2000              MOVS      A1, #0                ; [DPU_V7M3_PIPE] |91|  ; [ORIG 16-BIT INS]
     167 0000002e 7008              STRB      A1, [A2, #0]          ; [DPU_V7M3_PIPE] |91|  ; [ORIG 16-BIT INS]
     168                            .dwpsn  file "../InputOutput.c",line 92,column 3,is_stmt,isa 1
     169 00000030 4932              LDR       A2, $C$CON8           ; [DPU_V7M3_PIPE] |92|  ; [ORIG 16-BIT INS]
     170 00000032 2000              MOVS      A1, #0                ; [DPU_V7M3_PIPE] |92|  ; [ORIG 16-BIT INS]
     171 00000034 7008              STRB      A1, [A2, #0]          ; [DPU_V7M3_PIPE] |92|  ; [ORIG 16-BIT INS]
     172                            .dwpsn  file "../InputOutput.c",line 93,column 3,is_stmt,isa 1
     173 00000036 4932              LDR       A2, $C$CON9           ; [DPU_V7M3_PIPE] |93|  ; [ORIG 16-BIT INS]
     174 00000038 2007              MOVS      A1, #7                ; [DPU_V7M3_PIPE] |93|  ; [ORIG 16-BIT INS]
     175 0000003a 7008              STRB      A1, [A2, #0]          ; [DPU_V7M3_PIPE] |93|  ; [ORIG 16-BIT INS]
     176                            .dwpsn  file "../InputOutput.c",line 94,column 3,is_stmt,isa 1
     177 0000003c 4931              LDR       A2, $C$CON10          ; [DPU_V7M3_PIPE] |94|  ; [ORIG 16-BIT INS]
     178 0000003e 2007              MOVS      A1, #7                ; [DPU_V7M3_PIPE] |94|  ; [ORIG 16-BIT INS]
     179 00000040 7008              STRB      A1, [A2, #0]          ; [DPU_V7M3_PIPE] |94|  ; [ORIG 16-BIT INS]
     180                            .dwpsn  file "../InputOutput.c",line 95,column 3,is_stmt,isa 1
     181 00000042 4931              LDR       A2, $C$CON11          ; [DPU_V7M3_PIPE] |95|  ; [ORIG 16-BIT INS]
     182 00000044 2000              MOVS      A1, #0                ; [DPU_V7M3_PIPE] |95|  ; [ORIG 16-BIT INS]
     183 00000046 7008              STRB      A1, [A2, #0]          ; [DPU_V7M3_PIPE] |95|  ; [ORIG 16-BIT INS]
     184                            .dwpsn  file "../InputOutput.c",line 96,column 1,is_stmt,isa 1
     185                    $C$DW$6 .dwtag  DW_TAG_TI_branch
     186                            .dwattr $C$DW$6, DW_AT_low_pc(0x00)
     187                            .dwattr $C$DW$6, DW_AT_TI_return
     188                    
     189 00000048 4770              BX        LR                    ; [DPU_V7M3_PIPE]  ; [ORIG 16-BIT INS]
     190                            ; BRANCH OCCURS                  ; [] 
     191                            .dwattr $C$DW$5, DW_AT_TI_end_file("../InputOutput.c")
     192                            .dwattr $C$DW$5, DW_AT_TI_end_line(0x60)
     193                            .dwattr $C$DW$5, DW_AT_TI_end_column(0x01)
     194                            .dwendentry
     195                            .dwendtag $C$DW$5
     196                    
     197 0000004a                   .sect   ".text"
     198                            .clink
     199                            .thumbfunc Port1_Output
     200 0000004a                   .thumb
     201                            .global Port1_Output
     202                    
     203                    $C$DW$7 .dwtag  DW_TAG_subprogram
     204                            .dwattr $C$DW$7, DW_AT_name("Port1_Output")
     205                            .dwattr $C$DW$7, DW_AT_low_pc(Port1_Output)
     206                            .dwattr $C$DW$7, DW_AT_high_pc(0x00)
     207                            .dwattr $C$DW$7, DW_AT_TI_symbol_name("Port1_Output")
     208                            .dwattr $C$DW$7, DW_AT_external
     209                            .dwattr $C$DW$7, DW_AT_TI_begin_file("../InputOutput.c")
     210                            .dwattr $C$DW$7, DW_AT_TI_begin_line(0x63)
     211                            .dwattr $C$DW$7, DW_AT_TI_begin_column(0x06)
     212                            .dwattr $C$DW$7, DW_AT_decl_file("../InputOutput.c")
     213                            .dwattr $C$DW$7, DW_AT_decl_line(0x63)
     214                            .dwattr $C$DW$7, DW_AT_decl_column(0x06)
     215                            .dwattr $C$DW$7, DW_AT_TI_max_frame_size(0x08)
     216                            .dwpsn  file "../InputOutput.c",line 99,column 32,is_stmt,address Port1_Output,isa 1
     217                    
     218                            .dwfde $C$DW$CIE, Port1_Output
     219                    $C$DW$8 .dwtag  DW_TAG_formal_parameter
     220                            .dwattr $C$DW$8, DW_AT_name("data")
TI ARM Assembler PC v20.2.6 Mon Oct 31 23:17:03 2022

Copyright (c) 1996-2018 Texas Instruments Incorporated
InputOutput.asm                                                      PAGE    5

     221                            .dwattr $C$DW$8, DW_AT_TI_symbol_name("data")
     222                            .dwattr $C$DW$8, DW_AT_type(*$C$DW$T$10)
     223                            .dwattr $C$DW$8, DW_AT_location[DW_OP_reg0]
     224                    
     225                    
     226                    ;*****************************************************************************
     227                    ;* FUNCTION NAME: Port1_Output                                               *
     228                    ;*                                                                           *
     229                    ;*   Regs Modified     : A1,A2,A3,SP,SR                                      *
     230                    ;*   Regs Used         : A1,A2,A3,SP,LR,SR                                   *
     231                    ;*   Local Frame Size  : 0 Args + 4 Auto + 0 Save = 4 byte                   *
     232                    ;*****************************************************************************
     233 0000004a           Port1_Output:
     234                    ;* --------------------------------------------------------------------------*
     235                            .dwcfi  cfa_offset, 0
     236 0000004a 0D08F1AD          SUB       SP, SP, #8            ; [DPU_V7M3_PIPE]  ; [KEEP 32-BIT INS]
     237                            .dwcfi  cfa_offset, 8
     238                    $C$DW$9 .dwtag  DW_TAG_variable
     239                            .dwattr $C$DW$9, DW_AT_name("data")
     240                            .dwattr $C$DW$9, DW_AT_TI_symbol_name("data")
     241                            .dwattr $C$DW$9, DW_AT_type(*$C$DW$T$22)
     242                            .dwattr $C$DW$9, DW_AT_location[DW_OP_breg13 0]
     243                    
     244 0000004e 0000F88D          STRB      A1, [SP, #0]          ; [DPU_V7M3_PIPE] |99|  ; [KEEP 32-BIT INS]
     245                            .dwpsn  file "../InputOutput.c",line 100,column 3,is_stmt,isa 1
     246 00000052 4827              LDR       A1, $C$CON5           ; [DPU_V7M3_PIPE] |100|  ; [ORIG 16-BIT INS]
     247 00000054 4A26              LDR       A3, $C$CON5           ; [DPU_V7M3_PIPE] |100|  ; [ORIG 16-BIT INS]
     248 00000056 1000F89D          LDRB      A2, [SP, #0]          ; [DPU_V7M3_PIPE] |100|  ; [KEEP 32-BIT INS]
     249 0000005a 7800              LDRB      A1, [A1, #0]          ; [DPU_V7M3_PIPE] |100|  ; [ORIG 16-BIT INS]
     250 0000005c 00FEF000          AND       A1, A1, #254          ; [DPU_V7M3_PIPE] |100|  ; [KEEP 32-BIT INS]
     251 00000060 4301              ORRS      A2, A2, A1            ; [DPU_V7M3_PIPE] |100|  ; [ORIG 16-BIT INS]
     252 00000062 7011              STRB      A2, [A3, #0]          ; [DPU_V7M3_PIPE] |100|  ; [ORIG 16-BIT INS]
     253                            .dwpsn  file "../InputOutput.c",line 101,column 1,is_stmt,isa 1
     254 00000064 B002              ADD       SP, SP, #8            ; [DPU_V7M3_PIPE]  ; [ORIG 16-BIT INS]
     255                            .dwcfi  cfa_offset, 0
     256                    $C$DW$10        .dwtag  DW_TAG_TI_branch
     257                            .dwattr $C$DW$10, DW_AT_low_pc(0x00)
     258                            .dwattr $C$DW$10, DW_AT_TI_return
     259                    
     260 00000066 4770              BX        LR                    ; [DPU_V7M3_PIPE]  ; [ORIG 16-BIT INS]
     261                            ; BRANCH OCCURS                  ; [] 
     262                            .dwattr $C$DW$7, DW_AT_TI_end_file("../InputOutput.c")
     263                            .dwattr $C$DW$7, DW_AT_TI_end_line(0x65)
     264                            .dwattr $C$DW$7, DW_AT_TI_end_column(0x01)
     265                            .dwendentry
     266                            .dwendtag $C$DW$7
     267                    
     268 00000068                   .sect   ".text"
     269                            .clink
     270                            .thumbfunc Port2_Output
     271 00000068                   .thumb
     272                            .global Port2_Output
     273                    
     274                    $C$DW$11        .dwtag  DW_TAG_subprogram
     275                            .dwattr $C$DW$11, DW_AT_name("Port2_Output")
TI ARM Assembler PC v20.2.6 Mon Oct 31 23:17:03 2022

Copyright (c) 1996-2018 Texas Instruments Incorporated
InputOutput.asm                                                      PAGE    6

     276                            .dwattr $C$DW$11, DW_AT_low_pc(Port2_Output)
     277                            .dwattr $C$DW$11, DW_AT_high_pc(0x00)
     278                            .dwattr $C$DW$11, DW_AT_TI_symbol_name("Port2_Output")
     279                            .dwattr $C$DW$11, DW_AT_external
     280                            .dwattr $C$DW$11, DW_AT_TI_begin_file("../InputOutput.c")
     281                            .dwattr $C$DW$11, DW_AT_TI_begin_line(0x68)
     282                            .dwattr $C$DW$11, DW_AT_TI_begin_column(0x06)
     283                            .dwattr $C$DW$11, DW_AT_decl_file("../InputOutput.c")
     284                            .dwattr $C$DW$11, DW_AT_decl_line(0x68)
     285                            .dwattr $C$DW$11, DW_AT_decl_column(0x06)
     286                            .dwattr $C$DW$11, DW_AT_TI_max_frame_size(0x08)
     287                            .dwpsn  file "../InputOutput.c",line 104,column 32,is_stmt,address Port2_Output,isa 1
     288                    
     289                            .dwfde $C$DW$CIE, Port2_Output
     290                    $C$DW$12        .dwtag  DW_TAG_formal_parameter
     291                            .dwattr $C$DW$12, DW_AT_name("data")
     292                            .dwattr $C$DW$12, DW_AT_TI_symbol_name("data")
     293                            .dwattr $C$DW$12, DW_AT_type(*$C$DW$T$10)
     294                            .dwattr $C$DW$12, DW_AT_location[DW_OP_reg0]
     295                    
     296                    
     297                    ;*****************************************************************************
     298                    ;* FUNCTION NAME: Port2_Output                                               *
     299                    ;*                                                                           *
     300                    ;*   Regs Modified     : A1,A2,SP                                            *
     301                    ;*   Regs Used         : A1,A2,SP,LR                                         *
     302                    ;*   Local Frame Size  : 0 Args + 4 Auto + 0 Save = 4 byte                   *
     303                    ;*****************************************************************************
     304 00000068           Port2_Output:
     305                    ;* --------------------------------------------------------------------------*
     306                            .dwcfi  cfa_offset, 0
     307 00000068 0D08F1AD          SUB       SP, SP, #8            ; [DPU_V7M3_PIPE]  ; [KEEP 32-BIT INS]
     308                            .dwcfi  cfa_offset, 8
     309                    $C$DW$13        .dwtag  DW_TAG_variable
     310                            .dwattr $C$DW$13, DW_AT_name("data")
     311                            .dwattr $C$DW$13, DW_AT_TI_symbol_name("data")
     312                            .dwattr $C$DW$13, DW_AT_type(*$C$DW$T$22)
     313                            .dwattr $C$DW$13, DW_AT_location[DW_OP_breg13 0]
     314                    
     315 0000006c 0000F88D          STRB      A1, [SP, #0]          ; [DPU_V7M3_PIPE] |104|  ; [KEEP 32-BIT INS]
     316                            .dwpsn  file "../InputOutput.c",line 105,column 3,is_stmt,isa 1
     317 00000070 4925              LDR       A2, $C$CON11          ; [DPU_V7M3_PIPE] |105|  ; [ORIG 16-BIT INS]
     318 00000072 0000F89D          LDRB      A1, [SP, #0]          ; [DPU_V7M3_PIPE] |105|  ; [KEEP 32-BIT INS]
     319 00000076 7008              STRB      A1, [A2, #0]          ; [DPU_V7M3_PIPE] |105|  ; [ORIG 16-BIT INS]
     320                            .dwpsn  file "../InputOutput.c",line 106,column 1,is_stmt,isa 1
     321 00000078 B002              ADD       SP, SP, #8            ; [DPU_V7M3_PIPE]  ; [ORIG 16-BIT INS]
     322                            .dwcfi  cfa_offset, 0
     323                    $C$DW$14        .dwtag  DW_TAG_TI_branch
     324                            .dwattr $C$DW$14, DW_AT_low_pc(0x00)
     325                            .dwattr $C$DW$14, DW_AT_TI_return
     326                    
     327 0000007a 4770              BX        LR                    ; [DPU_V7M3_PIPE]  ; [ORIG 16-BIT INS]
     328                            ; BRANCH OCCURS                  ; [] 
     329                            .dwattr $C$DW$11, DW_AT_TI_end_file("../InputOutput.c")
     330                            .dwattr $C$DW$11, DW_AT_TI_end_line(0x6a)
TI ARM Assembler PC v20.2.6 Mon Oct 31 23:17:03 2022

Copyright (c) 1996-2018 Texas Instruments Incorporated
InputOutput.asm                                                      PAGE    7

     331                            .dwattr $C$DW$11, DW_AT_TI_end_column(0x01)
     332                            .dwendentry
     333                            .dwendtag $C$DW$11
     334                    
     335 0000007c                   .sect   ".text"
     336                            .clink
     337                            .thumbfunc main
     338 0000007c                   .thumb
     339                            .global main
     340                    
     341                    $C$DW$15        .dwtag  DW_TAG_subprogram
     342                            .dwattr $C$DW$15, DW_AT_name("main")
     343                            .dwattr $C$DW$15, DW_AT_low_pc(main)
     344                            .dwattr $C$DW$15, DW_AT_high_pc(0x00)
     345                            .dwattr $C$DW$15, DW_AT_TI_symbol_name("main")
     346                            .dwattr $C$DW$15, DW_AT_external
     347                            .dwattr $C$DW$15, DW_AT_type(*$C$DW$T$10)
     348                            .dwattr $C$DW$15, DW_AT_TI_begin_file("../InputOutput.c")
     349                            .dwattr $C$DW$15, DW_AT_TI_begin_line(0x6c)
     350                            .dwattr $C$DW$15, DW_AT_TI_begin_column(0x05)
     351                            .dwattr $C$DW$15, DW_AT_decl_file("../InputOutput.c")
     352                            .dwattr $C$DW$15, DW_AT_decl_line(0x6c)
     353                            .dwattr $C$DW$15, DW_AT_decl_column(0x05)
     354                            .dwattr $C$DW$15, DW_AT_TI_max_frame_size(0x08)
     355                            .dwpsn  file "../InputOutput.c",line 108,column 15,is_stmt,address main,isa 1
     356                    
     357                            .dwfde $C$DW$CIE, main
     358                    
     359                    ;*****************************************************************************
     360                    ;* FUNCTION NAME: main                                                       *
     361                    ;*                                                                           *
     362                    ;*   Regs Modified     : A1,A2,A3,A4,SP,LR,SR,FPEXC,FPSCR                    *
     363                    ;*   Regs Used         : A1,A2,A3,A4,SP,LR,SR,FPEXC,FPSCR                    *
     364                    ;*   Local Frame Size  : 0 Args + 4 Auto + 4 Save = 8 byte                   *
     365                    ;*****************************************************************************
     366 0000007c           main:
     367                    ;* --------------------------------------------------------------------------*
     368                            .dwcfi  cfa_offset, 0
     369 0000007c B508              PUSH      {A4, LR}              ; [DPU_V7M3_PIPE]  ; [ORIG 16-BIT INS]
     370                            .dwcfi  cfa_offset, 8
     371                            .dwcfi  save_reg_to_mem, 14, -4
     372                            .dwcfi  save_reg_to_mem, 3, -8
     373                    $C$DW$16        .dwtag  DW_TAG_variable
     374                            .dwattr $C$DW$16, DW_AT_name("status")
     375                            .dwattr $C$DW$16, DW_AT_TI_symbol_name("status")
     376                            .dwattr $C$DW$16, DW_AT_type(*$C$DW$T$22)
     377                            .dwattr $C$DW$16, DW_AT_location[DW_OP_breg13 0]
     378                    
     379                            .dwpsn  file "../InputOutput.c",line 110,column 3,is_stmt,isa 1
     380                    $C$DW$17        .dwtag  DW_TAG_TI_branch
     381                            .dwattr $C$DW$17, DW_AT_low_pc(0x00)
     382                            .dwattr $C$DW$17, DW_AT_name("Port1_Init")
     383                            .dwattr $C$DW$17, DW_AT_TI_call
     384                    
     385 0000007e FFFEF7FF!         BL        Port1_Init            ; [DPU_V7M3_PIPE] |110|  ; [KEEP 32-BIT INS]
TI ARM Assembler PC v20.2.6 Mon Oct 31 23:17:03 2022

Copyright (c) 1996-2018 Texas Instruments Incorporated
InputOutput.asm                                                      PAGE    8

     386                            ; CALL OCCURS {Port1_Init }      ; [] |110| 
     387                            .dwpsn  file "../InputOutput.c",line 112,column 3,is_stmt,isa 1
     388                    $C$DW$18        .dwtag  DW_TAG_TI_branch
     389                            .dwattr $C$DW$18, DW_AT_low_pc(0x00)
     390                            .dwattr $C$DW$18, DW_AT_name("Port2_Init")
     391                            .dwattr $C$DW$18, DW_AT_TI_call
     392                    
     393 00000082 FFFEF7FF!         BL        Port2_Init            ; [DPU_V7M3_PIPE] |112|  ; [KEEP 32-BIT INS]
     394                            ; CALL OCCURS {Port2_Init }      ; [] |112| 
     395                            .dwpsn  file "../InputOutput.c",line 113,column 9,is_stmt,isa 1
     396                    ;* --------------------------------------------------------------------------*
     397                    ;*   BEGIN LOOP ||$C$L1||
     398                    ;*
     399                    ;*   Loop source line                : 113
     400                    ;*   Loop closing brace source line  : 133
     401                    ;*   Known Minimum Trip Count        : 1
     402                    ;*   Known Maximum Trip Count        : 4294967295
     403                    ;*   Known Max Trip Count Factor     : 1
     404                    ;* --------------------------------------------------------------------------*
     405 00000086           ||$C$L1||:    
     406                            .dwpsn  file "../InputOutput.c",line 114,column 5,is_stmt,isa 1
     407                    $C$DW$19        .dwtag  DW_TAG_TI_branch
     408                            .dwattr $C$DW$19, DW_AT_low_pc(0x00)
     409                            .dwattr $C$DW$19, DW_AT_name("Port1_Input")
     410                            .dwattr $C$DW$19, DW_AT_TI_call
     411                    
     412 00000086 FFFEF7FF!         BL        Port1_Input           ; [DPU_V7M3_PIPE] |114|  ; [KEEP 32-BIT INS]
     413                            ; CALL OCCURS {Port1_Input }     ; [] |114| 
     414 0000008a 0000F88D          STRB      A1, [SP, #0]          ; [DPU_V7M3_PIPE] |114|  ; [KEEP 32-BIT INS]
     415                            .dwpsn  file "../InputOutput.c",line 115,column 5,is_stmt,isa 1
     416 0000008e E01B              B         ||$C$L6||             ; [DPU_V7M3_PIPE] |115|  ; [ORIG 16-BIT INS]
     417                            ; BRANCH OCCURS {||$C$L6||}      ; [] |115| 
     418                    ;* --------------------------------------------------------------------------*
     419 00000090           ||$C$L2||:    
     420                            .dwpsn  file "../InputOutput.c",line 117,column 9,is_stmt,isa 1
     421 00000090 2004              MOVS      A1, #4                ; [DPU_V7M3_PIPE] |117|  ; [ORIG 16-BIT INS]
     422                    $C$DW$20        .dwtag  DW_TAG_TI_branch
     423                            .dwattr $C$DW$20, DW_AT_low_pc(0x00)
     424                            .dwattr $C$DW$20, DW_AT_name("Port2_Output")
     425                            .dwattr $C$DW$20, DW_AT_TI_call
     426                    
     427 00000092 FFFEF7FF!         BL        Port2_Output          ; [DPU_V7M3_PIPE] |117|  ; [KEEP 32-BIT INS]
     428                            ; CALL OCCURS {Port2_Output }    ; [] |117| 
     429                            .dwpsn  file "../InputOutput.c",line 118,column 9,is_stmt,isa 1
     430 00000096 2001              MOVS      A1, #1                ; [DPU_V7M3_PIPE] |118|  ; [ORIG 16-BIT INS]
     431                    $C$DW$21        .dwtag  DW_TAG_TI_branch
     432                            .dwattr $C$DW$21, DW_AT_low_pc(0x00)
     433                            .dwattr $C$DW$21, DW_AT_name("Port1_Output")
     434                            .dwattr $C$DW$21, DW_AT_TI_call
     435                    
     436 00000098 FFFEF7FF!         BL        Port1_Output          ; [DPU_V7M3_PIPE] |118|  ; [KEEP 32-BIT INS]
     437                            ; CALL OCCURS {Port1_Output }    ; [] |118| 
     438                            .dwpsn  file "../InputOutput.c",line 119,column 9,is_stmt,isa 1
     439 0000009c E7F3              B         ||$C$L1||             ; [DPU_V7M3_PIPE] |119|  ; [ORIG 16-BIT INS]
     440                            ; BRANCH OCCURS {||$C$L1||}      ; [] |119| 
TI ARM Assembler PC v20.2.6 Mon Oct 31 23:17:03 2022

Copyright (c) 1996-2018 Texas Instruments Incorporated
InputOutput.asm                                                      PAGE    9

     441                    ;* --------------------------------------------------------------------------*
     442 0000009e           ||$C$L3||:    
     443                            .dwpsn  file "../InputOutput.c",line 121,column 9,is_stmt,isa 1
     444 0000009e 2001              MOVS      A1, #1                ; [DPU_V7M3_PIPE] |121|  ; [ORIG 16-BIT INS]
     445                    $C$DW$22        .dwtag  DW_TAG_TI_branch
     446                            .dwattr $C$DW$22, DW_AT_low_pc(0x00)
     447                            .dwattr $C$DW$22, DW_AT_name("Port2_Output")
     448                            .dwattr $C$DW$22, DW_AT_TI_call
     449                    
     450 000000a0 FFFEF7FF!         BL        Port2_Output          ; [DPU_V7M3_PIPE] |121|  ; [KEEP 32-BIT INS]
     451                            ; CALL OCCURS {Port2_Output }    ; [] |121| 
     452                            .dwpsn  file "../InputOutput.c",line 122,column 9,is_stmt,isa 1
     453 000000a4 2001              MOVS      A1, #1                ; [DPU_V7M3_PIPE] |122|  ; [ORIG 16-BIT INS]
     454                    $C$DW$23        .dwtag  DW_TAG_TI_branch
     455                            .dwattr $C$DW$23, DW_AT_low_pc(0x00)
     456                            .dwattr $C$DW$23, DW_AT_name("Port1_Output")
     457                            .dwattr $C$DW$23, DW_AT_TI_call
     458                    
     459 000000a6 FFFEF7FF!         BL        Port1_Output          ; [DPU_V7M3_PIPE] |122|  ; [KEEP 32-BIT INS]
     460                            ; CALL OCCURS {Port1_Output }    ; [] |122| 
     461                            .dwpsn  file "../InputOutput.c",line 123,column 9,is_stmt,isa 1
     462 000000aa E7EC              B         ||$C$L1||             ; [DPU_V7M3_PIPE] |123|  ; [ORIG 16-BIT INS]
     463                            ; BRANCH OCCURS {||$C$L1||}      ; [] |123| 
     464                    ;* --------------------------------------------------------------------------*
     465 000000ac           ||$C$L4||:    
     466                            .dwpsn  file "../InputOutput.c",line 125,column 9,is_stmt,isa 1
     467 000000ac 2005              MOVS      A1, #5                ; [DPU_V7M3_PIPE] |125|  ; [ORIG 16-BIT INS]
     468                    $C$DW$24        .dwtag  DW_TAG_TI_branch
     469                            .dwattr $C$DW$24, DW_AT_low_pc(0x00)
     470                            .dwattr $C$DW$24, DW_AT_name("Port2_Output")
     471                            .dwattr $C$DW$24, DW_AT_TI_call
     472                    
     473 000000ae FFFEF7FF!         BL        Port2_Output          ; [DPU_V7M3_PIPE] |125|  ; [KEEP 32-BIT INS]
     474                            ; CALL OCCURS {Port2_Output }    ; [] |125| 
     475                            .dwpsn  file "../InputOutput.c",line 126,column 9,is_stmt,isa 1
     476 000000b2 2001              MOVS      A1, #1                ; [DPU_V7M3_PIPE] |126|  ; [ORIG 16-BIT INS]
     477                    $C$DW$25        .dwtag  DW_TAG_TI_branch
     478                            .dwattr $C$DW$25, DW_AT_low_pc(0x00)
     479                            .dwattr $C$DW$25, DW_AT_name("Port1_Output")
     480                            .dwattr $C$DW$25, DW_AT_TI_call
     481                    
     482 000000b4 FFFEF7FF!         BL        Port1_Output          ; [DPU_V7M3_PIPE] |126|  ; [KEEP 32-BIT INS]
     483                            ; CALL OCCURS {Port1_Output }    ; [] |126| 
     484                            .dwpsn  file "../InputOutput.c",line 127,column 9,is_stmt,isa 1
     485 000000b8 E7E5              B         ||$C$L1||             ; [DPU_V7M3_PIPE] |127|  ; [ORIG 16-BIT INS]
     486                            ; BRANCH OCCURS {||$C$L1||}      ; [] |127| 
     487                    ;* --------------------------------------------------------------------------*
     488 000000ba           ||$C$L5||:    
     489                            .dwpsn  file "../InputOutput.c",line 129,column 9,is_stmt,isa 1
     490 000000ba 2000              MOVS      A1, #0                ; [DPU_V7M3_PIPE] |129|  ; [ORIG 16-BIT INS]
     491                    $C$DW$26        .dwtag  DW_TAG_TI_branch
     492                            .dwattr $C$DW$26, DW_AT_low_pc(0x00)
     493                            .dwattr $C$DW$26, DW_AT_name("Port2_Output")
     494                            .dwattr $C$DW$26, DW_AT_TI_call
     495                    
TI ARM Assembler PC v20.2.6 Mon Oct 31 23:17:03 2022

Copyright (c) 1996-2018 Texas Instruments Incorporated
InputOutput.asm                                                      PAGE   10

     496 000000bc FFFEF7FF!         BL        Port2_Output          ; [DPU_V7M3_PIPE] |129|  ; [KEEP 32-BIT INS]
     497                            ; CALL OCCURS {Port2_Output }    ; [] |129| 
     498                            .dwpsn  file "../InputOutput.c",line 130,column 9,is_stmt,isa 1
     499 000000c0 2000              MOVS      A1, #0                ; [DPU_V7M3_PIPE] |130|  ; [ORIG 16-BIT INS]
     500                    $C$DW$27        .dwtag  DW_TAG_TI_branch
     501                            .dwattr $C$DW$27, DW_AT_low_pc(0x00)
     502                            .dwattr $C$DW$27, DW_AT_name("Port1_Output")
     503                            .dwattr $C$DW$27, DW_AT_TI_call
     504                    
     505 000000c2 FFFEF7FF!         BL        Port1_Output          ; [DPU_V7M3_PIPE] |130|  ; [KEEP 32-BIT INS]
     506                            ; CALL OCCURS {Port1_Output }    ; [] |130| 
     507                            .dwpsn  file "../InputOutput.c",line 131,column 9,is_stmt,isa 1
     508 000000c6 E7DE              B         ||$C$L1||             ; [DPU_V7M3_PIPE] |131|  ; [ORIG 16-BIT INS]
     509                            ; BRANCH OCCURS {||$C$L1||}      ; [] |131| 
     510                    ;* --------------------------------------------------------------------------*
     511                    ;* --------------------------------------------------------------------------*
     512 000000c8           ||$C$L6||:    
     513                            .dwpsn  file "../InputOutput.c",line 115,column 5,is_stmt,isa 1
     514 000000c8 0000F89D          LDRB      A1, [SP, #0]          ; [DPU_V7M3_PIPE] |115|  ; [KEEP 32-BIT INS]
     515 000000cc 2800              CMP       A1, #0                ; [DPU_V7M3_PIPE] |115|  ; [ORIG 16-BIT INS]
     516 000000ce D0ED              BEQ       ||$C$L4||             ; [DPU_V7M3_PIPE] |115|  ; [ORIG 16-BIT INS]
     517                            ; BRANCHCC OCCURS {||$C$L4||}    ; [] |115| 
     518                    ;* --------------------------------------------------------------------------*
     519 000000d0 1E80              SUBS      A1, A1, #2            ; [DPU_V7M3_PIPE] |115|  ; [ORIG 16-BIT INS]
     520 000000d2 D0E4              BEQ       ||$C$L3||             ; [DPU_V7M3_PIPE] |115|  ; [ORIG 16-BIT INS]
     521                            ; BRANCHCC OCCURS {||$C$L3||}    ; [] |115| 
     522                    ;* --------------------------------------------------------------------------*
     523 000000d4 380E              SUBS      A1, A1, #14           ; [DPU_V7M3_PIPE] |115|  ; [ORIG 16-BIT INS]
     524 000000d6 D0DB              BEQ       ||$C$L2||             ; [DPU_V7M3_PIPE] |115|  ; [ORIG 16-BIT INS]
     525                            ; BRANCHCC OCCURS {||$C$L2||}    ; [] |115| 
     526                    ;* --------------------------------------------------------------------------*
     527 000000d8 1E80              SUBS      A1, A1, #2            ; [DPU_V7M3_PIPE] |115|  ; [ORIG 16-BIT INS]
     528 000000da D0EE              BEQ       ||$C$L5||             ; [DPU_V7M3_PIPE] |115|  ; [ORIG 16-BIT INS]
     529                            ; BRANCHCC OCCURS {||$C$L5||}    ; [] |115| 
     530                    ;* --------------------------------------------------------------------------*
     531 000000dc E7D3              B         ||$C$L1||             ; [DPU_V7M3_PIPE] |115|  ; [ORIG 16-BIT INS]
     532                            ; BRANCH OCCURS {||$C$L1||}      ; [] |115| 
     533                    ;* --------------------------------------------------------------------------*
     534                            .dwattr $C$DW$15, DW_AT_TI_end_file("../InputOutput.c")
     535                            .dwattr $C$DW$15, DW_AT_TI_end_line(0x86)
     536                            .dwattr $C$DW$15, DW_AT_TI_end_column(0x01)
     537                            .dwendentry
     538                            .dwendtag $C$DW$15
     539                    
     540                    ;******************************************************************************
     541                    ;* CONSTANT TABLE                                                             *
     542                    ;******************************************************************************
     543 000000de                   .sect   ".text"
     544                            .align  4
     545 000000de 4C0A46C0  ||$C$CON1||:    .bits           0x40004c0a,32
         000000e2 00004000 
     546                    
     547                            .align  4
     548 000000e2 4C0C4000  ||$C$CON2||:    .bits           0x40004c0c,32
         000000e6 00004000 
TI ARM Assembler PC v20.2.6 Mon Oct 31 23:17:03 2022

Copyright (c) 1996-2018 Texas Instruments Incorporated
InputOutput.asm                                                      PAGE   11

     549                    
     550                            .align  4
     551 000000e6 4C044000  ||$C$CON3||:    .bits           0x40004c04,32
         000000ea 00004000 
     552                    
     553                            .align  4
     554 000000ea 4C064000  ||$C$CON4||:    .bits           0x40004c06,32
         000000ee 00004000 
     555                    
     556                            .align  4
     557 000000ee 4C024000  ||$C$CON5||:    .bits           0x40004c02,32
         000000f2 00004000 
     558                    
     559                            .align  4
     560 000000f2 4C004000  ||$C$CON6||:    .bits           0x40004c00,32
         000000f6 00004000 
     561                    
     562                            .align  4
     563 000000f6 4C0B4000  ||$C$CON7||:    .bits           0x40004c0b,32
         000000fa 00004000 
     564                    
     565                            .align  4
     566 000000fa 4C0D4000  ||$C$CON8||:    .bits           0x40004c0d,32
         000000fe 00004000 
     567                    
     568                            .align  4
     569 000000fe 4C094000  ||$C$CON9||:    .bits           0x40004c09,32
         00000102 00004000 
     570                    
     571                            .align  4
     572 00000102 4C054000  ||$C$CON10||:   .bits           0x40004c05,32
         00000106 00004000 
     573                    
     574                            .align  4
     575 00000106 4C034000  ||$C$CON11||:   .bits           0x40004c03,32
         0000010a 00004000 
     576                    
     577                    
     578                    ;******************************************************************************
     579                    ;* BUILD ATTRIBUTES                                                           *
     580                    ;******************************************************************************
     581                            .battr "TI", Tag_File, 1, Tag_LPM_INFO(1)
     582                            .battr "TI", Tag_File, 1, Tag_PORTS_INIT_INFO("012345678901ABCDEFGHIJ0111111111100000000000000
     583                            .battr "aeabi", Tag_File, 1, Tag_ABI_PCS_wchar_t(2)
     584                            .battr "aeabi", Tag_File, 1, Tag_ABI_FP_rounding(0)
     585                            .battr "aeabi", Tag_File, 1, Tag_ABI_FP_denormal(0)
     586                            .battr "aeabi", Tag_File, 1, Tag_ABI_FP_exceptions(0)
     587                            .battr "aeabi", Tag_File, 1, Tag_ABI_FP_number_model(1)
     588                            .battr "aeabi", Tag_File, 1, Tag_ABI_enum_size(1)
     589                            .battr "aeabi", Tag_File, 1, Tag_ABI_optimization_goals(5)
     590                            .battr "aeabi", Tag_File, 1, Tag_ABI_FP_optimization_goals(0)
     591                            .battr "TI", Tag_File, 1, Tag_Bitfield_layout(0)
     592                            .battr "aeabi", Tag_File, 1, Tag_ABI_VFP_args(3)
     593                            .battr "TI", Tag_File, 1, Tag_FP_interface(1)
     594                    
TI ARM Assembler PC v20.2.6 Mon Oct 31 23:17:03 2022

Copyright (c) 1996-2018 Texas Instruments Incorporated
InputOutput.asm                                                      PAGE   12

     595                    ;******************************************************************************
     596                    ;* TYPE INFORMATION                                                           *
     597                    ;******************************************************************************
     598                    
     599                    $C$DW$T$29      .dwtag  DW_TAG_structure_type
     600                            .dwattr $C$DW$T$29, DW_AT_byte_size(0x1e)
     601                    $C$DW$28        .dwtag  DW_TAG_member
     602                            .dwattr $C$DW$28, DW_AT_type(*$C$DW$T$23)
     603                            .dwattr $C$DW$28, DW_AT_name("IN")
     604                            .dwattr $C$DW$28, DW_AT_TI_symbol_name("IN")
     605                            .dwattr $C$DW$28, DW_AT_data_member_location[DW_OP_plus_uconst 0x0]
     606                            .dwattr $C$DW$28, DW_AT_accessibility(DW_ACCESS_public)
     607                            .dwattr $C$DW$28, DW_AT_decl_file("C:\ti\ccs1200\ccs\ccs_base\arm\include\msp432p401r.h")
     608                            .dwattr $C$DW$28, DW_AT_decl_line(0x288)
     609                            .dwattr $C$DW$28, DW_AT_decl_column(0x0f)
     610                    
     611                    $C$DW$29        .dwtag  DW_TAG_member
     612                            .dwattr $C$DW$29, DW_AT_type(*$C$DW$T$22)
     613                            .dwattr $C$DW$29, DW_AT_name("RESERVED0")
     614                            .dwattr $C$DW$29, DW_AT_TI_symbol_name("RESERVED0")
     615                            .dwattr $C$DW$29, DW_AT_data_member_location[DW_OP_plus_uconst 0x1]
     616                            .dwattr $C$DW$29, DW_AT_accessibility(DW_ACCESS_public)
     617                            .dwattr $C$DW$29, DW_AT_decl_file("C:\ti\ccs1200\ccs\ccs_base\arm\include\msp432p401r.h")
     618                            .dwattr $C$DW$29, DW_AT_decl_line(0x289)
     619                            .dwattr $C$DW$29, DW_AT_decl_column(0x0b)
     620                    
     621                    $C$DW$30        .dwtag  DW_TAG_member
     622                            .dwattr $C$DW$30, DW_AT_type(*$C$DW$T$24)
     623                            .dwattr $C$DW$30, DW_AT_name("OUT")
     624                            .dwattr $C$DW$30, DW_AT_TI_symbol_name("OUT")
     625                            .dwattr $C$DW$30, DW_AT_data_member_location[DW_OP_plus_uconst 0x2]
     626                            .dwattr $C$DW$30, DW_AT_accessibility(DW_ACCESS_public)
     627                            .dwattr $C$DW$30, DW_AT_decl_file("C:\ti\ccs1200\ccs\ccs_base\arm\include\msp432p401r.h")
     628                            .dwattr $C$DW$30, DW_AT_decl_line(0x28a)
     629                            .dwattr $C$DW$30, DW_AT_decl_column(0x10)
     630                    
     631                    $C$DW$31        .dwtag  DW_TAG_member
     632                            .dwattr $C$DW$31, DW_AT_type(*$C$DW$T$22)
     633                            .dwattr $C$DW$31, DW_AT_name("RESERVED1")
     634                            .dwattr $C$DW$31, DW_AT_TI_symbol_name("RESERVED1")
     635                            .dwattr $C$DW$31, DW_AT_data_member_location[DW_OP_plus_uconst 0x3]
     636                            .dwattr $C$DW$31, DW_AT_accessibility(DW_ACCESS_public)
     637                            .dwattr $C$DW$31, DW_AT_decl_file("C:\ti\ccs1200\ccs\ccs_base\arm\include\msp432p401r.h")
     638                            .dwattr $C$DW$31, DW_AT_decl_line(0x28b)
     639                            .dwattr $C$DW$31, DW_AT_decl_column(0x0b)
     640                    
     641                    $C$DW$32        .dwtag  DW_TAG_member
     642                            .dwattr $C$DW$32, DW_AT_type(*$C$DW$T$24)
     643                            .dwattr $C$DW$32, DW_AT_name("DIR")
     644                            .dwattr $C$DW$32, DW_AT_TI_symbol_name("DIR")
     645                            .dwattr $C$DW$32, DW_AT_data_member_location[DW_OP_plus_uconst 0x4]
     646                            .dwattr $C$DW$32, DW_AT_accessibility(DW_ACCESS_public)
     647                            .dwattr $C$DW$32, DW_AT_decl_file("C:\ti\ccs1200\ccs\ccs_base\arm\include\msp432p401r.h")
     648                            .dwattr $C$DW$32, DW_AT_decl_line(0x28c)
     649                            .dwattr $C$DW$32, DW_AT_decl_column(0x10)
TI ARM Assembler PC v20.2.6 Mon Oct 31 23:17:03 2022

Copyright (c) 1996-2018 Texas Instruments Incorporated
InputOutput.asm                                                      PAGE   13

     650                    
     651                    $C$DW$33        .dwtag  DW_TAG_member
     652                            .dwattr $C$DW$33, DW_AT_type(*$C$DW$T$22)
     653                            .dwattr $C$DW$33, DW_AT_name("RESERVED2")
     654                            .dwattr $C$DW$33, DW_AT_TI_symbol_name("RESERVED2")
     655                            .dwattr $C$DW$33, DW_AT_data_member_location[DW_OP_plus_uconst 0x5]
     656                            .dwattr $C$DW$33, DW_AT_accessibility(DW_ACCESS_public)
     657                            .dwattr $C$DW$33, DW_AT_decl_file("C:\ti\ccs1200\ccs\ccs_base\arm\include\msp432p401r.h")
     658                            .dwattr $C$DW$33, DW_AT_decl_line(0x28d)
     659                            .dwattr $C$DW$33, DW_AT_decl_column(0x0b)
     660                    
     661                    $C$DW$34        .dwtag  DW_TAG_member
     662                            .dwattr $C$DW$34, DW_AT_type(*$C$DW$T$24)
     663                            .dwattr $C$DW$34, DW_AT_name("REN")
     664                            .dwattr $C$DW$34, DW_AT_TI_symbol_name("REN")
     665                            .dwattr $C$DW$34, DW_AT_data_member_location[DW_OP_plus_uconst 0x6]
     666                            .dwattr $C$DW$34, DW_AT_accessibility(DW_ACCESS_public)
     667                            .dwattr $C$DW$34, DW_AT_decl_file("C:\ti\ccs1200\ccs\ccs_base\arm\include\msp432p401r.h")
     668                            .dwattr $C$DW$34, DW_AT_decl_line(0x28e)
     669                            .dwattr $C$DW$34, DW_AT_decl_column(0x10)
     670                    
     671                    $C$DW$35        .dwtag  DW_TAG_member
     672                            .dwattr $C$DW$35, DW_AT_type(*$C$DW$T$22)
     673                            .dwattr $C$DW$35, DW_AT_name("RESERVED3")
     674                            .dwattr $C$DW$35, DW_AT_TI_symbol_name("RESERVED3")
     675                            .dwattr $C$DW$35, DW_AT_data_member_location[DW_OP_plus_uconst 0x7]
     676                            .dwattr $C$DW$35, DW_AT_accessibility(DW_ACCESS_public)
     677                            .dwattr $C$DW$35, DW_AT_decl_file("C:\ti\ccs1200\ccs\ccs_base\arm\include\msp432p401r.h")
     678                            .dwattr $C$DW$35, DW_AT_decl_line(0x28f)
     679                            .dwattr $C$DW$35, DW_AT_decl_column(0x0b)
     680                    
     681                    $C$DW$36        .dwtag  DW_TAG_member
     682                            .dwattr $C$DW$36, DW_AT_type(*$C$DW$T$24)
     683                            .dwattr $C$DW$36, DW_AT_name("DS")
     684                            .dwattr $C$DW$36, DW_AT_TI_symbol_name("DS")
     685                            .dwattr $C$DW$36, DW_AT_data_member_location[DW_OP_plus_uconst 0x8]
     686                            .dwattr $C$DW$36, DW_AT_accessibility(DW_ACCESS_public)
     687                            .dwattr $C$DW$36, DW_AT_decl_file("C:\ti\ccs1200\ccs\ccs_base\arm\include\msp432p401r.h")
     688                            .dwattr $C$DW$36, DW_AT_decl_line(0x290)
     689                            .dwattr $C$DW$36, DW_AT_decl_column(0x10)
     690                    
     691                    $C$DW$37        .dwtag  DW_TAG_member
     692                            .dwattr $C$DW$37, DW_AT_type(*$C$DW$T$22)
     693                            .dwattr $C$DW$37, DW_AT_name("RESERVED4")
     694                            .dwattr $C$DW$37, DW_AT_TI_symbol_name("RESERVED4")
     695                            .dwattr $C$DW$37, DW_AT_data_member_location[DW_OP_plus_uconst 0x9]
     696                            .dwattr $C$DW$37, DW_AT_accessibility(DW_ACCESS_public)
     697                            .dwattr $C$DW$37, DW_AT_decl_file("C:\ti\ccs1200\ccs\ccs_base\arm\include\msp432p401r.h")
     698                            .dwattr $C$DW$37, DW_AT_decl_line(0x291)
     699                            .dwattr $C$DW$37, DW_AT_decl_column(0x0b)
     700                    
     701                    $C$DW$38        .dwtag  DW_TAG_member
     702                            .dwattr $C$DW$38, DW_AT_type(*$C$DW$T$24)
     703                            .dwattr $C$DW$38, DW_AT_name("SEL0")
     704                            .dwattr $C$DW$38, DW_AT_TI_symbol_name("SEL0")
TI ARM Assembler PC v20.2.6 Mon Oct 31 23:17:03 2022

Copyright (c) 1996-2018 Texas Instruments Incorporated
InputOutput.asm                                                      PAGE   14

     705                            .dwattr $C$DW$38, DW_AT_data_member_location[DW_OP_plus_uconst 0xa]
     706                            .dwattr $C$DW$38, DW_AT_accessibility(DW_ACCESS_public)
     707                            .dwattr $C$DW$38, DW_AT_decl_file("C:\ti\ccs1200\ccs\ccs_base\arm\include\msp432p401r.h")
     708                            .dwattr $C$DW$38, DW_AT_decl_line(0x292)
     709                            .dwattr $C$DW$38, DW_AT_decl_column(0x10)
     710                    
     711                    $C$DW$39        .dwtag  DW_TAG_member
     712                            .dwattr $C$DW$39, DW_AT_type(*$C$DW$T$22)
     713                            .dwattr $C$DW$39, DW_AT_name("RESERVED5")
     714                            .dwattr $C$DW$39, DW_AT_TI_symbol_name("RESERVED5")
     715                            .dwattr $C$DW$39, DW_AT_data_member_location[DW_OP_plus_uconst 0xb]
     716                            .dwattr $C$DW$39, DW_AT_accessibility(DW_ACCESS_public)
     717                            .dwattr $C$DW$39, DW_AT_decl_file("C:\ti\ccs1200\ccs\ccs_base\arm\include\msp432p401r.h")
     718                            .dwattr $C$DW$39, DW_AT_decl_line(0x293)
     719                            .dwattr $C$DW$39, DW_AT_decl_column(0x0b)
     720                    
     721                    $C$DW$40        .dwtag  DW_TAG_member
     722                            .dwattr $C$DW$40, DW_AT_type(*$C$DW$T$24)
     723                            .dwattr $C$DW$40, DW_AT_name("SEL1")
     724                            .dwattr $C$DW$40, DW_AT_TI_symbol_name("SEL1")
     725                            .dwattr $C$DW$40, DW_AT_data_member_location[DW_OP_plus_uconst 0xc]
     726                            .dwattr $C$DW$40, DW_AT_accessibility(DW_ACCESS_public)
     727                            .dwattr $C$DW$40, DW_AT_decl_file("C:\ti\ccs1200\ccs\ccs_base\arm\include\msp432p401r.h")
     728                            .dwattr $C$DW$40, DW_AT_decl_line(0x294)
     729                            .dwattr $C$DW$40, DW_AT_decl_column(0x10)
     730                    
     731                    $C$DW$41        .dwtag  DW_TAG_member
     732                            .dwattr $C$DW$41, DW_AT_type(*$C$DW$T$22)
     733                            .dwattr $C$DW$41, DW_AT_name("RESERVED6")
     734                            .dwattr $C$DW$41, DW_AT_TI_symbol_name("RESERVED6")
     735                            .dwattr $C$DW$41, DW_AT_data_member_location[DW_OP_plus_uconst 0xd]
     736                            .dwattr $C$DW$41, DW_AT_accessibility(DW_ACCESS_public)
     737                            .dwattr $C$DW$41, DW_AT_decl_file("C:\ti\ccs1200\ccs\ccs_base\arm\include\msp432p401r.h")
     738                            .dwattr $C$DW$41, DW_AT_decl_line(0x295)
     739                            .dwattr $C$DW$41, DW_AT_decl_column(0x0b)
     740                    
     741                    $C$DW$42        .dwtag  DW_TAG_member
     742                            .dwattr $C$DW$42, DW_AT_type(*$C$DW$T$27)
     743                            .dwattr $C$DW$42, DW_AT_name("IV")
     744                            .dwattr $C$DW$42, DW_AT_TI_symbol_name("IV")
     745                            .dwattr $C$DW$42, DW_AT_data_member_location[DW_OP_plus_uconst 0xe]
     746                            .dwattr $C$DW$42, DW_AT_accessibility(DW_ACCESS_public)
     747                            .dwattr $C$DW$42, DW_AT_decl_file("C:\ti\ccs1200\ccs\ccs_base\arm\include\msp432p401r.h")
     748                            .dwattr $C$DW$42, DW_AT_decl_line(0x296)
     749                            .dwattr $C$DW$42, DW_AT_decl_column(0x11)
     750                    
     751                    $C$DW$43        .dwtag  DW_TAG_member
     752                            .dwattr $C$DW$43, DW_AT_type(*$C$DW$T$28)
     753                            .dwattr $C$DW$43, DW_AT_name("RESERVED7")
     754                            .dwattr $C$DW$43, DW_AT_TI_symbol_name("RESERVED7")
     755                            .dwattr $C$DW$43, DW_AT_data_member_location[DW_OP_plus_uconst 0x10]
     756                            .dwattr $C$DW$43, DW_AT_accessibility(DW_ACCESS_public)
     757                            .dwattr $C$DW$43, DW_AT_decl_file("C:\ti\ccs1200\ccs\ccs_base\arm\include\msp432p401r.h")
     758                            .dwattr $C$DW$43, DW_AT_decl_line(0x297)
     759                            .dwattr $C$DW$43, DW_AT_decl_column(0x0b)
TI ARM Assembler PC v20.2.6 Mon Oct 31 23:17:03 2022

Copyright (c) 1996-2018 Texas Instruments Incorporated
InputOutput.asm                                                      PAGE   15

     760                    
     761                    $C$DW$44        .dwtag  DW_TAG_member
     762                            .dwattr $C$DW$44, DW_AT_type(*$C$DW$T$24)
     763                            .dwattr $C$DW$44, DW_AT_name("SELC")
     764                            .dwattr $C$DW$44, DW_AT_TI_symbol_name("SELC")
     765                            .dwattr $C$DW$44, DW_AT_data_member_location[DW_OP_plus_uconst 0x16]
     766                            .dwattr $C$DW$44, DW_AT_accessibility(DW_ACCESS_public)
     767                            .dwattr $C$DW$44, DW_AT_decl_file("C:\ti\ccs1200\ccs\ccs_base\arm\include\msp432p401r.h")
     768                            .dwattr $C$DW$44, DW_AT_decl_line(0x298)
     769                            .dwattr $C$DW$44, DW_AT_decl_column(0x10)
     770                    
     771                    $C$DW$45        .dwtag  DW_TAG_member
     772                            .dwattr $C$DW$45, DW_AT_type(*$C$DW$T$22)
     773                            .dwattr $C$DW$45, DW_AT_name("RESERVED8")
     774                            .dwattr $C$DW$45, DW_AT_TI_symbol_name("RESERVED8")
     775                            .dwattr $C$DW$45, DW_AT_data_member_location[DW_OP_plus_uconst 0x17]
     776                            .dwattr $C$DW$45, DW_AT_accessibility(DW_ACCESS_public)
     777                            .dwattr $C$DW$45, DW_AT_decl_file("C:\ti\ccs1200\ccs\ccs_base\arm\include\msp432p401r.h")
     778                            .dwattr $C$DW$45, DW_AT_decl_line(0x299)
     779                            .dwattr $C$DW$45, DW_AT_decl_column(0x0b)
     780                    
     781                    $C$DW$46        .dwtag  DW_TAG_member
     782                            .dwattr $C$DW$46, DW_AT_type(*$C$DW$T$24)
     783                            .dwattr $C$DW$46, DW_AT_name("IES")
     784                            .dwattr $C$DW$46, DW_AT_TI_symbol_name("IES")
     785                            .dwattr $C$DW$46, DW_AT_data_member_location[DW_OP_plus_uconst 0x18]
     786                            .dwattr $C$DW$46, DW_AT_accessibility(DW_ACCESS_public)
     787                            .dwattr $C$DW$46, DW_AT_decl_file("C:\ti\ccs1200\ccs\ccs_base\arm\include\msp432p401r.h")
     788                            .dwattr $C$DW$46, DW_AT_decl_line(0x29a)
     789                            .dwattr $C$DW$46, DW_AT_decl_column(0x10)
     790                    
     791                    $C$DW$47        .dwtag  DW_TAG_member
     792                            .dwattr $C$DW$47, DW_AT_type(*$C$DW$T$22)
     793                            .dwattr $C$DW$47, DW_AT_name("RESERVED9")
     794                            .dwattr $C$DW$47, DW_AT_TI_symbol_name("RESERVED9")
     795                            .dwattr $C$DW$47, DW_AT_data_member_location[DW_OP_plus_uconst 0x19]
     796                            .dwattr $C$DW$47, DW_AT_accessibility(DW_ACCESS_public)
     797                            .dwattr $C$DW$47, DW_AT_decl_file("C:\ti\ccs1200\ccs\ccs_base\arm\include\msp432p401r.h")
     798                            .dwattr $C$DW$47, DW_AT_decl_line(0x29b)
     799                            .dwattr $C$DW$47, DW_AT_decl_column(0x0b)
     800                    
     801                    $C$DW$48        .dwtag  DW_TAG_member
     802                            .dwattr $C$DW$48, DW_AT_type(*$C$DW$T$24)
     803                            .dwattr $C$DW$48, DW_AT_name("IE")
     804                            .dwattr $C$DW$48, DW_AT_TI_symbol_name("IE")
     805                            .dwattr $C$DW$48, DW_AT_data_member_location[DW_OP_plus_uconst 0x1a]
     806                            .dwattr $C$DW$48, DW_AT_accessibility(DW_ACCESS_public)
     807                            .dwattr $C$DW$48, DW_AT_decl_file("C:\ti\ccs1200\ccs\ccs_base\arm\include\msp432p401r.h")
     808                            .dwattr $C$DW$48, DW_AT_decl_line(0x29c)
     809                            .dwattr $C$DW$48, DW_AT_decl_column(0x10)
     810                    
     811                    $C$DW$49        .dwtag  DW_TAG_member
     812                            .dwattr $C$DW$49, DW_AT_type(*$C$DW$T$22)
     813                            .dwattr $C$DW$49, DW_AT_name("RESERVED10")
     814                            .dwattr $C$DW$49, DW_AT_TI_symbol_name("RESERVED10")
TI ARM Assembler PC v20.2.6 Mon Oct 31 23:17:03 2022

Copyright (c) 1996-2018 Texas Instruments Incorporated
InputOutput.asm                                                      PAGE   16

     815                            .dwattr $C$DW$49, DW_AT_data_member_location[DW_OP_plus_uconst 0x1b]
     816                            .dwattr $C$DW$49, DW_AT_accessibility(DW_ACCESS_public)
     817                            .dwattr $C$DW$49, DW_AT_decl_file("C:\ti\ccs1200\ccs\ccs_base\arm\include\msp432p401r.h")
     818                            .dwattr $C$DW$49, DW_AT_decl_line(0x29d)
     819                            .dwattr $C$DW$49, DW_AT_decl_column(0x0b)
     820                    
     821                    $C$DW$50        .dwtag  DW_TAG_member
     822                            .dwattr $C$DW$50, DW_AT_type(*$C$DW$T$24)
     823                            .dwattr $C$DW$50, DW_AT_name("IFG")
     824                            .dwattr $C$DW$50, DW_AT_TI_symbol_name("IFG")
     825                            .dwattr $C$DW$50, DW_AT_data_member_location[DW_OP_plus_uconst 0x1c]
     826                            .dwattr $C$DW$50, DW_AT_accessibility(DW_ACCESS_public)
     827                            .dwattr $C$DW$50, DW_AT_decl_file("C:\ti\ccs1200\ccs\ccs_base\arm\include\msp432p401r.h")
     828                            .dwattr $C$DW$50, DW_AT_decl_line(0x29e)
     829                            .dwattr $C$DW$50, DW_AT_decl_column(0x10)
     830                    
     831                    $C$DW$51        .dwtag  DW_TAG_member
     832                            .dwattr $C$DW$51, DW_AT_type(*$C$DW$T$22)
     833                            .dwattr $C$DW$51, DW_AT_name("RESERVED11")
     834                            .dwattr $C$DW$51, DW_AT_TI_symbol_name("RESERVED11")
     835                            .dwattr $C$DW$51, DW_AT_data_member_location[DW_OP_plus_uconst 0x1d]
     836                            .dwattr $C$DW$51, DW_AT_accessibility(DW_ACCESS_public)
     837                            .dwattr $C$DW$51, DW_AT_decl_file("C:\ti\ccs1200\ccs\ccs_base\arm\include\msp432p401r.h")
     838                            .dwattr $C$DW$51, DW_AT_decl_line(0x29f)
     839                            .dwattr $C$DW$51, DW_AT_decl_column(0x0b)
     840                    
     841                            .dwattr $C$DW$T$29, DW_AT_decl_file("C:\ti\ccs1200\ccs\ccs_base\arm\include\msp432p401r.h")
     842                            .dwattr $C$DW$T$29, DW_AT_decl_line(0x287)
     843                            .dwattr $C$DW$T$29, DW_AT_decl_column(0x10)
     844                            .dwendtag $C$DW$T$29
     845                    
     846                    $C$DW$T$179     .dwtag  DW_TAG_typedef
     847                            .dwattr $C$DW$T$179, DW_AT_name("DIO_PORT_Odd_Interruptable_Type")
     848                            .dwattr $C$DW$T$179, DW_AT_type(*$C$DW$T$29)
     849                            .dwattr $C$DW$T$179, DW_AT_language(DW_LANG_C)
     850                            .dwattr $C$DW$T$179, DW_AT_decl_file("C:\ti\ccs1200\ccs\ccs_base\arm\include\msp432p401r.h")
     851                            .dwattr $C$DW$T$179, DW_AT_decl_line(0x2a0)
     852                            .dwattr $C$DW$T$179, DW_AT_decl_column(0x03)
     853                    
     854                    
     855                    $C$DW$T$31      .dwtag  DW_TAG_structure_type
     856                            .dwattr $C$DW$T$31, DW_AT_byte_size(0x20)
     857                    $C$DW$52        .dwtag  DW_TAG_member
     858                            .dwattr $C$DW$52, DW_AT_type(*$C$DW$T$22)
     859                            .dwattr $C$DW$52, DW_AT_name("RESERVED0")
     860                            .dwattr $C$DW$52, DW_AT_TI_symbol_name("RESERVED0")
     861                            .dwattr $C$DW$52, DW_AT_data_member_location[DW_OP_plus_uconst 0x0]
     862                            .dwattr $C$DW$52, DW_AT_accessibility(DW_ACCESS_public)
     863                            .dwattr $C$DW$52, DW_AT_decl_file("C:\ti\ccs1200\ccs\ccs_base\arm\include\msp432p401r.h")
     864                            .dwattr $C$DW$52, DW_AT_decl_line(0x2a3)
     865                            .dwattr $C$DW$52, DW_AT_decl_column(0x0b)
     866                    
     867                    $C$DW$53        .dwtag  DW_TAG_member
     868                            .dwattr $C$DW$53, DW_AT_type(*$C$DW$T$23)
     869                            .dwattr $C$DW$53, DW_AT_name("IN")
TI ARM Assembler PC v20.2.6 Mon Oct 31 23:17:03 2022

Copyright (c) 1996-2018 Texas Instruments Incorporated
InputOutput.asm                                                      PAGE   17

     870                            .dwattr $C$DW$53, DW_AT_TI_symbol_name("IN")
     871                            .dwattr $C$DW$53, DW_AT_data_member_location[DW_OP_plus_uconst 0x1]
     872                            .dwattr $C$DW$53, DW_AT_accessibility(DW_ACCESS_public)
     873                            .dwattr $C$DW$53, DW_AT_decl_file("C:\ti\ccs1200\ccs\ccs_base\arm\include\msp432p401r.h")
     874                            .dwattr $C$DW$53, DW_AT_decl_line(0x2a4)
     875                            .dwattr $C$DW$53, DW_AT_decl_column(0x0f)
     876                    
     877                    $C$DW$54        .dwtag  DW_TAG_member
     878                            .dwattr $C$DW$54, DW_AT_type(*$C$DW$T$22)
     879                            .dwattr $C$DW$54, DW_AT_name("RESERVED1")
     880                            .dwattr $C$DW$54, DW_AT_TI_symbol_name("RESERVED1")
     881                            .dwattr $C$DW$54, DW_AT_data_member_location[DW_OP_plus_uconst 0x2]
     882                            .dwattr $C$DW$54, DW_AT_accessibility(DW_ACCESS_public)
     883                            .dwattr $C$DW$54, DW_AT_decl_file("C:\ti\ccs1200\ccs\ccs_base\arm\include\msp432p401r.h")
     884                            .dwattr $C$DW$54, DW_AT_decl_line(0x2a5)
     885                            .dwattr $C$DW$54, DW_AT_decl_column(0x0b)
     886                    
     887                    $C$DW$55        .dwtag  DW_TAG_member
     888                            .dwattr $C$DW$55, DW_AT_type(*$C$DW$T$24)
     889                            .dwattr $C$DW$55, DW_AT_name("OUT")
     890                            .dwattr $C$DW$55, DW_AT_TI_symbol_name("OUT")
     891                            .dwattr $C$DW$55, DW_AT_data_member_location[DW_OP_plus_uconst 0x3]
     892                            .dwattr $C$DW$55, DW_AT_accessibility(DW_ACCESS_public)
     893                            .dwattr $C$DW$55, DW_AT_decl_file("C:\ti\ccs1200\ccs\ccs_base\arm\include\msp432p401r.h")
     894                            .dwattr $C$DW$55, DW_AT_decl_line(0x2a6)
     895                            .dwattr $C$DW$55, DW_AT_decl_column(0x10)
     896                    
     897                    $C$DW$56        .dwtag  DW_TAG_member
     898                            .dwattr $C$DW$56, DW_AT_type(*$C$DW$T$22)
     899                            .dwattr $C$DW$56, DW_AT_name("RESERVED2")
     900                            .dwattr $C$DW$56, DW_AT_TI_symbol_name("RESERVED2")
     901                            .dwattr $C$DW$56, DW_AT_data_member_location[DW_OP_plus_uconst 0x4]
     902                            .dwattr $C$DW$56, DW_AT_accessibility(DW_ACCESS_public)
     903                            .dwattr $C$DW$56, DW_AT_decl_file("C:\ti\ccs1200\ccs\ccs_base\arm\include\msp432p401r.h")
     904                            .dwattr $C$DW$56, DW_AT_decl_line(0x2a7)
     905                            .dwattr $C$DW$56, DW_AT_decl_column(0x0b)
     906                    
     907                    $C$DW$57        .dwtag  DW_TAG_member
     908                            .dwattr $C$DW$57, DW_AT_type(*$C$DW$T$24)
     909                            .dwattr $C$DW$57, DW_AT_name("DIR")
     910                            .dwattr $C$DW$57, DW_AT_TI_symbol_name("DIR")
     911                            .dwattr $C$DW$57, DW_AT_data_member_location[DW_OP_plus_uconst 0x5]
     912                            .dwattr $C$DW$57, DW_AT_accessibility(DW_ACCESS_public)
     913                            .dwattr $C$DW$57, DW_AT_decl_file("C:\ti\ccs1200\ccs\ccs_base\arm\include\msp432p401r.h")
     914                            .dwattr $C$DW$57, DW_AT_decl_line(0x2a8)
     915                            .dwattr $C$DW$57, DW_AT_decl_column(0x10)
     916                    
     917                    $C$DW$58        .dwtag  DW_TAG_member
     918                            .dwattr $C$DW$58, DW_AT_type(*$C$DW$T$22)
     919                            .dwattr $C$DW$58, DW_AT_name("RESERVED3")
     920                            .dwattr $C$DW$58, DW_AT_TI_symbol_name("RESERVED3")
     921                            .dwattr $C$DW$58, DW_AT_data_member_location[DW_OP_plus_uconst 0x6]
     922                            .dwattr $C$DW$58, DW_AT_accessibility(DW_ACCESS_public)
     923                            .dwattr $C$DW$58, DW_AT_decl_file("C:\ti\ccs1200\ccs\ccs_base\arm\include\msp432p401r.h")
     924                            .dwattr $C$DW$58, DW_AT_decl_line(0x2a9)
TI ARM Assembler PC v20.2.6 Mon Oct 31 23:17:03 2022

Copyright (c) 1996-2018 Texas Instruments Incorporated
InputOutput.asm                                                      PAGE   18

     925                            .dwattr $C$DW$58, DW_AT_decl_column(0x0b)
     926                    
     927                    $C$DW$59        .dwtag  DW_TAG_member
     928                            .dwattr $C$DW$59, DW_AT_type(*$C$DW$T$24)
     929                            .dwattr $C$DW$59, DW_AT_name("REN")
     930                            .dwattr $C$DW$59, DW_AT_TI_symbol_name("REN")
     931                            .dwattr $C$DW$59, DW_AT_data_member_location[DW_OP_plus_uconst 0x7]
     932                            .dwattr $C$DW$59, DW_AT_accessibility(DW_ACCESS_public)
     933                            .dwattr $C$DW$59, DW_AT_decl_file("C:\ti\ccs1200\ccs\ccs_base\arm\include\msp432p401r.h")
     934                            .dwattr $C$DW$59, DW_AT_decl_line(0x2aa)
     935                            .dwattr $C$DW$59, DW_AT_decl_column(0x10)
     936                    
     937                    $C$DW$60        .dwtag  DW_TAG_member
     938                            .dwattr $C$DW$60, DW_AT_type(*$C$DW$T$22)
     939                            .dwattr $C$DW$60, DW_AT_name("RESERVED4")
     940                            .dwattr $C$DW$60, DW_AT_TI_symbol_name("RESERVED4")
     941                            .dwattr $C$DW$60, DW_AT_data_member_location[DW_OP_plus_uconst 0x8]
     942                            .dwattr $C$DW$60, DW_AT_accessibility(DW_ACCESS_public)
     943                            .dwattr $C$DW$60, DW_AT_decl_file("C:\ti\ccs1200\ccs\ccs_base\arm\include\msp432p401r.h")
     944                            .dwattr $C$DW$60, DW_AT_decl_line(0x2ab)
     945                            .dwattr $C$DW$60, DW_AT_decl_column(0x0b)
     946                    
     947                    $C$DW$61        .dwtag  DW_TAG_member
     948                            .dwattr $C$DW$61, DW_AT_type(*$C$DW$T$24)
     949                            .dwattr $C$DW$61, DW_AT_name("DS")
     950                            .dwattr $C$DW$61, DW_AT_TI_symbol_name("DS")
     951                            .dwattr $C$DW$61, DW_AT_data_member_location[DW_OP_plus_uconst 0x9]
     952                            .dwattr $C$DW$61, DW_AT_accessibility(DW_ACCESS_public)
     953                            .dwattr $C$DW$61, DW_AT_decl_file("C:\ti\ccs1200\ccs\ccs_base\arm\include\msp432p401r.h")
     954                            .dwattr $C$DW$61, DW_AT_decl_line(0x2ac)
     955                            .dwattr $C$DW$61, DW_AT_decl_column(0x10)
     956                    
     957                    $C$DW$62        .dwtag  DW_TAG_member
     958                            .dwattr $C$DW$62, DW_AT_type(*$C$DW$T$22)
     959                            .dwattr $C$DW$62, DW_AT_name("RESERVED5")
     960                            .dwattr $C$DW$62, DW_AT_TI_symbol_name("RESERVED5")
     961                            .dwattr $C$DW$62, DW_AT_data_member_location[DW_OP_plus_uconst 0xa]
     962                            .dwattr $C$DW$62, DW_AT_accessibility(DW_ACCESS_public)
     963                            .dwattr $C$DW$62, DW_AT_decl_file("C:\ti\ccs1200\ccs\ccs_base\arm\include\msp432p401r.h")
     964                            .dwattr $C$DW$62, DW_AT_decl_line(0x2ad)
     965                            .dwattr $C$DW$62, DW_AT_decl_column(0x0b)
     966                    
     967                    $C$DW$63        .dwtag  DW_TAG_member
     968                            .dwattr $C$DW$63, DW_AT_type(*$C$DW$T$24)
     969                            .dwattr $C$DW$63, DW_AT_name("SEL0")
     970                            .dwattr $C$DW$63, DW_AT_TI_symbol_name("SEL0")
     971                            .dwattr $C$DW$63, DW_AT_data_member_location[DW_OP_plus_uconst 0xb]
     972                            .dwattr $C$DW$63, DW_AT_accessibility(DW_ACCESS_public)
     973                            .dwattr $C$DW$63, DW_AT_decl_file("C:\ti\ccs1200\ccs\ccs_base\arm\include\msp432p401r.h")
     974                            .dwattr $C$DW$63, DW_AT_decl_line(0x2ae)
     975                            .dwattr $C$DW$63, DW_AT_decl_column(0x10)
     976                    
     977                    $C$DW$64        .dwtag  DW_TAG_member
     978                            .dwattr $C$DW$64, DW_AT_type(*$C$DW$T$22)
     979                            .dwattr $C$DW$64, DW_AT_name("RESERVED6")
TI ARM Assembler PC v20.2.6 Mon Oct 31 23:17:03 2022

Copyright (c) 1996-2018 Texas Instruments Incorporated
InputOutput.asm                                                      PAGE   19

     980                            .dwattr $C$DW$64, DW_AT_TI_symbol_name("RESERVED6")
     981                            .dwattr $C$DW$64, DW_AT_data_member_location[DW_OP_plus_uconst 0xc]
     982                            .dwattr $C$DW$64, DW_AT_accessibility(DW_ACCESS_public)
     983                            .dwattr $C$DW$64, DW_AT_decl_file("C:\ti\ccs1200\ccs\ccs_base\arm\include\msp432p401r.h")
     984                            .dwattr $C$DW$64, DW_AT_decl_line(0x2af)
     985                            .dwattr $C$DW$64, DW_AT_decl_column(0x0b)
     986                    
     987                    $C$DW$65        .dwtag  DW_TAG_member
     988                            .dwattr $C$DW$65, DW_AT_type(*$C$DW$T$24)
     989                            .dwattr $C$DW$65, DW_AT_name("SEL1")
     990                            .dwattr $C$DW$65, DW_AT_TI_symbol_name("SEL1")
     991                            .dwattr $C$DW$65, DW_AT_data_member_location[DW_OP_plus_uconst 0xd]
     992                            .dwattr $C$DW$65, DW_AT_accessibility(DW_ACCESS_public)
     993                            .dwattr $C$DW$65, DW_AT_decl_file("C:\ti\ccs1200\ccs\ccs_base\arm\include\msp432p401r.h")
     994                            .dwattr $C$DW$65, DW_AT_decl_line(0x2b0)
     995                            .dwattr $C$DW$65, DW_AT_decl_column(0x10)
     996                    
     997                    $C$DW$66        .dwtag  DW_TAG_member
     998                            .dwattr $C$DW$66, DW_AT_type(*$C$DW$T$30)
     999                            .dwattr $C$DW$66, DW_AT_name("RESERVED7")
    1000                            .dwattr $C$DW$66, DW_AT_TI_symbol_name("RESERVED7")
    1001                            .dwattr $C$DW$66, DW_AT_data_member_location[DW_OP_plus_uconst 0xe]
    1002                            .dwattr $C$DW$66, DW_AT_accessibility(DW_ACCESS_public)
    1003                            .dwattr $C$DW$66, DW_AT_decl_file("C:\ti\ccs1200\ccs\ccs_base\arm\include\msp432p401r.h")
    1004                            .dwattr $C$DW$66, DW_AT_decl_line(0x2b1)
    1005                            .dwattr $C$DW$66, DW_AT_decl_column(0x0b)
    1006                    
    1007                    $C$DW$67        .dwtag  DW_TAG_member
    1008                            .dwattr $C$DW$67, DW_AT_type(*$C$DW$T$24)
    1009                            .dwattr $C$DW$67, DW_AT_name("SELC")
    1010                            .dwattr $C$DW$67, DW_AT_TI_symbol_name("SELC")
    1011                            .dwattr $C$DW$67, DW_AT_data_member_location[DW_OP_plus_uconst 0x17]
    1012                            .dwattr $C$DW$67, DW_AT_accessibility(DW_ACCESS_public)
    1013                            .dwattr $C$DW$67, DW_AT_decl_file("C:\ti\ccs1200\ccs\ccs_base\arm\include\msp432p401r.h")
    1014                            .dwattr $C$DW$67, DW_AT_decl_line(0x2b2)
    1015                            .dwattr $C$DW$67, DW_AT_decl_column(0x10)
    1016                    
    1017                    $C$DW$68        .dwtag  DW_TAG_member
    1018                            .dwattr $C$DW$68, DW_AT_type(*$C$DW$T$22)
    1019                            .dwattr $C$DW$68, DW_AT_name("RESERVED8")
    1020                            .dwattr $C$DW$68, DW_AT_TI_symbol_name("RESERVED8")
    1021                            .dwattr $C$DW$68, DW_AT_data_member_location[DW_OP_plus_uconst 0x18]
    1022                            .dwattr $C$DW$68, DW_AT_accessibility(DW_ACCESS_public)
    1023                            .dwattr $C$DW$68, DW_AT_decl_file("C:\ti\ccs1200\ccs\ccs_base\arm\include\msp432p401r.h")
    1024                            .dwattr $C$DW$68, DW_AT_decl_line(0x2b3)
    1025                            .dwattr $C$DW$68, DW_AT_decl_column(0x0b)
    1026                    
    1027                    $C$DW$69        .dwtag  DW_TAG_member
    1028                            .dwattr $C$DW$69, DW_AT_type(*$C$DW$T$24)
    1029                            .dwattr $C$DW$69, DW_AT_name("IES")
    1030                            .dwattr $C$DW$69, DW_AT_TI_symbol_name("IES")
    1031                            .dwattr $C$DW$69, DW_AT_data_member_location[DW_OP_plus_uconst 0x19]
    1032                            .dwattr $C$DW$69, DW_AT_accessibility(DW_ACCESS_public)
    1033                            .dwattr $C$DW$69, DW_AT_decl_file("C:\ti\ccs1200\ccs\ccs_base\arm\include\msp432p401r.h")
    1034                            .dwattr $C$DW$69, DW_AT_decl_line(0x2b4)
TI ARM Assembler PC v20.2.6 Mon Oct 31 23:17:03 2022

Copyright (c) 1996-2018 Texas Instruments Incorporated
InputOutput.asm                                                      PAGE   20

    1035                            .dwattr $C$DW$69, DW_AT_decl_column(0x10)
    1036                    
    1037                    $C$DW$70        .dwtag  DW_TAG_member
    1038                            .dwattr $C$DW$70, DW_AT_type(*$C$DW$T$22)
    1039                            .dwattr $C$DW$70, DW_AT_name("RESERVED9")
    1040                            .dwattr $C$DW$70, DW_AT_TI_symbol_name("RESERVED9")
    1041                            .dwattr $C$DW$70, DW_AT_data_member_location[DW_OP_plus_uconst 0x1a]
    1042                            .dwattr $C$DW$70, DW_AT_accessibility(DW_ACCESS_public)
    1043                            .dwattr $C$DW$70, DW_AT_decl_file("C:\ti\ccs1200\ccs\ccs_base\arm\include\msp432p401r.h")
    1044                            .dwattr $C$DW$70, DW_AT_decl_line(0x2b5)
    1045                            .dwattr $C$DW$70, DW_AT_decl_column(0x0b)
    1046                    
    1047                    $C$DW$71        .dwtag  DW_TAG_member
    1048                            .dwattr $C$DW$71, DW_AT_type(*$C$DW$T$24)
    1049                            .dwattr $C$DW$71, DW_AT_name("IE")
    1050                            .dwattr $C$DW$71, DW_AT_TI_symbol_name("IE")
    1051                            .dwattr $C$DW$71, DW_AT_data_member_location[DW_OP_plus_uconst 0x1b]
    1052                            .dwattr $C$DW$71, DW_AT_accessibility(DW_ACCESS_public)
    1053                            .dwattr $C$DW$71, DW_AT_decl_file("C:\ti\ccs1200\ccs\ccs_base\arm\include\msp432p401r.h")
    1054                            .dwattr $C$DW$71, DW_AT_decl_line(0x2b6)
    1055                            .dwattr $C$DW$71, DW_AT_decl_column(0x10)
    1056                    
    1057                    $C$DW$72        .dwtag  DW_TAG_member
    1058                            .dwattr $C$DW$72, DW_AT_type(*$C$DW$T$22)
    1059                            .dwattr $C$DW$72, DW_AT_name("RESERVED10")
    1060                            .dwattr $C$DW$72, DW_AT_TI_symbol_name("RESERVED10")
    1061                            .dwattr $C$DW$72, DW_AT_data_member_location[DW_OP_plus_uconst 0x1c]
    1062                            .dwattr $C$DW$72, DW_AT_accessibility(DW_ACCESS_public)
    1063                            .dwattr $C$DW$72, DW_AT_decl_file("C:\ti\ccs1200\ccs\ccs_base\arm\include\msp432p401r.h")
    1064                            .dwattr $C$DW$72, DW_AT_decl_line(0x2b7)
    1065                            .dwattr $C$DW$72, DW_AT_decl_column(0x0b)
    1066                    
    1067                    $C$DW$73        .dwtag  DW_TAG_member
    1068                            .dwattr $C$DW$73, DW_AT_type(*$C$DW$T$24)
    1069                            .dwattr $C$DW$73, DW_AT_name("IFG")
    1070                            .dwattr $C$DW$73, DW_AT_TI_symbol_name("IFG")
    1071                            .dwattr $C$DW$73, DW_AT_data_member_location[DW_OP_plus_uconst 0x1d]
    1072                            .dwattr $C$DW$73, DW_AT_accessibility(DW_ACCESS_public)
    1073                            .dwattr $C$DW$73, DW_AT_decl_file("C:\ti\ccs1200\ccs\ccs_base\arm\include\msp432p401r.h")
    1074                            .dwattr $C$DW$73, DW_AT_decl_line(0x2b8)
    1075                            .dwattr $C$DW$73, DW_AT_decl_column(0x10)
    1076                    
    1077                    $C$DW$74        .dwtag  DW_TAG_member
    1078                            .dwattr $C$DW$74, DW_AT_type(*$C$DW$T$27)
    1079                            .dwattr $C$DW$74, DW_AT_name("IV")
    1080                            .dwattr $C$DW$74, DW_AT_TI_symbol_name("IV")
    1081                            .dwattr $C$DW$74, DW_AT_data_member_location[DW_OP_plus_uconst 0x1e]
    1082                            .dwattr $C$DW$74, DW_AT_accessibility(DW_ACCESS_public)
    1083                            .dwattr $C$DW$74, DW_AT_decl_file("C:\ti\ccs1200\ccs\ccs_base\arm\include\msp432p401r.h")
    1084                            .dwattr $C$DW$74, DW_AT_decl_line(0x2b9)
    1085                            .dwattr $C$DW$74, DW_AT_decl_column(0x10)
    1086                    
    1087                            .dwattr $C$DW$T$31, DW_AT_decl_file("C:\ti\ccs1200\ccs\ccs_base\arm\include\msp432p401r.h")
    1088                            .dwattr $C$DW$T$31, DW_AT_decl_line(0x2a2)
    1089                            .dwattr $C$DW$T$31, DW_AT_decl_column(0x10)
TI ARM Assembler PC v20.2.6 Mon Oct 31 23:17:03 2022

Copyright (c) 1996-2018 Texas Instruments Incorporated
InputOutput.asm                                                      PAGE   21

    1090                            .dwendtag $C$DW$T$31
    1091                    
    1092                    $C$DW$T$181     .dwtag  DW_TAG_typedef
    1093                            .dwattr $C$DW$T$181, DW_AT_name("DIO_PORT_Even_Interruptable_Type")
    1094                            .dwattr $C$DW$T$181, DW_AT_type(*$C$DW$T$31)
    1095                            .dwattr $C$DW$T$181, DW_AT_language(DW_LANG_C)
    1096                            .dwattr $C$DW$T$181, DW_AT_decl_file("C:\ti\ccs1200\ccs\ccs_base\arm\include\msp432p401r.h")
    1097                            .dwattr $C$DW$T$181, DW_AT_decl_line(0x2ba)
    1098                            .dwattr $C$DW$T$181, DW_AT_decl_column(0x03)
    1099                    
    1100                    
    1101                    $C$DW$T$32      .dwtag  DW_TAG_structure_type
    1102                            .dwattr $C$DW$T$32, DW_AT_byte_size(0x10)
    1103                    $C$DW$75        .dwtag  DW_TAG_member
    1104                            .dwattr $C$DW$75, DW_AT_type(*$C$DW$T$14)
    1105                            .dwattr $C$DW$75, DW_AT_name("__max_align1")
    1106                            .dwattr $C$DW$75, DW_AT_TI_symbol_name("__max_align1")
    1107                            .dwattr $C$DW$75, DW_AT_data_member_location[DW_OP_plus_uconst 0x0]
    1108                            .dwattr $C$DW$75, DW_AT_accessibility(DW_ACCESS_public)
    1109                            .dwattr $C$DW$75, DW_AT_decl_file("C:/ti/ccs1200/ccs/tools/compiler/ti-cgt-arm_20.2.6.LTS/incl
    1110                            .dwattr $C$DW$75, DW_AT_decl_line(0x7b)
    1111                            .dwattr $C$DW$75, DW_AT_decl_column(0x0c)
    1112                    
    1113                    $C$DW$76        .dwtag  DW_TAG_member
    1114                            .dwattr $C$DW$76, DW_AT_type(*$C$DW$T$18)
    1115                            .dwattr $C$DW$76, DW_AT_name("__max_align2")
    1116                            .dwattr $C$DW$76, DW_AT_TI_symbol_name("__max_align2")
    1117                            .dwattr $C$DW$76, DW_AT_data_member_location[DW_OP_plus_uconst 0x8]
    1118                            .dwattr $C$DW$76, DW_AT_accessibility(DW_ACCESS_public)
    1119                            .dwattr $C$DW$76, DW_AT_decl_file("C:/ti/ccs1200/ccs/tools/compiler/ti-cgt-arm_20.2.6.LTS/incl
    1120                            .dwattr $C$DW$76, DW_AT_decl_line(0x7c)
    1121                            .dwattr $C$DW$76, DW_AT_decl_column(0x0e)
    1122                    
    1123                            .dwattr $C$DW$T$32, DW_AT_decl_file("C:/ti/ccs1200/ccs/tools/compiler/ti-cgt-arm_20.2.6.LTS/in
    1124                            .dwattr $C$DW$T$32, DW_AT_decl_line(0x7a)
    1125                            .dwattr $C$DW$T$32, DW_AT_decl_column(0x10)
    1126                            .dwendtag $C$DW$T$32
    1127                    
    1128                    $C$DW$T$183     .dwtag  DW_TAG_typedef
    1129                            .dwattr $C$DW$T$183, DW_AT_name("__max_align_t")
    1130                            .dwattr $C$DW$T$183, DW_AT_type(*$C$DW$T$32)
    1131                            .dwattr $C$DW$T$183, DW_AT_language(DW_LANG_C)
    1132                            .dwattr $C$DW$T$183, DW_AT_decl_file("C:/ti/ccs1200/ccs/tools/compiler/ti-cgt-arm_20.2.6.LTS/i
    1133                            .dwattr $C$DW$T$183, DW_AT_decl_line(0x7d)
    1134                            .dwattr $C$DW$T$183, DW_AT_decl_column(0x03)
    1135                    
    1136                    
    1137                    $C$DW$T$35      .dwtag  DW_TAG_structure_type
    1138                            .dwattr $C$DW$T$35, DW_AT_byte_size(0x04)
    1139                    $C$DW$77        .dwtag  DW_TAG_member
    1140                            .dwattr $C$DW$77, DW_AT_type(*$C$DW$T$34)
    1141                            .dwattr $C$DW$77, DW_AT_name("_reserved0")
    1142                            .dwattr $C$DW$77, DW_AT_TI_symbol_name("_reserved0")
    1143                            .dwattr $C$DW$77, DW_AT_bit_offset(0x10)
    1144                            .dwattr $C$DW$77, DW_AT_bit_size(0x10)
TI ARM Assembler PC v20.2.6 Mon Oct 31 23:17:03 2022

Copyright (c) 1996-2018 Texas Instruments Incorporated
InputOutput.asm                                                      PAGE   22

    1145                            .dwattr $C$DW$77, DW_AT_data_member_location[DW_OP_plus_uconst 0x0]
    1146                            .dwattr $C$DW$77, DW_AT_accessibility(DW_ACCESS_public)
    1147                            .dwattr $C$DW$77, DW_AT_decl_file("C:/ti/ccs1200/ccs/ccs_base/arm/include/CMSIS/core_cm4.h")
    1148                            .dwattr $C$DW$77, DW_AT_decl_line(0x105)
    1149                            .dwattr $C$DW$77, DW_AT_decl_column(0x0e)
    1150                    
    1151                    $C$DW$78        .dwtag  DW_TAG_member
    1152                            .dwattr $C$DW$78, DW_AT_type(*$C$DW$T$34)
    1153                            .dwattr $C$DW$78, DW_AT_name("GE")
    1154                            .dwattr $C$DW$78, DW_AT_TI_symbol_name("GE")
    1155                            .dwattr $C$DW$78, DW_AT_bit_offset(0x0c)
    1156                            .dwattr $C$DW$78, DW_AT_bit_size(0x04)
    1157                            .dwattr $C$DW$78, DW_AT_data_member_location[DW_OP_plus_uconst 0x0]
    1158                            .dwattr $C$DW$78, DW_AT_accessibility(DW_ACCESS_public)
    1159                            .dwattr $C$DW$78, DW_AT_decl_file("C:/ti/ccs1200/ccs/ccs_base/arm/include/CMSIS/core_cm4.h")
    1160                            .dwattr $C$DW$78, DW_AT_decl_line(0x106)
    1161                            .dwattr $C$DW$78, DW_AT_decl_column(0x0e)
    1162                    
    1163                    $C$DW$79        .dwtag  DW_TAG_member
    1164                            .dwattr $C$DW$79, DW_AT_type(*$C$DW$T$34)
    1165                            .dwattr $C$DW$79, DW_AT_name("_reserved1")
    1166                            .dwattr $C$DW$79, DW_AT_TI_symbol_name("_reserved1")
    1167                            .dwattr $C$DW$79, DW_AT_bit_offset(0x05)
    1168                            .dwattr $C$DW$79, DW_AT_bit_size(0x07)
    1169                            .dwattr $C$DW$79, DW_AT_data_member_location[DW_OP_plus_uconst 0x0]
    1170                            .dwattr $C$DW$79, DW_AT_accessibility(DW_ACCESS_public)
    1171                            .dwattr $C$DW$79, DW_AT_decl_file("C:/ti/ccs1200/ccs/ccs_base/arm/include/CMSIS/core_cm4.h")
    1172                            .dwattr $C$DW$79, DW_AT_decl_line(0x107)
    1173                            .dwattr $C$DW$79, DW_AT_decl_column(0x0e)
    1174                    
    1175                    $C$DW$80        .dwtag  DW_TAG_member
    1176                            .dwattr $C$DW$80, DW_AT_type(*$C$DW$T$34)
    1177                            .dwattr $C$DW$80, DW_AT_name("Q")
    1178                            .dwattr $C$DW$80, DW_AT_TI_symbol_name("Q")
    1179                            .dwattr $C$DW$80, DW_AT_bit_offset(0x04)
    1180                            .dwattr $C$DW$80, DW_AT_bit_size(0x01)
    1181                            .dwattr $C$DW$80, DW_AT_data_member_location[DW_OP_plus_uconst 0x0]
    1182                            .dwattr $C$DW$80, DW_AT_accessibility(DW_ACCESS_public)
    1183                            .dwattr $C$DW$80, DW_AT_decl_file("C:/ti/ccs1200/ccs/ccs_base/arm/include/CMSIS/core_cm4.h")
    1184                            .dwattr $C$DW$80, DW_AT_decl_line(0x108)
    1185                            .dwattr $C$DW$80, DW_AT_decl_column(0x0e)
    1186                    
    1187                    $C$DW$81        .dwtag  DW_TAG_member
    1188                            .dwattr $C$DW$81, DW_AT_type(*$C$DW$T$34)
    1189                            .dwattr $C$DW$81, DW_AT_name("V")
    1190                            .dwattr $C$DW$81, DW_AT_TI_symbol_name("V")
    1191                            .dwattr $C$DW$81, DW_AT_bit_offset(0x03)
    1192                            .dwattr $C$DW$81, DW_AT_bit_size(0x01)
    1193                            .dwattr $C$DW$81, DW_AT_data_member_location[DW_OP_plus_uconst 0x0]
    1194                            .dwattr $C$DW$81, DW_AT_accessibility(DW_ACCESS_public)
    1195                            .dwattr $C$DW$81, DW_AT_decl_file("C:/ti/ccs1200/ccs/ccs_base/arm/include/CMSIS/core_cm4.h")
    1196                            .dwattr $C$DW$81, DW_AT_decl_line(0x109)
    1197                            .dwattr $C$DW$81, DW_AT_decl_column(0x0e)
    1198                    
    1199                    $C$DW$82        .dwtag  DW_TAG_member
TI ARM Assembler PC v20.2.6 Mon Oct 31 23:17:03 2022

Copyright (c) 1996-2018 Texas Instruments Incorporated
InputOutput.asm                                                      PAGE   23

    1200                            .dwattr $C$DW$82, DW_AT_type(*$C$DW$T$34)
    1201                            .dwattr $C$DW$82, DW_AT_name("C")
    1202                            .dwattr $C$DW$82, DW_AT_TI_symbol_name("C")
    1203                            .dwattr $C$DW$82, DW_AT_bit_offset(0x02)
    1204                            .dwattr $C$DW$82, DW_AT_bit_size(0x01)
    1205                            .dwattr $C$DW$82, DW_AT_data_member_location[DW_OP_plus_uconst 0x0]
    1206                            .dwattr $C$DW$82, DW_AT_accessibility(DW_ACCESS_public)
    1207                            .dwattr $C$DW$82, DW_AT_decl_file("C:/ti/ccs1200/ccs/ccs_base/arm/include/CMSIS/core_cm4.h")
    1208                            .dwattr $C$DW$82, DW_AT_decl_line(0x10a)
    1209                            .dwattr $C$DW$82, DW_AT_decl_column(0x0e)
    1210                    
    1211                    $C$DW$83        .dwtag  DW_TAG_member
    1212                            .dwattr $C$DW$83, DW_AT_type(*$C$DW$T$34)
    1213                            .dwattr $C$DW$83, DW_AT_name("Z")
    1214                            .dwattr $C$DW$83, DW_AT_TI_symbol_name("Z")
    1215                            .dwattr $C$DW$83, DW_AT_bit_offset(0x01)
    1216                            .dwattr $C$DW$83, DW_AT_bit_size(0x01)
    1217                            .dwattr $C$DW$83, DW_AT_data_member_location[DW_OP_plus_uconst 0x0]
    1218                            .dwattr $C$DW$83, DW_AT_accessibility(DW_ACCESS_public)
    1219                            .dwattr $C$DW$83, DW_AT_decl_file("C:/ti/ccs1200/ccs/ccs_base/arm/include/CMSIS/core_cm4.h")
    1220                            .dwattr $C$DW$83, DW_AT_decl_line(0x10b)
    1221                            .dwattr $C$DW$83, DW_AT_decl_column(0x0e)
    1222                    
    1223                    $C$DW$84        .dwtag  DW_TAG_member
    1224                            .dwattr $C$DW$84, DW_AT_type(*$C$DW$T$34)
    1225                            .dwattr $C$DW$84, DW_AT_name("N")
    1226                            .dwattr $C$DW$84, DW_AT_TI_symbol_name("N")
    1227                            .dwattr $C$DW$84, DW_AT_bit_offset(0x00)
    1228                            .dwattr $C$DW$84, DW_AT_bit_size(0x01)
    1229                            .dwattr $C$DW$84, DW_AT_data_member_location[DW_OP_plus_uconst 0x0]
    1230                            .dwattr $C$DW$84, DW_AT_accessibility(DW_ACCESS_public)
    1231                            .dwattr $C$DW$84, DW_AT_decl_file("C:/ti/ccs1200/ccs/ccs_base/arm/include/CMSIS/core_cm4.h")
    1232                            .dwattr $C$DW$84, DW_AT_decl_line(0x10c)
    1233                            .dwattr $C$DW$84, DW_AT_decl_column(0x0e)
    1234                    
    1235                            .dwattr $C$DW$T$35, DW_AT_decl_file("C:/ti/ccs1200/ccs/ccs_base/arm/include/CMSIS/core_cm4.h")
    1236                            .dwattr $C$DW$T$35, DW_AT_decl_line(0x104)
    1237                            .dwattr $C$DW$T$35, DW_AT_decl_column(0x03)
    1238                            .dwendtag $C$DW$T$35
    1239                    
    1240                    
    1241                    $C$DW$T$36      .dwtag  DW_TAG_structure_type
    1242                            .dwattr $C$DW$T$36, DW_AT_byte_size(0x04)
    1243                    $C$DW$85        .dwtag  DW_TAG_member
    1244                            .dwattr $C$DW$85, DW_AT_type(*$C$DW$T$34)
    1245                            .dwattr $C$DW$85, DW_AT_name("ISR")
    1246                            .dwattr $C$DW$85, DW_AT_TI_symbol_name("ISR")
    1247                            .dwattr $C$DW$85, DW_AT_bit_offset(0x17)
    1248                            .dwattr $C$DW$85, DW_AT_bit_size(0x09)
    1249                            .dwattr $C$DW$85, DW_AT_data_member_location[DW_OP_plus_uconst 0x0]
    1250                            .dwattr $C$DW$85, DW_AT_accessibility(DW_ACCESS_public)
    1251                            .dwattr $C$DW$85, DW_AT_decl_file("C:/ti/ccs1200/ccs/ccs_base/arm/include/CMSIS/core_cm4.h")
    1252                            .dwattr $C$DW$85, DW_AT_decl_line(0x12c)
    1253                            .dwattr $C$DW$85, DW_AT_decl_column(0x0e)
    1254                    
TI ARM Assembler PC v20.2.6 Mon Oct 31 23:17:03 2022

Copyright (c) 1996-2018 Texas Instruments Incorporated
InputOutput.asm                                                      PAGE   24

    1255                    $C$DW$86        .dwtag  DW_TAG_member
    1256                            .dwattr $C$DW$86, DW_AT_type(*$C$DW$T$34)
    1257                            .dwattr $C$DW$86, DW_AT_name("_reserved0")
    1258                            .dwattr $C$DW$86, DW_AT_TI_symbol_name("_reserved0")
    1259                            .dwattr $C$DW$86, DW_AT_bit_offset(0x00)
    1260                            .dwattr $C$DW$86, DW_AT_bit_size(0x17)
    1261                            .dwattr $C$DW$86, DW_AT_data_member_location[DW_OP_plus_uconst 0x0]
    1262                            .dwattr $C$DW$86, DW_AT_accessibility(DW_ACCESS_public)
    1263                            .dwattr $C$DW$86, DW_AT_decl_file("C:/ti/ccs1200/ccs/ccs_base/arm/include/CMSIS/core_cm4.h")
    1264                            .dwattr $C$DW$86, DW_AT_decl_line(0x12d)
    1265                            .dwattr $C$DW$86, DW_AT_decl_column(0x0e)
    1266                    
    1267                            .dwattr $C$DW$T$36, DW_AT_decl_file("C:/ti/ccs1200/ccs/ccs_base/arm/include/CMSIS/core_cm4.h")
    1268                            .dwattr $C$DW$T$36, DW_AT_decl_line(0x12b)
    1269                            .dwattr $C$DW$T$36, DW_AT_decl_column(0x03)
    1270                            .dwendtag $C$DW$T$36
    1271                    
    1272                    
    1273                    $C$DW$T$37      .dwtag  DW_TAG_structure_type
    1274                            .dwattr $C$DW$T$37, DW_AT_byte_size(0x04)
    1275                    $C$DW$87        .dwtag  DW_TAG_member
    1276                            .dwattr $C$DW$87, DW_AT_type(*$C$DW$T$34)
    1277                            .dwattr $C$DW$87, DW_AT_name("ISR")
    1278                            .dwattr $C$DW$87, DW_AT_TI_symbol_name("ISR")
    1279                            .dwattr $C$DW$87, DW_AT_bit_offset(0x17)
    1280                            .dwattr $C$DW$87, DW_AT_bit_size(0x09)
    1281                            .dwattr $C$DW$87, DW_AT_data_member_location[DW_OP_plus_uconst 0x0]
    1282                            .dwattr $C$DW$87, DW_AT_accessibility(DW_ACCESS_public)
    1283                            .dwattr $C$DW$87, DW_AT_decl_file("C:/ti/ccs1200/ccs/ccs_base/arm/include/CMSIS/core_cm4.h")
    1284                            .dwattr $C$DW$87, DW_AT_decl_line(0x13e)
    1285                            .dwattr $C$DW$87, DW_AT_decl_column(0x0e)
    1286                    
    1287                    $C$DW$88        .dwtag  DW_TAG_member
    1288                            .dwattr $C$DW$88, DW_AT_type(*$C$DW$T$34)
    1289                            .dwattr $C$DW$88, DW_AT_name("_reserved0")
    1290                            .dwattr $C$DW$88, DW_AT_TI_symbol_name("_reserved0")
    1291                            .dwattr $C$DW$88, DW_AT_bit_offset(0x16)
    1292                            .dwattr $C$DW$88, DW_AT_bit_size(0x01)
    1293                            .dwattr $C$DW$88, DW_AT_data_member_location[DW_OP_plus_uconst 0x0]
    1294                            .dwattr $C$DW$88, DW_AT_accessibility(DW_ACCESS_public)
    1295                            .dwattr $C$DW$88, DW_AT_decl_file("C:/ti/ccs1200/ccs/ccs_base/arm/include/CMSIS/core_cm4.h")
    1296                            .dwattr $C$DW$88, DW_AT_decl_line(0x13f)
    1297                            .dwattr $C$DW$88, DW_AT_decl_column(0x0e)
    1298                    
    1299                    $C$DW$89        .dwtag  DW_TAG_member
    1300                            .dwattr $C$DW$89, DW_AT_type(*$C$DW$T$34)
    1301                            .dwattr $C$DW$89, DW_AT_name("ICI_IT_1")
    1302                            .dwattr $C$DW$89, DW_AT_TI_symbol_name("ICI_IT_1")
    1303                            .dwattr $C$DW$89, DW_AT_bit_offset(0x10)
    1304                            .dwattr $C$DW$89, DW_AT_bit_size(0x06)
    1305                            .dwattr $C$DW$89, DW_AT_data_member_location[DW_OP_plus_uconst 0x0]
    1306                            .dwattr $C$DW$89, DW_AT_accessibility(DW_ACCESS_public)
    1307                            .dwattr $C$DW$89, DW_AT_decl_file("C:/ti/ccs1200/ccs/ccs_base/arm/include/CMSIS/core_cm4.h")
    1308                            .dwattr $C$DW$89, DW_AT_decl_line(0x140)
    1309                            .dwattr $C$DW$89, DW_AT_decl_column(0x0e)
TI ARM Assembler PC v20.2.6 Mon Oct 31 23:17:03 2022

Copyright (c) 1996-2018 Texas Instruments Incorporated
InputOutput.asm                                                      PAGE   25

    1310                    
    1311                    $C$DW$90        .dwtag  DW_TAG_member
    1312                            .dwattr $C$DW$90, DW_AT_type(*$C$DW$T$34)
    1313                            .dwattr $C$DW$90, DW_AT_name("GE")
    1314                            .dwattr $C$DW$90, DW_AT_TI_symbol_name("GE")
    1315                            .dwattr $C$DW$90, DW_AT_bit_offset(0x0c)
    1316                            .dwattr $C$DW$90, DW_AT_bit_size(0x04)
    1317                            .dwattr $C$DW$90, DW_AT_data_member_location[DW_OP_plus_uconst 0x0]
    1318                            .dwattr $C$DW$90, DW_AT_accessibility(DW_ACCESS_public)
    1319                            .dwattr $C$DW$90, DW_AT_decl_file("C:/ti/ccs1200/ccs/ccs_base/arm/include/CMSIS/core_cm4.h")
    1320                            .dwattr $C$DW$90, DW_AT_decl_line(0x141)
    1321                            .dwattr $C$DW$90, DW_AT_decl_column(0x0e)
    1322                    
    1323                    $C$DW$91        .dwtag  DW_TAG_member
    1324                            .dwattr $C$DW$91, DW_AT_type(*$C$DW$T$34)
    1325                            .dwattr $C$DW$91, DW_AT_name("_reserved1")
    1326                            .dwattr $C$DW$91, DW_AT_TI_symbol_name("_reserved1")
    1327                            .dwattr $C$DW$91, DW_AT_bit_offset(0x08)
    1328                            .dwattr $C$DW$91, DW_AT_bit_size(0x04)
    1329                            .dwattr $C$DW$91, DW_AT_data_member_location[DW_OP_plus_uconst 0x0]
    1330                            .dwattr $C$DW$91, DW_AT_accessibility(DW_ACCESS_public)
    1331                            .dwattr $C$DW$91, DW_AT_decl_file("C:/ti/ccs1200/ccs/ccs_base/arm/include/CMSIS/core_cm4.h")
    1332                            .dwattr $C$DW$91, DW_AT_decl_line(0x142)
    1333                            .dwattr $C$DW$91, DW_AT_decl_column(0x0e)
    1334                    
    1335                    $C$DW$92        .dwtag  DW_TAG_member
    1336                            .dwattr $C$DW$92, DW_AT_type(*$C$DW$T$34)
    1337                            .dwattr $C$DW$92, DW_AT_name("T")
    1338                            .dwattr $C$DW$92, DW_AT_TI_symbol_name("T")
    1339                            .dwattr $C$DW$92, DW_AT_bit_offset(0x07)
    1340                            .dwattr $C$DW$92, DW_AT_bit_size(0x01)
    1341                            .dwattr $C$DW$92, DW_AT_data_member_location[DW_OP_plus_uconst 0x0]
    1342                            .dwattr $C$DW$92, DW_AT_accessibility(DW_ACCESS_public)
    1343                            .dwattr $C$DW$92, DW_AT_decl_file("C:/ti/ccs1200/ccs/ccs_base/arm/include/CMSIS/core_cm4.h")
    1344                            .dwattr $C$DW$92, DW_AT_decl_line(0x143)
    1345                            .dwattr $C$DW$92, DW_AT_decl_column(0x0e)
    1346                    
    1347                    $C$DW$93        .dwtag  DW_TAG_member
    1348                            .dwattr $C$DW$93, DW_AT_type(*$C$DW$T$34)
    1349                            .dwattr $C$DW$93, DW_AT_name("ICI_IT_2")
    1350                            .dwattr $C$DW$93, DW_AT_TI_symbol_name("ICI_IT_2")
    1351                            .dwattr $C$DW$93, DW_AT_bit_offset(0x05)
    1352                            .dwattr $C$DW$93, DW_AT_bit_size(0x02)
    1353                            .dwattr $C$DW$93, DW_AT_data_member_location[DW_OP_plus_uconst 0x0]
    1354                            .dwattr $C$DW$93, DW_AT_accessibility(DW_ACCESS_public)
    1355                            .dwattr $C$DW$93, DW_AT_decl_file("C:/ti/ccs1200/ccs/ccs_base/arm/include/CMSIS/core_cm4.h")
    1356                            .dwattr $C$DW$93, DW_AT_decl_line(0x144)
    1357                            .dwattr $C$DW$93, DW_AT_decl_column(0x0e)
    1358                    
    1359                    $C$DW$94        .dwtag  DW_TAG_member
    1360                            .dwattr $C$DW$94, DW_AT_type(*$C$DW$T$34)
    1361                            .dwattr $C$DW$94, DW_AT_name("Q")
    1362                            .dwattr $C$DW$94, DW_AT_TI_symbol_name("Q")
    1363                            .dwattr $C$DW$94, DW_AT_bit_offset(0x04)
    1364                            .dwattr $C$DW$94, DW_AT_bit_size(0x01)
TI ARM Assembler PC v20.2.6 Mon Oct 31 23:17:03 2022

Copyright (c) 1996-2018 Texas Instruments Incorporated
InputOutput.asm                                                      PAGE   26

    1365                            .dwattr $C$DW$94, DW_AT_data_member_location[DW_OP_plus_uconst 0x0]
    1366                            .dwattr $C$DW$94, DW_AT_accessibility(DW_ACCESS_public)
    1367                            .dwattr $C$DW$94, DW_AT_decl_file("C:/ti/ccs1200/ccs/ccs_base/arm/include/CMSIS/core_cm4.h")
    1368                            .dwattr $C$DW$94, DW_AT_decl_line(0x145)
    1369                            .dwattr $C$DW$94, DW_AT_decl_column(0x0e)
    1370                    
    1371                    $C$DW$95        .dwtag  DW_TAG_member
    1372                            .dwattr $C$DW$95, DW_AT_type(*$C$DW$T$34)
    1373                            .dwattr $C$DW$95, DW_AT_name("V")
    1374                            .dwattr $C$DW$95, DW_AT_TI_symbol_name("V")
    1375                            .dwattr $C$DW$95, DW_AT_bit_offset(0x03)
    1376                            .dwattr $C$DW$95, DW_AT_bit_size(0x01)
    1377                            .dwattr $C$DW$95, DW_AT_data_member_location[DW_OP_plus_uconst 0x0]
    1378                            .dwattr $C$DW$95, DW_AT_accessibility(DW_ACCESS_public)
    1379                            .dwattr $C$DW$95, DW_AT_decl_file("C:/ti/ccs1200/ccs/ccs_base/arm/include/CMSIS/core_cm4.h")
    1380                            .dwattr $C$DW$95, DW_AT_decl_line(0x146)
    1381                            .dwattr $C$DW$95, DW_AT_decl_column(0x0e)
    1382                    
    1383                    $C$DW$96        .dwtag  DW_TAG_member
    1384                            .dwattr $C$DW$96, DW_AT_type(*$C$DW$T$34)
    1385                            .dwattr $C$DW$96, DW_AT_name("C")
    1386                            .dwattr $C$DW$96, DW_AT_TI_symbol_name("C")
    1387                            .dwattr $C$DW$96, DW_AT_bit_offset(0x02)
    1388                            .dwattr $C$DW$96, DW_AT_bit_size(0x01)
    1389                            .dwattr $C$DW$96, DW_AT_data_member_location[DW_OP_plus_uconst 0x0]
    1390                            .dwattr $C$DW$96, DW_AT_accessibility(DW_ACCESS_public)
    1391                            .dwattr $C$DW$96, DW_AT_decl_file("C:/ti/ccs1200/ccs/ccs_base/arm/include/CMSIS/core_cm4.h")
    1392                            .dwattr $C$DW$96, DW_AT_decl_line(0x147)
    1393                            .dwattr $C$DW$96, DW_AT_decl_column(0x0e)
    1394                    
    1395                    $C$DW$97        .dwtag  DW_TAG_member
    1396                            .dwattr $C$DW$97, DW_AT_type(*$C$DW$T$34)
    1397                            .dwattr $C$DW$97, DW_AT_name("Z")
    1398                            .dwattr $C$DW$97, DW_AT_TI_symbol_name("Z")
    1399                            .dwattr $C$DW$97, DW_AT_bit_offset(0x01)
    1400                            .dwattr $C$DW$97, DW_AT_bit_size(0x01)
    1401                            .dwattr $C$DW$97, DW_AT_data_member_location[DW_OP_plus_uconst 0x0]
    1402                            .dwattr $C$DW$97, DW_AT_accessibility(DW_ACCESS_public)
    1403                            .dwattr $C$DW$97, DW_AT_decl_file("C:/ti/ccs1200/ccs/ccs_base/arm/include/CMSIS/core_cm4.h")
    1404                            .dwattr $C$DW$97, DW_AT_decl_line(0x148)
    1405                            .dwattr $C$DW$97, DW_AT_decl_column(0x0e)
    1406                    
    1407                    $C$DW$98        .dwtag  DW_TAG_member
    1408                            .dwattr $C$DW$98, DW_AT_type(*$C$DW$T$34)
    1409                            .dwattr $C$DW$98, DW_AT_name("N")
    1410                            .dwattr $C$DW$98, DW_AT_TI_symbol_name("N")
    1411                            .dwattr $C$DW$98, DW_AT_bit_offset(0x00)
    1412                            .dwattr $C$DW$98, DW_AT_bit_size(0x01)
    1413                            .dwattr $C$DW$98, DW_AT_data_member_location[DW_OP_plus_uconst 0x0]
    1414                            .dwattr $C$DW$98, DW_AT_accessibility(DW_ACCESS_public)
    1415                            .dwattr $C$DW$98, DW_AT_decl_file("C:/ti/ccs1200/ccs/ccs_base/arm/include/CMSIS/core_cm4.h")
    1416                            .dwattr $C$DW$98, DW_AT_decl_line(0x149)
    1417                            .dwattr $C$DW$98, DW_AT_decl_column(0x0e)
    1418                    
    1419                            .dwattr $C$DW$T$37, DW_AT_decl_file("C:/ti/ccs1200/ccs/ccs_base/arm/include/CMSIS/core_cm4.h")
TI ARM Assembler PC v20.2.6 Mon Oct 31 23:17:03 2022

Copyright (c) 1996-2018 Texas Instruments Incorporated
InputOutput.asm                                                      PAGE   27

    1420                            .dwattr $C$DW$T$37, DW_AT_decl_line(0x13d)
    1421                            .dwattr $C$DW$T$37, DW_AT_decl_column(0x03)
    1422                            .dwendtag $C$DW$T$37
    1423                    
    1424                    
    1425                    $C$DW$T$38      .dwtag  DW_TAG_structure_type
    1426                            .dwattr $C$DW$T$38, DW_AT_byte_size(0x04)
    1427                    $C$DW$99        .dwtag  DW_TAG_member
    1428                            .dwattr $C$DW$99, DW_AT_type(*$C$DW$T$34)
    1429                            .dwattr $C$DW$99, DW_AT_name("nPRIV")
    1430                            .dwattr $C$DW$99, DW_AT_TI_symbol_name("nPRIV")
    1431                            .dwattr $C$DW$99, DW_AT_bit_offset(0x1f)
    1432                            .dwattr $C$DW$99, DW_AT_bit_size(0x01)
    1433                            .dwattr $C$DW$99, DW_AT_data_member_location[DW_OP_plus_uconst 0x0]
    1434                            .dwattr $C$DW$99, DW_AT_accessibility(DW_ACCESS_public)
    1435                            .dwattr $C$DW$99, DW_AT_decl_file("C:/ti/ccs1200/ccs/ccs_base/arm/include/CMSIS/core_cm4.h")
    1436                            .dwattr $C$DW$99, DW_AT_decl_line(0x175)
    1437                            .dwattr $C$DW$99, DW_AT_decl_column(0x0e)
    1438                    
    1439                    $C$DW$100       .dwtag  DW_TAG_member
    1440                            .dwattr $C$DW$100, DW_AT_type(*$C$DW$T$34)
    1441                            .dwattr $C$DW$100, DW_AT_name("SPSEL")
    1442                            .dwattr $C$DW$100, DW_AT_TI_symbol_name("SPSEL")
    1443                            .dwattr $C$DW$100, DW_AT_bit_offset(0x1e)
    1444                            .dwattr $C$DW$100, DW_AT_bit_size(0x01)
    1445                            .dwattr $C$DW$100, DW_AT_data_member_location[DW_OP_plus_uconst 0x0]
    1446                            .dwattr $C$DW$100, DW_AT_accessibility(DW_ACCESS_public)
    1447                            .dwattr $C$DW$100, DW_AT_decl_file("C:/ti/ccs1200/ccs/ccs_base/arm/include/CMSIS/core_cm4.h")
    1448                            .dwattr $C$DW$100, DW_AT_decl_line(0x176)
    1449                            .dwattr $C$DW$100, DW_AT_decl_column(0x0e)
    1450                    
    1451                    $C$DW$101       .dwtag  DW_TAG_member
    1452                            .dwattr $C$DW$101, DW_AT_type(*$C$DW$T$34)
    1453                            .dwattr $C$DW$101, DW_AT_name("FPCA")
    1454                            .dwattr $C$DW$101, DW_AT_TI_symbol_name("FPCA")
    1455                            .dwattr $C$DW$101, DW_AT_bit_offset(0x1d)
    1456                            .dwattr $C$DW$101, DW_AT_bit_size(0x01)
    1457                            .dwattr $C$DW$101, DW_AT_data_member_location[DW_OP_plus_uconst 0x0]
    1458                            .dwattr $C$DW$101, DW_AT_accessibility(DW_ACCESS_public)
    1459                            .dwattr $C$DW$101, DW_AT_decl_file("C:/ti/ccs1200/ccs/ccs_base/arm/include/CMSIS/core_cm4.h")
    1460                            .dwattr $C$DW$101, DW_AT_decl_line(0x177)
    1461                            .dwattr $C$DW$101, DW_AT_decl_column(0x0e)
    1462                    
    1463                    $C$DW$102       .dwtag  DW_TAG_member
    1464                            .dwattr $C$DW$102, DW_AT_type(*$C$DW$T$34)
    1465                            .dwattr $C$DW$102, DW_AT_name("_reserved0")
    1466                            .dwattr $C$DW$102, DW_AT_TI_symbol_name("_reserved0")
    1467                            .dwattr $C$DW$102, DW_AT_bit_offset(0x00)
    1468                            .dwattr $C$DW$102, DW_AT_bit_size(0x1d)
    1469                            .dwattr $C$DW$102, DW_AT_data_member_location[DW_OP_plus_uconst 0x0]
    1470                            .dwattr $C$DW$102, DW_AT_accessibility(DW_ACCESS_public)
    1471                            .dwattr $C$DW$102, DW_AT_decl_file("C:/ti/ccs1200/ccs/ccs_base/arm/include/CMSIS/core_cm4.h")
    1472                            .dwattr $C$DW$102, DW_AT_decl_line(0x178)
    1473                            .dwattr $C$DW$102, DW_AT_decl_column(0x0e)
    1474                    
TI ARM Assembler PC v20.2.6 Mon Oct 31 23:17:03 2022

Copyright (c) 1996-2018 Texas Instruments Incorporated
InputOutput.asm                                                      PAGE   28

    1475                            .dwattr $C$DW$T$38, DW_AT_decl_file("C:/ti/ccs1200/ccs/ccs_base/arm/include/CMSIS/core_cm4.h")
    1476                            .dwattr $C$DW$T$38, DW_AT_decl_line(0x174)
    1477                            .dwattr $C$DW$T$38, DW_AT_decl_column(0x03)
    1478                            .dwendtag $C$DW$T$38
    1479                    
    1480                    
    1481                    $C$DW$T$45      .dwtag  DW_TAG_structure_type
    1482                            .dwattr $C$DW$T$45, DW_AT_byte_size(0xe04)
    1483                    $C$DW$103       .dwtag  DW_TAG_member
    1484                            .dwattr $C$DW$103, DW_AT_type(*$C$DW$T$40)
    1485                            .dwattr $C$DW$103, DW_AT_name("ISER")
    1486                            .dwattr $C$DW$103, DW_AT_TI_symbol_name("ISER")
    1487                            .dwattr $C$DW$103, DW_AT_data_member_location[DW_OP_plus_uconst 0x0]
    1488                            .dwattr $C$DW$103, DW_AT_accessibility(DW_ACCESS_public)
    1489                            .dwattr $C$DW$103, DW_AT_decl_file("C:/ti/ccs1200/ccs/ccs_base/arm/include/CMSIS/core_cm4.h")
    1490                            .dwattr $C$DW$103, DW_AT_decl_line(0x196)
    1491                            .dwattr $C$DW$103, DW_AT_decl_column(0x12)
    1492                    
    1493                    $C$DW$104       .dwtag  DW_TAG_member
    1494                            .dwattr $C$DW$104, DW_AT_type(*$C$DW$T$41)
    1495                            .dwattr $C$DW$104, DW_AT_name("RESERVED0")
    1496                            .dwattr $C$DW$104, DW_AT_TI_symbol_name("RESERVED0")
    1497                            .dwattr $C$DW$104, DW_AT_data_member_location[DW_OP_plus_uconst 0x20]
    1498                            .dwattr $C$DW$104, DW_AT_accessibility(DW_ACCESS_public)
    1499                            .dwattr $C$DW$104, DW_AT_decl_file("C:/ti/ccs1200/ccs/ccs_base/arm/include/CMSIS/core_cm4.h")
    1500                            .dwattr $C$DW$104, DW_AT_decl_line(0x197)
    1501                            .dwattr $C$DW$104, DW_AT_decl_column(0x12)
    1502                    
    1503                    $C$DW$105       .dwtag  DW_TAG_member
    1504                            .dwattr $C$DW$105, DW_AT_type(*$C$DW$T$40)
    1505                            .dwattr $C$DW$105, DW_AT_name("ICER")
    1506                            .dwattr $C$DW$105, DW_AT_TI_symbol_name("ICER")
    1507                            .dwattr $C$DW$105, DW_AT_data_member_location[DW_OP_plus_uconst 0x80]
    1508                            .dwattr $C$DW$105, DW_AT_accessibility(DW_ACCESS_public)
    1509                            .dwattr $C$DW$105, DW_AT_decl_file("C:/ti/ccs1200/ccs/ccs_base/arm/include/CMSIS/core_cm4.h")
    1510                            .dwattr $C$DW$105, DW_AT_decl_line(0x198)
    1511                            .dwattr $C$DW$105, DW_AT_decl_column(0x12)
    1512                    
    1513                    $C$DW$106       .dwtag  DW_TAG_member
    1514                            .dwattr $C$DW$106, DW_AT_type(*$C$DW$T$41)
    1515                            .dwattr $C$DW$106, DW_AT_name("RSERVED1")
    1516                            .dwattr $C$DW$106, DW_AT_TI_symbol_name("RSERVED1")
    1517                            .dwattr $C$DW$106, DW_AT_data_member_location[DW_OP_plus_uconst 0xa0]
    1518                            .dwattr $C$DW$106, DW_AT_accessibility(DW_ACCESS_public)
    1519                            .dwattr $C$DW$106, DW_AT_decl_file("C:/ti/ccs1200/ccs/ccs_base/arm/include/CMSIS/core_cm4.h")
    1520                            .dwattr $C$DW$106, DW_AT_decl_line(0x199)
    1521                            .dwattr $C$DW$106, DW_AT_decl_column(0x12)
    1522                    
    1523                    $C$DW$107       .dwtag  DW_TAG_member
    1524                            .dwattr $C$DW$107, DW_AT_type(*$C$DW$T$40)
    1525                            .dwattr $C$DW$107, DW_AT_name("ISPR")
    1526                            .dwattr $C$DW$107, DW_AT_TI_symbol_name("ISPR")
    1527                            .dwattr $C$DW$107, DW_AT_data_member_location[DW_OP_plus_uconst 0x100]
    1528                            .dwattr $C$DW$107, DW_AT_accessibility(DW_ACCESS_public)
    1529                            .dwattr $C$DW$107, DW_AT_decl_file("C:/ti/ccs1200/ccs/ccs_base/arm/include/CMSIS/core_cm4.h")
TI ARM Assembler PC v20.2.6 Mon Oct 31 23:17:03 2022

Copyright (c) 1996-2018 Texas Instruments Incorporated
InputOutput.asm                                                      PAGE   29

    1530                            .dwattr $C$DW$107, DW_AT_decl_line(0x19a)
    1531                            .dwattr $C$DW$107, DW_AT_decl_column(0x12)
    1532                    
    1533                    $C$DW$108       .dwtag  DW_TAG_member
    1534                            .dwattr $C$DW$108, DW_AT_type(*$C$DW$T$41)
    1535                            .dwattr $C$DW$108, DW_AT_name("RESERVED2")
    1536                            .dwattr $C$DW$108, DW_AT_TI_symbol_name("RESERVED2")
    1537                            .dwattr $C$DW$108, DW_AT_data_member_location[DW_OP_plus_uconst 0x120]
    1538                            .dwattr $C$DW$108, DW_AT_accessibility(DW_ACCESS_public)
    1539                            .dwattr $C$DW$108, DW_AT_decl_file("C:/ti/ccs1200/ccs/ccs_base/arm/include/CMSIS/core_cm4.h")
    1540                            .dwattr $C$DW$108, DW_AT_decl_line(0x19b)
    1541                            .dwattr $C$DW$108, DW_AT_decl_column(0x12)
    1542                    
    1543                    $C$DW$109       .dwtag  DW_TAG_member
    1544                            .dwattr $C$DW$109, DW_AT_type(*$C$DW$T$40)
    1545                            .dwattr $C$DW$109, DW_AT_name("ICPR")
    1546                            .dwattr $C$DW$109, DW_AT_TI_symbol_name("ICPR")
    1547                            .dwattr $C$DW$109, DW_AT_data_member_location[DW_OP_plus_uconst 0x180]
    1548                            .dwattr $C$DW$109, DW_AT_accessibility(DW_ACCESS_public)
    1549                            .dwattr $C$DW$109, DW_AT_decl_file("C:/ti/ccs1200/ccs/ccs_base/arm/include/CMSIS/core_cm4.h")
    1550                            .dwattr $C$DW$109, DW_AT_decl_line(0x19c)
    1551                            .dwattr $C$DW$109, DW_AT_decl_column(0x12)
    1552                    
    1553                    $C$DW$110       .dwtag  DW_TAG_member
    1554                            .dwattr $C$DW$110, DW_AT_type(*$C$DW$T$41)
    1555                            .dwattr $C$DW$110, DW_AT_name("RESERVED3")
    1556                            .dwattr $C$DW$110, DW_AT_TI_symbol_name("RESERVED3")
    1557                            .dwattr $C$DW$110, DW_AT_data_member_location[DW_OP_plus_uconst 0x1a0]
    1558                            .dwattr $C$DW$110, DW_AT_accessibility(DW_ACCESS_public)
    1559                            .dwattr $C$DW$110, DW_AT_decl_file("C:/ti/ccs1200/ccs/ccs_base/arm/include/CMSIS/core_cm4.h")
    1560                            .dwattr $C$DW$110, DW_AT_decl_line(0x19d)
    1561                            .dwattr $C$DW$110, DW_AT_decl_column(0x12)
    1562                    
    1563                    $C$DW$111       .dwtag  DW_TAG_member
    1564                            .dwattr $C$DW$111, DW_AT_type(*$C$DW$T$40)
    1565                            .dwattr $C$DW$111, DW_AT_name("IABR")
    1566                            .dwattr $C$DW$111, DW_AT_TI_symbol_name("IABR")
    1567                            .dwattr $C$DW$111, DW_AT_data_member_location[DW_OP_plus_uconst 0x200]
    1568                            .dwattr $C$DW$111, DW_AT_accessibility(DW_ACCESS_public)
    1569                            .dwattr $C$DW$111, DW_AT_decl_file("C:/ti/ccs1200/ccs/ccs_base/arm/include/CMSIS/core_cm4.h")
    1570                            .dwattr $C$DW$111, DW_AT_decl_line(0x19e)
    1571                            .dwattr $C$DW$111, DW_AT_decl_column(0x12)
    1572                    
    1573                    $C$DW$112       .dwtag  DW_TAG_member
    1574                            .dwattr $C$DW$112, DW_AT_type(*$C$DW$T$42)
    1575                            .dwattr $C$DW$112, DW_AT_name("RESERVED4")
    1576                            .dwattr $C$DW$112, DW_AT_TI_symbol_name("RESERVED4")
    1577                            .dwattr $C$DW$112, DW_AT_data_member_location[DW_OP_plus_uconst 0x220]
    1578                            .dwattr $C$DW$112, DW_AT_accessibility(DW_ACCESS_public)
    1579                            .dwattr $C$DW$112, DW_AT_decl_file("C:/ti/ccs1200/ccs/ccs_base/arm/include/CMSIS/core_cm4.h")
    1580                            .dwattr $C$DW$112, DW_AT_decl_line(0x19f)
    1581                            .dwattr $C$DW$112, DW_AT_decl_column(0x12)
    1582                    
    1583                    $C$DW$113       .dwtag  DW_TAG_member
    1584                            .dwattr $C$DW$113, DW_AT_type(*$C$DW$T$43)
TI ARM Assembler PC v20.2.6 Mon Oct 31 23:17:03 2022

Copyright (c) 1996-2018 Texas Instruments Incorporated
InputOutput.asm                                                      PAGE   30

    1585                            .dwattr $C$DW$113, DW_AT_name("IP")
    1586                            .dwattr $C$DW$113, DW_AT_TI_symbol_name("IP")
    1587                            .dwattr $C$DW$113, DW_AT_data_member_location[DW_OP_plus_uconst 0x300]
    1588                            .dwattr $C$DW$113, DW_AT_accessibility(DW_ACCESS_public)
    1589                            .dwattr $C$DW$113, DW_AT_decl_file("C:/ti/ccs1200/ccs/ccs_base/arm/include/CMSIS/core_cm4.h")
    1590                            .dwattr $C$DW$113, DW_AT_decl_line(0x1a0)
    1591                            .dwattr $C$DW$113, DW_AT_decl_column(0x12)
    1592                    
    1593                    $C$DW$114       .dwtag  DW_TAG_member
    1594                            .dwattr $C$DW$114, DW_AT_type(*$C$DW$T$44)
    1595                            .dwattr $C$DW$114, DW_AT_name("RESERVED5")
    1596                            .dwattr $C$DW$114, DW_AT_TI_symbol_name("RESERVED5")
    1597                            .dwattr $C$DW$114, DW_AT_data_member_location[DW_OP_plus_uconst 0x3f0]
    1598                            .dwattr $C$DW$114, DW_AT_accessibility(DW_ACCESS_public)
    1599                            .dwattr $C$DW$114, DW_AT_decl_file("C:/ti/ccs1200/ccs/ccs_base/arm/include/CMSIS/core_cm4.h")
    1600                            .dwattr $C$DW$114, DW_AT_decl_line(0x1a1)
    1601                            .dwattr $C$DW$114, DW_AT_decl_column(0x12)
    1602                    
    1603                    $C$DW$115       .dwtag  DW_TAG_member
    1604                            .dwattr $C$DW$115, DW_AT_type(*$C$DW$T$39)
    1605                            .dwattr $C$DW$115, DW_AT_name("STIR")
    1606                            .dwattr $C$DW$115, DW_AT_TI_symbol_name("STIR")
    1607                            .dwattr $C$DW$115, DW_AT_data_member_location[DW_OP_plus_uconst 0xe00]
    1608                            .dwattr $C$DW$115, DW_AT_accessibility(DW_ACCESS_public)
    1609                            .dwattr $C$DW$115, DW_AT_decl_file("C:/ti/ccs1200/ccs/ccs_base/arm/include/CMSIS/core_cm4.h")
    1610                            .dwattr $C$DW$115, DW_AT_decl_line(0x1a2)
    1611                            .dwattr $C$DW$115, DW_AT_decl_column(0x12)
    1612                    
    1613                            .dwattr $C$DW$T$45, DW_AT_decl_file("C:/ti/ccs1200/ccs/ccs_base/arm/include/CMSIS/core_cm4.h")
    1614                            .dwattr $C$DW$T$45, DW_AT_decl_line(0x195)
    1615                            .dwattr $C$DW$T$45, DW_AT_decl_column(0x01)
    1616                            .dwendtag $C$DW$T$45
    1617                    
    1618                    $C$DW$T$184     .dwtag  DW_TAG_typedef
    1619                            .dwattr $C$DW$T$184, DW_AT_name("NVIC_Type")
    1620                            .dwattr $C$DW$T$184, DW_AT_type(*$C$DW$T$45)
    1621                            .dwattr $C$DW$T$184, DW_AT_language(DW_LANG_C)
    1622                            .dwattr $C$DW$T$184, DW_AT_decl_file("C:/ti/ccs1200/ccs/ccs_base/arm/include/CMSIS/core_cm4.h"
    1623                            .dwattr $C$DW$T$184, DW_AT_decl_line(0x1a3)
    1624                            .dwattr $C$DW$T$184, DW_AT_decl_column(0x04)
    1625                    
    1626                    
    1627                    $C$DW$T$52      .dwtag  DW_TAG_structure_type
    1628                            .dwattr $C$DW$T$52, DW_AT_byte_size(0x8c)
    1629                    $C$DW$116       .dwtag  DW_TAG_member
    1630                            .dwattr $C$DW$116, DW_AT_type(*$C$DW$T$46)
    1631                            .dwattr $C$DW$116, DW_AT_name("CPUID")
    1632                            .dwattr $C$DW$116, DW_AT_TI_symbol_name("CPUID")
    1633                            .dwattr $C$DW$116, DW_AT_data_member_location[DW_OP_plus_uconst 0x0]
    1634                            .dwattr $C$DW$116, DW_AT_accessibility(DW_ACCESS_public)
    1635                            .dwattr $C$DW$116, DW_AT_decl_file("C:/ti/ccs1200/ccs/ccs_base/arm/include/CMSIS/core_cm4.h")
    1636                            .dwattr $C$DW$116, DW_AT_decl_line(0x1b8)
    1637                            .dwattr $C$DW$116, DW_AT_decl_column(0x12)
    1638                    
    1639                    $C$DW$117       .dwtag  DW_TAG_member
TI ARM Assembler PC v20.2.6 Mon Oct 31 23:17:03 2022

Copyright (c) 1996-2018 Texas Instruments Incorporated
InputOutput.asm                                                      PAGE   31

    1640                            .dwattr $C$DW$117, DW_AT_type(*$C$DW$T$39)
    1641                            .dwattr $C$DW$117, DW_AT_name("ICSR")
    1642                            .dwattr $C$DW$117, DW_AT_TI_symbol_name("ICSR")
    1643                            .dwattr $C$DW$117, DW_AT_data_member_location[DW_OP_plus_uconst 0x4]
    1644                            .dwattr $C$DW$117, DW_AT_accessibility(DW_ACCESS_public)
    1645                            .dwattr $C$DW$117, DW_AT_decl_file("C:/ti/ccs1200/ccs/ccs_base/arm/include/CMSIS/core_cm4.h")
    1646                            .dwattr $C$DW$117, DW_AT_decl_line(0x1b9)
    1647                            .dwattr $C$DW$117, DW_AT_decl_column(0x12)
    1648                    
    1649                    $C$DW$118       .dwtag  DW_TAG_member
    1650                            .dwattr $C$DW$118, DW_AT_type(*$C$DW$T$39)
    1651                            .dwattr $C$DW$118, DW_AT_name("VTOR")
    1652                            .dwattr $C$DW$118, DW_AT_TI_symbol_name("VTOR")
    1653                            .dwattr $C$DW$118, DW_AT_data_member_location[DW_OP_plus_uconst 0x8]
    1654                            .dwattr $C$DW$118, DW_AT_accessibility(DW_ACCESS_public)
    1655                            .dwattr $C$DW$118, DW_AT_decl_file("C:/ti/ccs1200/ccs/ccs_base/arm/include/CMSIS/core_cm4.h")
    1656                            .dwattr $C$DW$118, DW_AT_decl_line(0x1ba)
    1657                            .dwattr $C$DW$118, DW_AT_decl_column(0x12)
    1658                    
    1659                    $C$DW$119       .dwtag  DW_TAG_member
    1660                            .dwattr $C$DW$119, DW_AT_type(*$C$DW$T$39)
    1661                            .dwattr $C$DW$119, DW_AT_name("AIRCR")
    1662                            .dwattr $C$DW$119, DW_AT_TI_symbol_name("AIRCR")
    1663                            .dwattr $C$DW$119, DW_AT_data_member_location[DW_OP_plus_uconst 0xc]
    1664                            .dwattr $C$DW$119, DW_AT_accessibility(DW_ACCESS_public)
    1665                            .dwattr $C$DW$119, DW_AT_decl_file("C:/ti/ccs1200/ccs/ccs_base/arm/include/CMSIS/core_cm4.h")
    1666                            .dwattr $C$DW$119, DW_AT_decl_line(0x1bb)
    1667                            .dwattr $C$DW$119, DW_AT_decl_column(0x12)
    1668                    
    1669                    $C$DW$120       .dwtag  DW_TAG_member
    1670                            .dwattr $C$DW$120, DW_AT_type(*$C$DW$T$39)
    1671                            .dwattr $C$DW$120, DW_AT_name("SCR")
    1672                            .dwattr $C$DW$120, DW_AT_TI_symbol_name("SCR")
    1673                            .dwattr $C$DW$120, DW_AT_data_member_location[DW_OP_plus_uconst 0x10]
    1674                            .dwattr $C$DW$120, DW_AT_accessibility(DW_ACCESS_public)
    1675                            .dwattr $C$DW$120, DW_AT_decl_file("C:/ti/ccs1200/ccs/ccs_base/arm/include/CMSIS/core_cm4.h")
    1676                            .dwattr $C$DW$120, DW_AT_decl_line(0x1bc)
    1677                            .dwattr $C$DW$120, DW_AT_decl_column(0x12)
    1678                    
    1679                    $C$DW$121       .dwtag  DW_TAG_member
    1680                            .dwattr $C$DW$121, DW_AT_type(*$C$DW$T$39)
    1681                            .dwattr $C$DW$121, DW_AT_name("CCR")
    1682                            .dwattr $C$DW$121, DW_AT_TI_symbol_name("CCR")
    1683                            .dwattr $C$DW$121, DW_AT_data_member_location[DW_OP_plus_uconst 0x14]
    1684                            .dwattr $C$DW$121, DW_AT_accessibility(DW_ACCESS_public)
    1685                            .dwattr $C$DW$121, DW_AT_decl_file("C:/ti/ccs1200/ccs/ccs_base/arm/include/CMSIS/core_cm4.h")
    1686                            .dwattr $C$DW$121, DW_AT_decl_line(0x1bd)
    1687                            .dwattr $C$DW$121, DW_AT_decl_column(0x12)
    1688                    
    1689                    $C$DW$122       .dwtag  DW_TAG_member
    1690                            .dwattr $C$DW$122, DW_AT_type(*$C$DW$T$47)
    1691                            .dwattr $C$DW$122, DW_AT_name("SHP")
    1692                            .dwattr $C$DW$122, DW_AT_TI_symbol_name("SHP")
    1693                            .dwattr $C$DW$122, DW_AT_data_member_location[DW_OP_plus_uconst 0x18]
    1694                            .dwattr $C$DW$122, DW_AT_accessibility(DW_ACCESS_public)
TI ARM Assembler PC v20.2.6 Mon Oct 31 23:17:03 2022

Copyright (c) 1996-2018 Texas Instruments Incorporated
InputOutput.asm                                                      PAGE   32

    1695                            .dwattr $C$DW$122, DW_AT_decl_file("C:/ti/ccs1200/ccs/ccs_base/arm/include/CMSIS/core_cm4.h")
    1696                            .dwattr $C$DW$122, DW_AT_decl_line(0x1be)
    1697                            .dwattr $C$DW$122, DW_AT_decl_column(0x12)
    1698                    
    1699                    $C$DW$123       .dwtag  DW_TAG_member
    1700                            .dwattr $C$DW$123, DW_AT_type(*$C$DW$T$39)
    1701                            .dwattr $C$DW$123, DW_AT_name("SHCSR")
    1702                            .dwattr $C$DW$123, DW_AT_TI_symbol_name("SHCSR")
    1703                            .dwattr $C$DW$123, DW_AT_data_member_location[DW_OP_plus_uconst 0x24]
    1704                            .dwattr $C$DW$123, DW_AT_accessibility(DW_ACCESS_public)
    1705                            .dwattr $C$DW$123, DW_AT_decl_file("C:/ti/ccs1200/ccs/ccs_base/arm/include/CMSIS/core_cm4.h")
    1706                            .dwattr $C$DW$123, DW_AT_decl_line(0x1bf)
    1707                            .dwattr $C$DW$123, DW_AT_decl_column(0x12)
    1708                    
    1709                    $C$DW$124       .dwtag  DW_TAG_member
    1710                            .dwattr $C$DW$124, DW_AT_type(*$C$DW$T$39)
    1711                            .dwattr $C$DW$124, DW_AT_name("CFSR")
    1712                            .dwattr $C$DW$124, DW_AT_TI_symbol_name("CFSR")
    1713                            .dwattr $C$DW$124, DW_AT_data_member_location[DW_OP_plus_uconst 0x28]
    1714                            .dwattr $C$DW$124, DW_AT_accessibility(DW_ACCESS_public)
    1715                            .dwattr $C$DW$124, DW_AT_decl_file("C:/ti/ccs1200/ccs/ccs_base/arm/include/CMSIS/core_cm4.h")
    1716                            .dwattr $C$DW$124, DW_AT_decl_line(0x1c0)
    1717                            .dwattr $C$DW$124, DW_AT_decl_column(0x12)
    1718                    
    1719                    $C$DW$125       .dwtag  DW_TAG_member
    1720                            .dwattr $C$DW$125, DW_AT_type(*$C$DW$T$39)
    1721                            .dwattr $C$DW$125, DW_AT_name("HFSR")
    1722                            .dwattr $C$DW$125, DW_AT_TI_symbol_name("HFSR")
    1723                            .dwattr $C$DW$125, DW_AT_data_member_location[DW_OP_plus_uconst 0x2c]
    1724                            .dwattr $C$DW$125, DW_AT_accessibility(DW_ACCESS_public)
    1725                            .dwattr $C$DW$125, DW_AT_decl_file("C:/ti/ccs1200/ccs/ccs_base/arm/include/CMSIS/core_cm4.h")
    1726                            .dwattr $C$DW$125, DW_AT_decl_line(0x1c1)
    1727                            .dwattr $C$DW$125, DW_AT_decl_column(0x12)
    1728                    
    1729                    $C$DW$126       .dwtag  DW_TAG_member
    1730                            .dwattr $C$DW$126, DW_AT_type(*$C$DW$T$39)
    1731                            .dwattr $C$DW$126, DW_AT_name("DFSR")
    1732                            .dwattr $C$DW$126, DW_AT_TI_symbol_name("DFSR")
    1733                            .dwattr $C$DW$126, DW_AT_data_member_location[DW_OP_plus_uconst 0x30]
    1734                            .dwattr $C$DW$126, DW_AT_accessibility(DW_ACCESS_public)
    1735                            .dwattr $C$DW$126, DW_AT_decl_file("C:/ti/ccs1200/ccs/ccs_base/arm/include/CMSIS/core_cm4.h")
    1736                            .dwattr $C$DW$126, DW_AT_decl_line(0x1c2)
    1737                            .dwattr $C$DW$126, DW_AT_decl_column(0x12)
    1738                    
    1739                    $C$DW$127       .dwtag  DW_TAG_member
    1740                            .dwattr $C$DW$127, DW_AT_type(*$C$DW$T$39)
    1741                            .dwattr $C$DW$127, DW_AT_name("MMFAR")
    1742                            .dwattr $C$DW$127, DW_AT_TI_symbol_name("MMFAR")
    1743                            .dwattr $C$DW$127, DW_AT_data_member_location[DW_OP_plus_uconst 0x34]
    1744                            .dwattr $C$DW$127, DW_AT_accessibility(DW_ACCESS_public)
    1745                            .dwattr $C$DW$127, DW_AT_decl_file("C:/ti/ccs1200/ccs/ccs_base/arm/include/CMSIS/core_cm4.h")
    1746                            .dwattr $C$DW$127, DW_AT_decl_line(0x1c3)
    1747                            .dwattr $C$DW$127, DW_AT_decl_column(0x12)
    1748                    
    1749                    $C$DW$128       .dwtag  DW_TAG_member
TI ARM Assembler PC v20.2.6 Mon Oct 31 23:17:03 2022

Copyright (c) 1996-2018 Texas Instruments Incorporated
InputOutput.asm                                                      PAGE   33

    1750                            .dwattr $C$DW$128, DW_AT_type(*$C$DW$T$39)
    1751                            .dwattr $C$DW$128, DW_AT_name("BFAR")
    1752                            .dwattr $C$DW$128, DW_AT_TI_symbol_name("BFAR")
    1753                            .dwattr $C$DW$128, DW_AT_data_member_location[DW_OP_plus_uconst 0x38]
    1754                            .dwattr $C$DW$128, DW_AT_accessibility(DW_ACCESS_public)
    1755                            .dwattr $C$DW$128, DW_AT_decl_file("C:/ti/ccs1200/ccs/ccs_base/arm/include/CMSIS/core_cm4.h")
    1756                            .dwattr $C$DW$128, DW_AT_decl_line(0x1c4)
    1757                            .dwattr $C$DW$128, DW_AT_decl_column(0x12)
    1758                    
    1759                    $C$DW$129       .dwtag  DW_TAG_member
    1760                            .dwattr $C$DW$129, DW_AT_type(*$C$DW$T$39)
    1761                            .dwattr $C$DW$129, DW_AT_name("AFSR")
    1762                            .dwattr $C$DW$129, DW_AT_TI_symbol_name("AFSR")
    1763                            .dwattr $C$DW$129, DW_AT_data_member_location[DW_OP_plus_uconst 0x3c]
    1764                            .dwattr $C$DW$129, DW_AT_accessibility(DW_ACCESS_public)
    1765                            .dwattr $C$DW$129, DW_AT_decl_file("C:/ti/ccs1200/ccs/ccs_base/arm/include/CMSIS/core_cm4.h")
    1766                            .dwattr $C$DW$129, DW_AT_decl_line(0x1c5)
    1767                            .dwattr $C$DW$129, DW_AT_decl_column(0x12)
    1768                    
    1769                    $C$DW$130       .dwtag  DW_TAG_member
    1770                            .dwattr $C$DW$130, DW_AT_type(*$C$DW$T$48)
    1771                            .dwattr $C$DW$130, DW_AT_name("PFR")
    1772                            .dwattr $C$DW$130, DW_AT_TI_symbol_name("PFR")
    1773                            .dwattr $C$DW$130, DW_AT_data_member_location[DW_OP_plus_uconst 0x40]
    1774                            .dwattr $C$DW$130, DW_AT_accessibility(DW_ACCESS_public)
    1775                            .dwattr $C$DW$130, DW_AT_decl_file("C:/ti/ccs1200/ccs/ccs_base/arm/include/CMSIS/core_cm4.h")
    1776                            .dwattr $C$DW$130, DW_AT_decl_line(0x1c6)
    1777                            .dwattr $C$DW$130, DW_AT_decl_column(0x12)
    1778                    
    1779                    $C$DW$131       .dwtag  DW_TAG_member
    1780                            .dwattr $C$DW$131, DW_AT_type(*$C$DW$T$46)
    1781                            .dwattr $C$DW$131, DW_AT_name("DFR")
    1782                            .dwattr $C$DW$131, DW_AT_TI_symbol_name("DFR")
    1783                            .dwattr $C$DW$131, DW_AT_data_member_location[DW_OP_plus_uconst 0x48]
    1784                            .dwattr $C$DW$131, DW_AT_accessibility(DW_ACCESS_public)
    1785                            .dwattr $C$DW$131, DW_AT_decl_file("C:/ti/ccs1200/ccs/ccs_base/arm/include/CMSIS/core_cm4.h")
    1786                            .dwattr $C$DW$131, DW_AT_decl_line(0x1c7)
    1787                            .dwattr $C$DW$131, DW_AT_decl_column(0x12)
    1788                    
    1789                    $C$DW$132       .dwtag  DW_TAG_member
    1790                            .dwattr $C$DW$132, DW_AT_type(*$C$DW$T$46)
    1791                            .dwattr $C$DW$132, DW_AT_name("ADR")
    1792                            .dwattr $C$DW$132, DW_AT_TI_symbol_name("ADR")
    1793                            .dwattr $C$DW$132, DW_AT_data_member_location[DW_OP_plus_uconst 0x4c]
    1794                            .dwattr $C$DW$132, DW_AT_accessibility(DW_ACCESS_public)
    1795                            .dwattr $C$DW$132, DW_AT_decl_file("C:/ti/ccs1200/ccs/ccs_base/arm/include/CMSIS/core_cm4.h")
    1796                            .dwattr $C$DW$132, DW_AT_decl_line(0x1c8)
    1797                            .dwattr $C$DW$132, DW_AT_decl_column(0x12)
    1798                    
    1799                    $C$DW$133       .dwtag  DW_TAG_member
    1800                            .dwattr $C$DW$133, DW_AT_type(*$C$DW$T$49)
    1801                            .dwattr $C$DW$133, DW_AT_name("MMFR")
    1802                            .dwattr $C$DW$133, DW_AT_TI_symbol_name("MMFR")
    1803                            .dwattr $C$DW$133, DW_AT_data_member_location[DW_OP_plus_uconst 0x50]
    1804                            .dwattr $C$DW$133, DW_AT_accessibility(DW_ACCESS_public)
TI ARM Assembler PC v20.2.6 Mon Oct 31 23:17:03 2022

Copyright (c) 1996-2018 Texas Instruments Incorporated
InputOutput.asm                                                      PAGE   34

    1805                            .dwattr $C$DW$133, DW_AT_decl_file("C:/ti/ccs1200/ccs/ccs_base/arm/include/CMSIS/core_cm4.h")
    1806                            .dwattr $C$DW$133, DW_AT_decl_line(0x1c9)
    1807                            .dwattr $C$DW$133, DW_AT_decl_column(0x12)
    1808                    
    1809                    $C$DW$134       .dwtag  DW_TAG_member
    1810                            .dwattr $C$DW$134, DW_AT_type(*$C$DW$T$50)
    1811                            .dwattr $C$DW$134, DW_AT_name("ISAR")
    1812                            .dwattr $C$DW$134, DW_AT_TI_symbol_name("ISAR")
    1813                            .dwattr $C$DW$134, DW_AT_data_member_location[DW_OP_plus_uconst 0x60]
    1814                            .dwattr $C$DW$134, DW_AT_accessibility(DW_ACCESS_public)
    1815                            .dwattr $C$DW$134, DW_AT_decl_file("C:/ti/ccs1200/ccs/ccs_base/arm/include/CMSIS/core_cm4.h")
    1816                            .dwattr $C$DW$134, DW_AT_decl_line(0x1ca)
    1817                            .dwattr $C$DW$134, DW_AT_decl_column(0x12)
    1818                    
    1819                    $C$DW$135       .dwtag  DW_TAG_member
    1820                            .dwattr $C$DW$135, DW_AT_type(*$C$DW$T$51)
    1821                            .dwattr $C$DW$135, DW_AT_name("RESERVED0")
    1822                            .dwattr $C$DW$135, DW_AT_TI_symbol_name("RESERVED0")
    1823                            .dwattr $C$DW$135, DW_AT_data_member_location[DW_OP_plus_uconst 0x74]
    1824                            .dwattr $C$DW$135, DW_AT_accessibility(DW_ACCESS_public)
    1825                            .dwattr $C$DW$135, DW_AT_decl_file("C:/ti/ccs1200/ccs/ccs_base/arm/include/CMSIS/core_cm4.h")
    1826                            .dwattr $C$DW$135, DW_AT_decl_line(0x1cb)
    1827                            .dwattr $C$DW$135, DW_AT_decl_column(0x12)
    1828                    
    1829                    $C$DW$136       .dwtag  DW_TAG_member
    1830                            .dwattr $C$DW$136, DW_AT_type(*$C$DW$T$39)
    1831                            .dwattr $C$DW$136, DW_AT_name("CPACR")
    1832                            .dwattr $C$DW$136, DW_AT_TI_symbol_name("CPACR")
    1833                            .dwattr $C$DW$136, DW_AT_data_member_location[DW_OP_plus_uconst 0x88]
    1834                            .dwattr $C$DW$136, DW_AT_accessibility(DW_ACCESS_public)
    1835                            .dwattr $C$DW$136, DW_AT_decl_file("C:/ti/ccs1200/ccs/ccs_base/arm/include/CMSIS/core_cm4.h")
    1836                            .dwattr $C$DW$136, DW_AT_decl_line(0x1cc)
    1837                            .dwattr $C$DW$136, DW_AT_decl_column(0x12)
    1838                    
    1839                            .dwattr $C$DW$T$52, DW_AT_decl_file("C:/ti/ccs1200/ccs/ccs_base/arm/include/CMSIS/core_cm4.h")
    1840                            .dwattr $C$DW$T$52, DW_AT_decl_line(0x1b7)
    1841                            .dwattr $C$DW$T$52, DW_AT_decl_column(0x01)
    1842                            .dwendtag $C$DW$T$52
    1843                    
    1844                    $C$DW$T$185     .dwtag  DW_TAG_typedef
    1845                            .dwattr $C$DW$T$185, DW_AT_name("SCB_Type")
    1846                            .dwattr $C$DW$T$185, DW_AT_type(*$C$DW$T$52)
    1847                            .dwattr $C$DW$T$185, DW_AT_language(DW_LANG_C)
    1848                            .dwattr $C$DW$T$185, DW_AT_decl_file("C:/ti/ccs1200/ccs/ccs_base/arm/include/CMSIS/core_cm4.h"
    1849                            .dwattr $C$DW$T$185, DW_AT_decl_line(0x1cd)
    1850                            .dwattr $C$DW$T$185, DW_AT_decl_column(0x03)
    1851                    
    1852                    
    1853                    $C$DW$T$54      .dwtag  DW_TAG_structure_type
    1854                            .dwattr $C$DW$T$54, DW_AT_byte_size(0x0c)
    1855                    $C$DW$137       .dwtag  DW_TAG_member
    1856                            .dwattr $C$DW$137, DW_AT_type(*$C$DW$T$53)
    1857                            .dwattr $C$DW$137, DW_AT_name("RESERVED0")
    1858                            .dwattr $C$DW$137, DW_AT_TI_symbol_name("RESERVED0")
    1859                            .dwattr $C$DW$137, DW_AT_data_member_location[DW_OP_plus_uconst 0x0]
TI ARM Assembler PC v20.2.6 Mon Oct 31 23:17:03 2022

Copyright (c) 1996-2018 Texas Instruments Incorporated
InputOutput.asm                                                      PAGE   35

    1860                            .dwattr $C$DW$137, DW_AT_accessibility(DW_ACCESS_public)
    1861                            .dwattr $C$DW$137, DW_AT_decl_file("C:/ti/ccs1200/ccs/ccs_base/arm/include/CMSIS/core_cm4.h")
    1862                            .dwattr $C$DW$137, DW_AT_decl_line(0x2cf)
    1863                            .dwattr $C$DW$137, DW_AT_decl_column(0x12)
    1864                    
    1865                    $C$DW$138       .dwtag  DW_TAG_member
    1866                            .dwattr $C$DW$138, DW_AT_type(*$C$DW$T$46)
    1867                            .dwattr $C$DW$138, DW_AT_name("ICTR")
    1868                            .dwattr $C$DW$138, DW_AT_TI_symbol_name("ICTR")
    1869                            .dwattr $C$DW$138, DW_AT_data_member_location[DW_OP_plus_uconst 0x4]
    1870                            .dwattr $C$DW$138, DW_AT_accessibility(DW_ACCESS_public)
    1871                            .dwattr $C$DW$138, DW_AT_decl_file("C:/ti/ccs1200/ccs/ccs_base/arm/include/CMSIS/core_cm4.h")
    1872                            .dwattr $C$DW$138, DW_AT_decl_line(0x2d0)
    1873                            .dwattr $C$DW$138, DW_AT_decl_column(0x12)
    1874                    
    1875                    $C$DW$139       .dwtag  DW_TAG_member
    1876                            .dwattr $C$DW$139, DW_AT_type(*$C$DW$T$39)
    1877                            .dwattr $C$DW$139, DW_AT_name("ACTLR")
    1878                            .dwattr $C$DW$139, DW_AT_TI_symbol_name("ACTLR")
    1879                            .dwattr $C$DW$139, DW_AT_data_member_location[DW_OP_plus_uconst 0x8]
    1880                            .dwattr $C$DW$139, DW_AT_accessibility(DW_ACCESS_public)
    1881                            .dwattr $C$DW$139, DW_AT_decl_file("C:/ti/ccs1200/ccs/ccs_base/arm/include/CMSIS/core_cm4.h")
    1882                            .dwattr $C$DW$139, DW_AT_decl_line(0x2d1)
    1883                            .dwattr $C$DW$139, DW_AT_decl_column(0x12)
    1884                    
    1885                            .dwattr $C$DW$T$54, DW_AT_decl_file("C:/ti/ccs1200/ccs/ccs_base/arm/include/CMSIS/core_cm4.h")
    1886                            .dwattr $C$DW$T$54, DW_AT_decl_line(0x2ce)
    1887                            .dwattr $C$DW$T$54, DW_AT_decl_column(0x01)
    1888                            .dwendtag $C$DW$T$54
    1889                    
    1890                    $C$DW$T$186     .dwtag  DW_TAG_typedef
    1891                            .dwattr $C$DW$T$186, DW_AT_name("SCnSCB_Type")
    1892                            .dwattr $C$DW$T$186, DW_AT_type(*$C$DW$T$54)
    1893                            .dwattr $C$DW$T$186, DW_AT_language(DW_LANG_C)
    1894                            .dwattr $C$DW$T$186, DW_AT_decl_file("C:/ti/ccs1200/ccs/ccs_base/arm/include/CMSIS/core_cm4.h"
    1895                            .dwattr $C$DW$T$186, DW_AT_decl_line(0x2d2)
    1896                            .dwattr $C$DW$T$186, DW_AT_decl_column(0x03)
    1897                    
    1898                    
    1899                    $C$DW$T$55      .dwtag  DW_TAG_structure_type
    1900                            .dwattr $C$DW$T$55, DW_AT_byte_size(0x10)
    1901                    $C$DW$140       .dwtag  DW_TAG_member
    1902                            .dwattr $C$DW$140, DW_AT_type(*$C$DW$T$39)
    1903                            .dwattr $C$DW$140, DW_AT_name("CTRL")
    1904                            .dwattr $C$DW$140, DW_AT_TI_symbol_name("CTRL")
    1905                            .dwattr $C$DW$140, DW_AT_data_member_location[DW_OP_plus_uconst 0x0]
    1906                            .dwattr $C$DW$140, DW_AT_accessibility(DW_ACCESS_public)
    1907                            .dwattr $C$DW$140, DW_AT_decl_file("C:/ti/ccs1200/ccs/ccs_base/arm/include/CMSIS/core_cm4.h")
    1908                            .dwattr $C$DW$140, DW_AT_decl_line(0x2f7)
    1909                            .dwattr $C$DW$140, DW_AT_decl_column(0x12)
    1910                    
    1911                    $C$DW$141       .dwtag  DW_TAG_member
    1912                            .dwattr $C$DW$141, DW_AT_type(*$C$DW$T$39)
    1913                            .dwattr $C$DW$141, DW_AT_name("LOAD")
    1914                            .dwattr $C$DW$141, DW_AT_TI_symbol_name("LOAD")
TI ARM Assembler PC v20.2.6 Mon Oct 31 23:17:03 2022

Copyright (c) 1996-2018 Texas Instruments Incorporated
InputOutput.asm                                                      PAGE   36

    1915                            .dwattr $C$DW$141, DW_AT_data_member_location[DW_OP_plus_uconst 0x4]
    1916                            .dwattr $C$DW$141, DW_AT_accessibility(DW_ACCESS_public)
    1917                            .dwattr $C$DW$141, DW_AT_decl_file("C:/ti/ccs1200/ccs/ccs_base/arm/include/CMSIS/core_cm4.h")
    1918                            .dwattr $C$DW$141, DW_AT_decl_line(0x2f8)
    1919                            .dwattr $C$DW$141, DW_AT_decl_column(0x12)
    1920                    
    1921                    $C$DW$142       .dwtag  DW_TAG_member
    1922                            .dwattr $C$DW$142, DW_AT_type(*$C$DW$T$39)
    1923                            .dwattr $C$DW$142, DW_AT_name("VAL")
    1924                            .dwattr $C$DW$142, DW_AT_TI_symbol_name("VAL")
    1925                            .dwattr $C$DW$142, DW_AT_data_member_location[DW_OP_plus_uconst 0x8]
    1926                            .dwattr $C$DW$142, DW_AT_accessibility(DW_ACCESS_public)
    1927                            .dwattr $C$DW$142, DW_AT_decl_file("C:/ti/ccs1200/ccs/ccs_base/arm/include/CMSIS/core_cm4.h")
    1928                            .dwattr $C$DW$142, DW_AT_decl_line(0x2f9)
    1929                            .dwattr $C$DW$142, DW_AT_decl_column(0x12)
    1930                    
    1931                    $C$DW$143       .dwtag  DW_TAG_member
    1932                            .dwattr $C$DW$143, DW_AT_type(*$C$DW$T$46)
    1933                            .dwattr $C$DW$143, DW_AT_name("CALIB")
    1934                            .dwattr $C$DW$143, DW_AT_TI_symbol_name("CALIB")
    1935                            .dwattr $C$DW$143, DW_AT_data_member_location[DW_OP_plus_uconst 0xc]
    1936                            .dwattr $C$DW$143, DW_AT_accessibility(DW_ACCESS_public)
    1937                            .dwattr $C$DW$143, DW_AT_decl_file("C:/ti/ccs1200/ccs/ccs_base/arm/include/CMSIS/core_cm4.h")
    1938                            .dwattr $C$DW$143, DW_AT_decl_line(0x2fa)
    1939                            .dwattr $C$DW$143, DW_AT_decl_column(0x12)
    1940                    
    1941                            .dwattr $C$DW$T$55, DW_AT_decl_file("C:/ti/ccs1200/ccs/ccs_base/arm/include/CMSIS/core_cm4.h")
    1942                            .dwattr $C$DW$T$55, DW_AT_decl_line(0x2f6)
    1943                            .dwattr $C$DW$T$55, DW_AT_decl_column(0x01)
    1944                            .dwendtag $C$DW$T$55
    1945                    
    1946                    $C$DW$T$187     .dwtag  DW_TAG_typedef
    1947                            .dwattr $C$DW$T$187, DW_AT_name("SysTick_Type")
    1948                            .dwattr $C$DW$T$187, DW_AT_type(*$C$DW$T$55)
    1949                            .dwattr $C$DW$T$187, DW_AT_language(DW_LANG_C)
    1950                            .dwattr $C$DW$T$187, DW_AT_decl_file("C:/ti/ccs1200/ccs/ccs_base/arm/include/CMSIS/core_cm4.h"
    1951                            .dwattr $C$DW$T$187, DW_AT_decl_line(0x2fb)
    1952                            .dwattr $C$DW$T$187, DW_AT_decl_column(0x03)
    1953                    
    1954                    
    1955                    $C$DW$T$63      .dwtag  DW_TAG_structure_type
    1956                            .dwattr $C$DW$T$63, DW_AT_byte_size(0x1000)
    1957                    $C$DW$144       .dwtag  DW_TAG_member
    1958                            .dwattr $C$DW$144, DW_AT_type(*$C$DW$T$57)
    1959                            .dwattr $C$DW$144, DW_AT_name("PORT")
    1960                            .dwattr $C$DW$144, DW_AT_TI_symbol_name("PORT")
    1961                            .dwattr $C$DW$144, DW_AT_data_member_location[DW_OP_plus_uconst 0x0]
    1962                            .dwattr $C$DW$144, DW_AT_accessibility(DW_ACCESS_public)
    1963                            .dwattr $C$DW$144, DW_AT_decl_file("C:/ti/ccs1200/ccs/ccs_base/arm/include/CMSIS/core_cm4.h")
    1964                            .dwattr $C$DW$144, DW_AT_decl_line(0x330)
    1965                            .dwattr $C$DW$144, DW_AT_decl_column(0x06)
    1966                    
    1967                    $C$DW$145       .dwtag  DW_TAG_member
    1968                            .dwattr $C$DW$145, DW_AT_type(*$C$DW$T$58)
    1969                            .dwattr $C$DW$145, DW_AT_name("RESERVED0")
TI ARM Assembler PC v20.2.6 Mon Oct 31 23:17:03 2022

Copyright (c) 1996-2018 Texas Instruments Incorporated
InputOutput.asm                                                      PAGE   37

    1970                            .dwattr $C$DW$145, DW_AT_TI_symbol_name("RESERVED0")
    1971                            .dwattr $C$DW$145, DW_AT_data_member_location[DW_OP_plus_uconst 0x80]
    1972                            .dwattr $C$DW$145, DW_AT_accessibility(DW_ACCESS_public)
    1973                            .dwattr $C$DW$145, DW_AT_decl_file("C:/ti/ccs1200/ccs/ccs_base/arm/include/CMSIS/core_cm4.h")
    1974                            .dwattr $C$DW$145, DW_AT_decl_line(0x331)
    1975                            .dwattr $C$DW$145, DW_AT_decl_column(0x12)
    1976                    
    1977                    $C$DW$146       .dwtag  DW_TAG_member
    1978                            .dwattr $C$DW$146, DW_AT_type(*$C$DW$T$39)
    1979                            .dwattr $C$DW$146, DW_AT_name("TER")
    1980                            .dwattr $C$DW$146, DW_AT_TI_symbol_name("TER")
    1981                            .dwattr $C$DW$146, DW_AT_data_member_location[DW_OP_plus_uconst 0xe00]
    1982                            .dwattr $C$DW$146, DW_AT_accessibility(DW_ACCESS_public)
    1983                            .dwattr $C$DW$146, DW_AT_decl_file("C:/ti/ccs1200/ccs/ccs_base/arm/include/CMSIS/core_cm4.h")
    1984                            .dwattr $C$DW$146, DW_AT_decl_line(0x332)
    1985                            .dwattr $C$DW$146, DW_AT_decl_column(0x12)
    1986                    
    1987                    $C$DW$147       .dwtag  DW_TAG_member
    1988                            .dwattr $C$DW$147, DW_AT_type(*$C$DW$T$59)
    1989                            .dwattr $C$DW$147, DW_AT_name("RESERVED1")
    1990                            .dwattr $C$DW$147, DW_AT_TI_symbol_name("RESERVED1")
    1991                            .dwattr $C$DW$147, DW_AT_data_member_location[DW_OP_plus_uconst 0xe04]
    1992                            .dwattr $C$DW$147, DW_AT_accessibility(DW_ACCESS_public)
    1993                            .dwattr $C$DW$147, DW_AT_decl_file("C:/ti/ccs1200/ccs/ccs_base/arm/include/CMSIS/core_cm4.h")
    1994                            .dwattr $C$DW$147, DW_AT_decl_line(0x333)
    1995                            .dwattr $C$DW$147, DW_AT_decl_column(0x12)
    1996                    
    1997                    $C$DW$148       .dwtag  DW_TAG_member
    1998                            .dwattr $C$DW$148, DW_AT_type(*$C$DW$T$39)
    1999                            .dwattr $C$DW$148, DW_AT_name("TPR")
    2000                            .dwattr $C$DW$148, DW_AT_TI_symbol_name("TPR")
    2001                            .dwattr $C$DW$148, DW_AT_data_member_location[DW_OP_plus_uconst 0xe40]
    2002                            .dwattr $C$DW$148, DW_AT_accessibility(DW_ACCESS_public)
    2003                            .dwattr $C$DW$148, DW_AT_decl_file("C:/ti/ccs1200/ccs/ccs_base/arm/include/CMSIS/core_cm4.h")
    2004                            .dwattr $C$DW$148, DW_AT_decl_line(0x334)
    2005                            .dwattr $C$DW$148, DW_AT_decl_column(0x12)
    2006                    
    2007                    $C$DW$149       .dwtag  DW_TAG_member
    2008                            .dwattr $C$DW$149, DW_AT_type(*$C$DW$T$59)
    2009                            .dwattr $C$DW$149, DW_AT_name("RESERVED2")
    2010                            .dwattr $C$DW$149, DW_AT_TI_symbol_name("RESERVED2")
    2011                            .dwattr $C$DW$149, DW_AT_data_member_location[DW_OP_plus_uconst 0xe44]
    2012                            .dwattr $C$DW$149, DW_AT_accessibility(DW_ACCESS_public)
    2013                            .dwattr $C$DW$149, DW_AT_decl_file("C:/ti/ccs1200/ccs/ccs_base/arm/include/CMSIS/core_cm4.h")
    2014                            .dwattr $C$DW$149, DW_AT_decl_line(0x335)
    2015                            .dwattr $C$DW$149, DW_AT_decl_column(0x12)
    2016                    
    2017                    $C$DW$150       .dwtag  DW_TAG_member
    2018                            .dwattr $C$DW$150, DW_AT_type(*$C$DW$T$39)
    2019                            .dwattr $C$DW$150, DW_AT_name("TCR")
    2020                            .dwattr $C$DW$150, DW_AT_TI_symbol_name("TCR")
    2021                            .dwattr $C$DW$150, DW_AT_data_member_location[DW_OP_plus_uconst 0xe80]
    2022                            .dwattr $C$DW$150, DW_AT_accessibility(DW_ACCESS_public)
    2023                            .dwattr $C$DW$150, DW_AT_decl_file("C:/ti/ccs1200/ccs/ccs_base/arm/include/CMSIS/core_cm4.h")
    2024                            .dwattr $C$DW$150, DW_AT_decl_line(0x336)
TI ARM Assembler PC v20.2.6 Mon Oct 31 23:17:03 2022

Copyright (c) 1996-2018 Texas Instruments Incorporated
InputOutput.asm                                                      PAGE   38

    2025                            .dwattr $C$DW$150, DW_AT_decl_column(0x12)
    2026                    
    2027                    $C$DW$151       .dwtag  DW_TAG_member
    2028                            .dwattr $C$DW$151, DW_AT_type(*$C$DW$T$60)
    2029                            .dwattr $C$DW$151, DW_AT_name("RESERVED3")
    2030                            .dwattr $C$DW$151, DW_AT_TI_symbol_name("RESERVED3")
    2031                            .dwattr $C$DW$151, DW_AT_data_member_location[DW_OP_plus_uconst 0xe84]
    2032                            .dwattr $C$DW$151, DW_AT_accessibility(DW_ACCESS_public)
    2033                            .dwattr $C$DW$151, DW_AT_decl_file("C:/ti/ccs1200/ccs/ccs_base/arm/include/CMSIS/core_cm4.h")
    2034                            .dwattr $C$DW$151, DW_AT_decl_line(0x337)
    2035                            .dwattr $C$DW$151, DW_AT_decl_column(0x12)
    2036                    
    2037                    $C$DW$152       .dwtag  DW_TAG_member
    2038                            .dwattr $C$DW$152, DW_AT_type(*$C$DW$T$39)
    2039                            .dwattr $C$DW$152, DW_AT_name("IWR")
    2040                            .dwattr $C$DW$152, DW_AT_TI_symbol_name("IWR")
    2041                            .dwattr $C$DW$152, DW_AT_data_member_location[DW_OP_plus_uconst 0xef8]
    2042                            .dwattr $C$DW$152, DW_AT_accessibility(DW_ACCESS_public)
    2043                            .dwattr $C$DW$152, DW_AT_decl_file("C:/ti/ccs1200/ccs/ccs_base/arm/include/CMSIS/core_cm4.h")
    2044                            .dwattr $C$DW$152, DW_AT_decl_line(0x338)
    2045                            .dwattr $C$DW$152, DW_AT_decl_column(0x12)
    2046                    
    2047                    $C$DW$153       .dwtag  DW_TAG_member
    2048                            .dwattr $C$DW$153, DW_AT_type(*$C$DW$T$46)
    2049                            .dwattr $C$DW$153, DW_AT_name("IRR")
    2050                            .dwattr $C$DW$153, DW_AT_TI_symbol_name("IRR")
    2051                            .dwattr $C$DW$153, DW_AT_data_member_location[DW_OP_plus_uconst 0xefc]
    2052                            .dwattr $C$DW$153, DW_AT_accessibility(DW_ACCESS_public)
    2053                            .dwattr $C$DW$153, DW_AT_decl_file("C:/ti/ccs1200/ccs/ccs_base/arm/include/CMSIS/core_cm4.h")
    2054                            .dwattr $C$DW$153, DW_AT_decl_line(0x339)
    2055                            .dwattr $C$DW$153, DW_AT_decl_column(0x12)
    2056                    
    2057                    $C$DW$154       .dwtag  DW_TAG_member
    2058                            .dwattr $C$DW$154, DW_AT_type(*$C$DW$T$39)
    2059                            .dwattr $C$DW$154, DW_AT_name("IMCR")
    2060                            .dwattr $C$DW$154, DW_AT_TI_symbol_name("IMCR")
    2061                            .dwattr $C$DW$154, DW_AT_data_member_location[DW_OP_plus_uconst 0xf00]
    2062                            .dwattr $C$DW$154, DW_AT_accessibility(DW_ACCESS_public)
    2063                            .dwattr $C$DW$154, DW_AT_decl_file("C:/ti/ccs1200/ccs/ccs_base/arm/include/CMSIS/core_cm4.h")
    2064                            .dwattr $C$DW$154, DW_AT_decl_line(0x33a)
    2065                            .dwattr $C$DW$154, DW_AT_decl_column(0x12)
    2066                    
    2067                    $C$DW$155       .dwtag  DW_TAG_member
    2068                            .dwattr $C$DW$155, DW_AT_type(*$C$DW$T$61)
    2069                            .dwattr $C$DW$155, DW_AT_name("RESERVED4")
    2070                            .dwattr $C$DW$155, DW_AT_TI_symbol_name("RESERVED4")
    2071                            .dwattr $C$DW$155, DW_AT_data_member_location[DW_OP_plus_uconst 0xf04]
    2072                            .dwattr $C$DW$155, DW_AT_accessibility(DW_ACCESS_public)
    2073                            .dwattr $C$DW$155, DW_AT_decl_file("C:/ti/ccs1200/ccs/ccs_base/arm/include/CMSIS/core_cm4.h")
    2074                            .dwattr $C$DW$155, DW_AT_decl_line(0x33b)
    2075                            .dwattr $C$DW$155, DW_AT_decl_column(0x12)
    2076                    
    2077                    $C$DW$156       .dwtag  DW_TAG_member
    2078                            .dwattr $C$DW$156, DW_AT_type(*$C$DW$T$39)
    2079                            .dwattr $C$DW$156, DW_AT_name("LAR")
TI ARM Assembler PC v20.2.6 Mon Oct 31 23:17:03 2022

Copyright (c) 1996-2018 Texas Instruments Incorporated
InputOutput.asm                                                      PAGE   39

    2080                            .dwattr $C$DW$156, DW_AT_TI_symbol_name("LAR")
    2081                            .dwattr $C$DW$156, DW_AT_data_member_location[DW_OP_plus_uconst 0xfb0]
    2082                            .dwattr $C$DW$156, DW_AT_accessibility(DW_ACCESS_public)
    2083                            .dwattr $C$DW$156, DW_AT_decl_file("C:/ti/ccs1200/ccs/ccs_base/arm/include/CMSIS/core_cm4.h")
    2084                            .dwattr $C$DW$156, DW_AT_decl_line(0x33c)
    2085                            .dwattr $C$DW$156, DW_AT_decl_column(0x12)
    2086                    
    2087                    $C$DW$157       .dwtag  DW_TAG_member
    2088                            .dwattr $C$DW$157, DW_AT_type(*$C$DW$T$46)
    2089                            .dwattr $C$DW$157, DW_AT_name("LSR")
    2090                            .dwattr $C$DW$157, DW_AT_TI_symbol_name("LSR")
    2091                            .dwattr $C$DW$157, DW_AT_data_member_location[DW_OP_plus_uconst 0xfb4]
    2092                            .dwattr $C$DW$157, DW_AT_accessibility(DW_ACCESS_public)
    2093                            .dwattr $C$DW$157, DW_AT_decl_file("C:/ti/ccs1200/ccs/ccs_base/arm/include/CMSIS/core_cm4.h")
    2094                            .dwattr $C$DW$157, DW_AT_decl_line(0x33d)
    2095                            .dwattr $C$DW$157, DW_AT_decl_column(0x12)
    2096                    
    2097                    $C$DW$158       .dwtag  DW_TAG_member
    2098                            .dwattr $C$DW$158, DW_AT_type(*$C$DW$T$62)
    2099                            .dwattr $C$DW$158, DW_AT_name("RESERVED5")
    2100                            .dwattr $C$DW$158, DW_AT_TI_symbol_name("RESERVED5")
    2101                            .dwattr $C$DW$158, DW_AT_data_member_location[DW_OP_plus_uconst 0xfb8]
    2102                            .dwattr $C$DW$158, DW_AT_accessibility(DW_ACCESS_public)
    2103                            .dwattr $C$DW$158, DW_AT_decl_file("C:/ti/ccs1200/ccs/ccs_base/arm/include/CMSIS/core_cm4.h")
    2104                            .dwattr $C$DW$158, DW_AT_decl_line(0x33e)
    2105                            .dwattr $C$DW$158, DW_AT_decl_column(0x12)
    2106                    
    2107                    $C$DW$159       .dwtag  DW_TAG_member
    2108                            .dwattr $C$DW$159, DW_AT_type(*$C$DW$T$46)
    2109                            .dwattr $C$DW$159, DW_AT_name("PID4")
    2110                            .dwattr $C$DW$159, DW_AT_TI_symbol_name("PID4")
    2111                            .dwattr $C$DW$159, DW_AT_data_member_location[DW_OP_plus_uconst 0xfd0]
    2112                            .dwattr $C$DW$159, DW_AT_accessibility(DW_ACCESS_public)
    2113                            .dwattr $C$DW$159, DW_AT_decl_file("C:/ti/ccs1200/ccs/ccs_base/arm/include/CMSIS/core_cm4.h")
    2114                            .dwattr $C$DW$159, DW_AT_decl_line(0x33f)
    2115                            .dwattr $C$DW$159, DW_AT_decl_column(0x12)
    2116                    
    2117                    $C$DW$160       .dwtag  DW_TAG_member
    2118                            .dwattr $C$DW$160, DW_AT_type(*$C$DW$T$46)
    2119                            .dwattr $C$DW$160, DW_AT_name("PID5")
    2120                            .dwattr $C$DW$160, DW_AT_TI_symbol_name("PID5")
    2121                            .dwattr $C$DW$160, DW_AT_data_member_location[DW_OP_plus_uconst 0xfd4]
    2122                            .dwattr $C$DW$160, DW_AT_accessibility(DW_ACCESS_public)
    2123                            .dwattr $C$DW$160, DW_AT_decl_file("C:/ti/ccs1200/ccs/ccs_base/arm/include/CMSIS/core_cm4.h")
    2124                            .dwattr $C$DW$160, DW_AT_decl_line(0x340)
    2125                            .dwattr $C$DW$160, DW_AT_decl_column(0x12)
    2126                    
    2127                    $C$DW$161       .dwtag  DW_TAG_member
    2128                            .dwattr $C$DW$161, DW_AT_type(*$C$DW$T$46)
    2129                            .dwattr $C$DW$161, DW_AT_name("PID6")
    2130                            .dwattr $C$DW$161, DW_AT_TI_symbol_name("PID6")
    2131                            .dwattr $C$DW$161, DW_AT_data_member_location[DW_OP_plus_uconst 0xfd8]
    2132                            .dwattr $C$DW$161, DW_AT_accessibility(DW_ACCESS_public)
    2133                            .dwattr $C$DW$161, DW_AT_decl_file("C:/ti/ccs1200/ccs/ccs_base/arm/include/CMSIS/core_cm4.h")
    2134                            .dwattr $C$DW$161, DW_AT_decl_line(0x341)
TI ARM Assembler PC v20.2.6 Mon Oct 31 23:17:03 2022

Copyright (c) 1996-2018 Texas Instruments Incorporated
InputOutput.asm                                                      PAGE   40

    2135                            .dwattr $C$DW$161, DW_AT_decl_column(0x12)
    2136                    
    2137                    $C$DW$162       .dwtag  DW_TAG_member
    2138                            .dwattr $C$DW$162, DW_AT_type(*$C$DW$T$46)
    2139                            .dwattr $C$DW$162, DW_AT_name("PID7")
    2140                            .dwattr $C$DW$162, DW_AT_TI_symbol_name("PID7")
    2141                            .dwattr $C$DW$162, DW_AT_data_member_location[DW_OP_plus_uconst 0xfdc]
    2142                            .dwattr $C$DW$162, DW_AT_accessibility(DW_ACCESS_public)
    2143                            .dwattr $C$DW$162, DW_AT_decl_file("C:/ti/ccs1200/ccs/ccs_base/arm/include/CMSIS/core_cm4.h")
    2144                            .dwattr $C$DW$162, DW_AT_decl_line(0x342)
    2145                            .dwattr $C$DW$162, DW_AT_decl_column(0x12)
    2146                    
    2147                    $C$DW$163       .dwtag  DW_TAG_member
    2148                            .dwattr $C$DW$163, DW_AT_type(*$C$DW$T$46)
    2149                            .dwattr $C$DW$163, DW_AT_name("PID0")
    2150                            .dwattr $C$DW$163, DW_AT_TI_symbol_name("PID0")
    2151                            .dwattr $C$DW$163, DW_AT_data_member_location[DW_OP_plus_uconst 0xfe0]
    2152                            .dwattr $C$DW$163, DW_AT_accessibility(DW_ACCESS_public)
    2153                            .dwattr $C$DW$163, DW_AT_decl_file("C:/ti/ccs1200/ccs/ccs_base/arm/include/CMSIS/core_cm4.h")
    2154                            .dwattr $C$DW$163, DW_AT_decl_line(0x343)
    2155                            .dwattr $C$DW$163, DW_AT_decl_column(0x12)
    2156                    
    2157                    $C$DW$164       .dwtag  DW_TAG_member
    2158                            .dwattr $C$DW$164, DW_AT_type(*$C$DW$T$46)
    2159                            .dwattr $C$DW$164, DW_AT_name("PID1")
    2160                            .dwattr $C$DW$164, DW_AT_TI_symbol_name("PID1")
    2161                            .dwattr $C$DW$164, DW_AT_data_member_location[DW_OP_plus_uconst 0xfe4]
    2162                            .dwattr $C$DW$164, DW_AT_accessibility(DW_ACCESS_public)
    2163                            .dwattr $C$DW$164, DW_AT_decl_file("C:/ti/ccs1200/ccs/ccs_base/arm/include/CMSIS/core_cm4.h")
    2164                            .dwattr $C$DW$164, DW_AT_decl_line(0x344)
    2165                            .dwattr $C$DW$164, DW_AT_decl_column(0x12)
    2166                    
    2167                    $C$DW$165       .dwtag  DW_TAG_member
    2168                            .dwattr $C$DW$165, DW_AT_type(*$C$DW$T$46)
    2169                            .dwattr $C$DW$165, DW_AT_name("PID2")
    2170                            .dwattr $C$DW$165, DW_AT_TI_symbol_name("PID2")
    2171                            .dwattr $C$DW$165, DW_AT_data_member_location[DW_OP_plus_uconst 0xfe8]
    2172                            .dwattr $C$DW$165, DW_AT_accessibility(DW_ACCESS_public)
    2173                            .dwattr $C$DW$165, DW_AT_decl_file("C:/ti/ccs1200/ccs/ccs_base/arm/include/CMSIS/core_cm4.h")
    2174                            .dwattr $C$DW$165, DW_AT_decl_line(0x345)
    2175                            .dwattr $C$DW$165, DW_AT_decl_column(0x12)
    2176                    
    2177                    $C$DW$166       .dwtag  DW_TAG_member
    2178                            .dwattr $C$DW$166, DW_AT_type(*$C$DW$T$46)
    2179                            .dwattr $C$DW$166, DW_AT_name("PID3")
    2180                            .dwattr $C$DW$166, DW_AT_TI_symbol_name("PID3")
    2181                            .dwattr $C$DW$166, DW_AT_data_member_location[DW_OP_plus_uconst 0xfec]
    2182                            .dwattr $C$DW$166, DW_AT_accessibility(DW_ACCESS_public)
    2183                            .dwattr $C$DW$166, DW_AT_decl_file("C:/ti/ccs1200/ccs/ccs_base/arm/include/CMSIS/core_cm4.h")
    2184                            .dwattr $C$DW$166, DW_AT_decl_line(0x346)
    2185                            .dwattr $C$DW$166, DW_AT_decl_column(0x12)
    2186                    
    2187                    $C$DW$167       .dwtag  DW_TAG_member
    2188                            .dwattr $C$DW$167, DW_AT_type(*$C$DW$T$46)
    2189                            .dwattr $C$DW$167, DW_AT_name("CID0")
TI ARM Assembler PC v20.2.6 Mon Oct 31 23:17:03 2022

Copyright (c) 1996-2018 Texas Instruments Incorporated
InputOutput.asm                                                      PAGE   41

    2190                            .dwattr $C$DW$167, DW_AT_TI_symbol_name("CID0")
    2191                            .dwattr $C$DW$167, DW_AT_data_member_location[DW_OP_plus_uconst 0xff0]
    2192                            .dwattr $C$DW$167, DW_AT_accessibility(DW_ACCESS_public)
    2193                            .dwattr $C$DW$167, DW_AT_decl_file("C:/ti/ccs1200/ccs/ccs_base/arm/include/CMSIS/core_cm4.h")
    2194                            .dwattr $C$DW$167, DW_AT_decl_line(0x347)
    2195                            .dwattr $C$DW$167, DW_AT_decl_column(0x12)
    2196                    
    2197                    $C$DW$168       .dwtag  DW_TAG_member
    2198                            .dwattr $C$DW$168, DW_AT_type(*$C$DW$T$46)
    2199                            .dwattr $C$DW$168, DW_AT_name("CID1")
    2200                            .dwattr $C$DW$168, DW_AT_TI_symbol_name("CID1")
    2201                            .dwattr $C$DW$168, DW_AT_data_member_location[DW_OP_plus_uconst 0xff4]
    2202                            .dwattr $C$DW$168, DW_AT_accessibility(DW_ACCESS_public)
    2203                            .dwattr $C$DW$168, DW_AT_decl_file("C:/ti/ccs1200/ccs/ccs_base/arm/include/CMSIS/core_cm4.h")
    2204                            .dwattr $C$DW$168, DW_AT_decl_line(0x348)
    2205                            .dwattr $C$DW$168, DW_AT_decl_column(0x12)
    2206                    
    2207                    $C$DW$169       .dwtag  DW_TAG_member
    2208                            .dwattr $C$DW$169, DW_AT_type(*$C$DW$T$46)
    2209                            .dwattr $C$DW$169, DW_AT_name("CID2")
    2210                            .dwattr $C$DW$169, DW_AT_TI_symbol_name("CID2")
    2211                            .dwattr $C$DW$169, DW_AT_data_member_location[DW_OP_plus_uconst 0xff8]
    2212                            .dwattr $C$DW$169, DW_AT_accessibility(DW_ACCESS_public)
    2213                            .dwattr $C$DW$169, DW_AT_decl_file("C:/ti/ccs1200/ccs/ccs_base/arm/include/CMSIS/core_cm4.h")
    2214                            .dwattr $C$DW$169, DW_AT_decl_line(0x349)
    2215                            .dwattr $C$DW$169, DW_AT_decl_column(0x12)
    2216                    
    2217                    $C$DW$170       .dwtag  DW_TAG_member
    2218                            .dwattr $C$DW$170, DW_AT_type(*$C$DW$T$46)
    2219                            .dwattr $C$DW$170, DW_AT_name("CID3")
    2220                            .dwattr $C$DW$170, DW_AT_TI_symbol_name("CID3")
    2221                            .dwattr $C$DW$170, DW_AT_data_member_location[DW_OP_plus_uconst 0xffc]
    2222                            .dwattr $C$DW$170, DW_AT_accessibility(DW_ACCESS_public)
    2223                            .dwattr $C$DW$170, DW_AT_decl_file("C:/ti/ccs1200/ccs/ccs_base/arm/include/CMSIS/core_cm4.h")
    2224                            .dwattr $C$DW$170, DW_AT_decl_line(0x34a)
    2225                            .dwattr $C$DW$170, DW_AT_decl_column(0x12)
    2226                    
    2227                            .dwattr $C$DW$T$63, DW_AT_decl_file("C:/ti/ccs1200/ccs/ccs_base/arm/include/CMSIS/core_cm4.h")
    2228                            .dwattr $C$DW$T$63, DW_AT_decl_line(0x32a)
    2229                            .dwattr $C$DW$T$63, DW_AT_decl_column(0x01)
    2230                            .dwendtag $C$DW$T$63
    2231                    
    2232                    $C$DW$T$188     .dwtag  DW_TAG_typedef
    2233                            .dwattr $C$DW$T$188, DW_AT_name("ITM_Type")
    2234                            .dwattr $C$DW$T$188, DW_AT_type(*$C$DW$T$63)
    2235                            .dwattr $C$DW$T$188, DW_AT_language(DW_LANG_C)
    2236                            .dwattr $C$DW$T$188, DW_AT_decl_file("C:/ti/ccs1200/ccs/ccs_base/arm/include/CMSIS/core_cm4.h"
    2237                            .dwattr $C$DW$T$188, DW_AT_decl_line(0x34b)
    2238                            .dwattr $C$DW$T$188, DW_AT_decl_column(0x03)
    2239                    
    2240                    
    2241                    $C$DW$T$64      .dwtag  DW_TAG_structure_type
    2242                            .dwattr $C$DW$T$64, DW_AT_byte_size(0x5c)
    2243                    $C$DW$171       .dwtag  DW_TAG_member
    2244                            .dwattr $C$DW$171, DW_AT_type(*$C$DW$T$39)
TI ARM Assembler PC v20.2.6 Mon Oct 31 23:17:03 2022

Copyright (c) 1996-2018 Texas Instruments Incorporated
InputOutput.asm                                                      PAGE   42

    2245                            .dwattr $C$DW$171, DW_AT_name("CTRL")
    2246                            .dwattr $C$DW$171, DW_AT_TI_symbol_name("CTRL")
    2247                            .dwattr $C$DW$171, DW_AT_data_member_location[DW_OP_plus_uconst 0x0]
    2248                            .dwattr $C$DW$171, DW_AT_accessibility(DW_ACCESS_public)
    2249                            .dwattr $C$DW$171, DW_AT_decl_file("C:/ti/ccs1200/ccs/ccs_base/arm/include/CMSIS/core_cm4.h")
    2250                            .dwattr $C$DW$171, DW_AT_decl_line(0x392)
    2251                            .dwattr $C$DW$171, DW_AT_decl_column(0x12)
    2252                    
    2253                    $C$DW$172       .dwtag  DW_TAG_member
    2254                            .dwattr $C$DW$172, DW_AT_type(*$C$DW$T$39)
    2255                            .dwattr $C$DW$172, DW_AT_name("CYCCNT")
    2256                            .dwattr $C$DW$172, DW_AT_TI_symbol_name("CYCCNT")
    2257                            .dwattr $C$DW$172, DW_AT_data_member_location[DW_OP_plus_uconst 0x4]
    2258                            .dwattr $C$DW$172, DW_AT_accessibility(DW_ACCESS_public)
    2259                            .dwattr $C$DW$172, DW_AT_decl_file("C:/ti/ccs1200/ccs/ccs_base/arm/include/CMSIS/core_cm4.h")
    2260                            .dwattr $C$DW$172, DW_AT_decl_line(0x393)
    2261                            .dwattr $C$DW$172, DW_AT_decl_column(0x12)
    2262                    
    2263                    $C$DW$173       .dwtag  DW_TAG_member
    2264                            .dwattr $C$DW$173, DW_AT_type(*$C$DW$T$39)
    2265                            .dwattr $C$DW$173, DW_AT_name("CPICNT")
    2266                            .dwattr $C$DW$173, DW_AT_TI_symbol_name("CPICNT")
    2267                            .dwattr $C$DW$173, DW_AT_data_member_location[DW_OP_plus_uconst 0x8]
    2268                            .dwattr $C$DW$173, DW_AT_accessibility(DW_ACCESS_public)
    2269                            .dwattr $C$DW$173, DW_AT_decl_file("C:/ti/ccs1200/ccs/ccs_base/arm/include/CMSIS/core_cm4.h")
    2270                            .dwattr $C$DW$173, DW_AT_decl_line(0x394)
    2271                            .dwattr $C$DW$173, DW_AT_decl_column(0x12)
    2272                    
    2273                    $C$DW$174       .dwtag  DW_TAG_member
    2274                            .dwattr $C$DW$174, DW_AT_type(*$C$DW$T$39)
    2275                            .dwattr $C$DW$174, DW_AT_name("EXCCNT")
    2276                            .dwattr $C$DW$174, DW_AT_TI_symbol_name("EXCCNT")
    2277                            .dwattr $C$DW$174, DW_AT_data_member_location[DW_OP_plus_uconst 0xc]
    2278                            .dwattr $C$DW$174, DW_AT_accessibility(DW_ACCESS_public)
    2279                            .dwattr $C$DW$174, DW_AT_decl_file("C:/ti/ccs1200/ccs/ccs_base/arm/include/CMSIS/core_cm4.h")
    2280                            .dwattr $C$DW$174, DW_AT_decl_line(0x395)
    2281                            .dwattr $C$DW$174, DW_AT_decl_column(0x12)
    2282                    
    2283                    $C$DW$175       .dwtag  DW_TAG_member
    2284                            .dwattr $C$DW$175, DW_AT_type(*$C$DW$T$39)
    2285                            .dwattr $C$DW$175, DW_AT_name("SLEEPCNT")
    2286                            .dwattr $C$DW$175, DW_AT_TI_symbol_name("SLEEPCNT")
    2287                            .dwattr $C$DW$175, DW_AT_data_member_location[DW_OP_plus_uconst 0x10]
    2288                            .dwattr $C$DW$175, DW_AT_accessibility(DW_ACCESS_public)
    2289                            .dwattr $C$DW$175, DW_AT_decl_file("C:/ti/ccs1200/ccs/ccs_base/arm/include/CMSIS/core_cm4.h")
    2290                            .dwattr $C$DW$175, DW_AT_decl_line(0x396)
    2291                            .dwattr $C$DW$175, DW_AT_decl_column(0x12)
    2292                    
    2293                    $C$DW$176       .dwtag  DW_TAG_member
    2294                            .dwattr $C$DW$176, DW_AT_type(*$C$DW$T$39)
    2295                            .dwattr $C$DW$176, DW_AT_name("LSUCNT")
    2296                            .dwattr $C$DW$176, DW_AT_TI_symbol_name("LSUCNT")
    2297                            .dwattr $C$DW$176, DW_AT_data_member_location[DW_OP_plus_uconst 0x14]
    2298                            .dwattr $C$DW$176, DW_AT_accessibility(DW_ACCESS_public)
    2299                            .dwattr $C$DW$176, DW_AT_decl_file("C:/ti/ccs1200/ccs/ccs_base/arm/include/CMSIS/core_cm4.h")
TI ARM Assembler PC v20.2.6 Mon Oct 31 23:17:03 2022

Copyright (c) 1996-2018 Texas Instruments Incorporated
InputOutput.asm                                                      PAGE   43

    2300                            .dwattr $C$DW$176, DW_AT_decl_line(0x397)
    2301                            .dwattr $C$DW$176, DW_AT_decl_column(0x12)
    2302                    
    2303                    $C$DW$177       .dwtag  DW_TAG_member
    2304                            .dwattr $C$DW$177, DW_AT_type(*$C$DW$T$39)
    2305                            .dwattr $C$DW$177, DW_AT_name("FOLDCNT")
    2306                            .dwattr $C$DW$177, DW_AT_TI_symbol_name("FOLDCNT")
    2307                            .dwattr $C$DW$177, DW_AT_data_member_location[DW_OP_plus_uconst 0x18]
    2308                            .dwattr $C$DW$177, DW_AT_accessibility(DW_ACCESS_public)
    2309                            .dwattr $C$DW$177, DW_AT_decl_file("C:/ti/ccs1200/ccs/ccs_base/arm/include/CMSIS/core_cm4.h")
    2310                            .dwattr $C$DW$177, DW_AT_decl_line(0x398)
    2311                            .dwattr $C$DW$177, DW_AT_decl_column(0x12)
    2312                    
    2313                    $C$DW$178       .dwtag  DW_TAG_member
    2314                            .dwattr $C$DW$178, DW_AT_type(*$C$DW$T$46)
    2315                            .dwattr $C$DW$178, DW_AT_name("PCSR")
    2316                            .dwattr $C$DW$178, DW_AT_TI_symbol_name("PCSR")
    2317                            .dwattr $C$DW$178, DW_AT_data_member_location[DW_OP_plus_uconst 0x1c]
    2318                            .dwattr $C$DW$178, DW_AT_accessibility(DW_ACCESS_public)
    2319                            .dwattr $C$DW$178, DW_AT_decl_file("C:/ti/ccs1200/ccs/ccs_base/arm/include/CMSIS/core_cm4.h")
    2320                            .dwattr $C$DW$178, DW_AT_decl_line(0x399)
    2321                            .dwattr $C$DW$178, DW_AT_decl_column(0x12)
    2322                    
    2323                    $C$DW$179       .dwtag  DW_TAG_member
    2324                            .dwattr $C$DW$179, DW_AT_type(*$C$DW$T$39)
    2325                            .dwattr $C$DW$179, DW_AT_name("COMP0")
    2326                            .dwattr $C$DW$179, DW_AT_TI_symbol_name("COMP0")
    2327                            .dwattr $C$DW$179, DW_AT_data_member_location[DW_OP_plus_uconst 0x20]
    2328                            .dwattr $C$DW$179, DW_AT_accessibility(DW_ACCESS_public)
    2329                            .dwattr $C$DW$179, DW_AT_decl_file("C:/ti/ccs1200/ccs/ccs_base/arm/include/CMSIS/core_cm4.h")
    2330                            .dwattr $C$DW$179, DW_AT_decl_line(0x39a)
    2331                            .dwattr $C$DW$179, DW_AT_decl_column(0x12)
    2332                    
    2333                    $C$DW$180       .dwtag  DW_TAG_member
    2334                            .dwattr $C$DW$180, DW_AT_type(*$C$DW$T$39)
    2335                            .dwattr $C$DW$180, DW_AT_name("MASK0")
    2336                            .dwattr $C$DW$180, DW_AT_TI_symbol_name("MASK0")
    2337                            .dwattr $C$DW$180, DW_AT_data_member_location[DW_OP_plus_uconst 0x24]
    2338                            .dwattr $C$DW$180, DW_AT_accessibility(DW_ACCESS_public)
    2339                            .dwattr $C$DW$180, DW_AT_decl_file("C:/ti/ccs1200/ccs/ccs_base/arm/include/CMSIS/core_cm4.h")
    2340                            .dwattr $C$DW$180, DW_AT_decl_line(0x39b)
    2341                            .dwattr $C$DW$180, DW_AT_decl_column(0x12)
    2342                    
    2343                    $C$DW$181       .dwtag  DW_TAG_member
    2344                            .dwattr $C$DW$181, DW_AT_type(*$C$DW$T$39)
    2345                            .dwattr $C$DW$181, DW_AT_name("FUNCTION0")
    2346                            .dwattr $C$DW$181, DW_AT_TI_symbol_name("FUNCTION0")
    2347                            .dwattr $C$DW$181, DW_AT_data_member_location[DW_OP_plus_uconst 0x28]
    2348                            .dwattr $C$DW$181, DW_AT_accessibility(DW_ACCESS_public)
    2349                            .dwattr $C$DW$181, DW_AT_decl_file("C:/ti/ccs1200/ccs/ccs_base/arm/include/CMSIS/core_cm4.h")
    2350                            .dwattr $C$DW$181, DW_AT_decl_line(0x39c)
    2351                            .dwattr $C$DW$181, DW_AT_decl_column(0x12)
    2352                    
    2353                    $C$DW$182       .dwtag  DW_TAG_member
    2354                            .dwattr $C$DW$182, DW_AT_type(*$C$DW$T$53)
TI ARM Assembler PC v20.2.6 Mon Oct 31 23:17:03 2022

Copyright (c) 1996-2018 Texas Instruments Incorporated
InputOutput.asm                                                      PAGE   44

    2355                            .dwattr $C$DW$182, DW_AT_name("RESERVED0")
    2356                            .dwattr $C$DW$182, DW_AT_TI_symbol_name("RESERVED0")
    2357                            .dwattr $C$DW$182, DW_AT_data_member_location[DW_OP_plus_uconst 0x2c]
    2358                            .dwattr $C$DW$182, DW_AT_accessibility(DW_ACCESS_public)
    2359                            .dwattr $C$DW$182, DW_AT_decl_file("C:/ti/ccs1200/ccs/ccs_base/arm/include/CMSIS/core_cm4.h")
    2360                            .dwattr $C$DW$182, DW_AT_decl_line(0x39d)
    2361                            .dwattr $C$DW$182, DW_AT_decl_column(0x12)
    2362                    
    2363                    $C$DW$183       .dwtag  DW_TAG_member
    2364                            .dwattr $C$DW$183, DW_AT_type(*$C$DW$T$39)
    2365                            .dwattr $C$DW$183, DW_AT_name("COMP1")
    2366                            .dwattr $C$DW$183, DW_AT_TI_symbol_name("COMP1")
    2367                            .dwattr $C$DW$183, DW_AT_data_member_location[DW_OP_plus_uconst 0x30]
    2368                            .dwattr $C$DW$183, DW_AT_accessibility(DW_ACCESS_public)
    2369                            .dwattr $C$DW$183, DW_AT_decl_file("C:/ti/ccs1200/ccs/ccs_base/arm/include/CMSIS/core_cm4.h")
    2370                            .dwattr $C$DW$183, DW_AT_decl_line(0x39e)
    2371                            .dwattr $C$DW$183, DW_AT_decl_column(0x12)
    2372                    
    2373                    $C$DW$184       .dwtag  DW_TAG_member
    2374                            .dwattr $C$DW$184, DW_AT_type(*$C$DW$T$39)
    2375                            .dwattr $C$DW$184, DW_AT_name("MASK1")
    2376                            .dwattr $C$DW$184, DW_AT_TI_symbol_name("MASK1")
    2377                            .dwattr $C$DW$184, DW_AT_data_member_location[DW_OP_plus_uconst 0x34]
    2378                            .dwattr $C$DW$184, DW_AT_accessibility(DW_ACCESS_public)
    2379                            .dwattr $C$DW$184, DW_AT_decl_file("C:/ti/ccs1200/ccs/ccs_base/arm/include/CMSIS/core_cm4.h")
    2380                            .dwattr $C$DW$184, DW_AT_decl_line(0x39f)
    2381                            .dwattr $C$DW$184, DW_AT_decl_column(0x12)
    2382                    
    2383                    $C$DW$185       .dwtag  DW_TAG_member
    2384                            .dwattr $C$DW$185, DW_AT_type(*$C$DW$T$39)
    2385                            .dwattr $C$DW$185, DW_AT_name("FUNCTION1")
    2386                            .dwattr $C$DW$185, DW_AT_TI_symbol_name("FUNCTION1")
    2387                            .dwattr $C$DW$185, DW_AT_data_member_location[DW_OP_plus_uconst 0x38]
    2388                            .dwattr $C$DW$185, DW_AT_accessibility(DW_ACCESS_public)
    2389                            .dwattr $C$DW$185, DW_AT_decl_file("C:/ti/ccs1200/ccs/ccs_base/arm/include/CMSIS/core_cm4.h")
    2390                            .dwattr $C$DW$185, DW_AT_decl_line(0x3a0)
    2391                            .dwattr $C$DW$185, DW_AT_decl_column(0x12)
    2392                    
    2393                    $C$DW$186       .dwtag  DW_TAG_member
    2394                            .dwattr $C$DW$186, DW_AT_type(*$C$DW$T$53)
    2395                            .dwattr $C$DW$186, DW_AT_name("RESERVED1")
    2396                            .dwattr $C$DW$186, DW_AT_TI_symbol_name("RESERVED1")
    2397                            .dwattr $C$DW$186, DW_AT_data_member_location[DW_OP_plus_uconst 0x3c]
    2398                            .dwattr $C$DW$186, DW_AT_accessibility(DW_ACCESS_public)
    2399                            .dwattr $C$DW$186, DW_AT_decl_file("C:/ti/ccs1200/ccs/ccs_base/arm/include/CMSIS/core_cm4.h")
    2400                            .dwattr $C$DW$186, DW_AT_decl_line(0x3a1)
    2401                            .dwattr $C$DW$186, DW_AT_decl_column(0x12)
    2402                    
    2403                    $C$DW$187       .dwtag  DW_TAG_member
    2404                            .dwattr $C$DW$187, DW_AT_type(*$C$DW$T$39)
    2405                            .dwattr $C$DW$187, DW_AT_name("COMP2")
    2406                            .dwattr $C$DW$187, DW_AT_TI_symbol_name("COMP2")
    2407                            .dwattr $C$DW$187, DW_AT_data_member_location[DW_OP_plus_uconst 0x40]
    2408                            .dwattr $C$DW$187, DW_AT_accessibility(DW_ACCESS_public)
    2409                            .dwattr $C$DW$187, DW_AT_decl_file("C:/ti/ccs1200/ccs/ccs_base/arm/include/CMSIS/core_cm4.h")
TI ARM Assembler PC v20.2.6 Mon Oct 31 23:17:03 2022

Copyright (c) 1996-2018 Texas Instruments Incorporated
InputOutput.asm                                                      PAGE   45

    2410                            .dwattr $C$DW$187, DW_AT_decl_line(0x3a2)
    2411                            .dwattr $C$DW$187, DW_AT_decl_column(0x12)
    2412                    
    2413                    $C$DW$188       .dwtag  DW_TAG_member
    2414                            .dwattr $C$DW$188, DW_AT_type(*$C$DW$T$39)
    2415                            .dwattr $C$DW$188, DW_AT_name("MASK2")
    2416                            .dwattr $C$DW$188, DW_AT_TI_symbol_name("MASK2")
    2417                            .dwattr $C$DW$188, DW_AT_data_member_location[DW_OP_plus_uconst 0x44]
    2418                            .dwattr $C$DW$188, DW_AT_accessibility(DW_ACCESS_public)
    2419                            .dwattr $C$DW$188, DW_AT_decl_file("C:/ti/ccs1200/ccs/ccs_base/arm/include/CMSIS/core_cm4.h")
    2420                            .dwattr $C$DW$188, DW_AT_decl_line(0x3a3)
    2421                            .dwattr $C$DW$188, DW_AT_decl_column(0x12)
    2422                    
    2423                    $C$DW$189       .dwtag  DW_TAG_member
    2424                            .dwattr $C$DW$189, DW_AT_type(*$C$DW$T$39)
    2425                            .dwattr $C$DW$189, DW_AT_name("FUNCTION2")
    2426                            .dwattr $C$DW$189, DW_AT_TI_symbol_name("FUNCTION2")
    2427                            .dwattr $C$DW$189, DW_AT_data_member_location[DW_OP_plus_uconst 0x48]
    2428                            .dwattr $C$DW$189, DW_AT_accessibility(DW_ACCESS_public)
    2429                            .dwattr $C$DW$189, DW_AT_decl_file("C:/ti/ccs1200/ccs/ccs_base/arm/include/CMSIS/core_cm4.h")
    2430                            .dwattr $C$DW$189, DW_AT_decl_line(0x3a4)
    2431                            .dwattr $C$DW$189, DW_AT_decl_column(0x12)
    2432                    
    2433                    $C$DW$190       .dwtag  DW_TAG_member
    2434                            .dwattr $C$DW$190, DW_AT_type(*$C$DW$T$53)
    2435                            .dwattr $C$DW$190, DW_AT_name("RESERVED2")
    2436                            .dwattr $C$DW$190, DW_AT_TI_symbol_name("RESERVED2")
    2437                            .dwattr $C$DW$190, DW_AT_data_member_location[DW_OP_plus_uconst 0x4c]
    2438                            .dwattr $C$DW$190, DW_AT_accessibility(DW_ACCESS_public)
    2439                            .dwattr $C$DW$190, DW_AT_decl_file("C:/ti/ccs1200/ccs/ccs_base/arm/include/CMSIS/core_cm4.h")
    2440                            .dwattr $C$DW$190, DW_AT_decl_line(0x3a5)
    2441                            .dwattr $C$DW$190, DW_AT_decl_column(0x12)
    2442                    
    2443                    $C$DW$191       .dwtag  DW_TAG_member
    2444                            .dwattr $C$DW$191, DW_AT_type(*$C$DW$T$39)
    2445                            .dwattr $C$DW$191, DW_AT_name("COMP3")
    2446                            .dwattr $C$DW$191, DW_AT_TI_symbol_name("COMP3")
    2447                            .dwattr $C$DW$191, DW_AT_data_member_location[DW_OP_plus_uconst 0x50]
    2448                            .dwattr $C$DW$191, DW_AT_accessibility(DW_ACCESS_public)
    2449                            .dwattr $C$DW$191, DW_AT_decl_file("C:/ti/ccs1200/ccs/ccs_base/arm/include/CMSIS/core_cm4.h")
    2450                            .dwattr $C$DW$191, DW_AT_decl_line(0x3a6)
    2451                            .dwattr $C$DW$191, DW_AT_decl_column(0x12)
    2452                    
    2453                    $C$DW$192       .dwtag  DW_TAG_member
    2454                            .dwattr $C$DW$192, DW_AT_type(*$C$DW$T$39)
    2455                            .dwattr $C$DW$192, DW_AT_name("MASK3")
    2456                            .dwattr $C$DW$192, DW_AT_TI_symbol_name("MASK3")
    2457                            .dwattr $C$DW$192, DW_AT_data_member_location[DW_OP_plus_uconst 0x54]
    2458                            .dwattr $C$DW$192, DW_AT_accessibility(DW_ACCESS_public)
    2459                            .dwattr $C$DW$192, DW_AT_decl_file("C:/ti/ccs1200/ccs/ccs_base/arm/include/CMSIS/core_cm4.h")
    2460                            .dwattr $C$DW$192, DW_AT_decl_line(0x3a7)
    2461                            .dwattr $C$DW$192, DW_AT_decl_column(0x12)
    2462                    
    2463                    $C$DW$193       .dwtag  DW_TAG_member
    2464                            .dwattr $C$DW$193, DW_AT_type(*$C$DW$T$39)
TI ARM Assembler PC v20.2.6 Mon Oct 31 23:17:03 2022

Copyright (c) 1996-2018 Texas Instruments Incorporated
InputOutput.asm                                                      PAGE   46

    2465                            .dwattr $C$DW$193, DW_AT_name("FUNCTION3")
    2466                            .dwattr $C$DW$193, DW_AT_TI_symbol_name("FUNCTION3")
    2467                            .dwattr $C$DW$193, DW_AT_data_member_location[DW_OP_plus_uconst 0x58]
    2468                            .dwattr $C$DW$193, DW_AT_accessibility(DW_ACCESS_public)
    2469                            .dwattr $C$DW$193, DW_AT_decl_file("C:/ti/ccs1200/ccs/ccs_base/arm/include/CMSIS/core_cm4.h")
    2470                            .dwattr $C$DW$193, DW_AT_decl_line(0x3a8)
    2471                            .dwattr $C$DW$193, DW_AT_decl_column(0x12)
    2472                    
    2473                            .dwattr $C$DW$T$64, DW_AT_decl_file("C:/ti/ccs1200/ccs/ccs_base/arm/include/CMSIS/core_cm4.h")
    2474                            .dwattr $C$DW$T$64, DW_AT_decl_line(0x391)
    2475                            .dwattr $C$DW$T$64, DW_AT_decl_column(0x01)
    2476                            .dwendtag $C$DW$T$64
    2477                    
    2478                    $C$DW$T$189     .dwtag  DW_TAG_typedef
    2479                            .dwattr $C$DW$T$189, DW_AT_name("DWT_Type")
    2480                            .dwattr $C$DW$T$189, DW_AT_type(*$C$DW$T$64)
    2481                            .dwattr $C$DW$T$189, DW_AT_language(DW_LANG_C)
    2482                            .dwattr $C$DW$T$189, DW_AT_decl_file("C:/ti/ccs1200/ccs/ccs_base/arm/include/CMSIS/core_cm4.h"
    2483                            .dwattr $C$DW$T$189, DW_AT_decl_line(0x3a9)
    2484                            .dwattr $C$DW$T$189, DW_AT_decl_column(0x03)
    2485                    
    2486                    
    2487                    $C$DW$T$71      .dwtag  DW_TAG_structure_type
    2488                            .dwattr $C$DW$T$71, DW_AT_byte_size(0xfd0)
    2489                    $C$DW$194       .dwtag  DW_TAG_member
    2490                            .dwattr $C$DW$194, DW_AT_type(*$C$DW$T$39)
    2491                            .dwattr $C$DW$194, DW_AT_name("SSPSR")
    2492                            .dwattr $C$DW$194, DW_AT_TI_symbol_name("SSPSR")
    2493                            .dwattr $C$DW$194, DW_AT_data_member_location[DW_OP_plus_uconst 0x0]
    2494                            .dwattr $C$DW$194, DW_AT_accessibility(DW_ACCESS_public)
    2495                            .dwattr $C$DW$194, DW_AT_decl_file("C:/ti/ccs1200/ccs/ccs_base/arm/include/CMSIS/core_cm4.h")
    2496                            .dwattr $C$DW$194, DW_AT_decl_line(0x425)
    2497                            .dwattr $C$DW$194, DW_AT_decl_column(0x12)
    2498                    
    2499                    $C$DW$195       .dwtag  DW_TAG_member
    2500                            .dwattr $C$DW$195, DW_AT_type(*$C$DW$T$39)
    2501                            .dwattr $C$DW$195, DW_AT_name("CSPSR")
    2502                            .dwattr $C$DW$195, DW_AT_TI_symbol_name("CSPSR")
    2503                            .dwattr $C$DW$195, DW_AT_data_member_location[DW_OP_plus_uconst 0x4]
    2504                            .dwattr $C$DW$195, DW_AT_accessibility(DW_ACCESS_public)
    2505                            .dwattr $C$DW$195, DW_AT_decl_file("C:/ti/ccs1200/ccs/ccs_base/arm/include/CMSIS/core_cm4.h")
    2506                            .dwattr $C$DW$195, DW_AT_decl_line(0x426)
    2507                            .dwattr $C$DW$195, DW_AT_decl_column(0x12)
    2508                    
    2509                    $C$DW$196       .dwtag  DW_TAG_member
    2510                            .dwattr $C$DW$196, DW_AT_type(*$C$DW$T$65)
    2511                            .dwattr $C$DW$196, DW_AT_name("RESERVED0")
    2512                            .dwattr $C$DW$196, DW_AT_TI_symbol_name("RESERVED0")
    2513                            .dwattr $C$DW$196, DW_AT_data_member_location[DW_OP_plus_uconst 0x8]
    2514                            .dwattr $C$DW$196, DW_AT_accessibility(DW_ACCESS_public)
    2515                            .dwattr $C$DW$196, DW_AT_decl_file("C:/ti/ccs1200/ccs/ccs_base/arm/include/CMSIS/core_cm4.h")
    2516                            .dwattr $C$DW$196, DW_AT_decl_line(0x427)
    2517                            .dwattr $C$DW$196, DW_AT_decl_column(0x12)
    2518                    
    2519                    $C$DW$197       .dwtag  DW_TAG_member
TI ARM Assembler PC v20.2.6 Mon Oct 31 23:17:03 2022

Copyright (c) 1996-2018 Texas Instruments Incorporated
InputOutput.asm                                                      PAGE   47

    2520                            .dwattr $C$DW$197, DW_AT_type(*$C$DW$T$39)
    2521                            .dwattr $C$DW$197, DW_AT_name("ACPR")
    2522                            .dwattr $C$DW$197, DW_AT_TI_symbol_name("ACPR")
    2523                            .dwattr $C$DW$197, DW_AT_data_member_location[DW_OP_plus_uconst 0x10]
    2524                            .dwattr $C$DW$197, DW_AT_accessibility(DW_ACCESS_public)
    2525                            .dwattr $C$DW$197, DW_AT_decl_file("C:/ti/ccs1200/ccs/ccs_base/arm/include/CMSIS/core_cm4.h")
    2526                            .dwattr $C$DW$197, DW_AT_decl_line(0x428)
    2527                            .dwattr $C$DW$197, DW_AT_decl_column(0x12)
    2528                    
    2529                    $C$DW$198       .dwtag  DW_TAG_member
    2530                            .dwattr $C$DW$198, DW_AT_type(*$C$DW$T$66)
    2531                            .dwattr $C$DW$198, DW_AT_name("RESERVED1")
    2532                            .dwattr $C$DW$198, DW_AT_TI_symbol_name("RESERVED1")
    2533                            .dwattr $C$DW$198, DW_AT_data_member_location[DW_OP_plus_uconst 0x14]
    2534                            .dwattr $C$DW$198, DW_AT_accessibility(DW_ACCESS_public)
    2535                            .dwattr $C$DW$198, DW_AT_decl_file("C:/ti/ccs1200/ccs/ccs_base/arm/include/CMSIS/core_cm4.h")
    2536                            .dwattr $C$DW$198, DW_AT_decl_line(0x429)
    2537                            .dwattr $C$DW$198, DW_AT_decl_column(0x12)
    2538                    
    2539                    $C$DW$199       .dwtag  DW_TAG_member
    2540                            .dwattr $C$DW$199, DW_AT_type(*$C$DW$T$39)
    2541                            .dwattr $C$DW$199, DW_AT_name("SPPR")
    2542                            .dwattr $C$DW$199, DW_AT_TI_symbol_name("SPPR")
    2543                            .dwattr $C$DW$199, DW_AT_data_member_location[DW_OP_plus_uconst 0xf0]
    2544                            .dwattr $C$DW$199, DW_AT_accessibility(DW_ACCESS_public)
    2545                            .dwattr $C$DW$199, DW_AT_decl_file("C:/ti/ccs1200/ccs/ccs_base/arm/include/CMSIS/core_cm4.h")
    2546                            .dwattr $C$DW$199, DW_AT_decl_line(0x42a)
    2547                            .dwattr $C$DW$199, DW_AT_decl_column(0x12)
    2548                    
    2549                    $C$DW$200       .dwtag  DW_TAG_member
    2550                            .dwattr $C$DW$200, DW_AT_type(*$C$DW$T$67)
    2551                            .dwattr $C$DW$200, DW_AT_name("RESERVED2")
    2552                            .dwattr $C$DW$200, DW_AT_TI_symbol_name("RESERVED2")
    2553                            .dwattr $C$DW$200, DW_AT_data_member_location[DW_OP_plus_uconst 0xf4]
    2554                            .dwattr $C$DW$200, DW_AT_accessibility(DW_ACCESS_public)
    2555                            .dwattr $C$DW$200, DW_AT_decl_file("C:/ti/ccs1200/ccs/ccs_base/arm/include/CMSIS/core_cm4.h")
    2556                            .dwattr $C$DW$200, DW_AT_decl_line(0x42b)
    2557                            .dwattr $C$DW$200, DW_AT_decl_column(0x12)
    2558                    
    2559                    $C$DW$201       .dwtag  DW_TAG_member
    2560                            .dwattr $C$DW$201, DW_AT_type(*$C$DW$T$46)
    2561                            .dwattr $C$DW$201, DW_AT_name("FFSR")
    2562                            .dwattr $C$DW$201, DW_AT_TI_symbol_name("FFSR")
    2563                            .dwattr $C$DW$201, DW_AT_data_member_location[DW_OP_plus_uconst 0x300]
    2564                            .dwattr $C$DW$201, DW_AT_accessibility(DW_ACCESS_public)
    2565                            .dwattr $C$DW$201, DW_AT_decl_file("C:/ti/ccs1200/ccs/ccs_base/arm/include/CMSIS/core_cm4.h")
    2566                            .dwattr $C$DW$201, DW_AT_decl_line(0x42c)
    2567                            .dwattr $C$DW$201, DW_AT_decl_column(0x12)
    2568                    
    2569                    $C$DW$202       .dwtag  DW_TAG_member
    2570                            .dwattr $C$DW$202, DW_AT_type(*$C$DW$T$39)
    2571                            .dwattr $C$DW$202, DW_AT_name("FFCR")
    2572                            .dwattr $C$DW$202, DW_AT_TI_symbol_name("FFCR")
    2573                            .dwattr $C$DW$202, DW_AT_data_member_location[DW_OP_plus_uconst 0x304]
    2574                            .dwattr $C$DW$202, DW_AT_accessibility(DW_ACCESS_public)
TI ARM Assembler PC v20.2.6 Mon Oct 31 23:17:03 2022

Copyright (c) 1996-2018 Texas Instruments Incorporated
InputOutput.asm                                                      PAGE   48

    2575                            .dwattr $C$DW$202, DW_AT_decl_file("C:/ti/ccs1200/ccs/ccs_base/arm/include/CMSIS/core_cm4.h")
    2576                            .dwattr $C$DW$202, DW_AT_decl_line(0x42d)
    2577                            .dwattr $C$DW$202, DW_AT_decl_column(0x12)
    2578                    
    2579                    $C$DW$203       .dwtag  DW_TAG_member
    2580                            .dwattr $C$DW$203, DW_AT_type(*$C$DW$T$46)
    2581                            .dwattr $C$DW$203, DW_AT_name("FSCR")
    2582                            .dwattr $C$DW$203, DW_AT_TI_symbol_name("FSCR")
    2583                            .dwattr $C$DW$203, DW_AT_data_member_location[DW_OP_plus_uconst 0x308]
    2584                            .dwattr $C$DW$203, DW_AT_accessibility(DW_ACCESS_public)
    2585                            .dwattr $C$DW$203, DW_AT_decl_file("C:/ti/ccs1200/ccs/ccs_base/arm/include/CMSIS/core_cm4.h")
    2586                            .dwattr $C$DW$203, DW_AT_decl_line(0x42e)
    2587                            .dwattr $C$DW$203, DW_AT_decl_column(0x12)
    2588                    
    2589                    $C$DW$204       .dwtag  DW_TAG_member
    2590                            .dwattr $C$DW$204, DW_AT_type(*$C$DW$T$68)
    2591                            .dwattr $C$DW$204, DW_AT_name("RESERVED3")
    2592                            .dwattr $C$DW$204, DW_AT_TI_symbol_name("RESERVED3")
    2593                            .dwattr $C$DW$204, DW_AT_data_member_location[DW_OP_plus_uconst 0x30c]
    2594                            .dwattr $C$DW$204, DW_AT_accessibility(DW_ACCESS_public)
    2595                            .dwattr $C$DW$204, DW_AT_decl_file("C:/ti/ccs1200/ccs/ccs_base/arm/include/CMSIS/core_cm4.h")
    2596                            .dwattr $C$DW$204, DW_AT_decl_line(0x42f)
    2597                            .dwattr $C$DW$204, DW_AT_decl_column(0x12)
    2598                    
    2599                    $C$DW$205       .dwtag  DW_TAG_member
    2600                            .dwattr $C$DW$205, DW_AT_type(*$C$DW$T$46)
    2601                            .dwattr $C$DW$205, DW_AT_name("TRIGGER")
    2602                            .dwattr $C$DW$205, DW_AT_TI_symbol_name("TRIGGER")
    2603                            .dwattr $C$DW$205, DW_AT_data_member_location[DW_OP_plus_uconst 0xee8]
    2604                            .dwattr $C$DW$205, DW_AT_accessibility(DW_ACCESS_public)
    2605                            .dwattr $C$DW$205, DW_AT_decl_file("C:/ti/ccs1200/ccs/ccs_base/arm/include/CMSIS/core_cm4.h")
    2606                            .dwattr $C$DW$205, DW_AT_decl_line(0x430)
    2607                            .dwattr $C$DW$205, DW_AT_decl_column(0x12)
    2608                    
    2609                    $C$DW$206       .dwtag  DW_TAG_member
    2610                            .dwattr $C$DW$206, DW_AT_type(*$C$DW$T$46)
    2611                            .dwattr $C$DW$206, DW_AT_name("FIFO0")
    2612                            .dwattr $C$DW$206, DW_AT_TI_symbol_name("FIFO0")
    2613                            .dwattr $C$DW$206, DW_AT_data_member_location[DW_OP_plus_uconst 0xeec]
    2614                            .dwattr $C$DW$206, DW_AT_accessibility(DW_ACCESS_public)
    2615                            .dwattr $C$DW$206, DW_AT_decl_file("C:/ti/ccs1200/ccs/ccs_base/arm/include/CMSIS/core_cm4.h")
    2616                            .dwattr $C$DW$206, DW_AT_decl_line(0x431)
    2617                            .dwattr $C$DW$206, DW_AT_decl_column(0x12)
    2618                    
    2619                    $C$DW$207       .dwtag  DW_TAG_member
    2620                            .dwattr $C$DW$207, DW_AT_type(*$C$DW$T$46)
    2621                            .dwattr $C$DW$207, DW_AT_name("ITATBCTR2")
    2622                            .dwattr $C$DW$207, DW_AT_TI_symbol_name("ITATBCTR2")
    2623                            .dwattr $C$DW$207, DW_AT_data_member_location[DW_OP_plus_uconst 0xef0]
    2624                            .dwattr $C$DW$207, DW_AT_accessibility(DW_ACCESS_public)
    2625                            .dwattr $C$DW$207, DW_AT_decl_file("C:/ti/ccs1200/ccs/ccs_base/arm/include/CMSIS/core_cm4.h")
    2626                            .dwattr $C$DW$207, DW_AT_decl_line(0x432)
    2627                            .dwattr $C$DW$207, DW_AT_decl_column(0x12)
    2628                    
    2629                    $C$DW$208       .dwtag  DW_TAG_member
TI ARM Assembler PC v20.2.6 Mon Oct 31 23:17:03 2022

Copyright (c) 1996-2018 Texas Instruments Incorporated
InputOutput.asm                                                      PAGE   49

    2630                            .dwattr $C$DW$208, DW_AT_type(*$C$DW$T$53)
    2631                            .dwattr $C$DW$208, DW_AT_name("RESERVED4")
    2632                            .dwattr $C$DW$208, DW_AT_TI_symbol_name("RESERVED4")
    2633                            .dwattr $C$DW$208, DW_AT_data_member_location[DW_OP_plus_uconst 0xef4]
    2634                            .dwattr $C$DW$208, DW_AT_accessibility(DW_ACCESS_public)
    2635                            .dwattr $C$DW$208, DW_AT_decl_file("C:/ti/ccs1200/ccs/ccs_base/arm/include/CMSIS/core_cm4.h")
    2636                            .dwattr $C$DW$208, DW_AT_decl_line(0x433)
    2637                            .dwattr $C$DW$208, DW_AT_decl_column(0x12)
    2638                    
    2639                    $C$DW$209       .dwtag  DW_TAG_member
    2640                            .dwattr $C$DW$209, DW_AT_type(*$C$DW$T$46)
    2641                            .dwattr $C$DW$209, DW_AT_name("ITATBCTR0")
    2642                            .dwattr $C$DW$209, DW_AT_TI_symbol_name("ITATBCTR0")
    2643                            .dwattr $C$DW$209, DW_AT_data_member_location[DW_OP_plus_uconst 0xef8]
    2644                            .dwattr $C$DW$209, DW_AT_accessibility(DW_ACCESS_public)
    2645                            .dwattr $C$DW$209, DW_AT_decl_file("C:/ti/ccs1200/ccs/ccs_base/arm/include/CMSIS/core_cm4.h")
    2646                            .dwattr $C$DW$209, DW_AT_decl_line(0x434)
    2647                            .dwattr $C$DW$209, DW_AT_decl_column(0x12)
    2648                    
    2649                    $C$DW$210       .dwtag  DW_TAG_member
    2650                            .dwattr $C$DW$210, DW_AT_type(*$C$DW$T$46)
    2651                            .dwattr $C$DW$210, DW_AT_name("FIFO1")
    2652                            .dwattr $C$DW$210, DW_AT_TI_symbol_name("FIFO1")
    2653                            .dwattr $C$DW$210, DW_AT_data_member_location[DW_OP_plus_uconst 0xefc]
    2654                            .dwattr $C$DW$210, DW_AT_accessibility(DW_ACCESS_public)
    2655                            .dwattr $C$DW$210, DW_AT_decl_file("C:/ti/ccs1200/ccs/ccs_base/arm/include/CMSIS/core_cm4.h")
    2656                            .dwattr $C$DW$210, DW_AT_decl_line(0x435)
    2657                            .dwattr $C$DW$210, DW_AT_decl_column(0x12)
    2658                    
    2659                    $C$DW$211       .dwtag  DW_TAG_member
    2660                            .dwattr $C$DW$211, DW_AT_type(*$C$DW$T$39)
    2661                            .dwattr $C$DW$211, DW_AT_name("ITCTRL")
    2662                            .dwattr $C$DW$211, DW_AT_TI_symbol_name("ITCTRL")
    2663                            .dwattr $C$DW$211, DW_AT_data_member_location[DW_OP_plus_uconst 0xf00]
    2664                            .dwattr $C$DW$211, DW_AT_accessibility(DW_ACCESS_public)
    2665                            .dwattr $C$DW$211, DW_AT_decl_file("C:/ti/ccs1200/ccs/ccs_base/arm/include/CMSIS/core_cm4.h")
    2666                            .dwattr $C$DW$211, DW_AT_decl_line(0x436)
    2667                            .dwattr $C$DW$211, DW_AT_decl_column(0x12)
    2668                    
    2669                    $C$DW$212       .dwtag  DW_TAG_member
    2670                            .dwattr $C$DW$212, DW_AT_type(*$C$DW$T$69)
    2671                            .dwattr $C$DW$212, DW_AT_name("RESERVED5")
    2672                            .dwattr $C$DW$212, DW_AT_TI_symbol_name("RESERVED5")
    2673                            .dwattr $C$DW$212, DW_AT_data_member_location[DW_OP_plus_uconst 0xf04]
    2674                            .dwattr $C$DW$212, DW_AT_accessibility(DW_ACCESS_public)
    2675                            .dwattr $C$DW$212, DW_AT_decl_file("C:/ti/ccs1200/ccs/ccs_base/arm/include/CMSIS/core_cm4.h")
    2676                            .dwattr $C$DW$212, DW_AT_decl_line(0x437)
    2677                            .dwattr $C$DW$212, DW_AT_decl_column(0x12)
    2678                    
    2679                    $C$DW$213       .dwtag  DW_TAG_member
    2680                            .dwattr $C$DW$213, DW_AT_type(*$C$DW$T$39)
    2681                            .dwattr $C$DW$213, DW_AT_name("CLAIMSET")
    2682                            .dwattr $C$DW$213, DW_AT_TI_symbol_name("CLAIMSET")
    2683                            .dwattr $C$DW$213, DW_AT_data_member_location[DW_OP_plus_uconst 0xfa0]
    2684                            .dwattr $C$DW$213, DW_AT_accessibility(DW_ACCESS_public)
TI ARM Assembler PC v20.2.6 Mon Oct 31 23:17:03 2022

Copyright (c) 1996-2018 Texas Instruments Incorporated
InputOutput.asm                                                      PAGE   50

    2685                            .dwattr $C$DW$213, DW_AT_decl_file("C:/ti/ccs1200/ccs/ccs_base/arm/include/CMSIS/core_cm4.h")
    2686                            .dwattr $C$DW$213, DW_AT_decl_line(0x438)
    2687                            .dwattr $C$DW$213, DW_AT_decl_column(0x12)
    2688                    
    2689                    $C$DW$214       .dwtag  DW_TAG_member
    2690                            .dwattr $C$DW$214, DW_AT_type(*$C$DW$T$39)
    2691                            .dwattr $C$DW$214, DW_AT_name("CLAIMCLR")
    2692                            .dwattr $C$DW$214, DW_AT_TI_symbol_name("CLAIMCLR")
    2693                            .dwattr $C$DW$214, DW_AT_data_member_location[DW_OP_plus_uconst 0xfa4]
    2694                            .dwattr $C$DW$214, DW_AT_accessibility(DW_ACCESS_public)
    2695                            .dwattr $C$DW$214, DW_AT_decl_file("C:/ti/ccs1200/ccs/ccs_base/arm/include/CMSIS/core_cm4.h")
    2696                            .dwattr $C$DW$214, DW_AT_decl_line(0x439)
    2697                            .dwattr $C$DW$214, DW_AT_decl_column(0x12)
    2698                    
    2699                    $C$DW$215       .dwtag  DW_TAG_member
    2700                            .dwattr $C$DW$215, DW_AT_type(*$C$DW$T$70)
    2701                            .dwattr $C$DW$215, DW_AT_name("RESERVED7")
    2702                            .dwattr $C$DW$215, DW_AT_TI_symbol_name("RESERVED7")
    2703                            .dwattr $C$DW$215, DW_AT_data_member_location[DW_OP_plus_uconst 0xfa8]
    2704                            .dwattr $C$DW$215, DW_AT_accessibility(DW_ACCESS_public)
    2705                            .dwattr $C$DW$215, DW_AT_decl_file("C:/ti/ccs1200/ccs/ccs_base/arm/include/CMSIS/core_cm4.h")
    2706                            .dwattr $C$DW$215, DW_AT_decl_line(0x43a)
    2707                            .dwattr $C$DW$215, DW_AT_decl_column(0x12)
    2708                    
    2709                    $C$DW$216       .dwtag  DW_TAG_member
    2710                            .dwattr $C$DW$216, DW_AT_type(*$C$DW$T$46)
    2711                            .dwattr $C$DW$216, DW_AT_name("DEVID")
    2712                            .dwattr $C$DW$216, DW_AT_TI_symbol_name("DEVID")
    2713                            .dwattr $C$DW$216, DW_AT_data_member_location[DW_OP_plus_uconst 0xfc8]
    2714                            .dwattr $C$DW$216, DW_AT_accessibility(DW_ACCESS_public)
    2715                            .dwattr $C$DW$216, DW_AT_decl_file("C:/ti/ccs1200/ccs/ccs_base/arm/include/CMSIS/core_cm4.h")
    2716                            .dwattr $C$DW$216, DW_AT_decl_line(0x43b)
    2717                            .dwattr $C$DW$216, DW_AT_decl_column(0x12)
    2718                    
    2719                    $C$DW$217       .dwtag  DW_TAG_member
    2720                            .dwattr $C$DW$217, DW_AT_type(*$C$DW$T$46)
    2721                            .dwattr $C$DW$217, DW_AT_name("DEVTYPE")
    2722                            .dwattr $C$DW$217, DW_AT_TI_symbol_name("DEVTYPE")
    2723                            .dwattr $C$DW$217, DW_AT_data_member_location[DW_OP_plus_uconst 0xfcc]
    2724                            .dwattr $C$DW$217, DW_AT_accessibility(DW_ACCESS_public)
    2725                            .dwattr $C$DW$217, DW_AT_decl_file("C:/ti/ccs1200/ccs/ccs_base/arm/include/CMSIS/core_cm4.h")
    2726                            .dwattr $C$DW$217, DW_AT_decl_line(0x43c)
    2727                            .dwattr $C$DW$217, DW_AT_decl_column(0x12)
    2728                    
    2729                            .dwattr $C$DW$T$71, DW_AT_decl_file("C:/ti/ccs1200/ccs/ccs_base/arm/include/CMSIS/core_cm4.h")
    2730                            .dwattr $C$DW$T$71, DW_AT_decl_line(0x424)
    2731                            .dwattr $C$DW$T$71, DW_AT_decl_column(0x01)
    2732                            .dwendtag $C$DW$T$71
    2733                    
    2734                    $C$DW$T$190     .dwtag  DW_TAG_typedef
    2735                            .dwattr $C$DW$T$190, DW_AT_name("TPI_Type")
    2736                            .dwattr $C$DW$T$190, DW_AT_type(*$C$DW$T$71)
    2737                            .dwattr $C$DW$T$190, DW_AT_language(DW_LANG_C)
    2738                            .dwattr $C$DW$T$190, DW_AT_decl_file("C:/ti/ccs1200/ccs/ccs_base/arm/include/CMSIS/core_cm4.h"
    2739                            .dwattr $C$DW$T$190, DW_AT_decl_line(0x43d)
TI ARM Assembler PC v20.2.6 Mon Oct 31 23:17:03 2022

Copyright (c) 1996-2018 Texas Instruments Incorporated
InputOutput.asm                                                      PAGE   51

    2740                            .dwattr $C$DW$T$190, DW_AT_decl_column(0x03)
    2741                    
    2742                    
    2743                    $C$DW$T$72      .dwtag  DW_TAG_structure_type
    2744                            .dwattr $C$DW$T$72, DW_AT_byte_size(0x2c)
    2745                    $C$DW$218       .dwtag  DW_TAG_member
    2746                            .dwattr $C$DW$218, DW_AT_type(*$C$DW$T$46)
    2747                            .dwattr $C$DW$218, DW_AT_name("TYPE")
    2748                            .dwattr $C$DW$218, DW_AT_TI_symbol_name("TYPE")
    2749                            .dwattr $C$DW$218, DW_AT_data_member_location[DW_OP_plus_uconst 0x0]
    2750                            .dwattr $C$DW$218, DW_AT_accessibility(DW_ACCESS_public)
    2751                            .dwattr $C$DW$218, DW_AT_decl_file("C:/ti/ccs1200/ccs/ccs_base/arm/include/CMSIS/core_cm4.h")
    2752                            .dwattr $C$DW$218, DW_AT_decl_line(0x4c1)
    2753                            .dwattr $C$DW$218, DW_AT_decl_column(0x12)
    2754                    
    2755                    $C$DW$219       .dwtag  DW_TAG_member
    2756                            .dwattr $C$DW$219, DW_AT_type(*$C$DW$T$39)
    2757                            .dwattr $C$DW$219, DW_AT_name("CTRL")
    2758                            .dwattr $C$DW$219, DW_AT_TI_symbol_name("CTRL")
    2759                            .dwattr $C$DW$219, DW_AT_data_member_location[DW_OP_plus_uconst 0x4]
    2760                            .dwattr $C$DW$219, DW_AT_accessibility(DW_ACCESS_public)
    2761                            .dwattr $C$DW$219, DW_AT_decl_file("C:/ti/ccs1200/ccs/ccs_base/arm/include/CMSIS/core_cm4.h")
    2762                            .dwattr $C$DW$219, DW_AT_decl_line(0x4c2)
    2763                            .dwattr $C$DW$219, DW_AT_decl_column(0x12)
    2764                    
    2765                    $C$DW$220       .dwtag  DW_TAG_member
    2766                            .dwattr $C$DW$220, DW_AT_type(*$C$DW$T$39)
    2767                            .dwattr $C$DW$220, DW_AT_name("RNR")
    2768                            .dwattr $C$DW$220, DW_AT_TI_symbol_name("RNR")
    2769                            .dwattr $C$DW$220, DW_AT_data_member_location[DW_OP_plus_uconst 0x8]
    2770                            .dwattr $C$DW$220, DW_AT_accessibility(DW_ACCESS_public)
    2771                            .dwattr $C$DW$220, DW_AT_decl_file("C:/ti/ccs1200/ccs/ccs_base/arm/include/CMSIS/core_cm4.h")
    2772                            .dwattr $C$DW$220, DW_AT_decl_line(0x4c3)
    2773                            .dwattr $C$DW$220, DW_AT_decl_column(0x12)
    2774                    
    2775                    $C$DW$221       .dwtag  DW_TAG_member
    2776                            .dwattr $C$DW$221, DW_AT_type(*$C$DW$T$39)
    2777                            .dwattr $C$DW$221, DW_AT_name("RBAR")
    2778                            .dwattr $C$DW$221, DW_AT_TI_symbol_name("RBAR")
    2779                            .dwattr $C$DW$221, DW_AT_data_member_location[DW_OP_plus_uconst 0xc]
    2780                            .dwattr $C$DW$221, DW_AT_accessibility(DW_ACCESS_public)
    2781                            .dwattr $C$DW$221, DW_AT_decl_file("C:/ti/ccs1200/ccs/ccs_base/arm/include/CMSIS/core_cm4.h")
    2782                            .dwattr $C$DW$221, DW_AT_decl_line(0x4c4)
    2783                            .dwattr $C$DW$221, DW_AT_decl_column(0x12)
    2784                    
    2785                    $C$DW$222       .dwtag  DW_TAG_member
    2786                            .dwattr $C$DW$222, DW_AT_type(*$C$DW$T$39)
    2787                            .dwattr $C$DW$222, DW_AT_name("RASR")
    2788                            .dwattr $C$DW$222, DW_AT_TI_symbol_name("RASR")
    2789                            .dwattr $C$DW$222, DW_AT_data_member_location[DW_OP_plus_uconst 0x10]
    2790                            .dwattr $C$DW$222, DW_AT_accessibility(DW_ACCESS_public)
    2791                            .dwattr $C$DW$222, DW_AT_decl_file("C:/ti/ccs1200/ccs/ccs_base/arm/include/CMSIS/core_cm4.h")
    2792                            .dwattr $C$DW$222, DW_AT_decl_line(0x4c5)
    2793                            .dwattr $C$DW$222, DW_AT_decl_column(0x12)
    2794                    
TI ARM Assembler PC v20.2.6 Mon Oct 31 23:17:03 2022

Copyright (c) 1996-2018 Texas Instruments Incorporated
InputOutput.asm                                                      PAGE   52

    2795                    $C$DW$223       .dwtag  DW_TAG_member
    2796                            .dwattr $C$DW$223, DW_AT_type(*$C$DW$T$39)
    2797                            .dwattr $C$DW$223, DW_AT_name("RBAR_A1")
    2798                            .dwattr $C$DW$223, DW_AT_TI_symbol_name("RBAR_A1")
    2799                            .dwattr $C$DW$223, DW_AT_data_member_location[DW_OP_plus_uconst 0x14]
    2800                            .dwattr $C$DW$223, DW_AT_accessibility(DW_ACCESS_public)
    2801                            .dwattr $C$DW$223, DW_AT_decl_file("C:/ti/ccs1200/ccs/ccs_base/arm/include/CMSIS/core_cm4.h")
    2802                            .dwattr $C$DW$223, DW_AT_decl_line(0x4c6)
    2803                            .dwattr $C$DW$223, DW_AT_decl_column(0x12)
    2804                    
    2805                    $C$DW$224       .dwtag  DW_TAG_member
    2806                            .dwattr $C$DW$224, DW_AT_type(*$C$DW$T$39)
    2807                            .dwattr $C$DW$224, DW_AT_name("RASR_A1")
    2808                            .dwattr $C$DW$224, DW_AT_TI_symbol_name("RASR_A1")
    2809                            .dwattr $C$DW$224, DW_AT_data_member_location[DW_OP_plus_uconst 0x18]
    2810                            .dwattr $C$DW$224, DW_AT_accessibility(DW_ACCESS_public)
    2811                            .dwattr $C$DW$224, DW_AT_decl_file("C:/ti/ccs1200/ccs/ccs_base/arm/include/CMSIS/core_cm4.h")
    2812                            .dwattr $C$DW$224, DW_AT_decl_line(0x4c7)
    2813                            .dwattr $C$DW$224, DW_AT_decl_column(0x12)
    2814                    
    2815                    $C$DW$225       .dwtag  DW_TAG_member
    2816                            .dwattr $C$DW$225, DW_AT_type(*$C$DW$T$39)
    2817                            .dwattr $C$DW$225, DW_AT_name("RBAR_A2")
    2818                            .dwattr $C$DW$225, DW_AT_TI_symbol_name("RBAR_A2")
    2819                            .dwattr $C$DW$225, DW_AT_data_member_location[DW_OP_plus_uconst 0x1c]
    2820                            .dwattr $C$DW$225, DW_AT_accessibility(DW_ACCESS_public)
    2821                            .dwattr $C$DW$225, DW_AT_decl_file("C:/ti/ccs1200/ccs/ccs_base/arm/include/CMSIS/core_cm4.h")
    2822                            .dwattr $C$DW$225, DW_AT_decl_line(0x4c8)
    2823                            .dwattr $C$DW$225, DW_AT_decl_column(0x12)
    2824                    
    2825                    $C$DW$226       .dwtag  DW_TAG_member
    2826                            .dwattr $C$DW$226, DW_AT_type(*$C$DW$T$39)
    2827                            .dwattr $C$DW$226, DW_AT_name("RASR_A2")
    2828                            .dwattr $C$DW$226, DW_AT_TI_symbol_name("RASR_A2")
    2829                            .dwattr $C$DW$226, DW_AT_data_member_location[DW_OP_plus_uconst 0x20]
    2830                            .dwattr $C$DW$226, DW_AT_accessibility(DW_ACCESS_public)
    2831                            .dwattr $C$DW$226, DW_AT_decl_file("C:/ti/ccs1200/ccs/ccs_base/arm/include/CMSIS/core_cm4.h")
    2832                            .dwattr $C$DW$226, DW_AT_decl_line(0x4c9)
    2833                            .dwattr $C$DW$226, DW_AT_decl_column(0x12)
    2834                    
    2835                    $C$DW$227       .dwtag  DW_TAG_member
    2836                            .dwattr $C$DW$227, DW_AT_type(*$C$DW$T$39)
    2837                            .dwattr $C$DW$227, DW_AT_name("RBAR_A3")
    2838                            .dwattr $C$DW$227, DW_AT_TI_symbol_name("RBAR_A3")
    2839                            .dwattr $C$DW$227, DW_AT_data_member_location[DW_OP_plus_uconst 0x24]
    2840                            .dwattr $C$DW$227, DW_AT_accessibility(DW_ACCESS_public)
    2841                            .dwattr $C$DW$227, DW_AT_decl_file("C:/ti/ccs1200/ccs/ccs_base/arm/include/CMSIS/core_cm4.h")
    2842                            .dwattr $C$DW$227, DW_AT_decl_line(0x4ca)
    2843                            .dwattr $C$DW$227, DW_AT_decl_column(0x12)
    2844                    
    2845                    $C$DW$228       .dwtag  DW_TAG_member
    2846                            .dwattr $C$DW$228, DW_AT_type(*$C$DW$T$39)
    2847                            .dwattr $C$DW$228, DW_AT_name("RASR_A3")
    2848                            .dwattr $C$DW$228, DW_AT_TI_symbol_name("RASR_A3")
    2849                            .dwattr $C$DW$228, DW_AT_data_member_location[DW_OP_plus_uconst 0x28]
TI ARM Assembler PC v20.2.6 Mon Oct 31 23:17:03 2022

Copyright (c) 1996-2018 Texas Instruments Incorporated
InputOutput.asm                                                      PAGE   53

    2850                            .dwattr $C$DW$228, DW_AT_accessibility(DW_ACCESS_public)
    2851                            .dwattr $C$DW$228, DW_AT_decl_file("C:/ti/ccs1200/ccs/ccs_base/arm/include/CMSIS/core_cm4.h")
    2852                            .dwattr $C$DW$228, DW_AT_decl_line(0x4cb)
    2853                            .dwattr $C$DW$228, DW_AT_decl_column(0x12)
    2854                    
    2855                            .dwattr $C$DW$T$72, DW_AT_decl_file("C:/ti/ccs1200/ccs/ccs_base/arm/include/CMSIS/core_cm4.h")
    2856                            .dwattr $C$DW$T$72, DW_AT_decl_line(0x4c0)
    2857                            .dwattr $C$DW$T$72, DW_AT_decl_column(0x01)
    2858                            .dwendtag $C$DW$T$72
    2859                    
    2860                    $C$DW$T$191     .dwtag  DW_TAG_typedef
    2861                            .dwattr $C$DW$T$191, DW_AT_name("MPU_Type")
    2862                            .dwattr $C$DW$T$191, DW_AT_type(*$C$DW$T$72)
    2863                            .dwattr $C$DW$T$191, DW_AT_language(DW_LANG_C)
    2864                            .dwattr $C$DW$T$191, DW_AT_decl_file("C:/ti/ccs1200/ccs/ccs_base/arm/include/CMSIS/core_cm4.h"
    2865                            .dwattr $C$DW$T$191, DW_AT_decl_line(0x4cc)
    2866                            .dwattr $C$DW$T$191, DW_AT_decl_column(0x03)
    2867                    
    2868                    
    2869                    $C$DW$T$73      .dwtag  DW_TAG_structure_type
    2870                            .dwattr $C$DW$T$73, DW_AT_byte_size(0x18)
    2871                    $C$DW$229       .dwtag  DW_TAG_member
    2872                            .dwattr $C$DW$229, DW_AT_type(*$C$DW$T$53)
    2873                            .dwattr $C$DW$229, DW_AT_name("RESERVED0")
    2874                            .dwattr $C$DW$229, DW_AT_TI_symbol_name("RESERVED0")
    2875                            .dwattr $C$DW$229, DW_AT_data_member_location[DW_OP_plus_uconst 0x0]
    2876                            .dwattr $C$DW$229, DW_AT_accessibility(DW_ACCESS_public)
    2877                            .dwattr $C$DW$229, DW_AT_decl_file("C:/ti/ccs1200/ccs/ccs_base/arm/include/CMSIS/core_cm4.h")
    2878                            .dwattr $C$DW$229, DW_AT_decl_line(0x51f)
    2879                            .dwattr $C$DW$229, DW_AT_decl_column(0x12)
    2880                    
    2881                    $C$DW$230       .dwtag  DW_TAG_member
    2882                            .dwattr $C$DW$230, DW_AT_type(*$C$DW$T$39)
    2883                            .dwattr $C$DW$230, DW_AT_name("FPCCR")
    2884                            .dwattr $C$DW$230, DW_AT_TI_symbol_name("FPCCR")
    2885                            .dwattr $C$DW$230, DW_AT_data_member_location[DW_OP_plus_uconst 0x4]
    2886                            .dwattr $C$DW$230, DW_AT_accessibility(DW_ACCESS_public)
    2887                            .dwattr $C$DW$230, DW_AT_decl_file("C:/ti/ccs1200/ccs/ccs_base/arm/include/CMSIS/core_cm4.h")
    2888                            .dwattr $C$DW$230, DW_AT_decl_line(0x520)
    2889                            .dwattr $C$DW$230, DW_AT_decl_column(0x12)
    2890                    
    2891                    $C$DW$231       .dwtag  DW_TAG_member
    2892                            .dwattr $C$DW$231, DW_AT_type(*$C$DW$T$39)
    2893                            .dwattr $C$DW$231, DW_AT_name("FPCAR")
    2894                            .dwattr $C$DW$231, DW_AT_TI_symbol_name("FPCAR")
    2895                            .dwattr $C$DW$231, DW_AT_data_member_location[DW_OP_plus_uconst 0x8]
    2896                            .dwattr $C$DW$231, DW_AT_accessibility(DW_ACCESS_public)
    2897                            .dwattr $C$DW$231, DW_AT_decl_file("C:/ti/ccs1200/ccs/ccs_base/arm/include/CMSIS/core_cm4.h")
    2898                            .dwattr $C$DW$231, DW_AT_decl_line(0x521)
    2899                            .dwattr $C$DW$231, DW_AT_decl_column(0x12)
    2900                    
    2901                    $C$DW$232       .dwtag  DW_TAG_member
    2902                            .dwattr $C$DW$232, DW_AT_type(*$C$DW$T$39)
    2903                            .dwattr $C$DW$232, DW_AT_name("FPDSCR")
    2904                            .dwattr $C$DW$232, DW_AT_TI_symbol_name("FPDSCR")
TI ARM Assembler PC v20.2.6 Mon Oct 31 23:17:03 2022

Copyright (c) 1996-2018 Texas Instruments Incorporated
InputOutput.asm                                                      PAGE   54

    2905                            .dwattr $C$DW$232, DW_AT_data_member_location[DW_OP_plus_uconst 0xc]
    2906                            .dwattr $C$DW$232, DW_AT_accessibility(DW_ACCESS_public)
    2907                            .dwattr $C$DW$232, DW_AT_decl_file("C:/ti/ccs1200/ccs/ccs_base/arm/include/CMSIS/core_cm4.h")
    2908                            .dwattr $C$DW$232, DW_AT_decl_line(0x522)
    2909                            .dwattr $C$DW$232, DW_AT_decl_column(0x12)
    2910                    
    2911                    $C$DW$233       .dwtag  DW_TAG_member
    2912                            .dwattr $C$DW$233, DW_AT_type(*$C$DW$T$46)
    2913                            .dwattr $C$DW$233, DW_AT_name("MVFR0")
    2914                            .dwattr $C$DW$233, DW_AT_TI_symbol_name("MVFR0")
    2915                            .dwattr $C$DW$233, DW_AT_data_member_location[DW_OP_plus_uconst 0x10]
    2916                            .dwattr $C$DW$233, DW_AT_accessibility(DW_ACCESS_public)
    2917                            .dwattr $C$DW$233, DW_AT_decl_file("C:/ti/ccs1200/ccs/ccs_base/arm/include/CMSIS/core_cm4.h")
    2918                            .dwattr $C$DW$233, DW_AT_decl_line(0x523)
    2919                            .dwattr $C$DW$233, DW_AT_decl_column(0x12)
    2920                    
    2921                    $C$DW$234       .dwtag  DW_TAG_member
    2922                            .dwattr $C$DW$234, DW_AT_type(*$C$DW$T$46)
    2923                            .dwattr $C$DW$234, DW_AT_name("MVFR1")
    2924                            .dwattr $C$DW$234, DW_AT_TI_symbol_name("MVFR1")
    2925                            .dwattr $C$DW$234, DW_AT_data_member_location[DW_OP_plus_uconst 0x14]
    2926                            .dwattr $C$DW$234, DW_AT_accessibility(DW_ACCESS_public)
    2927                            .dwattr $C$DW$234, DW_AT_decl_file("C:/ti/ccs1200/ccs/ccs_base/arm/include/CMSIS/core_cm4.h")
